(dp1
S'tags'
p2
(dp3
S'type'
p4
S'list:reference db.tags'
p5
sS'sortable'
p6
I4
sS'sql'
p7
S'TEXT'
p8
ssS'link_image'
p9
(dp10
g4
S'upload'
p11
sg6
I5
sg7
S'CHAR(512)'
p12
ssS'link_url'
p13
(dp14
g4
S'string'
p15
sg6
I3
sg7
S'CHAR(512)'
p16
ssS'link_colour'
p17
(dp18
g4
g15
sg6
I6
sg7
S'CHAR(512)'
p19
ssS'link_name'
p20
(dp21
g4
g15
sg6
I2
sg7
S'CHAR(512)'
p22
ssS'id'
p23
(dp24
g4
S'id'
p25
sg6
I1
sg7
S'INTEGER PRIMARY KEY AUTOINCREMENT'
p26
ss.