(dp1
S'output'
p2
S''
sS'layer'
p3
S'/home/ian/web2py/applications/places/controllers/default.py'
p4
sS'code'
p5
S'# -*- coding: utf-8 -*-\n# this file is released under public domain and you can use without limitations\n\n#########################################################################\n## This is a samples controller\n## - index is the default action of any application\n## - user is required for authentication and authorization\n## - download is for downloading files uploaded in the db (does streaming)\n## - call exposes all registered services (none by default)\n#########################################################################\n\ndef index():\n    """\n    example action using the internationalization operator T and flash\n    rendered by views/default/index.html or views/generic.html\n    """   \n        \n    if request.vars.the_view:\n\t\tcurrent_view = request.vars.the_view    \n    else:\n        current_view = "webdev"\n    \n    current_row = db(db.tags.tag == current_view).select()    \n    current_tag = current_row[0].id\n            \n    links = db(db.links.tags.contains(current_tag)).select()\n    \n    return dict(links = links)\n\ndef user():\n    """\n    exposes:\n    http://..../[app]/default/user/login\n    http://..../[app]/default/user/logout\n    http://..../[app]/default/user/register\n    http://..../[app]/default/user/profile\n    http://..../[app]/default/user/retrieve_password\n    http://..../[app]/default/user/change_password\n    use @auth.requires_login()\n        @auth.requires_membership(\'group name\')\n        @auth.requires_permission(\'read\',\'table name\',record_id)\n    to decorate functions that need access control\n    """\n    return dict(form=auth())\n\n\ndef download():\n    """\n    allows downloading of uploaded files\n    http://..../[app]/default/download/[filename]\n    """\n    return response.download(request,db)\n\n\ndef call():\n    """\n    exposes services. for example:\n    http://..../[app]/default/call/jsonrpc\n    decorate with @services.jsonrpc the functions to expose\n    supports xml, json, xmlrpc, jsonrpc, amfrpc, rss, csv\n    """\n    return service()\n\n\n@auth.requires_signature()\ndef data():\n    """\n    http://..../[app]/default/data/tables\n    http://..../[app]/default/data/create/[table]\n    http://..../[app]/default/data/read/[table]/[id]\n    http://..../[app]/default/data/update/[table]/[id]\n    http://..../[app]/default/data/delete/[table]/[id]\n    http://..../[app]/default/data/select/[table]\n    http://..../[app]/default/data/search/[table]\n    but URLs bust be signed, i.e. linked with\n      A(\'table\',_href=URL(\'data/tables\',user_signature=True))\n    or with the signed load operator\n      LOAD(\'default\',\'data.load\',args=\'tables\',ajax=True,user_signature=True)\n    """\n    return dict(form=crud())\n\n#@auth.requires_membership(\'administrators\')\ndef edit():\n    form = crud.update(db.links, request.args[0])\n    return dict(form = form)\n\ndef create():\n\tif request.args and request.args[0] == \'close\':\n\t\tform = \'\'\n\t\tcloser = \'\'\n\t\tthe_title = \'\'\n\telse:\t\t\n\t\tform = crud.create(db.links)\n\t\tcloser = A(\'close\', _href=URL(\'create.load\'), args=[\'close\'], cid=\'modal_frame\')\n\t\tthe_title = H3(\'Link to a New Place\')\n    return dict(form = form, closer=closer, the_title=the_title)\n\nresponse._vars=response._caller(index)\n'
p6
sS'snapshot'
p7
(dp8
S'exception'
p9
(dp10
S'__getslice__'
p11
S"<method-wrapper '__getslice__' of exceptions.IndentationError object>"
p12
sS'text'
p13
S"'    return dict(form = form, closer=closer, the_title=the_title)\\n'"
p14
sS'__str__'
p15
S"<method-wrapper '__str__' of exceptions.IndentationError object>"
p16
sS'__reduce__'
p17
S'<built-in method __reduce__ of exceptions.IndentationError object>'
p18
sS'__dict__'
p19
S'{}'
p20
sS'__sizeof__'
p21
S'<built-in method __sizeof__ of exceptions.IndentationError object>'
p22
sS'__init__'
p23
S"<method-wrapper '__init__' of exceptions.IndentationError object>"
p24
sS'__setattr__'
p25
S"<method-wrapper '__setattr__' of exceptions.IndentationError object>"
p26
sS'__reduce_ex__'
p27
S'<built-in method __reduce_ex__ of exceptions.IndentationError object>'
p28
sS'__new__'
p29
S'<built-in method __new__ of type object>'
p30
sS'__format__'
p31
S'<built-in method __format__ of exceptions.IndentationError object>'
p32
sS'__class__'
p33
S"<type 'exceptions.IndentationError'>"
p34
sS'filename'
p35
S"'/home/ian/web2py/applications/places/controllers/default.py'"
p36
sS'lineno'
p37
S'96'
p38
sS'msg'
p39
S"'unindent does not match any outer indentation level'"
p40
sS'__doc__'
p41
S"'Improper indentation.'"
p42
sS'__getitem__'
p43
S"<method-wrapper '__getitem__' of exceptions.IndentationError object>"
p44
sS'__setstate__'
p45
S'<built-in method __setstate__ of exceptions.IndentationError object>'
p46
sS'__getattribute__'
p47
S"<method-wrapper '__getattribute__' of exceptions.IndentationError object>"
p48
sS'print_file_and_line'
p49
S'None'
p50
sS'args'
p51
S"('unindent does not match any outer indentation level', ('/home/ian/web2py/applications/places/controllers/default.py', 96, 65, '    return dict(form = form, closer=closer, the_title=the_title)\\n'))"
p52
sS'__subclasshook__'
p53
S'<built-in method __subclasshook__ of type object>'
p54
sS'offset'
p55
S'65'
p56
sS'__unicode__'
p57
S'<built-in method __unicode__ of exceptions.IndentationError object>'
p58
sS'__delattr__'
p59
S"<method-wrapper '__delattr__' of exceptions.IndentationError object>"
p60
sS'__repr__'
p61
S"<method-wrapper '__repr__' of exceptions.IndentationError object>"
p62
sS'__hash__'
p63
S"<method-wrapper '__hash__' of exceptions.IndentationError object>"
p64
ssS'evalue'
p65
S'unindent does not match any outer indentation level (default.py, line 96)'
p66
sS'request'
p67
ccopy_reg
_reconstructor
p68
(cgluon.html
BEAUTIFY
p69
c__builtin__
object
p70
NtRp71
(dp72
S'attributes'
p73
(dp74
sS'components'
p75
(lp76
g68
(cgluon.html
TABLE
p77
g70
NtRp78
(dp79
g73
(dp80
S'level'
p81
I5
ssS'parent'
p82
Nsg75
(lp83
g68
(cgluon.html
TR
p84
g70
NtRp85
(dp86
g73
(dp87
sg82
g78
sg75
(lp88
g68
(cgluon.html
TD
p89
g70
NtRp90
(dp91
g73
(dp92
S'_style'
p93
S'font-weight:bold;'
p94
ssg82
g85
sg75
(lp95
S'ajax'
p96
asbag68
(g89
g70
NtRp97
(dp98
g73
(dp99
S'_valign'
p100
S'top'
p101
ssg82
g85
sg75
(lp102
S':'
asbag68
(g89
g70
NtRp103
(dp104
g73
(dp105
sg82
g85
sg75
(lp106
g68
(g69
g70
NtRp107
(dp108
g73
(dp109
g81
I5
ssg82
g103
sg75
(lp110
S'False'
p111
asbasbasbag68
(g84
g70
NtRp112
(dp113
g73
(dp114
sg82
g78
sg75
(lp115
g68
(g89
g70
NtRp116
(dp117
g73
(dp118
g93
g94
ssg82
g112
sg75
(lp119
S'application'
p120
asbag68
(g89
g70
NtRp121
(dp122
g73
(dp123
g100
g101
ssg82
g112
sg75
(lp124
S':'
asbag68
(g89
g70
NtRp125
(dp126
g73
(dp127
sg82
g112
sg75
(lp128
g68
(g69
g70
NtRp129
(dp130
g73
(dp131
g81
I5
ssg82
g125
sg75
(lp132
S'places'
p133
asbasbasbag68
(g84
g70
NtRp134
(dp135
g73
(dp136
sg82
g78
sg75
(lp137
g68
(g89
g70
NtRp138
(dp139
g73
(dp140
g93
g94
ssg82
g134
sg75
(lp141
g51
asbag68
(g89
g70
NtRp142
(dp143
g73
(dp144
g100
g101
ssg82
g134
sg75
(lp145
S':'
asbag68
(g89
g70
NtRp146
(dp147
g73
(dp148
sg82
g134
sg75
(lp149
g68
(g69
g70
NtRp150
(dp151
g73
(dp152
g81
I5
ssg82
g146
sg75
(lp153
g68
(g77
g70
NtRp154
(dp155
g73
(dp156
g81
I4
ssg82
Nsg75
(lp157
sbasbasbasbag68
(g84
g70
NtRp158
(dp159
g73
(dp160
sg82
g78
sg75
(lp161
g68
(g89
g70
NtRp162
(dp163
g73
(dp164
g93
g94
ssg82
g158
sg75
(lp165
S'body'
p166
asbag68
(g89
g70
NtRp167
(dp168
g73
(dp169
g100
g101
ssg82
g158
sg75
(lp170
S':'
asbag68
(g89
g70
NtRp171
(dp172
g73
(dp173
sg82
g158
sg75
(lp174
g68
(g69
g70
NtRp175
(dp176
g73
(dp177
g81
I5
ssg82
g171
sg75
(lp178
S'<cStringIO.StringO object at 0x3202ed8>'
p179
asbasbasbag68
(g84
g70
NtRp180
(dp181
g73
(dp182
sg82
g78
sg75
(lp183
g68
(g89
g70
NtRp184
(dp185
g73
(dp186
g93
g94
ssg82
g180
sg75
(lp187
S'client'
p188
asbag68
(g89
g70
NtRp189
(dp190
g73
(dp191
g100
g101
ssg82
g180
sg75
(lp192
S':'
asbag68
(g89
g70
NtRp193
(dp194
g73
(dp195
sg82
g180
sg75
(lp196
g68
(g69
g70
NtRp197
(dp198
g73
(dp199
g81
I5
ssg82
g193
sg75
(lp200
S'127.0.0.1'
p201
asbasbasbag68
(g84
g70
NtRp202
(dp203
g73
(dp204
sg82
g78
sg75
(lp205
g68
(g89
g70
NtRp206
(dp207
g73
(dp208
g93
g94
ssg82
g202
sg75
(lp209
S'controller'
p210
asbag68
(g89
g70
NtRp211
(dp212
g73
(dp213
g100
g101
ssg82
g202
sg75
(lp214
S':'
asbag68
(g89
g70
NtRp215
(dp216
g73
(dp217
sg82
g202
sg75
(lp218
g68
(g69
g70
NtRp219
(dp220
g73
(dp221
g81
I5
ssg82
g215
sg75
(lp222
S'default'
p223
asbasbasbag68
(g84
g70
NtRp224
(dp225
g73
(dp226
sg82
g78
sg75
(lp227
g68
(g89
g70
NtRp228
(dp229
g73
(dp230
g93
g94
ssg82
g224
sg75
(lp231
S'cookies'
p232
asbag68
(g89
g70
NtRp233
(dp234
g73
(dp235
g100
g101
ssg82
g224
sg75
(lp236
S':'
asbag68
(g89
g70
NtRp237
(dp238
g73
(dp239
sg82
g224
sg75
(lp240
g68
(g69
g70
NtRp241
(dp242
g73
(dp243
g81
I5
ssg82
g237
sg75
(lp244
g68
(g77
g70
NtRp245
(dp246
g73
(dp247
g81
I4
ssg82
Nsg75
(lp248
g68
(g84
g70
NtRp249
(dp250
g73
(dp251
sg82
g245
sg75
(lp252
g68
(g89
g70
NtRp253
(dp254
g73
(dp255
g93
g94
ssg82
g249
sg75
(lp256
S'session_id_admin'
p257
asbag68
(g89
g70
NtRp258
(dp259
g73
(dp260
g100
g101
ssg82
g249
sg75
(lp261
S':'
asbag68
(g89
g70
NtRp262
(dp263
g73
(dp264
sg82
g249
sg75
(lp265
g68
(g69
g70
NtRp266
(dp267
g73
(dp268
g81
I4
ssg82
g262
sg75
(lp269
g68
(g77
g70
NtRp270
(dp271
g73
(dp272
g81
I3
ssg82
Nsg75
(lp273
g68
(g84
g70
NtRp274
(dp275
g73
(dp276
sg82
g270
sg75
(lp277
g68
(g89
g70
NtRp278
(dp279
g73
(dp280
g93
g94
ssg82
g274
sg75
(lp281
S'comment'
p282
asbag68
(g89
g70
NtRp283
(dp284
g73
(dp285
g100
g101
ssg82
g274
sg75
(lp286
S':'
asbag68
(g89
g70
NtRp287
(dp288
g73
(dp289
sg82
g274
sg75
(lp290
g68
(g69
g70
NtRp291
(dp292
g73
(dp293
g81
I3
ssg82
g287
sg75
(lp294
S''
asbasbasbag68
(g84
g70
NtRp295
(dp296
g73
(dp297
sg82
g270
sg75
(lp298
g68
(g89
g70
NtRp299
(dp300
g73
(dp301
g93
g94
ssg82
g295
sg75
(lp302
S'domain'
p303
asbag68
(g89
g70
NtRp304
(dp305
g73
(dp306
g100
g101
ssg82
g295
sg75
(lp307
S':'
asbag68
(g89
g70
NtRp308
(dp309
g73
(dp310
sg82
g295
sg75
(lp311
g68
(g69
g70
NtRp312
(dp313
g73
(dp314
g81
I3
ssg82
g308
sg75
(lp315
S''
asbasbasbag68
(g84
g70
NtRp316
(dp317
g73
(dp318
sg82
g270
sg75
(lp319
g68
(g89
g70
NtRp320
(dp321
g73
(dp322
g93
g94
ssg82
g316
sg75
(lp323
S'expires'
p324
asbag68
(g89
g70
NtRp325
(dp326
g73
(dp327
g100
g101
ssg82
g316
sg75
(lp328
S':'
asbag68
(g89
g70
NtRp329
(dp330
g73
(dp331
sg82
g316
sg75
(lp332
g68
(g69
g70
NtRp333
(dp334
g73
(dp335
g81
I3
ssg82
g329
sg75
(lp336
S''
asbasbasbag68
(g84
g70
NtRp337
(dp338
g73
(dp339
sg82
g270
sg75
(lp340
g68
(g89
g70
NtRp341
(dp342
g73
(dp343
g93
g94
ssg82
g337
sg75
(lp344
S'httponly'
p345
asbag68
(g89
g70
NtRp346
(dp347
g73
(dp348
g100
g101
ssg82
g337
sg75
(lp349
S':'
asbag68
(g89
g70
NtRp350
(dp351
g73
(dp352
sg82
g337
sg75
(lp353
g68
(g69
g70
NtRp354
(dp355
g73
(dp356
g81
I3
ssg82
g350
sg75
(lp357
S''
asbasbasbag68
(g84
g70
NtRp358
(dp359
g73
(dp360
sg82
g270
sg75
(lp361
g68
(g89
g70
NtRp362
(dp363
g73
(dp364
g93
g94
ssg82
g358
sg75
(lp365
S'max-age'
p366
asbag68
(g89
g70
NtRp367
(dp368
g73
(dp369
g100
g101
ssg82
g358
sg75
(lp370
S':'
asbag68
(g89
g70
NtRp371
(dp372
g73
(dp373
sg82
g358
sg75
(lp374
g68
(g69
g70
NtRp375
(dp376
g73
(dp377
g81
I3
ssg82
g371
sg75
(lp378
S''
asbasbasbag68
(g84
g70
NtRp379
(dp380
g73
(dp381
sg82
g270
sg75
(lp382
g68
(g89
g70
NtRp383
(dp384
g73
(dp385
g93
g94
ssg82
g379
sg75
(lp386
S'path'
p387
asbag68
(g89
g70
NtRp388
(dp389
g73
(dp390
g100
g101
ssg82
g379
sg75
(lp391
S':'
asbag68
(g89
g70
NtRp392
(dp393
g73
(dp394
sg82
g379
sg75
(lp395
g68
(g69
g70
NtRp396
(dp397
g73
(dp398
g81
I3
ssg82
g392
sg75
(lp399
S''
asbasbasbag68
(g84
g70
NtRp400
(dp401
g73
(dp402
sg82
g270
sg75
(lp403
g68
(g89
g70
NtRp404
(dp405
g73
(dp406
g93
g94
ssg82
g400
sg75
(lp407
S'secure'
p408
asbag68
(g89
g70
NtRp409
(dp410
g73
(dp411
g100
g101
ssg82
g400
sg75
(lp412
S':'
asbag68
(g89
g70
NtRp413
(dp414
g73
(dp415
sg82
g400
sg75
(lp416
g68
(g69
g70
NtRp417
(dp418
g73
(dp419
g81
I3
ssg82
g413
sg75
(lp420
S''
asbasbasbag68
(g84
g70
NtRp421
(dp422
g73
(dp423
sg82
g270
sg75
(lp424
g68
(g89
g70
NtRp425
(dp426
g73
(dp427
g93
g94
ssg82
g421
sg75
(lp428
S'version'
p429
asbag68
(g89
g70
NtRp430
(dp431
g73
(dp432
g100
g101
ssg82
g421
sg75
(lp433
S':'
asbag68
(g89
g70
NtRp434
(dp435
g73
(dp436
sg82
g421
sg75
(lp437
g68
(g69
g70
NtRp438
(dp439
g73
(dp440
g81
I3
ssg82
g434
sg75
(lp441
S''
asbasbasbasbasbasbasbag68
(g84
g70
NtRp442
(dp443
g73
(dp444
sg82
g245
sg75
(lp445
g68
(g89
g70
NtRp446
(dp447
g73
(dp448
g93
g94
ssg82
g442
sg75
(lp449
S'session_id_places'
p450
asbag68
(g89
g70
NtRp451
(dp452
g73
(dp453
g100
g101
ssg82
g442
sg75
(lp454
S':'
asbag68
(g89
g70
NtRp455
(dp456
g73
(dp457
sg82
g442
sg75
(lp458
g68
(g69
g70
NtRp459
(dp460
g73
(dp461
g81
I4
ssg82
g455
sg75
(lp462
g68
(g77
g70
NtRp463
(dp464
g73
(dp465
g81
I3
ssg82
Nsg75
(lp466
g68
(g84
g70
NtRp467
(dp468
g73
(dp469
sg82
g463
sg75
(lp470
g68
(g89
g70
NtRp471
(dp472
g73
(dp473
g93
g94
ssg82
g467
sg75
(lp474
g282
asbag68
(g89
g70
NtRp475
(dp476
g73
(dp477
g100
g101
ssg82
g467
sg75
(lp478
S':'
asbag68
(g89
g70
NtRp479
(dp480
g73
(dp481
sg82
g467
sg75
(lp482
g68
(g69
g70
NtRp483
(dp484
g73
(dp485
g81
I3
ssg82
g479
sg75
(lp486
S''
asbasbasbag68
(g84
g70
NtRp487
(dp488
g73
(dp489
sg82
g463
sg75
(lp490
g68
(g89
g70
NtRp491
(dp492
g73
(dp493
g93
g94
ssg82
g487
sg75
(lp494
g303
asbag68
(g89
g70
NtRp495
(dp496
g73
(dp497
g100
g101
ssg82
g487
sg75
(lp498
S':'
asbag68
(g89
g70
NtRp499
(dp500
g73
(dp501
sg82
g487
sg75
(lp502
g68
(g69
g70
NtRp503
(dp504
g73
(dp505
g81
I3
ssg82
g499
sg75
(lp506
S''
asbasbasbag68
(g84
g70
NtRp507
(dp508
g73
(dp509
sg82
g463
sg75
(lp510
g68
(g89
g70
NtRp511
(dp512
g73
(dp513
g93
g94
ssg82
g507
sg75
(lp514
g324
asbag68
(g89
g70
NtRp515
(dp516
g73
(dp517
g100
g101
ssg82
g507
sg75
(lp518
S':'
asbag68
(g89
g70
NtRp519
(dp520
g73
(dp521
sg82
g507
sg75
(lp522
g68
(g69
g70
NtRp523
(dp524
g73
(dp525
g81
I3
ssg82
g519
sg75
(lp526
S''
asbasbasbag68
(g84
g70
NtRp527
(dp528
g73
(dp529
sg82
g463
sg75
(lp530
g68
(g89
g70
NtRp531
(dp532
g73
(dp533
g93
g94
ssg82
g527
sg75
(lp534
g345
asbag68
(g89
g70
NtRp535
(dp536
g73
(dp537
g100
g101
ssg82
g527
sg75
(lp538
S':'
asbag68
(g89
g70
NtRp539
(dp540
g73
(dp541
sg82
g527
sg75
(lp542
g68
(g69
g70
NtRp543
(dp544
g73
(dp545
g81
I3
ssg82
g539
sg75
(lp546
S''
asbasbasbag68
(g84
g70
NtRp547
(dp548
g73
(dp549
sg82
g463
sg75
(lp550
g68
(g89
g70
NtRp551
(dp552
g73
(dp553
g93
g94
ssg82
g547
sg75
(lp554
g366
asbag68
(g89
g70
NtRp555
(dp556
g73
(dp557
g100
g101
ssg82
g547
sg75
(lp558
S':'
asbag68
(g89
g70
NtRp559
(dp560
g73
(dp561
sg82
g547
sg75
(lp562
g68
(g69
g70
NtRp563
(dp564
g73
(dp565
g81
I3
ssg82
g559
sg75
(lp566
S''
asbasbasbag68
(g84
g70
NtRp567
(dp568
g73
(dp569
sg82
g463
sg75
(lp570
g68
(g89
g70
NtRp571
(dp572
g73
(dp573
g93
g94
ssg82
g567
sg75
(lp574
g387
asbag68
(g89
g70
NtRp575
(dp576
g73
(dp577
g100
g101
ssg82
g567
sg75
(lp578
S':'
asbag68
(g89
g70
NtRp579
(dp580
g73
(dp581
sg82
g567
sg75
(lp582
g68
(g69
g70
NtRp583
(dp584
g73
(dp585
g81
I3
ssg82
g579
sg75
(lp586
S''
asbasbasbag68
(g84
g70
NtRp587
(dp588
g73
(dp589
sg82
g463
sg75
(lp590
g68
(g89
g70
NtRp591
(dp592
g73
(dp593
g93
g94
ssg82
g587
sg75
(lp594
g408
asbag68
(g89
g70
NtRp595
(dp596
g73
(dp597
g100
g101
ssg82
g587
sg75
(lp598
S':'
asbag68
(g89
g70
NtRp599
(dp600
g73
(dp601
sg82
g587
sg75
(lp602
g68
(g69
g70
NtRp603
(dp604
g73
(dp605
g81
I3
ssg82
g599
sg75
(lp606
S''
asbasbasbag68
(g84
g70
NtRp607
(dp608
g73
(dp609
sg82
g463
sg75
(lp610
g68
(g89
g70
NtRp611
(dp612
g73
(dp613
g93
g94
ssg82
g607
sg75
(lp614
g429
asbag68
(g89
g70
NtRp615
(dp616
g73
(dp617
g100
g101
ssg82
g607
sg75
(lp618
S':'
asbag68
(g89
g70
NtRp619
(dp620
g73
(dp621
sg82
g607
sg75
(lp622
g68
(g69
g70
NtRp623
(dp624
g73
(dp625
g81
I3
ssg82
g619
sg75
(lp626
S''
asbasbasbasbasbasbasbag68
(g84
g70
NtRp627
(dp628
g73
(dp629
sg82
g245
sg75
(lp630
g68
(g89
g70
NtRp631
(dp632
g73
(dp633
g93
g94
ssg82
g627
sg75
(lp634
S'session_id_welcome'
p635
asbag68
(g89
g70
NtRp636
(dp637
g73
(dp638
g100
g101
ssg82
g627
sg75
(lp639
S':'
asbag68
(g89
g70
NtRp640
(dp641
g73
(dp642
sg82
g627
sg75
(lp643
g68
(g69
g70
NtRp644
(dp645
g73
(dp646
g81
I4
ssg82
g640
sg75
(lp647
g68
(g77
g70
NtRp648
(dp649
g73
(dp650
g81
I3
ssg82
Nsg75
(lp651
g68
(g84
g70
NtRp652
(dp653
g73
(dp654
sg82
g648
sg75
(lp655
g68
(g89
g70
NtRp656
(dp657
g73
(dp658
g93
g94
ssg82
g652
sg75
(lp659
g282
asbag68
(g89
g70
NtRp660
(dp661
g73
(dp662
g100
g101
ssg82
g652
sg75
(lp663
S':'
asbag68
(g89
g70
NtRp664
(dp665
g73
(dp666
sg82
g652
sg75
(lp667
g68
(g69
g70
NtRp668
(dp669
g73
(dp670
g81
I3
ssg82
g664
sg75
(lp671
S''
asbasbasbag68
(g84
g70
NtRp672
(dp673
g73
(dp674
sg82
g648
sg75
(lp675
g68
(g89
g70
NtRp676
(dp677
g73
(dp678
g93
g94
ssg82
g672
sg75
(lp679
g303
asbag68
(g89
g70
NtRp680
(dp681
g73
(dp682
g100
g101
ssg82
g672
sg75
(lp683
S':'
asbag68
(g89
g70
NtRp684
(dp685
g73
(dp686
sg82
g672
sg75
(lp687
g68
(g69
g70
NtRp688
(dp689
g73
(dp690
g81
I3
ssg82
g684
sg75
(lp691
S''
asbasbasbag68
(g84
g70
NtRp692
(dp693
g73
(dp694
sg82
g648
sg75
(lp695
g68
(g89
g70
NtRp696
(dp697
g73
(dp698
g93
g94
ssg82
g692
sg75
(lp699
g324
asbag68
(g89
g70
NtRp700
(dp701
g73
(dp702
g100
g101
ssg82
g692
sg75
(lp703
S':'
asbag68
(g89
g70
NtRp704
(dp705
g73
(dp706
sg82
g692
sg75
(lp707
g68
(g69
g70
NtRp708
(dp709
g73
(dp710
g81
I3
ssg82
g704
sg75
(lp711
S''
asbasbasbag68
(g84
g70
NtRp712
(dp713
g73
(dp714
sg82
g648
sg75
(lp715
g68
(g89
g70
NtRp716
(dp717
g73
(dp718
g93
g94
ssg82
g712
sg75
(lp719
g345
asbag68
(g89
g70
NtRp720
(dp721
g73
(dp722
g100
g101
ssg82
g712
sg75
(lp723
S':'
asbag68
(g89
g70
NtRp724
(dp725
g73
(dp726
sg82
g712
sg75
(lp727
g68
(g69
g70
NtRp728
(dp729
g73
(dp730
g81
I3
ssg82
g724
sg75
(lp731
S''
asbasbasbag68
(g84
g70
NtRp732
(dp733
g73
(dp734
sg82
g648
sg75
(lp735
g68
(g89
g70
NtRp736
(dp737
g73
(dp738
g93
g94
ssg82
g732
sg75
(lp739
g366
asbag68
(g89
g70
NtRp740
(dp741
g73
(dp742
g100
g101
ssg82
g732
sg75
(lp743
S':'
asbag68
(g89
g70
NtRp744
(dp745
g73
(dp746
sg82
g732
sg75
(lp747
g68
(g69
g70
NtRp748
(dp749
g73
(dp750
g81
I3
ssg82
g744
sg75
(lp751
S''
asbasbasbag68
(g84
g70
NtRp752
(dp753
g73
(dp754
sg82
g648
sg75
(lp755
g68
(g89
g70
NtRp756
(dp757
g73
(dp758
g93
g94
ssg82
g752
sg75
(lp759
g387
asbag68
(g89
g70
NtRp760
(dp761
g73
(dp762
g100
g101
ssg82
g752
sg75
(lp763
S':'
asbag68
(g89
g70
NtRp764
(dp765
g73
(dp766
sg82
g752
sg75
(lp767
g68
(g69
g70
NtRp768
(dp769
g73
(dp770
g81
I3
ssg82
g764
sg75
(lp771
S''
asbasbasbag68
(g84
g70
NtRp772
(dp773
g73
(dp774
sg82
g648
sg75
(lp775
g68
(g89
g70
NtRp776
(dp777
g73
(dp778
g93
g94
ssg82
g772
sg75
(lp779
g408
asbag68
(g89
g70
NtRp780
(dp781
g73
(dp782
g100
g101
ssg82
g772
sg75
(lp783
S':'
asbag68
(g89
g70
NtRp784
(dp785
g73
(dp786
sg82
g772
sg75
(lp787
g68
(g69
g70
NtRp788
(dp789
g73
(dp790
g81
I3
ssg82
g784
sg75
(lp791
S''
asbasbasbag68
(g84
g70
NtRp792
(dp793
g73
(dp794
sg82
g648
sg75
(lp795
g68
(g89
g70
NtRp796
(dp797
g73
(dp798
g93
g94
ssg82
g792
sg75
(lp799
g429
asbag68
(g89
g70
NtRp800
(dp801
g73
(dp802
g100
g101
ssg82
g792
sg75
(lp803
S':'
asbag68
(g89
g70
NtRp804
(dp805
g73
(dp806
sg82
g792
sg75
(lp807
g68
(g69
g70
NtRp808
(dp809
g73
(dp810
g81
I3
ssg82
g804
sg75
(lp811
S''
asbasbasbasbasbasbasbasbasbasbasbag68
(g84
g70
NtRp812
(dp813
g73
(dp814
sg82
g78
sg75
(lp815
g68
(g89
g70
NtRp816
(dp817
g73
(dp818
g93
g94
ssg82
g812
sg75
(lp819
S'env'
p820
asbag68
(g89
g70
NtRp821
(dp822
g73
(dp823
g100
g101
ssg82
g812
sg75
(lp824
S':'
asbag68
(g89
g70
NtRp825
(dp826
g73
(dp827
sg82
g812
sg75
(lp828
g68
(g69
g70
NtRp829
(dp830
g73
(dp831
g81
I5
ssg82
g825
sg75
(lp832
g68
(g77
g70
NtRp833
(dp834
g73
(dp835
g81
I4
ssg82
Nsg75
(lp836
g68
(g84
g70
NtRp837
(dp838
g73
(dp839
sg82
g833
sg75
(lp840
g68
(g89
g70
NtRp841
(dp842
g73
(dp843
g93
g94
ssg82
g837
sg75
(lp844
S'app_folders'
p845
asbag68
(g89
g70
NtRp846
(dp847
g73
(dp848
g100
g101
ssg82
g837
sg75
(lp849
S':'
asbag68
(g89
g70
NtRp850
(dp851
g73
(dp852
sg82
g837
sg75
(lp853
g68
(g69
g70
NtRp854
(dp855
g73
(dp856
g81
I4
ssg82
g850
sg75
(lp857
S"set(['/home/ian/web2py/applications/welcome/', '/home/ian/web2py/applications/places/', '/home/ian/web2py/applications/admin/'])"
p858
asbasbasbag68
(g84
g70
NtRp859
(dp860
g73
(dp861
sg82
g833
sg75
(lp862
g68
(g89
g70
NtRp863
(dp864
g73
(dp865
g93
g94
ssg82
g859
sg75
(lp866
S'applications_parent'
p867
asbag68
(g89
g70
NtRp868
(dp869
g73
(dp870
g100
g101
ssg82
g859
sg75
(lp871
S':'
asbag68
(g89
g70
NtRp872
(dp873
g73
(dp874
sg82
g859
sg75
(lp875
g68
(g69
g70
NtRp876
(dp877
g73
(dp878
g81
I4
ssg82
g872
sg75
(lp879
S'/home/ian/web2py'
p880
asbasbasbag68
(g84
g70
NtRp881
(dp882
g73
(dp883
sg82
g833
sg75
(lp884
g68
(g89
g70
NtRp885
(dp886
g73
(dp887
g93
g94
ssg82
g881
sg75
(lp888
S'cmd_args'
p889
asbag68
(g89
g70
NtRp890
(dp891
g73
(dp892
g100
g101
ssg82
g881
sg75
(lp893
S':'
asbag68
(g89
g70
NtRp894
(dp895
g73
(dp896
sg82
g881
sg75
(lp897
g68
(g69
g70
NtRp898
(dp899
g73
(dp900
g81
I4
ssg82
g894
sg75
(lp901
g68
(g77
g70
NtRp902
(dp903
g73
(dp904
g81
I3
ssg82
Nsg75
(lp905
sbasbasbasbag68
(g84
g70
NtRp906
(dp907
g73
(dp908
sg82
g833
sg75
(lp909
g68
(g89
g70
NtRp910
(dp911
g73
(dp912
g93
g94
ssg82
g906
sg75
(lp913
S'cmd_options'
p914
asbag68
(g89
g70
NtRp915
(dp916
g73
(dp917
g100
g101
ssg82
g906
sg75
(lp918
S':'
asbag68
(g89
g70
NtRp919
(dp920
g73
(dp921
sg82
g906
sg75
(lp922
g68
(g69
g70
NtRp923
(dp924
g73
(dp925
g81
I4
ssg82
g919
sg75
(lp926
S"<Values at 0x26ccbd8: {'verbose': False, 'ip': '127.0.0.1', 'shutdown_timeout': 5, 'taskbar': False, 'nocron': False, 'pid_filename': 'httpserver.pid', 'maxthreads': None, 'softcron': False, 'server_name': 'Ariel-ubuntu', 'bpython': False, 'nogui': False, 'port': 8000, 'extcron': False, 'debuglevel': 30, 'test': None, 'folder': '/home/ian/web2py', 'config': '', 'import_models': False, 'winservice': '', 'shell': None, 'run': '', 'log_filename': 'httpserver.log', 'args': [''], 'ssl_ca_certificate': None, 'scheduler': None, 'profiler_filename': None, 'ssl_private_key': '', 'password': '<ask>', 'request_queue_size': 5, 'ssl_certificate': '', 'cronjob': False, 'plain': False, 'quiet': False, 'interfaces': None, 'minthreads': None, 'timeout': 10, 'numthreads': None, 'nobanner': False}>"
p927
asbasbasbag68
(g84
g70
NtRp928
(dp929
g73
(dp930
sg82
g833
sg75
(lp931
g68
(g89
g70
NtRp932
(dp933
g73
(dp934
g93
g94
ssg82
g928
sg75
(lp935
S'db_sessions'
p936
asbag68
(g89
g70
NtRp937
(dp938
g73
(dp939
g100
g101
ssg82
g928
sg75
(lp940
S':'
asbag68
(g89
g70
NtRp941
(dp942
g73
(dp943
sg82
g928
sg75
(lp944
g68
(g69
g70
NtRp945
(dp946
g73
(dp947
g81
I4
ssg82
g941
sg75
(lp948
S'set([])'
p949
asbasbasbag68
(g84
g70
NtRp950
(dp951
g73
(dp952
sg82
g833
sg75
(lp953
g68
(g89
g70
NtRp954
(dp955
g73
(dp956
g93
g94
ssg82
g950
sg75
(lp957
S'debugging'
p958
asbag68
(g89
g70
NtRp959
(dp960
g73
(dp961
g100
g101
ssg82
g950
sg75
(lp962
S':'
asbag68
(g89
g70
NtRp963
(dp964
g73
(dp965
sg82
g950
sg75
(lp966
g68
(g69
g70
NtRp967
(dp968
g73
(dp969
g81
I4
ssg82
g963
sg75
(lp970
g111
asbasbasbag68
(g84
g70
NtRp971
(dp972
g73
(dp973
sg82
g833
sg75
(lp974
g68
(g89
g70
NtRp975
(dp976
g73
(dp977
g93
g94
ssg82
g971
sg75
(lp978
S'gluon_parent'
p979
asbag68
(g89
g70
NtRp980
(dp981
g73
(dp982
g100
g101
ssg82
g971
sg75
(lp983
S':'
asbag68
(g89
g70
NtRp984
(dp985
g73
(dp986
sg82
g971
sg75
(lp987
g68
(g69
g70
NtRp988
(dp989
g73
(dp990
g81
I4
ssg82
g984
sg75
(lp991
S'/home/ian/web2py'
p992
asbasbasbag68
(g84
g70
NtRp993
(dp994
g73
(dp995
sg82
g833
sg75
(lp996
g68
(g89
g70
NtRp997
(dp998
g73
(dp999
g93
g94
ssg82
g993
sg75
(lp1000
S'http_accept'
p1001
asbag68
(g89
g70
NtRp1002
(dp1003
g73
(dp1004
g100
g101
ssg82
g993
sg75
(lp1005
S':'
asbag68
(g89
g70
NtRp1006
(dp1007
g73
(dp1008
sg82
g993
sg75
(lp1009
g68
(g69
g70
NtRp1010
(dp1011
g73
(dp1012
g81
I4
ssg82
g1006
sg75
(lp1013
S'text/html,application/xhtml+xml,application/xml;q=0.9,*/*;q=0.8'
p1014
asbasbasbag68
(g84
g70
NtRp1015
(dp1016
g73
(dp1017
sg82
g833
sg75
(lp1018
g68
(g89
g70
NtRp1019
(dp1020
g73
(dp1021
g93
g94
ssg82
g1015
sg75
(lp1022
S'http_accept_charset'
p1023
asbag68
(g89
g70
NtRp1024
(dp1025
g73
(dp1026
g100
g101
ssg82
g1015
sg75
(lp1027
S':'
asbag68
(g89
g70
NtRp1028
(dp1029
g73
(dp1030
sg82
g1015
sg75
(lp1031
g68
(g69
g70
NtRp1032
(dp1033
g73
(dp1034
g81
I4
ssg82
g1028
sg75
(lp1035
S'ISO-8859-1,utf-8;q=0.7,*;q=0.7'
p1036
asbasbasbag68
(g84
g70
NtRp1037
(dp1038
g73
(dp1039
sg82
g833
sg75
(lp1040
g68
(g89
g70
NtRp1041
(dp1042
g73
(dp1043
g93
g94
ssg82
g1037
sg75
(lp1044
S'http_accept_encoding'
p1045
asbag68
(g89
g70
NtRp1046
(dp1047
g73
(dp1048
g100
g101
ssg82
g1037
sg75
(lp1049
S':'
asbag68
(g89
g70
NtRp1050
(dp1051
g73
(dp1052
sg82
g1037
sg75
(lp1053
g68
(g69
g70
NtRp1054
(dp1055
g73
(dp1056
g81
I4
ssg82
g1050
sg75
(lp1057
S'gzip, deflate'
p1058
asbasbasbag68
(g84
g70
NtRp1059
(dp1060
g73
(dp1061
sg82
g833
sg75
(lp1062
g68
(g89
g70
NtRp1063
(dp1064
g73
(dp1065
g93
g94
ssg82
g1059
sg75
(lp1066
S'http_accept_language'
p1067
asbag68
(g89
g70
NtRp1068
(dp1069
g73
(dp1070
g100
g101
ssg82
g1059
sg75
(lp1071
S':'
asbag68
(g89
g70
NtRp1072
(dp1073
g73
(dp1074
sg82
g1059
sg75
(lp1075
g68
(g69
g70
NtRp1076
(dp1077
g73
(dp1078
g81
I4
ssg82
g1072
sg75
(lp1079
S'en-us,en;q=0.5'
p1080
asbasbasbag68
(g84
g70
NtRp1081
(dp1082
g73
(dp1083
sg82
g833
sg75
(lp1084
g68
(g89
g70
NtRp1085
(dp1086
g73
(dp1087
g93
g94
ssg82
g1081
sg75
(lp1088
S'http_cache_control'
p1089
asbag68
(g89
g70
NtRp1090
(dp1091
g73
(dp1092
g100
g101
ssg82
g1081
sg75
(lp1093
S':'
asbag68
(g89
g70
NtRp1094
(dp1095
g73
(dp1096
sg82
g1081
sg75
(lp1097
g68
(g69
g70
NtRp1098
(dp1099
g73
(dp1100
g81
I4
ssg82
g1094
sg75
(lp1101
S'max-age=0'
p1102
asbasbasbag68
(g84
g70
NtRp1103
(dp1104
g73
(dp1105
sg82
g833
sg75
(lp1106
g68
(g89
g70
NtRp1107
(dp1108
g73
(dp1109
g93
g94
ssg82
g1103
sg75
(lp1110
S'http_connection'
p1111
asbag68
(g89
g70
NtRp1112
(dp1113
g73
(dp1114
g100
g101
ssg82
g1103
sg75
(lp1115
S':'
asbag68
(g89
g70
NtRp1116
(dp1117
g73
(dp1118
sg82
g1103
sg75
(lp1119
g68
(g69
g70
NtRp1120
(dp1121
g73
(dp1122
g81
I4
ssg82
g1116
sg75
(lp1123
S'keep-alive'
p1124
asbasbasbag68
(g84
g70
NtRp1125
(dp1126
g73
(dp1127
sg82
g833
sg75
(lp1128
g68
(g89
g70
NtRp1129
(dp1130
g73
(dp1131
g93
g94
ssg82
g1125
sg75
(lp1132
S'http_cookie'
p1133
asbag68
(g89
g70
NtRp1134
(dp1135
g73
(dp1136
g100
g101
ssg82
g1125
sg75
(lp1137
S':'
asbag68
(g89
g70
NtRp1138
(dp1139
g73
(dp1140
sg82
g1125
sg75
(lp1141
g68
(g69
g70
NtRp1142
(dp1143
g73
(dp1144
g81
I4
ssg82
g1138
sg75
(lp1145
S'session_id_welcome=127.0.0.1-f0e6d08e-4585-488a-91e0-180c6c7f25a8; session_id_admin=127.0.0.1-dac11dfe-be99-4fb0-a78e-57512c9f5790; session_id_places=127.0.0.1-9bd70a00-d029-4b6e-8bcc-a423c3a61399'
p1146
asbasbasbag68
(g84
g70
NtRp1147
(dp1148
g73
(dp1149
sg82
g833
sg75
(lp1150
g68
(g89
g70
NtRp1151
(dp1152
g73
(dp1153
g93
g94
ssg82
g1147
sg75
(lp1154
S'http_host'
p1155
asbag68
(g89
g70
NtRp1156
(dp1157
g73
(dp1158
g100
g101
ssg82
g1147
sg75
(lp1159
S':'
asbag68
(g89
g70
NtRp1160
(dp1161
g73
(dp1162
sg82
g1147
sg75
(lp1163
g68
(g69
g70
NtRp1164
(dp1165
g73
(dp1166
g81
I4
ssg82
g1160
sg75
(lp1167
S'127.0.0.1:8000'
p1168
asbasbasbag68
(g84
g70
NtRp1169
(dp1170
g73
(dp1171
sg82
g833
sg75
(lp1172
g68
(g89
g70
NtRp1173
(dp1174
g73
(dp1175
g93
g94
ssg82
g1169
sg75
(lp1176
S'http_user_agent'
p1177
asbag68
(g89
g70
NtRp1178
(dp1179
g73
(dp1180
g100
g101
ssg82
g1169
sg75
(lp1181
S':'
asbag68
(g89
g70
NtRp1182
(dp1183
g73
(dp1184
sg82
g1169
sg75
(lp1185
g68
(g69
g70
NtRp1186
(dp1187
g73
(dp1188
g81
I4
ssg82
g1182
sg75
(lp1189
S'Mozilla/5.0 (X11; Linux x86_64; rv:7.0.1) Gecko/20100101 Firefox/7.0.1'
p1190
asbasbasbag68
(g84
g70
NtRp1191
(dp1192
g73
(dp1193
sg82
g833
sg75
(lp1194
g68
(g89
g70
NtRp1195
(dp1196
g73
(dp1197
g93
g94
ssg82
g1191
sg75
(lp1198
S'is_jython'
p1199
asbag68
(g89
g70
NtRp1200
(dp1201
g73
(dp1202
g100
g101
ssg82
g1191
sg75
(lp1203
S':'
asbag68
(g89
g70
NtRp1204
(dp1205
g73
(dp1206
sg82
g1191
sg75
(lp1207
g68
(g69
g70
NtRp1208
(dp1209
g73
(dp1210
g81
I4
ssg82
g1204
sg75
(lp1211
g111
asbasbasbag68
(g84
g70
NtRp1212
(dp1213
g73
(dp1214
sg82
g833
sg75
(lp1215
g68
(g89
g70
NtRp1216
(dp1217
g73
(dp1218
g93
g94
ssg82
g1212
sg75
(lp1219
S'path_info'
p1220
asbag68
(g89
g70
NtRp1221
(dp1222
g73
(dp1223
g100
g101
ssg82
g1212
sg75
(lp1224
S':'
asbag68
(g89
g70
NtRp1225
(dp1226
g73
(dp1227
sg82
g1212
sg75
(lp1228
g68
(g69
g70
NtRp1229
(dp1230
g73
(dp1231
g81
I4
ssg82
g1225
sg75
(lp1232
S'/places/'
p1233
asbasbasbag68
(g84
g70
NtRp1234
(dp1235
g73
(dp1236
sg82
g833
sg75
(lp1237
g68
(g89
g70
NtRp1238
(dp1239
g73
(dp1240
g93
g94
ssg82
g1234
sg75
(lp1241
S'query_string'
p1242
asbag68
(g89
g70
NtRp1243
(dp1244
g73
(dp1245
g100
g101
ssg82
g1234
sg75
(lp1246
S':'
asbag68
(g89
g70
NtRp1247
(dp1248
g73
(dp1249
sg82
g1234
sg75
(lp1250
g68
(g69
g70
NtRp1251
(dp1252
g73
(dp1253
g81
I4
ssg82
g1247
sg75
(lp1254
S''
asbasbasbag68
(g84
g70
NtRp1255
(dp1256
g73
(dp1257
sg82
g833
sg75
(lp1258
g68
(g89
g70
NtRp1259
(dp1260
g73
(dp1261
g93
g94
ssg82
g1255
sg75
(lp1262
S'remote_addr'
p1263
asbag68
(g89
g70
NtRp1264
(dp1265
g73
(dp1266
g100
g101
ssg82
g1255
sg75
(lp1267
S':'
asbag68
(g89
g70
NtRp1268
(dp1269
g73
(dp1270
sg82
g1255
sg75
(lp1271
g68
(g69
g70
NtRp1272
(dp1273
g73
(dp1274
g81
I4
ssg82
g1268
sg75
(lp1275
g201
asbasbasbag68
(g84
g70
NtRp1276
(dp1277
g73
(dp1278
sg82
g833
sg75
(lp1279
g68
(g89
g70
NtRp1280
(dp1281
g73
(dp1282
g93
g94
ssg82
g1276
sg75
(lp1283
S'remote_port'
p1284
asbag68
(g89
g70
NtRp1285
(dp1286
g73
(dp1287
g100
g101
ssg82
g1276
sg75
(lp1288
S':'
asbag68
(g89
g70
NtRp1289
(dp1290
g73
(dp1291
sg82
g1276
sg75
(lp1292
g68
(g69
g70
NtRp1293
(dp1294
g73
(dp1295
g81
I4
ssg82
g1289
sg75
(lp1296
S'59111'
p1297
asbasbasbag68
(g84
g70
NtRp1298
(dp1299
g73
(dp1300
sg82
g833
sg75
(lp1301
g68
(g89
g70
NtRp1302
(dp1303
g73
(dp1304
g93
g94
ssg82
g1298
sg75
(lp1305
S'request_method'
p1306
asbag68
(g89
g70
NtRp1307
(dp1308
g73
(dp1309
g100
g101
ssg82
g1298
sg75
(lp1310
S':'
asbag68
(g89
g70
NtRp1311
(dp1312
g73
(dp1313
sg82
g1298
sg75
(lp1314
g68
(g69
g70
NtRp1315
(dp1316
g73
(dp1317
g81
I4
ssg82
g1311
sg75
(lp1318
S'GET'
p1319
asbasbasbag68
(g84
g70
NtRp1320
(dp1321
g73
(dp1322
sg82
g833
sg75
(lp1323
g68
(g89
g70
NtRp1324
(dp1325
g73
(dp1326
g93
g94
ssg82
g1320
sg75
(lp1327
S'script_name'
p1328
asbag68
(g89
g70
NtRp1329
(dp1330
g73
(dp1331
g100
g101
ssg82
g1320
sg75
(lp1332
S':'
asbag68
(g89
g70
NtRp1333
(dp1334
g73
(dp1335
sg82
g1320
sg75
(lp1336
g68
(g69
g70
NtRp1337
(dp1338
g73
(dp1339
g81
I4
ssg82
g1333
sg75
(lp1340
S''
asbasbasbag68
(g84
g70
NtRp1341
(dp1342
g73
(dp1343
sg82
g833
sg75
(lp1344
g68
(g89
g70
NtRp1345
(dp1346
g73
(dp1347
g93
g94
ssg82
g1341
sg75
(lp1348
S'server_name'
p1349
asbag68
(g89
g70
NtRp1350
(dp1351
g73
(dp1352
g100
g101
ssg82
g1341
sg75
(lp1353
S':'
asbag68
(g89
g70
NtRp1354
(dp1355
g73
(dp1356
sg82
g1341
sg75
(lp1357
g68
(g69
g70
NtRp1358
(dp1359
g73
(dp1360
g81
I4
ssg82
g1354
sg75
(lp1361
S'Ariel-ubuntu'
p1362
asbasbasbag68
(g84
g70
NtRp1363
(dp1364
g73
(dp1365
sg82
g833
sg75
(lp1366
g68
(g89
g70
NtRp1367
(dp1368
g73
(dp1369
g93
g94
ssg82
g1363
sg75
(lp1370
S'server_port'
p1371
asbag68
(g89
g70
NtRp1372
(dp1373
g73
(dp1374
g100
g101
ssg82
g1363
sg75
(lp1375
S':'
asbag68
(g89
g70
NtRp1376
(dp1377
g73
(dp1378
sg82
g1363
sg75
(lp1379
g68
(g69
g70
NtRp1380
(dp1381
g73
(dp1382
g81
I4
ssg82
g1376
sg75
(lp1383
S'8000'
p1384
asbasbasbag68
(g84
g70
NtRp1385
(dp1386
g73
(dp1387
sg82
g833
sg75
(lp1388
g68
(g89
g70
NtRp1389
(dp1390
g73
(dp1391
g93
g94
ssg82
g1385
sg75
(lp1392
S'server_protocol'
p1393
asbag68
(g89
g70
NtRp1394
(dp1395
g73
(dp1396
g100
g101
ssg82
g1385
sg75
(lp1397
S':'
asbag68
(g89
g70
NtRp1398
(dp1399
g73
(dp1400
sg82
g1385
sg75
(lp1401
g68
(g69
g70
NtRp1402
(dp1403
g73
(dp1404
g81
I4
ssg82
g1398
sg75
(lp1405
S'HTTP/1.1'
p1406
asbasbasbag68
(g84
g70
NtRp1407
(dp1408
g73
(dp1409
sg82
g833
sg75
(lp1410
g68
(g89
g70
NtRp1411
(dp1412
g73
(dp1413
g93
g94
ssg82
g1407
sg75
(lp1414
S'server_software'
p1415
asbag68
(g89
g70
NtRp1416
(dp1417
g73
(dp1418
g100
g101
ssg82
g1407
sg75
(lp1419
S':'
asbag68
(g89
g70
NtRp1420
(dp1421
g73
(dp1422
sg82
g1407
sg75
(lp1423
g68
(g69
g70
NtRp1424
(dp1425
g73
(dp1426
g81
I4
ssg82
g1420
sg75
(lp1427
S'Rocket 1.2.4'
p1428
asbasbasbag68
(g84
g70
NtRp1429
(dp1430
g73
(dp1431
sg82
g833
sg75
(lp1432
g68
(g89
g70
NtRp1433
(dp1434
g73
(dp1435
g93
g94
ssg82
g1429
sg75
(lp1436
S'web2py_crontype'
p1437
asbag68
(g89
g70
NtRp1438
(dp1439
g73
(dp1440
g100
g101
ssg82
g1429
sg75
(lp1441
S':'
asbag68
(g89
g70
NtRp1442
(dp1443
g73
(dp1444
sg82
g1429
sg75
(lp1445
g68
(g69
g70
NtRp1446
(dp1447
g73
(dp1448
g81
I4
ssg82
g1442
sg75
(lp1449
S'hard'
p1450
asbasbasbag68
(g84
g70
NtRp1451
(dp1452
g73
(dp1453
sg82
g833
sg75
(lp1454
g68
(g89
g70
NtRp1455
(dp1456
g73
(dp1457
g93
g94
ssg82
g1451
sg75
(lp1458
S'web2py_path'
p1459
asbag68
(g89
g70
NtRp1460
(dp1461
g73
(dp1462
g100
g101
ssg82
g1451
sg75
(lp1463
S':'
asbag68
(g89
g70
NtRp1464
(dp1465
g73
(dp1466
sg82
g1451
sg75
(lp1467
g68
(g69
g70
NtRp1468
(dp1469
g73
(dp1470
g81
I4
ssg82
g1464
sg75
(lp1471
g880
asbasbasbag68
(g84
g70
NtRp1472
(dp1473
g73
(dp1474
sg82
g833
sg75
(lp1475
g68
(g89
g70
NtRp1476
(dp1477
g73
(dp1478
g93
g94
ssg82
g1472
sg75
(lp1479
S'web2py_version'
p1480
asbag68
(g89
g70
NtRp1481
(dp1482
g73
(dp1483
g100
g101
ssg82
g1472
sg75
(lp1484
S':'
asbag68
(g89
g70
NtRp1485
(dp1486
g73
(dp1487
sg82
g1472
sg75
(lp1488
g68
(g69
g70
NtRp1489
(dp1490
g73
(dp1491
g81
I4
ssg82
g1485
sg75
(lp1492
g68
(g77
g70
NtRp1493
(dp1494
g73
(dp1495
g81
I3
ssg82
Nsg75
(lp1496
g68
(g84
g70
NtRp1497
(dp1498
g73
(dp1499
sg82
g1493
sg75
(lp1500
g68
(g89
g70
NtRp1501
(dp1502
g73
(dp1503
sg82
g1497
sg75
(lp1504
g68
(g69
g70
NtRp1505
(dp1506
g73
(dp1507
g81
I3
ssg82
g1501
sg75
(lp1508
S'1'
asbasbasbag68
(g84
g70
NtRp1509
(dp1510
g73
(dp1511
sg82
g1493
sg75
(lp1512
g68
(g89
g70
NtRp1513
(dp1514
g73
(dp1515
sg82
g1509
sg75
(lp1516
g68
(g69
g70
NtRp1517
(dp1518
g73
(dp1519
g81
I3
ssg82
g1513
sg75
(lp1520
S'99'
p1521
asbasbasbag68
(g84
g70
NtRp1522
(dp1523
g73
(dp1524
sg82
g1493
sg75
(lp1525
g68
(g89
g70
NtRp1526
(dp1527
g73
(dp1528
sg82
g1522
sg75
(lp1529
g68
(g69
g70
NtRp1530
(dp1531
g73
(dp1532
g81
I3
ssg82
g1526
sg75
(lp1533
S'2'
asbasbasbag68
(g84
g70
NtRp1534
(dp1535
g73
(dp1536
sg82
g1493
sg75
(lp1537
g68
(g89
g70
NtRp1538
(dp1539
g73
(dp1540
sg82
g1534
sg75
(lp1541
g68
(g69
g70
NtRp1542
(dp1543
g73
(dp1544
g81
I3
ssg82
g1538
sg75
(lp1545
S'datetime.datetime(2011, 9, 26, 6, 55, 33)'
p1546
asbasbasbag68
(g84
g70
NtRp1547
(dp1548
g73
(dp1549
sg82
g1493
sg75
(lp1550
g68
(g89
g70
NtRp1551
(dp1552
g73
(dp1553
sg82
g1547
sg75
(lp1554
g68
(g69
g70
NtRp1555
(dp1556
g73
(dp1557
g81
I3
ssg82
g1551
sg75
(lp1558
S'stable'
p1559
asbasbasbasbasbasbasbag68
(g84
g70
NtRp1560
(dp1561
g73
(dp1562
sg82
g833
sg75
(lp1563
g68
(g89
g70
NtRp1564
(dp1565
g73
(dp1566
g93
g94
ssg82
g1560
sg75
(lp1567
S'wsgi_errors'
p1568
asbag68
(g89
g70
NtRp1569
(dp1570
g73
(dp1571
g100
g101
ssg82
g1560
sg75
(lp1572
S':'
asbag68
(g89
g70
NtRp1573
(dp1574
g73
(dp1575
sg82
g1560
sg75
(lp1576
g68
(g69
g70
NtRp1577
(dp1578
g73
(dp1579
g81
I4
ssg82
g1573
sg75
(lp1580
S"<open file '<stderr>', mode 'w' at 0x7f6d3a48b270>"
p1581
asbasbasbag68
(g84
g70
NtRp1582
(dp1583
g73
(dp1584
sg82
g833
sg75
(lp1585
g68
(g89
g70
NtRp1586
(dp1587
g73
(dp1588
g93
g94
ssg82
g1582
sg75
(lp1589
S'wsgi_file_wrapper'
p1590
asbag68
(g89
g70
NtRp1591
(dp1592
g73
(dp1593
g100
g101
ssg82
g1582
sg75
(lp1594
S':'
asbag68
(g89
g70
NtRp1595
(dp1596
g73
(dp1597
sg82
g1582
sg75
(lp1598
g68
(g69
g70
NtRp1599
(dp1600
g73
(dp1601
g81
I4
ssg82
g1595
sg75
(lp1602
S'<class wsgiref.util.FileWrapper at 0x25957a0>'
p1603
asbasbasbag68
(g84
g70
NtRp1604
(dp1605
g73
(dp1606
sg82
g833
sg75
(lp1607
g68
(g89
g70
NtRp1608
(dp1609
g73
(dp1610
g93
g94
ssg82
g1604
sg75
(lp1611
S'wsgi_input'
p1612
asbag68
(g89
g70
NtRp1613
(dp1614
g73
(dp1615
g100
g101
ssg82
g1604
sg75
(lp1616
S':'
asbag68
(g89
g70
NtRp1617
(dp1618
g73
(dp1619
sg82
g1604
sg75
(lp1620
g68
(g69
g70
NtRp1621
(dp1622
g73
(dp1623
g81
I4
ssg82
g1617
sg75
(lp1624
S'<socket._fileobject object at 0x3193850>'
p1625
asbasbasbag68
(g84
g70
NtRp1626
(dp1627
g73
(dp1628
sg82
g833
sg75
(lp1629
g68
(g89
g70
NtRp1630
(dp1631
g73
(dp1632
g93
g94
ssg82
g1626
sg75
(lp1633
S'wsgi_multiprocess'
p1634
asbag68
(g89
g70
NtRp1635
(dp1636
g73
(dp1637
g100
g101
ssg82
g1626
sg75
(lp1638
S':'
asbag68
(g89
g70
NtRp1639
(dp1640
g73
(dp1641
sg82
g1626
sg75
(lp1642
g68
(g69
g70
NtRp1643
(dp1644
g73
(dp1645
g81
I4
ssg82
g1639
sg75
(lp1646
g111
asbasbasbag68
(g84
g70
NtRp1647
(dp1648
g73
(dp1649
sg82
g833
sg75
(lp1650
g68
(g89
g70
NtRp1651
(dp1652
g73
(dp1653
g93
g94
ssg82
g1647
sg75
(lp1654
S'wsgi_multithread'
p1655
asbag68
(g89
g70
NtRp1656
(dp1657
g73
(dp1658
g100
g101
ssg82
g1647
sg75
(lp1659
S':'
asbag68
(g89
g70
NtRp1660
(dp1661
g73
(dp1662
sg82
g1647
sg75
(lp1663
g68
(g69
g70
NtRp1664
(dp1665
g73
(dp1666
g81
I4
ssg82
g1660
sg75
(lp1667
S'True'
p1668
asbasbasbag68
(g84
g70
NtRp1669
(dp1670
g73
(dp1671
sg82
g833
sg75
(lp1672
g68
(g89
g70
NtRp1673
(dp1674
g73
(dp1675
g93
g94
ssg82
g1669
sg75
(lp1676
S'wsgi_run_once'
p1677
asbag68
(g89
g70
NtRp1678
(dp1679
g73
(dp1680
g100
g101
ssg82
g1669
sg75
(lp1681
S':'
asbag68
(g89
g70
NtRp1682
(dp1683
g73
(dp1684
sg82
g1669
sg75
(lp1685
g68
(g69
g70
NtRp1686
(dp1687
g73
(dp1688
g81
I4
ssg82
g1682
sg75
(lp1689
g111
asbasbasbag68
(g84
g70
NtRp1690
(dp1691
g73
(dp1692
sg82
g833
sg75
(lp1693
g68
(g89
g70
NtRp1694
(dp1695
g73
(dp1696
g93
g94
ssg82
g1690
sg75
(lp1697
S'wsgi_url_scheme'
p1698
asbag68
(g89
g70
NtRp1699
(dp1700
g73
(dp1701
g100
g101
ssg82
g1690
sg75
(lp1702
S':'
asbag68
(g89
g70
NtRp1703
(dp1704
g73
(dp1705
sg82
g1690
sg75
(lp1706
g68
(g69
g70
NtRp1707
(dp1708
g73
(dp1709
g81
I4
ssg82
g1703
sg75
(lp1710
S'http'
p1711
asbasbasbag68
(g84
g70
NtRp1712
(dp1713
g73
(dp1714
sg82
g833
sg75
(lp1715
g68
(g89
g70
NtRp1716
(dp1717
g73
(dp1718
g93
g94
ssg82
g1712
sg75
(lp1719
S'wsgi_version'
p1720
asbag68
(g89
g70
NtRp1721
(dp1722
g73
(dp1723
g100
g101
ssg82
g1712
sg75
(lp1724
S':'
asbag68
(g89
g70
NtRp1725
(dp1726
g73
(dp1727
sg82
g1712
sg75
(lp1728
g68
(g69
g70
NtRp1729
(dp1730
g73
(dp1731
g81
I4
ssg82
g1725
sg75
(lp1732
g68
(g77
g70
NtRp1733
(dp1734
g73
(dp1735
g81
I3
ssg82
Nsg75
(lp1736
g68
(g84
g70
NtRp1737
(dp1738
g73
(dp1739
sg82
g1733
sg75
(lp1740
g68
(g89
g70
NtRp1741
(dp1742
g73
(dp1743
sg82
g1737
sg75
(lp1744
g68
(g69
g70
NtRp1745
(dp1746
g73
(dp1747
g81
I3
ssg82
g1741
sg75
(lp1748
S'1'
asbasbasbag68
(g84
g70
NtRp1749
(dp1750
g73
(dp1751
sg82
g1733
sg75
(lp1752
g68
(g89
g70
NtRp1753
(dp1754
g73
(dp1755
sg82
g1749
sg75
(lp1756
g68
(g69
g70
NtRp1757
(dp1758
g73
(dp1759
g81
I3
ssg82
g1753
sg75
(lp1760
S'0'
asbasbasbasbasbasbasbasbasbasbasbag68
(g84
g70
NtRp1761
(dp1762
g73
(dp1763
sg82
g78
sg75
(lp1764
g68
(g89
g70
NtRp1765
(dp1766
g73
(dp1767
g93
g94
ssg82
g1761
sg75
(lp1768
S'extension'
p1769
asbag68
(g89
g70
NtRp1770
(dp1771
g73
(dp1772
g100
g101
ssg82
g1761
sg75
(lp1773
S':'
asbag68
(g89
g70
NtRp1774
(dp1775
g73
(dp1776
sg82
g1761
sg75
(lp1777
g68
(g69
g70
NtRp1778
(dp1779
g73
(dp1780
g81
I5
ssg82
g1774
sg75
(lp1781
S'html'
p1782
asbasbasbag68
(g84
g70
NtRp1783
(dp1784
g73
(dp1785
sg82
g78
sg75
(lp1786
g68
(g89
g70
NtRp1787
(dp1788
g73
(dp1789
g93
g94
ssg82
g1783
sg75
(lp1790
S'folder'
p1791
asbag68
(g89
g70
NtRp1792
(dp1793
g73
(dp1794
g100
g101
ssg82
g1783
sg75
(lp1795
S':'
asbag68
(g89
g70
NtRp1796
(dp1797
g73
(dp1798
sg82
g1783
sg75
(lp1799
g68
(g69
g70
NtRp1800
(dp1801
g73
(dp1802
g81
I5
ssg82
g1796
sg75
(lp1803
S'/home/ian/web2py/applications/places/'
p1804
asbasbasbag68
(g84
g70
NtRp1805
(dp1806
g73
(dp1807
sg82
g78
sg75
(lp1808
g68
(g89
g70
NtRp1809
(dp1810
g73
(dp1811
g93
g94
ssg82
g1805
sg75
(lp1812
S'function'
p1813
asbag68
(g89
g70
NtRp1814
(dp1815
g73
(dp1816
g100
g101
ssg82
g1805
sg75
(lp1817
S':'
asbag68
(g89
g70
NtRp1818
(dp1819
g73
(dp1820
sg82
g1805
sg75
(lp1821
g68
(g69
g70
NtRp1822
(dp1823
g73
(dp1824
g81
I5
ssg82
g1818
sg75
(lp1825
S'index'
p1826
asbasbasbag68
(g84
g70
NtRp1827
(dp1828
g73
(dp1829
sg82
g78
sg75
(lp1830
g68
(g89
g70
NtRp1831
(dp1832
g73
(dp1833
g93
g94
ssg82
g1827
sg75
(lp1834
S'get_vars'
p1835
asbag68
(g89
g70
NtRp1836
(dp1837
g73
(dp1838
g100
g101
ssg82
g1827
sg75
(lp1839
S':'
asbag68
(g89
g70
NtRp1840
(dp1841
g73
(dp1842
sg82
g1827
sg75
(lp1843
g68
(g69
g70
NtRp1844
(dp1845
g73
(dp1846
g81
I5
ssg82
g1840
sg75
(lp1847
g68
(g77
g70
NtRp1848
(dp1849
g73
(dp1850
g81
I4
ssg82
Nsg75
(lp1851
sbasbasbasbag68
(g84
g70
NtRp1852
(dp1853
g73
(dp1854
sg82
g78
sg75
(lp1855
g68
(g89
g70
NtRp1856
(dp1857
g73
(dp1858
g93
g94
ssg82
g1852
sg75
(lp1859
S'global_settings'
p1860
asbag68
(g89
g70
NtRp1861
(dp1862
g73
(dp1863
g100
g101
ssg82
g1852
sg75
(lp1864
S':'
asbag68
(g89
g70
NtRp1865
(dp1866
g73
(dp1867
sg82
g1852
sg75
(lp1868
g68
(g69
g70
NtRp1869
(dp1870
g73
(dp1871
g81
I5
ssg82
g1865
sg75
(lp1872
g68
(g77
g70
NtRp1873
(dp1874
g73
(dp1875
g81
I4
ssg82
Nsg75
(lp1876
g68
(g84
g70
NtRp1877
(dp1878
g73
(dp1879
sg82
g1873
sg75
(lp1880
g68
(g89
g70
NtRp1881
(dp1882
g73
(dp1883
g93
g94
ssg82
g1877
sg75
(lp1884
g845
asbag68
(g89
g70
NtRp1885
(dp1886
g73
(dp1887
g100
g101
ssg82
g1877
sg75
(lp1888
S':'
asbag68
(g89
g70
NtRp1889
(dp1890
g73
(dp1891
sg82
g1877
sg75
(lp1892
g68
(g69
g70
NtRp1893
(dp1894
g73
(dp1895
g81
I4
ssg82
g1889
sg75
(lp1896
S"set(['/home/ian/web2py/applications/welcome/', '/home/ian/web2py/applications/places/', '/home/ian/web2py/applications/admin/'])"
p1897
asbasbasbag68
(g84
g70
NtRp1898
(dp1899
g73
(dp1900
sg82
g1873
sg75
(lp1901
g68
(g89
g70
NtRp1902
(dp1903
g73
(dp1904
g93
g94
ssg82
g1898
sg75
(lp1905
g867
asbag68
(g89
g70
NtRp1906
(dp1907
g73
(dp1908
g100
g101
ssg82
g1898
sg75
(lp1909
S':'
asbag68
(g89
g70
NtRp1910
(dp1911
g73
(dp1912
sg82
g1898
sg75
(lp1913
g68
(g69
g70
NtRp1914
(dp1915
g73
(dp1916
g81
I4
ssg82
g1910
sg75
(lp1917
g880
asbasbasbag68
(g84
g70
NtRp1918
(dp1919
g73
(dp1920
sg82
g1873
sg75
(lp1921
g68
(g89
g70
NtRp1922
(dp1923
g73
(dp1924
g93
g94
ssg82
g1918
sg75
(lp1925
g889
asbag68
(g89
g70
NtRp1926
(dp1927
g73
(dp1928
g100
g101
ssg82
g1918
sg75
(lp1929
S':'
asbag68
(g89
g70
NtRp1930
(dp1931
g73
(dp1932
sg82
g1918
sg75
(lp1933
g68
(g69
g70
NtRp1934
(dp1935
g73
(dp1936
g81
I4
ssg82
g1930
sg75
(lp1937
g68
(g77
g70
NtRp1938
(dp1939
g73
(dp1940
g81
I3
ssg82
Nsg75
(lp1941
sbasbasbasbag68
(g84
g70
NtRp1942
(dp1943
g73
(dp1944
sg82
g1873
sg75
(lp1945
g68
(g89
g70
NtRp1946
(dp1947
g73
(dp1948
g93
g94
ssg82
g1942
sg75
(lp1949
g914
asbag68
(g89
g70
NtRp1950
(dp1951
g73
(dp1952
g100
g101
ssg82
g1942
sg75
(lp1953
S':'
asbag68
(g89
g70
NtRp1954
(dp1955
g73
(dp1956
sg82
g1942
sg75
(lp1957
g68
(g69
g70
NtRp1958
(dp1959
g73
(dp1960
g81
I4
ssg82
g1954
sg75
(lp1961
S"<Values at 0x26ccbd8: {'verbose': False, 'ip': '127.0.0.1', 'shutdown_timeout': 5, 'taskbar': False, 'nocron': False, 'pid_filename': 'httpserver.pid', 'maxthreads': None, 'softcron': False, 'server_name': 'Ariel-ubuntu', 'bpython': False, 'nogui': False, 'port': 8000, 'extcron': False, 'debuglevel': 30, 'test': None, 'folder': '/home/ian/web2py', 'config': '', 'import_models': False, 'winservice': '', 'shell': None, 'run': '', 'log_filename': 'httpserver.log', 'args': [''], 'ssl_ca_certificate': None, 'scheduler': None, 'profiler_filename': None, 'ssl_private_key': '', 'password': '<ask>', 'request_queue_size': 5, 'ssl_certificate': '', 'cronjob': False, 'plain': False, 'quiet': False, 'interfaces': None, 'minthreads': None, 'timeout': 10, 'numthreads': None, 'nobanner': False}>"
p1962
asbasbasbag68
(g84
g70
NtRp1963
(dp1964
g73
(dp1965
sg82
g1873
sg75
(lp1966
g68
(g89
g70
NtRp1967
(dp1968
g73
(dp1969
g93
g94
ssg82
g1963
sg75
(lp1970
g936
asbag68
(g89
g70
NtRp1971
(dp1972
g73
(dp1973
g100
g101
ssg82
g1963
sg75
(lp1974
S':'
asbag68
(g89
g70
NtRp1975
(dp1976
g73
(dp1977
sg82
g1963
sg75
(lp1978
g68
(g69
g70
NtRp1979
(dp1980
g73
(dp1981
g81
I4
ssg82
g1975
sg75
(lp1982
S'set([])'
p1983
asbasbasbag68
(g84
g70
NtRp1984
(dp1985
g73
(dp1986
sg82
g1873
sg75
(lp1987
g68
(g89
g70
NtRp1988
(dp1989
g73
(dp1990
g93
g94
ssg82
g1984
sg75
(lp1991
g958
asbag68
(g89
g70
NtRp1992
(dp1993
g73
(dp1994
g100
g101
ssg82
g1984
sg75
(lp1995
S':'
asbag68
(g89
g70
NtRp1996
(dp1997
g73
(dp1998
sg82
g1984
sg75
(lp1999
g68
(g69
g70
NtRp2000
(dp2001
g73
(dp2002
g81
I4
ssg82
g1996
sg75
(lp2003
g111
asbasbasbag68
(g84
g70
NtRp2004
(dp2005
g73
(dp2006
sg82
g1873
sg75
(lp2007
g68
(g89
g70
NtRp2008
(dp2009
g73
(dp2010
g93
g94
ssg82
g2004
sg75
(lp2011
g979
asbag68
(g89
g70
NtRp2012
(dp2013
g73
(dp2014
g100
g101
ssg82
g2004
sg75
(lp2015
S':'
asbag68
(g89
g70
NtRp2016
(dp2017
g73
(dp2018
sg82
g2004
sg75
(lp2019
g68
(g69
g70
NtRp2020
(dp2021
g73
(dp2022
g81
I4
ssg82
g2016
sg75
(lp2023
g992
asbasbasbag68
(g84
g70
NtRp2024
(dp2025
g73
(dp2026
sg82
g1873
sg75
(lp2027
g68
(g89
g70
NtRp2028
(dp2029
g73
(dp2030
g93
g94
ssg82
g2024
sg75
(lp2031
g1199
asbag68
(g89
g70
NtRp2032
(dp2033
g73
(dp2034
g100
g101
ssg82
g2024
sg75
(lp2035
S':'
asbag68
(g89
g70
NtRp2036
(dp2037
g73
(dp2038
sg82
g2024
sg75
(lp2039
g68
(g69
g70
NtRp2040
(dp2041
g73
(dp2042
g81
I4
ssg82
g2036
sg75
(lp2043
g111
asbasbasbag68
(g84
g70
NtRp2044
(dp2045
g73
(dp2046
sg82
g1873
sg75
(lp2047
g68
(g89
g70
NtRp2048
(dp2049
g73
(dp2050
g93
g94
ssg82
g2044
sg75
(lp2051
g1437
asbag68
(g89
g70
NtRp2052
(dp2053
g73
(dp2054
g100
g101
ssg82
g2044
sg75
(lp2055
S':'
asbag68
(g89
g70
NtRp2056
(dp2057
g73
(dp2058
sg82
g2044
sg75
(lp2059
g68
(g69
g70
NtRp2060
(dp2061
g73
(dp2062
g81
I4
ssg82
g2056
sg75
(lp2063
g1450
asbasbasbag68
(g84
g70
NtRp2064
(dp2065
g73
(dp2066
sg82
g1873
sg75
(lp2067
g68
(g89
g70
NtRp2068
(dp2069
g73
(dp2070
g93
g94
ssg82
g2064
sg75
(lp2071
g1480
asbag68
(g89
g70
NtRp2072
(dp2073
g73
(dp2074
g100
g101
ssg82
g2064
sg75
(lp2075
S':'
asbag68
(g89
g70
NtRp2076
(dp2077
g73
(dp2078
sg82
g2064
sg75
(lp2079
g68
(g69
g70
NtRp2080
(dp2081
g73
(dp2082
g81
I4
ssg82
g2076
sg75
(lp2083
g68
(g77
g70
NtRp2084
(dp2085
g73
(dp2086
g81
I3
ssg82
Nsg75
(lp2087
g68
(g84
g70
NtRp2088
(dp2089
g73
(dp2090
sg82
g2084
sg75
(lp2091
g68
(g89
g70
NtRp2092
(dp2093
g73
(dp2094
sg82
g2088
sg75
(lp2095
g68
(g69
g70
NtRp2096
(dp2097
g73
(dp2098
g81
I3
ssg82
g2092
sg75
(lp2099
S'1'
asbasbasbag68
(g84
g70
NtRp2100
(dp2101
g73
(dp2102
sg82
g2084
sg75
(lp2103
g68
(g89
g70
NtRp2104
(dp2105
g73
(dp2106
sg82
g2100
sg75
(lp2107
g68
(g69
g70
NtRp2108
(dp2109
g73
(dp2110
g81
I3
ssg82
g2104
sg75
(lp2111
S'99'
p2112
asbasbasbag68
(g84
g70
NtRp2113
(dp2114
g73
(dp2115
sg82
g2084
sg75
(lp2116
g68
(g89
g70
NtRp2117
(dp2118
g73
(dp2119
sg82
g2113
sg75
(lp2120
g68
(g69
g70
NtRp2121
(dp2122
g73
(dp2123
g81
I3
ssg82
g2117
sg75
(lp2124
S'2'
asbasbasbag68
(g84
g70
NtRp2125
(dp2126
g73
(dp2127
sg82
g2084
sg75
(lp2128
g68
(g89
g70
NtRp2129
(dp2130
g73
(dp2131
sg82
g2125
sg75
(lp2132
g68
(g69
g70
NtRp2133
(dp2134
g73
(dp2135
g81
I3
ssg82
g2129
sg75
(lp2136
S'datetime.datetime(2011, 9, 26, 6, 55, 33)'
p2137
asbasbasbag68
(g84
g70
NtRp2138
(dp2139
g73
(dp2140
sg82
g2084
sg75
(lp2141
g68
(g89
g70
NtRp2142
(dp2143
g73
(dp2144
sg82
g2138
sg75
(lp2145
g68
(g69
g70
NtRp2146
(dp2147
g73
(dp2148
g81
I3
ssg82
g2142
sg75
(lp2149
g1559
asbasbasbasbasbasbasbasbasbasbasbag68
(g84
g70
NtRp2150
(dp2151
g73
(dp2152
sg82
g78
sg75
(lp2153
g68
(g89
g70
NtRp2154
(dp2155
g73
(dp2156
g93
g94
ssg82
g2150
sg75
(lp2157
S'is_https'
p2158
asbag68
(g89
g70
NtRp2159
(dp2160
g73
(dp2161
g100
g101
ssg82
g2150
sg75
(lp2162
S':'
asbag68
(g89
g70
NtRp2163
(dp2164
g73
(dp2165
sg82
g2150
sg75
(lp2166
g68
(g69
g70
NtRp2167
(dp2168
g73
(dp2169
g81
I5
ssg82
g2163
sg75
(lp2170
g111
asbasbasbag68
(g84
g70
NtRp2171
(dp2172
g73
(dp2173
sg82
g78
sg75
(lp2174
g68
(g89
g70
NtRp2175
(dp2176
g73
(dp2177
g93
g94
ssg82
g2171
sg75
(lp2178
S'is_local'
p2179
asbag68
(g89
g70
NtRp2180
(dp2181
g73
(dp2182
g100
g101
ssg82
g2171
sg75
(lp2183
S':'
asbag68
(g89
g70
NtRp2184
(dp2185
g73
(dp2186
sg82
g2171
sg75
(lp2187
g68
(g69
g70
NtRp2188
(dp2189
g73
(dp2190
g81
I5
ssg82
g2184
sg75
(lp2191
g1668
asbasbasbag68
(g84
g70
NtRp2192
(dp2193
g73
(dp2194
sg82
g78
sg75
(lp2195
g68
(g89
g70
NtRp2196
(dp2197
g73
(dp2198
g93
g94
ssg82
g2192
sg75
(lp2199
S'is_restful'
p2200
asbag68
(g89
g70
NtRp2201
(dp2202
g73
(dp2203
g100
g101
ssg82
g2192
sg75
(lp2204
S':'
asbag68
(g89
g70
NtRp2205
(dp2206
g73
(dp2207
sg82
g2192
sg75
(lp2208
g68
(g69
g70
NtRp2209
(dp2210
g73
(dp2211
g81
I5
ssg82
g2205
sg75
(lp2212
g111
asbasbasbag68
(g84
g70
NtRp2213
(dp2214
g73
(dp2215
sg82
g78
sg75
(lp2216
g68
(g89
g70
NtRp2217
(dp2218
g73
(dp2219
g93
g94
ssg82
g2213
sg75
(lp2220
S'now'
p2221
asbag68
(g89
g70
NtRp2222
(dp2223
g73
(dp2224
g100
g101
ssg82
g2213
sg75
(lp2225
S':'
asbag68
(g89
g70
NtRp2226
(dp2227
g73
(dp2228
sg82
g2213
sg75
(lp2229
g68
(g69
g70
NtRp2230
(dp2231
g73
(dp2232
g81
I5
ssg82
g2226
sg75
(lp2233
S'datetime.datetime(2011, 10, 2, 19, 54, 58, 888550)'
p2234
asbasbasbag68
(g84
g70
NtRp2235
(dp2236
g73
(dp2237
sg82
g78
sg75
(lp2238
g68
(g89
g70
NtRp2239
(dp2240
g73
(dp2241
g93
g94
ssg82
g2235
sg75
(lp2242
S'post_vars'
p2243
asbag68
(g89
g70
NtRp2244
(dp2245
g73
(dp2246
g100
g101
ssg82
g2235
sg75
(lp2247
S':'
asbag68
(g89
g70
NtRp2248
(dp2249
g73
(dp2250
sg82
g2235
sg75
(lp2251
g68
(g69
g70
NtRp2252
(dp2253
g73
(dp2254
g81
I5
ssg82
g2248
sg75
(lp2255
g68
(g77
g70
NtRp2256
(dp2257
g73
(dp2258
g81
I4
ssg82
Nsg75
(lp2259
sbasbasbasbag68
(g84
g70
NtRp2260
(dp2261
g73
(dp2262
sg82
g78
sg75
(lp2263
g68
(g89
g70
NtRp2264
(dp2265
g73
(dp2266
g93
g94
ssg82
g2260
sg75
(lp2267
S'url'
p2268
asbag68
(g89
g70
NtRp2269
(dp2270
g73
(dp2271
g100
g101
ssg82
g2260
sg75
(lp2272
S':'
asbag68
(g89
g70
NtRp2273
(dp2274
g73
(dp2275
sg82
g2260
sg75
(lp2276
g68
(g69
g70
NtRp2277
(dp2278
g73
(dp2279
g81
I5
ssg82
g2273
sg75
(lp2280
S'/places/default/index'
p2281
asbasbasbag68
(g84
g70
NtRp2282
(dp2283
g73
(dp2284
sg82
g78
sg75
(lp2285
g68
(g89
g70
NtRp2286
(dp2287
g73
(dp2288
g93
g94
ssg82
g2282
sg75
(lp2289
S'utcnow'
p2290
asbag68
(g89
g70
NtRp2291
(dp2292
g73
(dp2293
g100
g101
ssg82
g2282
sg75
(lp2294
S':'
asbag68
(g89
g70
NtRp2295
(dp2296
g73
(dp2297
sg82
g2282
sg75
(lp2298
g68
(g69
g70
NtRp2299
(dp2300
g73
(dp2301
g81
I5
ssg82
g2295
sg75
(lp2302
S'datetime.datetime(2011, 10, 2, 23, 54, 58, 888603)'
p2303
asbasbasbag68
(g84
g70
NtRp2304
(dp2305
g73
(dp2306
sg82
g78
sg75
(lp2307
g68
(g89
g70
NtRp2308
(dp2309
g73
(dp2310
g93
g94
ssg82
g2304
sg75
(lp2311
S'uuid'
p2312
asbag68
(g89
g70
NtRp2313
(dp2314
g73
(dp2315
g100
g101
ssg82
g2304
sg75
(lp2316
S':'
asbag68
(g89
g70
NtRp2317
(dp2318
g73
(dp2319
sg82
g2304
sg75
(lp2320
g68
(g69
g70
NtRp2321
(dp2322
g73
(dp2323
g81
I5
ssg82
g2317
sg75
(lp2324
S'places/127.0.0.1.2011-10-02.19-54-58.9f134f83-bd6a-4a11-a7fe-c3bdd222a2cd'
p2325
asbasbasbag68
(g84
g70
NtRp2326
(dp2327
g73
(dp2328
sg82
g78
sg75
(lp2329
g68
(g89
g70
NtRp2330
(dp2331
g73
(dp2332
g93
g94
ssg82
g2326
sg75
(lp2333
S'vars'
p2334
asbag68
(g89
g70
NtRp2335
(dp2336
g73
(dp2337
g100
g101
ssg82
g2326
sg75
(lp2338
S':'
asbag68
(g89
g70
NtRp2339
(dp2340
g73
(dp2341
sg82
g2326
sg75
(lp2342
g68
(g69
g70
NtRp2343
(dp2344
g73
(dp2345
g81
I5
ssg82
g2339
sg75
(lp2346
g68
(g77
g70
NtRp2347
(dp2348
g73
(dp2349
g81
I4
ssg82
Nsg75
(lp2350
sbasbasbasbag68
(g84
g70
NtRp2351
(dp2352
g73
(dp2353
sg82
g78
sg75
(lp2354
g68
(g89
g70
NtRp2355
(dp2356
g73
(dp2357
g93
g94
ssg82
g2351
sg75
(lp2358
S'wsgi'
p2359
asbag68
(g89
g70
NtRp2360
(dp2361
g73
(dp2362
g100
g101
ssg82
g2351
sg75
(lp2363
S':'
asbag68
(g89
g70
NtRp2364
(dp2365
g73
(dp2366
sg82
g2351
sg75
(lp2367
g68
(g69
g70
NtRp2368
(dp2369
g73
(dp2370
g81
I5
ssg82
g2364
sg75
(lp2371
g68
(g77
g70
NtRp2372
(dp2373
g73
(dp2374
g81
I4
ssg82
Nsg75
(lp2375
g68
(g84
g70
NtRp2376
(dp2377
g73
(dp2378
sg82
g2372
sg75
(lp2379
g68
(g89
g70
NtRp2380
(dp2381
g73
(dp2382
g93
g94
ssg82
g2376
sg75
(lp2383
S'environ'
p2384
asbag68
(g89
g70
NtRp2385
(dp2386
g73
(dp2387
g100
g101
ssg82
g2376
sg75
(lp2388
S':'
asbag68
(g89
g70
NtRp2389
(dp2390
g73
(dp2391
sg82
g2376
sg75
(lp2392
g68
(g69
g70
NtRp2393
(dp2394
g73
(dp2395
g81
I4
ssg82
g2389
sg75
(lp2396
g68
(g77
g70
NtRp2397
(dp2398
g73
(dp2399
g81
I3
ssg82
Nsg75
(lp2400
g68
(g84
g70
NtRp2401
(dp2402
g73
(dp2403
sg82
g2397
sg75
(lp2404
g68
(g89
g70
NtRp2405
(dp2406
g73
(dp2407
g93
g94
ssg82
g2401
sg75
(lp2408
S'HTTP_ACCEPT'
p2409
asbag68
(g89
g70
NtRp2410
(dp2411
g73
(dp2412
g100
g101
ssg82
g2401
sg75
(lp2413
S':'
asbag68
(g89
g70
NtRp2414
(dp2415
g73
(dp2416
sg82
g2401
sg75
(lp2417
g68
(g69
g70
NtRp2418
(dp2419
g73
(dp2420
g81
I3
ssg82
g2414
sg75
(lp2421
g1014
asbasbasbag68
(g84
g70
NtRp2422
(dp2423
g73
(dp2424
sg82
g2397
sg75
(lp2425
g68
(g89
g70
NtRp2426
(dp2427
g73
(dp2428
g93
g94
ssg82
g2422
sg75
(lp2429
S'HTTP_ACCEPT_CHARSET'
p2430
asbag68
(g89
g70
NtRp2431
(dp2432
g73
(dp2433
g100
g101
ssg82
g2422
sg75
(lp2434
S':'
asbag68
(g89
g70
NtRp2435
(dp2436
g73
(dp2437
sg82
g2422
sg75
(lp2438
g68
(g69
g70
NtRp2439
(dp2440
g73
(dp2441
g81
I3
ssg82
g2435
sg75
(lp2442
g1036
asbasbasbag68
(g84
g70
NtRp2443
(dp2444
g73
(dp2445
sg82
g2397
sg75
(lp2446
g68
(g89
g70
NtRp2447
(dp2448
g73
(dp2449
g93
g94
ssg82
g2443
sg75
(lp2450
S'HTTP_ACCEPT_ENCODING'
p2451
asbag68
(g89
g70
NtRp2452
(dp2453
g73
(dp2454
g100
g101
ssg82
g2443
sg75
(lp2455
S':'
asbag68
(g89
g70
NtRp2456
(dp2457
g73
(dp2458
sg82
g2443
sg75
(lp2459
g68
(g69
g70
NtRp2460
(dp2461
g73
(dp2462
g81
I3
ssg82
g2456
sg75
(lp2463
g1058
asbasbasbag68
(g84
g70
NtRp2464
(dp2465
g73
(dp2466
sg82
g2397
sg75
(lp2467
g68
(g89
g70
NtRp2468
(dp2469
g73
(dp2470
g93
g94
ssg82
g2464
sg75
(lp2471
S'HTTP_ACCEPT_LANGUAGE'
p2472
asbag68
(g89
g70
NtRp2473
(dp2474
g73
(dp2475
g100
g101
ssg82
g2464
sg75
(lp2476
S':'
asbag68
(g89
g70
NtRp2477
(dp2478
g73
(dp2479
sg82
g2464
sg75
(lp2480
g68
(g69
g70
NtRp2481
(dp2482
g73
(dp2483
g81
I3
ssg82
g2477
sg75
(lp2484
g1080
asbasbasbag68
(g84
g70
NtRp2485
(dp2486
g73
(dp2487
sg82
g2397
sg75
(lp2488
g68
(g89
g70
NtRp2489
(dp2490
g73
(dp2491
g93
g94
ssg82
g2485
sg75
(lp2492
S'HTTP_CACHE_CONTROL'
p2493
asbag68
(g89
g70
NtRp2494
(dp2495
g73
(dp2496
g100
g101
ssg82
g2485
sg75
(lp2497
S':'
asbag68
(g89
g70
NtRp2498
(dp2499
g73
(dp2500
sg82
g2485
sg75
(lp2501
g68
(g69
g70
NtRp2502
(dp2503
g73
(dp2504
g81
I3
ssg82
g2498
sg75
(lp2505
g1102
asbasbasbag68
(g84
g70
NtRp2506
(dp2507
g73
(dp2508
sg82
g2397
sg75
(lp2509
g68
(g89
g70
NtRp2510
(dp2511
g73
(dp2512
g93
g94
ssg82
g2506
sg75
(lp2513
S'HTTP_CONNECTION'
p2514
asbag68
(g89
g70
NtRp2515
(dp2516
g73
(dp2517
g100
g101
ssg82
g2506
sg75
(lp2518
S':'
asbag68
(g89
g70
NtRp2519
(dp2520
g73
(dp2521
sg82
g2506
sg75
(lp2522
g68
(g69
g70
NtRp2523
(dp2524
g73
(dp2525
g81
I3
ssg82
g2519
sg75
(lp2526
g1124
asbasbasbag68
(g84
g70
NtRp2527
(dp2528
g73
(dp2529
sg82
g2397
sg75
(lp2530
g68
(g89
g70
NtRp2531
(dp2532
g73
(dp2533
g93
g94
ssg82
g2527
sg75
(lp2534
S'HTTP_COOKIE'
p2535
asbag68
(g89
g70
NtRp2536
(dp2537
g73
(dp2538
g100
g101
ssg82
g2527
sg75
(lp2539
S':'
asbag68
(g89
g70
NtRp2540
(dp2541
g73
(dp2542
sg82
g2527
sg75
(lp2543
g68
(g69
g70
NtRp2544
(dp2545
g73
(dp2546
g81
I3
ssg82
g2540
sg75
(lp2547
g1146
asbasbasbag68
(g84
g70
NtRp2548
(dp2549
g73
(dp2550
sg82
g2397
sg75
(lp2551
g68
(g89
g70
NtRp2552
(dp2553
g73
(dp2554
g93
g94
ssg82
g2548
sg75
(lp2555
S'HTTP_HOST'
p2556
asbag68
(g89
g70
NtRp2557
(dp2558
g73
(dp2559
g100
g101
ssg82
g2548
sg75
(lp2560
S':'
asbag68
(g89
g70
NtRp2561
(dp2562
g73
(dp2563
sg82
g2548
sg75
(lp2564
g68
(g69
g70
NtRp2565
(dp2566
g73
(dp2567
g81
I3
ssg82
g2561
sg75
(lp2568
g1168
asbasbasbag68
(g84
g70
NtRp2569
(dp2570
g73
(dp2571
sg82
g2397
sg75
(lp2572
g68
(g89
g70
NtRp2573
(dp2574
g73
(dp2575
g93
g94
ssg82
g2569
sg75
(lp2576
S'HTTP_USER_AGENT'
p2577
asbag68
(g89
g70
NtRp2578
(dp2579
g73
(dp2580
g100
g101
ssg82
g2569
sg75
(lp2581
S':'
asbag68
(g89
g70
NtRp2582
(dp2583
g73
(dp2584
sg82
g2569
sg75
(lp2585
g68
(g69
g70
NtRp2586
(dp2587
g73
(dp2588
g81
I3
ssg82
g2582
sg75
(lp2589
g1190
asbasbasbag68
(g84
g70
NtRp2590
(dp2591
g73
(dp2592
sg82
g2397
sg75
(lp2593
g68
(g89
g70
NtRp2594
(dp2595
g73
(dp2596
g93
g94
ssg82
g2590
sg75
(lp2597
S'PATH_INFO'
p2598
asbag68
(g89
g70
NtRp2599
(dp2600
g73
(dp2601
g100
g101
ssg82
g2590
sg75
(lp2602
S':'
asbag68
(g89
g70
NtRp2603
(dp2604
g73
(dp2605
sg82
g2590
sg75
(lp2606
g68
(g69
g70
NtRp2607
(dp2608
g73
(dp2609
g81
I3
ssg82
g2603
sg75
(lp2610
g1233
asbasbasbag68
(g84
g70
NtRp2611
(dp2612
g73
(dp2613
sg82
g2397
sg75
(lp2614
g68
(g89
g70
NtRp2615
(dp2616
g73
(dp2617
g93
g94
ssg82
g2611
sg75
(lp2618
S'QUERY_STRING'
p2619
asbag68
(g89
g70
NtRp2620
(dp2621
g73
(dp2622
g100
g101
ssg82
g2611
sg75
(lp2623
S':'
asbag68
(g89
g70
NtRp2624
(dp2625
g73
(dp2626
sg82
g2611
sg75
(lp2627
g68
(g69
g70
NtRp2628
(dp2629
g73
(dp2630
g81
I3
ssg82
g2624
sg75
(lp2631
S''
asbasbasbag68
(g84
g70
NtRp2632
(dp2633
g73
(dp2634
sg82
g2397
sg75
(lp2635
g68
(g89
g70
NtRp2636
(dp2637
g73
(dp2638
g93
g94
ssg82
g2632
sg75
(lp2639
S'REMOTE_ADDR'
p2640
asbag68
(g89
g70
NtRp2641
(dp2642
g73
(dp2643
g100
g101
ssg82
g2632
sg75
(lp2644
S':'
asbag68
(g89
g70
NtRp2645
(dp2646
g73
(dp2647
sg82
g2632
sg75
(lp2648
g68
(g69
g70
NtRp2649
(dp2650
g73
(dp2651
g81
I3
ssg82
g2645
sg75
(lp2652
g201
asbasbasbag68
(g84
g70
NtRp2653
(dp2654
g73
(dp2655
sg82
g2397
sg75
(lp2656
g68
(g89
g70
NtRp2657
(dp2658
g73
(dp2659
g93
g94
ssg82
g2653
sg75
(lp2660
S'REMOTE_PORT'
p2661
asbag68
(g89
g70
NtRp2662
(dp2663
g73
(dp2664
g100
g101
ssg82
g2653
sg75
(lp2665
S':'
asbag68
(g89
g70
NtRp2666
(dp2667
g73
(dp2668
sg82
g2653
sg75
(lp2669
g68
(g69
g70
NtRp2670
(dp2671
g73
(dp2672
g81
I3
ssg82
g2666
sg75
(lp2673
g1297
asbasbasbag68
(g84
g70
NtRp2674
(dp2675
g73
(dp2676
sg82
g2397
sg75
(lp2677
g68
(g89
g70
NtRp2678
(dp2679
g73
(dp2680
g93
g94
ssg82
g2674
sg75
(lp2681
S'REQUEST_METHOD'
p2682
asbag68
(g89
g70
NtRp2683
(dp2684
g73
(dp2685
g100
g101
ssg82
g2674
sg75
(lp2686
S':'
asbag68
(g89
g70
NtRp2687
(dp2688
g73
(dp2689
sg82
g2674
sg75
(lp2690
g68
(g69
g70
NtRp2691
(dp2692
g73
(dp2693
g81
I3
ssg82
g2687
sg75
(lp2694
g1319
asbasbasbag68
(g84
g70
NtRp2695
(dp2696
g73
(dp2697
sg82
g2397
sg75
(lp2698
g68
(g89
g70
NtRp2699
(dp2700
g73
(dp2701
g93
g94
ssg82
g2695
sg75
(lp2702
S'SCRIPT_NAME'
p2703
asbag68
(g89
g70
NtRp2704
(dp2705
g73
(dp2706
g100
g101
ssg82
g2695
sg75
(lp2707
S':'
asbag68
(g89
g70
NtRp2708
(dp2709
g73
(dp2710
sg82
g2695
sg75
(lp2711
g68
(g69
g70
NtRp2712
(dp2713
g73
(dp2714
g81
I3
ssg82
g2708
sg75
(lp2715
S''
asbasbasbag68
(g84
g70
NtRp2716
(dp2717
g73
(dp2718
sg82
g2397
sg75
(lp2719
g68
(g89
g70
NtRp2720
(dp2721
g73
(dp2722
g93
g94
ssg82
g2716
sg75
(lp2723
S'SERVER_NAME'
p2724
asbag68
(g89
g70
NtRp2725
(dp2726
g73
(dp2727
g100
g101
ssg82
g2716
sg75
(lp2728
S':'
asbag68
(g89
g70
NtRp2729
(dp2730
g73
(dp2731
sg82
g2716
sg75
(lp2732
g68
(g69
g70
NtRp2733
(dp2734
g73
(dp2735
g81
I3
ssg82
g2729
sg75
(lp2736
g1362
asbasbasbag68
(g84
g70
NtRp2737
(dp2738
g73
(dp2739
sg82
g2397
sg75
(lp2740
g68
(g89
g70
NtRp2741
(dp2742
g73
(dp2743
g93
g94
ssg82
g2737
sg75
(lp2744
S'SERVER_PORT'
p2745
asbag68
(g89
g70
NtRp2746
(dp2747
g73
(dp2748
g100
g101
ssg82
g2737
sg75
(lp2749
S':'
asbag68
(g89
g70
NtRp2750
(dp2751
g73
(dp2752
sg82
g2737
sg75
(lp2753
g68
(g69
g70
NtRp2754
(dp2755
g73
(dp2756
g81
I3
ssg82
g2750
sg75
(lp2757
g1384
asbasbasbag68
(g84
g70
NtRp2758
(dp2759
g73
(dp2760
sg82
g2397
sg75
(lp2761
g68
(g89
g70
NtRp2762
(dp2763
g73
(dp2764
g93
g94
ssg82
g2758
sg75
(lp2765
S'SERVER_PROTOCOL'
p2766
asbag68
(g89
g70
NtRp2767
(dp2768
g73
(dp2769
g100
g101
ssg82
g2758
sg75
(lp2770
S':'
asbag68
(g89
g70
NtRp2771
(dp2772
g73
(dp2773
sg82
g2758
sg75
(lp2774
g68
(g69
g70
NtRp2775
(dp2776
g73
(dp2777
g81
I3
ssg82
g2771
sg75
(lp2778
g1406
asbasbasbag68
(g84
g70
NtRp2779
(dp2780
g73
(dp2781
sg82
g2397
sg75
(lp2782
g68
(g89
g70
NtRp2783
(dp2784
g73
(dp2785
g93
g94
ssg82
g2779
sg75
(lp2786
S'SERVER_SOFTWARE'
p2787
asbag68
(g89
g70
NtRp2788
(dp2789
g73
(dp2790
g100
g101
ssg82
g2779
sg75
(lp2791
S':'
asbag68
(g89
g70
NtRp2792
(dp2793
g73
(dp2794
sg82
g2779
sg75
(lp2795
g68
(g69
g70
NtRp2796
(dp2797
g73
(dp2798
g81
I3
ssg82
g2792
sg75
(lp2799
g1428
asbasbasbag68
(g84
g70
NtRp2800
(dp2801
g73
(dp2802
sg82
g2397
sg75
(lp2803
g68
(g89
g70
NtRp2804
(dp2805
g73
(dp2806
g93
g94
ssg82
g2800
sg75
(lp2807
S'wsgi.errors'
p2808
asbag68
(g89
g70
NtRp2809
(dp2810
g73
(dp2811
g100
g101
ssg82
g2800
sg75
(lp2812
S':'
asbag68
(g89
g70
NtRp2813
(dp2814
g73
(dp2815
sg82
g2800
sg75
(lp2816
g68
(g69
g70
NtRp2817
(dp2818
g73
(dp2819
g81
I3
ssg82
g2813
sg75
(lp2820
S"<open file '<stderr>', mode 'w' at 0x7f6d3a48b270>"
p2821
asbasbasbag68
(g84
g70
NtRp2822
(dp2823
g73
(dp2824
sg82
g2397
sg75
(lp2825
g68
(g89
g70
NtRp2826
(dp2827
g73
(dp2828
g93
g94
ssg82
g2822
sg75
(lp2829
S'wsgi.file_wrapper'
p2830
asbag68
(g89
g70
NtRp2831
(dp2832
g73
(dp2833
g100
g101
ssg82
g2822
sg75
(lp2834
S':'
asbag68
(g89
g70
NtRp2835
(dp2836
g73
(dp2837
sg82
g2822
sg75
(lp2838
g68
(g69
g70
NtRp2839
(dp2840
g73
(dp2841
g81
I3
ssg82
g2835
sg75
(lp2842
S'<class wsgiref.util.FileWrapper at 0x25957a0>'
p2843
asbasbasbag68
(g84
g70
NtRp2844
(dp2845
g73
(dp2846
sg82
g2397
sg75
(lp2847
g68
(g89
g70
NtRp2848
(dp2849
g73
(dp2850
g93
g94
ssg82
g2844
sg75
(lp2851
S'wsgi.input'
p2852
asbag68
(g89
g70
NtRp2853
(dp2854
g73
(dp2855
g100
g101
ssg82
g2844
sg75
(lp2856
S':'
asbag68
(g89
g70
NtRp2857
(dp2858
g73
(dp2859
sg82
g2844
sg75
(lp2860
g68
(g69
g70
NtRp2861
(dp2862
g73
(dp2863
g81
I3
ssg82
g2857
sg75
(lp2864
S'<cStringIO.StringO object at 0x3202ed8>'
p2865
asbasbasbag68
(g84
g70
NtRp2866
(dp2867
g73
(dp2868
sg82
g2397
sg75
(lp2869
g68
(g89
g70
NtRp2870
(dp2871
g73
(dp2872
g93
g94
ssg82
g2866
sg75
(lp2873
S'wsgi.multiprocess'
p2874
asbag68
(g89
g70
NtRp2875
(dp2876
g73
(dp2877
g100
g101
ssg82
g2866
sg75
(lp2878
S':'
asbag68
(g89
g70
NtRp2879
(dp2880
g73
(dp2881
sg82
g2866
sg75
(lp2882
g68
(g69
g70
NtRp2883
(dp2884
g73
(dp2885
g81
I3
ssg82
g2879
sg75
(lp2886
g111
asbasbasbag68
(g84
g70
NtRp2887
(dp2888
g73
(dp2889
sg82
g2397
sg75
(lp2890
g68
(g89
g70
NtRp2891
(dp2892
g73
(dp2893
g93
g94
ssg82
g2887
sg75
(lp2894
S'wsgi.multithread'
p2895
asbag68
(g89
g70
NtRp2896
(dp2897
g73
(dp2898
g100
g101
ssg82
g2887
sg75
(lp2899
S':'
asbag68
(g89
g70
NtRp2900
(dp2901
g73
(dp2902
sg82
g2887
sg75
(lp2903
g68
(g69
g70
NtRp2904
(dp2905
g73
(dp2906
g81
I3
ssg82
g2900
sg75
(lp2907
g1668
asbasbasbag68
(g84
g70
NtRp2908
(dp2909
g73
(dp2910
sg82
g2397
sg75
(lp2911
g68
(g89
g70
NtRp2912
(dp2913
g73
(dp2914
g93
g94
ssg82
g2908
sg75
(lp2915
S'wsgi.run_once'
p2916
asbag68
(g89
g70
NtRp2917
(dp2918
g73
(dp2919
g100
g101
ssg82
g2908
sg75
(lp2920
S':'
asbag68
(g89
g70
NtRp2921
(dp2922
g73
(dp2923
sg82
g2908
sg75
(lp2924
g68
(g69
g70
NtRp2925
(dp2926
g73
(dp2927
g81
I3
ssg82
g2921
sg75
(lp2928
g111
asbasbasbag68
(g84
g70
NtRp2929
(dp2930
g73
(dp2931
sg82
g2397
sg75
(lp2932
g68
(g89
g70
NtRp2933
(dp2934
g73
(dp2935
g93
g94
ssg82
g2929
sg75
(lp2936
S'wsgi.url_scheme'
p2937
asbag68
(g89
g70
NtRp2938
(dp2939
g73
(dp2940
g100
g101
ssg82
g2929
sg75
(lp2941
S':'
asbag68
(g89
g70
NtRp2942
(dp2943
g73
(dp2944
sg82
g2929
sg75
(lp2945
g68
(g69
g70
NtRp2946
(dp2947
g73
(dp2948
g81
I3
ssg82
g2942
sg75
(lp2949
g1711
asbasbasbag68
(g84
g70
NtRp2950
(dp2951
g73
(dp2952
sg82
g2397
sg75
(lp2953
g68
(g89
g70
NtRp2954
(dp2955
g73
(dp2956
g93
g94
ssg82
g2950
sg75
(lp2957
S'wsgi.version'
p2958
asbag68
(g89
g70
NtRp2959
(dp2960
g73
(dp2961
g100
g101
ssg82
g2950
sg75
(lp2962
S':'
asbag68
(g89
g70
NtRp2963
(dp2964
g73
(dp2965
sg82
g2950
sg75
(lp2966
g68
(g69
g70
NtRp2967
(dp2968
g73
(dp2969
g81
I3
ssg82
g2963
sg75
(lp2970
S'1'
asbasbasbasbasbasbasbasbasbasbasbasbasbsS'frames'
p2971
(lp2972
(dp2973
S'file'
p2974
S'/home/ian/web2py/gluon/restricted.py'
p2975
sS'dump'
p2976
(dp2977
S'code'
p2978
S"'# -*- coding: utf-8 -*-\\n# this file is released ...e_title)\\n\\nresponse._vars=response._caller(index)\\n'"
p2979
sS'layer'
p2980
S"'/home/ian/web2py/applications/places/controllers/default.py'"
p2981
sS'global compile2'
p2982
S'<function compile2>'
p2983
sS'ccode'
p2984
S'undefined'
p2985
ssS'lnum'
p2986
I193
sS'lines'
p2987
(dp2988
I192
S'        else:'
p2989
sI193
S'            ccode = compile2(code,layer)'
p2990
sI194
S'        exec ccode in environment'
p2991
sI195
S'    except HTTP:'
p2992
sI196
S'        raise'
p2993
sI197
S'    except Exception, error:'
p2994
sI188
S"    environment['__file__'] = layer"
p2995
sI189
S'    try:'
p2996
sI190
S'        if type(code) == types.CodeType:'
p2997
sI191
S'            ccode = code'
p2998
ssS'call'
p2999
S"(code='# -*- coding: utf-8 -*-\\n# this file is released ...e_title)\\n\\nresponse._vars=response._caller(index)\\n', environment={'A': <class 'gluon.html.A'>, 'Auth': <class 'gluon.tools.Auth'>, 'B': <class 'gluon.html.B'>, 'BEAUTIFY': <class 'gluon.html.BEAUTIFY'>, 'BODY': <class 'gluon.html.BODY'>, 'BR': <class 'gluon.html.BR'>, 'BUTTON': <class 'gluon.html.BUTTON'>, 'CAT': <class 'gluon.html.CAT'>, 'CENTER': <class 'gluon.html.CENTER'>, 'CLEANUP': <class 'gluon.validators.CLEANUP'>, ...}, layer='/home/ian/web2py/applications/places/controllers/default.py')"
p3000
sS'func'
p3001
S'restricted'
p3002
sa(dp3003
g2974
S'/home/ian/web2py/gluon/restricted.py'
p3004
sg2976
(dp3005
S'builtincompile'
p3006
S'<built-in function compile>'
p3007
sS'code'
p3008
S"'# -*- coding: utf-8 -*-\\n# this file is released ...e_title)\\n\\nresponse._vars=response._caller(index)\\n'"
p3009
sS'code.rstrip'
p3010
S'<built-in method rstrip of str object>'
p3011
sS').replace'
p3012
g2985
sS'layer'
p3013
S"'/home/ian/web2py/applications/places/controllers/default.py'"
p3014
ssg2986
I179
sg2987
(dp3015
I174
S''
sI175
S'def compile2(code,layer):'
p3016
sI176
S'    """'
p3017
sI177
S"    The +'\\n' is necessary else compile fails when code ends in a comment."
p3018
sI178
S'    """'
p3019
sI179
S"    return compile(code.rstrip().replace('\\r\\n','\\n')+'\\n', layer, 'exec')"
p3020
sI180
S''
sI181
S"def restricted(code, environment=None, layer='Unknown'):"
p3021
sI182
S'    """'
p3022
sI183
S'    runs code in environment and returns the output. if an exception occurs'
p3023
ssg2999
S"(code='# -*- coding: utf-8 -*-\\n# this file is released ...e_title)\\n\\nresponse._vars=response._caller(index)\\n', layer='/home/ian/web2py/applications/places/controllers/default.py')"
p3024
sg3001
S'compile2'
p3025
sasS'pyver'
p3026
S'Python 2.7.1+: /usr/bin/python2.7'
p3027
sS'session'
p3028
g68
(g69
g70
NtRp3029
(dp3030
g73
(dp3031
sg75
(lp3032
g68
(g77
g70
NtRp3033
(dp3034
g73
(dp3035
g81
I5
ssg82
Nsg75
(lp3036
g68
(g84
g70
NtRp3037
(dp3038
g73
(dp3039
sg82
g3033
sg75
(lp3040
g68
(g89
g70
NtRp3041
(dp3042
g73
(dp3043
g93
g94
ssg82
g3037
sg75
(lp3044
S'current'
p3045
asbag68
(g89
g70
NtRp3046
(dp3047
g73
(dp3048
g100
g101
ssg82
g3037
sg75
(lp3049
S':'
asbag68
(g89
g70
NtRp3050
(dp3051
g73
(dp3052
sg82
g3037
sg75
(lp3053
g68
(g69
g70
NtRp3054
(dp3055
g73
(dp3056
g81
I5
ssg82
g3050
sg75
(lp3057
S'kitchen'
p3058
asbasbasbag68
(g84
g70
NtRp3059
(dp3060
g73
(dp3061
sg82
g3033
sg75
(lp3062
g68
(g89
g70
NtRp3063
(dp3064
g73
(dp3065
g93
g94
ssg82
g3059
sg75
(lp3066
S'current_view'
p3067
asbag68
(g89
g70
NtRp3068
(dp3069
g73
(dp3070
g100
g101
ssg82
g3059
sg75
(lp3071
S':'
asbag68
(g89
g70
NtRp3072
(dp3073
g73
(dp3074
sg82
g3059
sg75
(lp3075
g68
(g69
g70
NtRp3076
(dp3077
g73
(dp3078
g81
I5
ssg82
g3072
sg75
(lp3079
S'kitchen'
p3080
asbasbasbag68
(g84
g70
NtRp3081
(dp3082
g73
(dp3083
sg82
g3033
sg75
(lp3084
g68
(g89
g70
NtRp3085
(dp3086
g73
(dp3087
g93
g94
ssg82
g3081
sg75
(lp3088
S'the_view'
p3089
asbag68
(g89
g70
NtRp3090
(dp3091
g73
(dp3092
g100
g101
ssg82
g3081
sg75
(lp3093
S':'
asbag68
(g89
g70
NtRp3094
(dp3095
g73
(dp3096
sg82
g3081
sg75
(lp3097
g68
(g69
g70
NtRp3098
(dp3099
g73
(dp3100
g81
I5
ssg82
g3094
sg75
(lp3101
S'kitchen'
p3102
asbasbasbasbasbsS'etype'
p3103
S"<type 'exceptions.IndentationError'>"
p3104
sS'date'
p3105
S'Sun Oct  2 19:54:58 2011'
p3106
sS'response'
p3107
g68
(g69
g70
NtRp3108
(dp3109
g73
(dp3110
sg75
(lp3111
g68
(g77
g70
NtRp3112
(dp3113
g73
(dp3114
g81
I5
ssg82
Nsg75
(lp3115
g68
(g84
g70
NtRp3116
(dp3117
g73
(dp3118
sg82
g3112
sg75
(lp3119
g68
(g89
g70
NtRp3120
(dp3121
g73
(dp3122
g93
g94
ssg82
g3116
sg75
(lp3123
g166
asbag68
(g89
g70
NtRp3124
(dp3125
g73
(dp3126
g100
g101
ssg82
g3116
sg75
(lp3127
S':'
asbag68
(g89
g70
NtRp3128
(dp3129
g73
(dp3130
sg82
g3116
sg75
(lp3131
g68
(g69
g70
NtRp3132
(dp3133
g73
(dp3134
g81
I5
ssg82
g3128
sg75
(lp3135
S'<cStringIO.StringO object at 0x3202b20>'
p3136
asbasbasbag68
(g84
g70
NtRp3137
(dp3138
g73
(dp3139
sg82
g3112
sg75
(lp3140
g68
(g89
g70
NtRp3141
(dp3142
g73
(dp3143
g93
g94
ssg82
g3137
sg75
(lp3144
g232
asbag68
(g89
g70
NtRp3145
(dp3146
g73
(dp3147
g100
g101
ssg82
g3137
sg75
(lp3148
S':'
asbag68
(g89
g70
NtRp3149
(dp3150
g73
(dp3151
sg82
g3137
sg75
(lp3152
g68
(g69
g70
NtRp3153
(dp3154
g73
(dp3155
g81
I5
ssg82
g3149
sg75
(lp3156
g68
(g77
g70
NtRp3157
(dp3158
g73
(dp3159
g81
I4
ssg82
Nsg75
(lp3160
g68
(g84
g70
NtRp3161
(dp3162
g73
(dp3163
sg82
g3157
sg75
(lp3164
g68
(g89
g70
NtRp3165
(dp3166
g73
(dp3167
g93
g94
ssg82
g3161
sg75
(lp3168
S'session_id_places'
p3169
asbag68
(g89
g70
NtRp3170
(dp3171
g73
(dp3172
g100
g101
ssg82
g3161
sg75
(lp3173
S':'
asbag68
(g89
g70
NtRp3174
(dp3175
g73
(dp3176
sg82
g3161
sg75
(lp3177
g68
(g69
g70
NtRp3178
(dp3179
g73
(dp3180
g81
I4
ssg82
g3174
sg75
(lp3181
g68
(g77
g70
NtRp3182
(dp3183
g73
(dp3184
g81
I3
ssg82
Nsg75
(lp3185
g68
(g84
g70
NtRp3186
(dp3187
g73
(dp3188
sg82
g3182
sg75
(lp3189
g68
(g89
g70
NtRp3190
(dp3191
g73
(dp3192
g93
g94
ssg82
g3186
sg75
(lp3193
g282
asbag68
(g89
g70
NtRp3194
(dp3195
g73
(dp3196
g100
g101
ssg82
g3186
sg75
(lp3197
S':'
asbag68
(g89
g70
NtRp3198
(dp3199
g73
(dp3200
sg82
g3186
sg75
(lp3201
g68
(g69
g70
NtRp3202
(dp3203
g73
(dp3204
g81
I3
ssg82
g3198
sg75
(lp3205
S''
asbasbasbag68
(g84
g70
NtRp3206
(dp3207
g73
(dp3208
sg82
g3182
sg75
(lp3209
g68
(g89
g70
NtRp3210
(dp3211
g73
(dp3212
g93
g94
ssg82
g3206
sg75
(lp3213
g303
asbag68
(g89
g70
NtRp3214
(dp3215
g73
(dp3216
g100
g101
ssg82
g3206
sg75
(lp3217
S':'
asbag68
(g89
g70
NtRp3218
(dp3219
g73
(dp3220
sg82
g3206
sg75
(lp3221
g68
(g69
g70
NtRp3222
(dp3223
g73
(dp3224
g81
I3
ssg82
g3218
sg75
(lp3225
S''
asbasbasbag68
(g84
g70
NtRp3226
(dp3227
g73
(dp3228
sg82
g3182
sg75
(lp3229
g68
(g89
g70
NtRp3230
(dp3231
g73
(dp3232
g93
g94
ssg82
g3226
sg75
(lp3233
g324
asbag68
(g89
g70
NtRp3234
(dp3235
g73
(dp3236
g100
g101
ssg82
g3226
sg75
(lp3237
S':'
asbag68
(g89
g70
NtRp3238
(dp3239
g73
(dp3240
sg82
g3226
sg75
(lp3241
g68
(g69
g70
NtRp3242
(dp3243
g73
(dp3244
g81
I3
ssg82
g3238
sg75
(lp3245
S''
asbasbasbag68
(g84
g70
NtRp3246
(dp3247
g73
(dp3248
sg82
g3182
sg75
(lp3249
g68
(g89
g70
NtRp3250
(dp3251
g73
(dp3252
g93
g94
ssg82
g3246
sg75
(lp3253
g345
asbag68
(g89
g70
NtRp3254
(dp3255
g73
(dp3256
g100
g101
ssg82
g3246
sg75
(lp3257
S':'
asbag68
(g89
g70
NtRp3258
(dp3259
g73
(dp3260
sg82
g3246
sg75
(lp3261
g68
(g69
g70
NtRp3262
(dp3263
g73
(dp3264
g81
I3
ssg82
g3258
sg75
(lp3265
S''
asbasbasbag68
(g84
g70
NtRp3266
(dp3267
g73
(dp3268
sg82
g3182
sg75
(lp3269
g68
(g89
g70
NtRp3270
(dp3271
g73
(dp3272
g93
g94
ssg82
g3266
sg75
(lp3273
g366
asbag68
(g89
g70
NtRp3274
(dp3275
g73
(dp3276
g100
g101
ssg82
g3266
sg75
(lp3277
S':'
asbag68
(g89
g70
NtRp3278
(dp3279
g73
(dp3280
sg82
g3266
sg75
(lp3281
g68
(g69
g70
NtRp3282
(dp3283
g73
(dp3284
g81
I3
ssg82
g3278
sg75
(lp3285
S''
asbasbasbag68
(g84
g70
NtRp3286
(dp3287
g73
(dp3288
sg82
g3182
sg75
(lp3289
g68
(g89
g70
NtRp3290
(dp3291
g73
(dp3292
g93
g94
ssg82
g3286
sg75
(lp3293
g387
asbag68
(g89
g70
NtRp3294
(dp3295
g73
(dp3296
g100
g101
ssg82
g3286
sg75
(lp3297
S':'
asbag68
(g89
g70
NtRp3298
(dp3299
g73
(dp3300
sg82
g3286
sg75
(lp3301
g68
(g69
g70
NtRp3302
(dp3303
g73
(dp3304
g81
I3
ssg82
g3298
sg75
(lp3305
S'/'
asbasbasbag68
(g84
g70
NtRp3306
(dp3307
g73
(dp3308
sg82
g3182
sg75
(lp3309
g68
(g89
g70
NtRp3310
(dp3311
g73
(dp3312
g93
g94
ssg82
g3306
sg75
(lp3313
g408
asbag68
(g89
g70
NtRp3314
(dp3315
g73
(dp3316
g100
g101
ssg82
g3306
sg75
(lp3317
S':'
asbag68
(g89
g70
NtRp3318
(dp3319
g73
(dp3320
sg82
g3306
sg75
(lp3321
g68
(g69
g70
NtRp3322
(dp3323
g73
(dp3324
g81
I3
ssg82
g3318
sg75
(lp3325
S''
asbasbasbag68
(g84
g70
NtRp3326
(dp3327
g73
(dp3328
sg82
g3182
sg75
(lp3329
g68
(g89
g70
NtRp3330
(dp3331
g73
(dp3332
g93
g94
ssg82
g3326
sg75
(lp3333
g429
asbag68
(g89
g70
NtRp3334
(dp3335
g73
(dp3336
g100
g101
ssg82
g3326
sg75
(lp3337
S':'
asbag68
(g89
g70
NtRp3338
(dp3339
g73
(dp3340
sg82
g3326
sg75
(lp3341
g68
(g69
g70
NtRp3342
(dp3343
g73
(dp3344
g81
I3
ssg82
g3338
sg75
(lp3345
S''
asbasbasbasbasbasbasbasbasbasbasbag68
(g84
g70
NtRp3346
(dp3347
g73
(dp3348
sg82
g3112
sg75
(lp3349
g68
(g89
g70
NtRp3350
(dp3351
g73
(dp3352
g93
g94
ssg82
g3346
sg75
(lp3353
S'files'
p3354
asbag68
(g89
g70
NtRp3355
(dp3356
g73
(dp3357
g100
g101
ssg82
g3346
sg75
(lp3358
S':'
asbag68
(g89
g70
NtRp3359
(dp3360
g73
(dp3361
sg82
g3346
sg75
(lp3362
g68
(g69
g70
NtRp3363
(dp3364
g73
(dp3365
g81
I5
ssg82
g3359
sg75
(lp3366
g68
(g77
g70
NtRp3367
(dp3368
g73
(dp3369
g81
I4
ssg82
Nsg75
(lp3370
sbasbasbasbag68
(g84
g70
NtRp3371
(dp3372
g73
(dp3373
sg82
g3112
sg75
(lp3374
g68
(g89
g70
NtRp3375
(dp3376
g73
(dp3377
g93
g94
ssg82
g3371
sg75
(lp3378
S'flash'
p3379
asbag68
(g89
g70
NtRp3380
(dp3381
g73
(dp3382
g100
g101
ssg82
g3371
sg75
(lp3383
S':'
asbag68
(g89
g70
NtRp3384
(dp3385
g73
(dp3386
sg82
g3371
sg75
(lp3387
g68
(g69
g70
NtRp3388
(dp3389
g73
(dp3390
g81
I5
ssg82
g3384
sg75
(lp3391
S''
asbasbasbag68
(g84
g70
NtRp3392
(dp3393
g73
(dp3394
sg82
g3112
sg75
(lp3395
g68
(g89
g70
NtRp3396
(dp3397
g73
(dp3398
g93
g94
ssg82
g3392
sg75
(lp3399
S'generic_patterns'
p3400
asbag68
(g89
g70
NtRp3401
(dp3402
g73
(dp3403
g100
g101
ssg82
g3392
sg75
(lp3404
S':'
asbag68
(g89
g70
NtRp3405
(dp3406
g73
(dp3407
sg82
g3392
sg75
(lp3408
g68
(g69
g70
NtRp3409
(dp3410
g73
(dp3411
g81
I5
ssg82
g3405
sg75
(lp3412
g68
(g77
g70
NtRp3413
(dp3414
g73
(dp3415
g81
I4
ssg82
Nsg75
(lp3416
g68
(g84
g70
NtRp3417
(dp3418
g73
(dp3419
sg82
g3413
sg75
(lp3420
g68
(g89
g70
NtRp3421
(dp3422
g73
(dp3423
sg82
g3417
sg75
(lp3424
g68
(g69
g70
NtRp3425
(dp3426
g73
(dp3427
g81
I4
ssg82
g3421
sg75
(lp3428
S'*'
asbasbasbasbasbasbasbag68
(g84
g70
NtRp3429
(dp3430
g73
(dp3431
sg82
g3112
sg75
(lp3432
g68
(g89
g70
NtRp3433
(dp3434
g73
(dp3435
g93
g94
ssg82
g3429
sg75
(lp3436
S'headers'
p3437
asbag68
(g89
g70
NtRp3438
(dp3439
g73
(dp3440
g100
g101
ssg82
g3429
sg75
(lp3441
S':'
asbag68
(g89
g70
NtRp3442
(dp3443
g73
(dp3444
sg82
g3429
sg75
(lp3445
g68
(g69
g70
NtRp3446
(dp3447
g73
(dp3448
g81
I5
ssg82
g3442
sg75
(lp3449
g68
(g77
g70
NtRp3450
(dp3451
g73
(dp3452
g81
I4
ssg82
Nsg75
(lp3453
g68
(g84
g70
NtRp3454
(dp3455
g73
(dp3456
sg82
g3450
sg75
(lp3457
g68
(g89
g70
NtRp3458
(dp3459
g73
(dp3460
g93
g94
ssg82
g3454
sg75
(lp3461
S'Cache-Control'
p3462
asbag68
(g89
g70
NtRp3463
(dp3464
g73
(dp3465
g100
g101
ssg82
g3454
sg75
(lp3466
S':'
asbag68
(g89
g70
NtRp3467
(dp3468
g73
(dp3469
sg82
g3454
sg75
(lp3470
g68
(g69
g70
NtRp3471
(dp3472
g73
(dp3473
g81
I4
ssg82
g3467
sg75
(lp3474
S'no-store, no-cache, must-revalidate, post-check=0, pre-check=0'
p3475
asbasbasbag68
(g84
g70
NtRp3476
(dp3477
g73
(dp3478
sg82
g3450
sg75
(lp3479
g68
(g89
g70
NtRp3480
(dp3481
g73
(dp3482
g93
g94
ssg82
g3476
sg75
(lp3483
S'Content-Type'
p3484
asbag68
(g89
g70
NtRp3485
(dp3486
g73
(dp3487
g100
g101
ssg82
g3476
sg75
(lp3488
S':'
asbag68
(g89
g70
NtRp3489
(dp3490
g73
(dp3491
sg82
g3476
sg75
(lp3492
g68
(g69
g70
NtRp3493
(dp3494
g73
(dp3495
g81
I4
ssg82
g3489
sg75
(lp3496
S'text/html; charset=utf-8'
p3497
asbasbasbag68
(g84
g70
NtRp3498
(dp3499
g73
(dp3500
sg82
g3450
sg75
(lp3501
g68
(g89
g70
NtRp3502
(dp3503
g73
(dp3504
g93
g94
ssg82
g3498
sg75
(lp3505
S'Expires'
p3506
asbag68
(g89
g70
NtRp3507
(dp3508
g73
(dp3509
g100
g101
ssg82
g3498
sg75
(lp3510
S':'
asbag68
(g89
g70
NtRp3511
(dp3512
g73
(dp3513
sg82
g3498
sg75
(lp3514
g68
(g69
g70
NtRp3515
(dp3516
g73
(dp3517
g81
I4
ssg82
g3511
sg75
(lp3518
S'Sun, 02 Oct 2011 23:54:58 GMT'
p3519
asbasbasbag68
(g84
g70
NtRp3520
(dp3521
g73
(dp3522
sg82
g3450
sg75
(lp3523
g68
(g89
g70
NtRp3524
(dp3525
g73
(dp3526
g93
g94
ssg82
g3520
sg75
(lp3527
S'Pragma'
p3528
asbag68
(g89
g70
NtRp3529
(dp3530
g73
(dp3531
g100
g101
ssg82
g3520
sg75
(lp3532
S':'
asbag68
(g89
g70
NtRp3533
(dp3534
g73
(dp3535
sg82
g3520
sg75
(lp3536
g68
(g69
g70
NtRp3537
(dp3538
g73
(dp3539
g81
I4
ssg82
g3533
sg75
(lp3540
S'no-cache'
p3541
asbasbasbag68
(g84
g70
NtRp3542
(dp3543
g73
(dp3544
sg82
g3450
sg75
(lp3545
g68
(g89
g70
NtRp3546
(dp3547
g73
(dp3548
g93
g94
ssg82
g3542
sg75
(lp3549
S'X-Powered-By'
p3550
asbag68
(g89
g70
NtRp3551
(dp3552
g73
(dp3553
g100
g101
ssg82
g3542
sg75
(lp3554
S':'
asbag68
(g89
g70
NtRp3555
(dp3556
g73
(dp3557
sg82
g3542
sg75
(lp3558
g68
(g69
g70
NtRp3559
(dp3560
g73
(dp3561
g81
I4
ssg82
g3555
sg75
(lp3562
S'web2py'
p3563
asbasbasbasbasbasbasbag68
(g84
g70
NtRp3564
(dp3565
g73
(dp3566
sg82
g3112
sg75
(lp3567
g68
(g89
g70
NtRp3568
(dp3569
g73
(dp3570
g93
g94
ssg82
g3564
sg75
(lp3571
S'menu'
p3572
asbag68
(g89
g70
NtRp3573
(dp3574
g73
(dp3575
g100
g101
ssg82
g3564
sg75
(lp3576
S':'
asbag68
(g89
g70
NtRp3577
(dp3578
g73
(dp3579
sg82
g3564
sg75
(lp3580
g68
(g69
g70
NtRp3581
(dp3582
g73
(dp3583
g81
I5
ssg82
g3577
sg75
(lp3584
g68
(g77
g70
NtRp3585
(dp3586
g73
(dp3587
g81
I4
ssg82
Nsg75
(lp3588
g68
(g84
g70
NtRp3589
(dp3590
g73
(dp3591
sg82
g3585
sg75
(lp3592
g68
(g89
g70
NtRp3593
(dp3594
g73
(dp3595
sg82
g3589
sg75
(lp3596
g68
(g69
g70
NtRp3597
(dp3598
g73
(dp3599
g81
I4
ssg82
g3593
sg75
(lp3600
g68
(g77
g70
NtRp3601
(dp3602
g73
(dp3603
g81
I3
ssg82
Nsg75
(lp3604
g68
(g84
g70
NtRp3605
(dp3606
g73
(dp3607
sg82
g3601
sg75
(lp3608
g68
(g89
g70
NtRp3609
(dp3610
g73
(dp3611
sg82
g3605
sg75
(lp3612
g68
(g69
g70
NtRp3613
(dp3614
g73
(dp3615
g81
I3
ssg82
g3609
sg75
(lp3616
cgluon.languages
lazyT_unpickle
p3617
(S't\x04\x00\x00\x00Home'
tRp3618
asbasbasbag68
(g84
g70
NtRp3619
(dp3620
g73
(dp3621
sg82
g3601
sg75
(lp3622
g68
(g89
g70
NtRp3623
(dp3624
g73
(dp3625
sg82
g3619
sg75
(lp3626
g68
(g69
g70
NtRp3627
(dp3628
g73
(dp3629
g81
I3
ssg82
g3623
sg75
(lp3630
g111
asbasbasbag68
(g84
g70
NtRp3631
(dp3632
g73
(dp3633
sg82
g3601
sg75
(lp3634
g68
(g89
g70
NtRp3635
(dp3636
g73
(dp3637
sg82
g3631
sg75
(lp3638
g68
(g69
g70
NtRp3639
(dp3640
g73
(dp3641
g81
I3
ssg82
g3635
sg75
(lp3642
S'/places/default/index'
p3643
asbasbasbag68
(g84
g70
NtRp3644
(dp3645
g73
(dp3646
sg82
g3601
sg75
(lp3647
g68
(g89
g70
NtRp3648
(dp3649
g73
(dp3650
sg82
g3644
sg75
(lp3651
g68
(g69
g70
NtRp3652
(dp3653
g73
(dp3654
g81
I3
ssg82
g3648
sg75
(lp3655
g68
(g77
g70
NtRp3656
(dp3657
g73
(dp3658
g81
I2
ssg82
Nsg75
(lp3659
sbasbasbasbasbasbasbasbag68
(g84
g70
NtRp3660
(dp3661
g73
(dp3662
sg82
g3585
sg75
(lp3663
g68
(g89
g70
NtRp3664
(dp3665
g73
(dp3666
sg82
g3660
sg75
(lp3667
g68
(g69
g70
NtRp3668
(dp3669
g73
(dp3670
g81
I4
ssg82
g3664
sg75
(lp3671
g68
(g77
g70
NtRp3672
(dp3673
g73
(dp3674
g81
I3
ssg82
Nsg75
(lp3675
g68
(g84
g70
NtRp3676
(dp3677
g73
(dp3678
sg82
g3672
sg75
(lp3679
g68
(g89
g70
NtRp3680
(dp3681
g73
(dp3682
sg82
g3676
sg75
(lp3683
g68
(g69
g70
NtRp3684
(dp3685
g73
(dp3686
g81
I3
ssg82
g3680
sg75
(lp3687
g3617
(S's\x08\x00\x00\x00This App'
tRp3688
asbasbasbag68
(g84
g70
NtRp3689
(dp3690
g73
(dp3691
sg82
g3672
sg75
(lp3692
g68
(g89
g70
NtRp3693
(dp3694
g73
(dp3695
sg82
g3689
sg75
(lp3696
g68
(g69
g70
NtRp3697
(dp3698
g73
(dp3699
g81
I3
ssg82
g3693
sg75
(lp3700
g111
asbasbasbag68
(g84
g70
NtRp3701
(dp3702
g73
(dp3703
sg82
g3672
sg75
(lp3704
g68
(g89
g70
NtRp3705
(dp3706
g73
(dp3707
sg82
g3701
sg75
(lp3708
g68
(g69
g70
NtRp3709
(dp3710
g73
(dp3711
g81
I3
ssg82
g3705
sg75
(lp3712
S'/admin/default/design/places'
p3713
asbasbasbag68
(g84
g70
NtRp3714
(dp3715
g73
(dp3716
sg82
g3672
sg75
(lp3717
g68
(g89
g70
NtRp3718
(dp3719
g73
(dp3720
sg82
g3714
sg75
(lp3721
g68
(g69
g70
NtRp3722
(dp3723
g73
(dp3724
g81
I3
ssg82
g3718
sg75
(lp3725
g68
(g77
g70
NtRp3726
(dp3727
g73
(dp3728
g81
I2
ssg82
Nsg75
(lp3729
g68
(g84
g70
NtRp3730
(dp3731
g73
(dp3732
sg82
g3726
sg75
(lp3733
g68
(g89
g70
NtRp3734
(dp3735
g73
(dp3736
sg82
g3730
sg75
(lp3737
g68
(g69
g70
NtRp3738
(dp3739
g73
(dp3740
g81
I2
ssg82
g3734
sg75
(lp3741
g68
(g77
g70
NtRp3742
(dp3743
g73
(dp3744
g81
I1
ssg82
Nsg75
(lp3745
g68
(g84
g70
NtRp3746
(dp3747
g73
(dp3748
sg82
g3742
sg75
(lp3749
g68
(g89
g70
NtRp3750
(dp3751
g73
(dp3752
sg82
g3746
sg75
(lp3753
g68
(g69
g70
NtRp3754
(dp3755
g73
(dp3756
g81
I1
ssg82
g3750
sg75
(lp3757
g3617
(S't\n\x00\x00\x00Controller'
tRp3758
asbasbasbag68
(g84
g70
NtRp3759
(dp3760
g73
(dp3761
sg82
g3742
sg75
(lp3762
g68
(g89
g70
NtRp3763
(dp3764
g73
(dp3765
sg82
g3759
sg75
(lp3766
g68
(g69
g70
NtRp3767
(dp3768
g73
(dp3769
g81
I1
ssg82
g3763
sg75
(lp3770
I00
asbasbasbag68
(g84
g70
NtRp3771
(dp3772
g73
(dp3773
sg82
g3742
sg75
(lp3774
g68
(g89
g70
NtRp3775
(dp3776
g73
(dp3777
sg82
g3771
sg75
(lp3778
g68
(g69
g70
NtRp3779
(dp3780
g73
(dp3781
g81
I1
ssg82
g3775
sg75
(lp3782
S'/admin/default/edit/places/controllers/default.py'
p3783
asbasbasbasbasbasbasbag68
(g84
g70
NtRp3784
(dp3785
g73
(dp3786
sg82
g3726
sg75
(lp3787
g68
(g89
g70
NtRp3788
(dp3789
g73
(dp3790
sg82
g3784
sg75
(lp3791
g68
(g69
g70
NtRp3792
(dp3793
g73
(dp3794
g81
I2
ssg82
g3788
sg75
(lp3795
g68
(g77
g70
NtRp3796
(dp3797
g73
(dp3798
g81
I1
ssg82
Nsg75
(lp3799
g68
(g84
g70
NtRp3800
(dp3801
g73
(dp3802
sg82
g3796
sg75
(lp3803
g68
(g89
g70
NtRp3804
(dp3805
g73
(dp3806
sg82
g3800
sg75
(lp3807
g68
(g69
g70
NtRp3808
(dp3809
g73
(dp3810
g81
I1
ssg82
g3804
sg75
(lp3811
g3617
(S't\x04\x00\x00\x00View'
tRp3812
asbasbasbag68
(g84
g70
NtRp3813
(dp3814
g73
(dp3815
sg82
g3796
sg75
(lp3816
g68
(g89
g70
NtRp3817
(dp3818
g73
(dp3819
sg82
g3813
sg75
(lp3820
g68
(g69
g70
NtRp3821
(dp3822
g73
(dp3823
g81
I1
ssg82
g3817
sg75
(lp3824
I00
asbasbasbag68
(g84
g70
NtRp3825
(dp3826
g73
(dp3827
sg82
g3796
sg75
(lp3828
g68
(g89
g70
NtRp3829
(dp3830
g73
(dp3831
sg82
g3825
sg75
(lp3832
g68
(g69
g70
NtRp3833
(dp3834
g73
(dp3835
g81
I1
ssg82
g3829
sg75
(lp3836
S'/admin/default/edit/places/views/default/index.html'
p3837
asbasbasbasbasbasbasbag68
(g84
g70
NtRp3838
(dp3839
g73
(dp3840
sg82
g3726
sg75
(lp3841
g68
(g89
g70
NtRp3842
(dp3843
g73
(dp3844
sg82
g3838
sg75
(lp3845
g68
(g69
g70
NtRp3846
(dp3847
g73
(dp3848
g81
I2
ssg82
g3842
sg75
(lp3849
g68
(g77
g70
NtRp3850
(dp3851
g73
(dp3852
g81
I1
ssg82
Nsg75
(lp3853
g68
(g84
g70
NtRp3854
(dp3855
g73
(dp3856
sg82
g3850
sg75
(lp3857
g68
(g89
g70
NtRp3858
(dp3859
g73
(dp3860
sg82
g3854
sg75
(lp3861
g68
(g69
g70
NtRp3862
(dp3863
g73
(dp3864
g81
I1
ssg82
g3858
sg75
(lp3865
g3617
(S't\x06\x00\x00\x00Layout'
tRp3866
asbasbasbag68
(g84
g70
NtRp3867
(dp3868
g73
(dp3869
sg82
g3850
sg75
(lp3870
g68
(g89
g70
NtRp3871
(dp3872
g73
(dp3873
sg82
g3867
sg75
(lp3874
g68
(g69
g70
NtRp3875
(dp3876
g73
(dp3877
g81
I1
ssg82
g3871
sg75
(lp3878
I00
asbasbasbag68
(g84
g70
NtRp3879
(dp3880
g73
(dp3881
sg82
g3850
sg75
(lp3882
g68
(g89
g70
NtRp3883
(dp3884
g73
(dp3885
sg82
g3879
sg75
(lp3886
g68
(g69
g70
NtRp3887
(dp3888
g73
(dp3889
g81
I1
ssg82
g3883
sg75
(lp3890
S'/admin/default/edit/places/views/layout.html'
p3891
asbasbasbasbasbasbasbag68
(g84
g70
NtRp3892
(dp3893
g73
(dp3894
sg82
g3726
sg75
(lp3895
g68
(g89
g70
NtRp3896
(dp3897
g73
(dp3898
sg82
g3892
sg75
(lp3899
g68
(g69
g70
NtRp3900
(dp3901
g73
(dp3902
g81
I2
ssg82
g3896
sg75
(lp3903
g68
(g77
g70
NtRp3904
(dp3905
g73
(dp3906
g81
I1
ssg82
Nsg75
(lp3907
g68
(g84
g70
NtRp3908
(dp3909
g73
(dp3910
sg82
g3904
sg75
(lp3911
g68
(g89
g70
NtRp3912
(dp3913
g73
(dp3914
sg82
g3908
sg75
(lp3915
g68
(g69
g70
NtRp3916
(dp3917
g73
(dp3918
g81
I1
ssg82
g3912
sg75
(lp3919
g3617
(S't\n\x00\x00\x00Stylesheet'
tRp3920
asbasbasbag68
(g84
g70
NtRp3921
(dp3922
g73
(dp3923
sg82
g3904
sg75
(lp3924
g68
(g89
g70
NtRp3925
(dp3926
g73
(dp3927
sg82
g3921
sg75
(lp3928
g68
(g69
g70
NtRp3929
(dp3930
g73
(dp3931
g81
I1
ssg82
g3925
sg75
(lp3932
I00
asbasbasbag68
(g84
g70
NtRp3933
(dp3934
g73
(dp3935
sg82
g3904
sg75
(lp3936
g68
(g89
g70
NtRp3937
(dp3938
g73
(dp3939
sg82
g3933
sg75
(lp3940
g68
(g69
g70
NtRp3941
(dp3942
g73
(dp3943
g81
I1
ssg82
g3937
sg75
(lp3944
S'/admin/default/edit/places/static/base.css'
p3945
asbasbasbasbasbasbasbag68
(g84
g70
NtRp3946
(dp3947
g73
(dp3948
sg82
g3726
sg75
(lp3949
g68
(g89
g70
NtRp3950
(dp3951
g73
(dp3952
sg82
g3946
sg75
(lp3953
g68
(g69
g70
NtRp3954
(dp3955
g73
(dp3956
g81
I2
ssg82
g3950
sg75
(lp3957
g68
(g77
g70
NtRp3958
(dp3959
g73
(dp3960
g81
I1
ssg82
Nsg75
(lp3961
g68
(g84
g70
NtRp3962
(dp3963
g73
(dp3964
sg82
g3958
sg75
(lp3965
g68
(g89
g70
NtRp3966
(dp3967
g73
(dp3968
sg82
g3962
sg75
(lp3969
g68
(g69
g70
NtRp3970
(dp3971
g73
(dp3972
g81
I1
ssg82
g3966
sg75
(lp3973
g3617
(S's\x08\x00\x00\x00DB Model'
tRp3974
asbasbasbag68
(g84
g70
NtRp3975
(dp3976
g73
(dp3977
sg82
g3958
sg75
(lp3978
g68
(g89
g70
NtRp3979
(dp3980
g73
(dp3981
sg82
g3975
sg75
(lp3982
g68
(g69
g70
NtRp3983
(dp3984
g73
(dp3985
g81
I1
ssg82
g3979
sg75
(lp3986
I00
asbasbasbag68
(g84
g70
NtRp3987
(dp3988
g73
(dp3989
sg82
g3958
sg75
(lp3990
g68
(g89
g70
NtRp3991
(dp3992
g73
(dp3993
sg82
g3987
sg75
(lp3994
g68
(g69
g70
NtRp3995
(dp3996
g73
(dp3997
g81
I1
ssg82
g3991
sg75
(lp3998
S'/admin/default/edit/places/models/db.py'
p3999
asbasbasbasbasbasbasbag68
(g84
g70
NtRp4000
(dp4001
g73
(dp4002
sg82
g3726
sg75
(lp4003
g68
(g89
g70
NtRp4004
(dp4005
g73
(dp4006
sg82
g4000
sg75
(lp4007
g68
(g69
g70
NtRp4008
(dp4009
g73
(dp4010
g81
I2
ssg82
g4004
sg75
(lp4011
g68
(g77
g70
NtRp4012
(dp4013
g73
(dp4014
g81
I1
ssg82
Nsg75
(lp4015
g68
(g84
g70
NtRp4016
(dp4017
g73
(dp4018
sg82
g4012
sg75
(lp4019
g68
(g89
g70
NtRp4020
(dp4021
g73
(dp4022
sg82
g4016
sg75
(lp4023
g68
(g69
g70
NtRp4024
(dp4025
g73
(dp4026
g81
I1
ssg82
g4020
sg75
(lp4027
g3617
(S's\n\x00\x00\x00Menu Model'
tRp4028
asbasbasbag68
(g84
g70
NtRp4029
(dp4030
g73
(dp4031
sg82
g4012
sg75
(lp4032
g68
(g89
g70
NtRp4033
(dp4034
g73
(dp4035
sg82
g4029
sg75
(lp4036
g68
(g69
g70
NtRp4037
(dp4038
g73
(dp4039
g81
I1
ssg82
g4033
sg75
(lp4040
I00
asbasbasbag68
(g84
g70
NtRp4041
(dp4042
g73
(dp4043
sg82
g4012
sg75
(lp4044
g68
(g89
g70
NtRp4045
(dp4046
g73
(dp4047
sg82
g4041
sg75
(lp4048
g68
(g69
g70
NtRp4049
(dp4050
g73
(dp4051
g81
I1
ssg82
g4045
sg75
(lp4052
S'/admin/default/edit/places/models/menu.py'
p4053
asbasbasbasbasbasbasbag68
(g84
g70
NtRp4054
(dp4055
g73
(dp4056
sg82
g3726
sg75
(lp4057
g68
(g89
g70
NtRp4058
(dp4059
g73
(dp4060
sg82
g4054
sg75
(lp4061
g68
(g69
g70
NtRp4062
(dp4063
g73
(dp4064
g81
I2
ssg82
g4058
sg75
(lp4065
g68
(g77
g70
NtRp4066
(dp4067
g73
(dp4068
g81
I1
ssg82
Nsg75
(lp4069
g68
(g84
g70
NtRp4070
(dp4071
g73
(dp4072
sg82
g4066
sg75
(lp4073
g68
(g89
g70
NtRp4074
(dp4075
g73
(dp4076
sg82
g4070
sg75
(lp4077
g68
(g69
g70
NtRp4078
(dp4079
g73
(dp4080
g81
I1
ssg82
g4074
sg75
(lp4081
g3617
(S't\x08\x00\x00\x00Database'
tRp4082
asbasbasbag68
(g84
g70
NtRp4083
(dp4084
g73
(dp4085
sg82
g4066
sg75
(lp4086
g68
(g89
g70
NtRp4087
(dp4088
g73
(dp4089
sg82
g4083
sg75
(lp4090
g68
(g69
g70
NtRp4091
(dp4092
g73
(dp4093
g81
I1
ssg82
g4087
sg75
(lp4094
I00
asbasbasbag68
(g84
g70
NtRp4095
(dp4096
g73
(dp4097
sg82
g4066
sg75
(lp4098
g68
(g89
g70
NtRp4099
(dp4100
g73
(dp4101
sg82
g4095
sg75
(lp4102
g68
(g69
g70
NtRp4103
(dp4104
g73
(dp4105
g81
I1
ssg82
g4099
sg75
(lp4106
S'/places/appadmin/index'
p4107
asbasbasbasbasbasbasbag68
(g84
g70
NtRp4108
(dp4109
g73
(dp4110
sg82
g3726
sg75
(lp4111
g68
(g89
g70
NtRp4112
(dp4113
g73
(dp4114
sg82
g4108
sg75
(lp4115
g68
(g69
g70
NtRp4116
(dp4117
g73
(dp4118
g81
I2
ssg82
g4112
sg75
(lp4119
g68
(g77
g70
NtRp4120
(dp4121
g73
(dp4122
g81
I1
ssg82
Nsg75
(lp4123
g68
(g84
g70
NtRp4124
(dp4125
g73
(dp4126
sg82
g4120
sg75
(lp4127
g68
(g89
g70
NtRp4128
(dp4129
g73
(dp4130
sg82
g4124
sg75
(lp4131
g68
(g69
g70
NtRp4132
(dp4133
g73
(dp4134
g81
I1
ssg82
g4128
sg75
(lp4135
g3617
(S't\x06\x00\x00\x00Errors'
tRp4136
asbasbasbag68
(g84
g70
NtRp4137
(dp4138
g73
(dp4139
sg82
g4120
sg75
(lp4140
g68
(g89
g70
NtRp4141
(dp4142
g73
(dp4143
sg82
g4137
sg75
(lp4144
g68
(g69
g70
NtRp4145
(dp4146
g73
(dp4147
g81
I1
ssg82
g4141
sg75
(lp4148
I00
asbasbasbag68
(g84
g70
NtRp4149
(dp4150
g73
(dp4151
sg82
g4120
sg75
(lp4152
g68
(g89
g70
NtRp4153
(dp4154
g73
(dp4155
sg82
g4149
sg75
(lp4156
g68
(g69
g70
NtRp4157
(dp4158
g73
(dp4159
g81
I1
ssg82
g4153
sg75
(lp4160
S'/admin/default/errors/places'
p4161
asbasbasbasbasbasbasbag68
(g84
g70
NtRp4162
(dp4163
g73
(dp4164
sg82
g3726
sg75
(lp4165
g68
(g89
g70
NtRp4166
(dp4167
g73
(dp4168
sg82
g4162
sg75
(lp4169
g68
(g69
g70
NtRp4170
(dp4171
g73
(dp4172
g81
I2
ssg82
g4166
sg75
(lp4173
g68
(g77
g70
NtRp4174
(dp4175
g73
(dp4176
g81
I1
ssg82
Nsg75
(lp4177
g68
(g84
g70
NtRp4178
(dp4179
g73
(dp4180
sg82
g4174
sg75
(lp4181
g68
(g89
g70
NtRp4182
(dp4183
g73
(dp4184
sg82
g4178
sg75
(lp4185
g68
(g69
g70
NtRp4186
(dp4187
g73
(dp4188
g81
I1
ssg82
g4182
sg75
(lp4189
g3617
(S't\x05\x00\x00\x00About'
tRp4190
asbasbasbag68
(g84
g70
NtRp4191
(dp4192
g73
(dp4193
sg82
g4174
sg75
(lp4194
g68
(g89
g70
NtRp4195
(dp4196
g73
(dp4197
sg82
g4191
sg75
(lp4198
g68
(g69
g70
NtRp4199
(dp4200
g73
(dp4201
g81
I1
ssg82
g4195
sg75
(lp4202
I00
asbasbasbag68
(g84
g70
NtRp4203
(dp4204
g73
(dp4205
sg82
g4174
sg75
(lp4206
g68
(g89
g70
NtRp4207
(dp4208
g73
(dp4209
sg82
g4203
sg75
(lp4210
g68
(g69
g70
NtRp4211
(dp4212
g73
(dp4213
g81
I1
ssg82
g4207
sg75
(lp4214
S'/admin/default/about/places'
p4215
asbasbasbasbasbasbasbasbasbasbasbasbasbasbasbag68
(g84
g70
NtRp4216
(dp4217
g73
(dp4218
sg82
g3585
sg75
(lp4219
g68
(g89
g70
NtRp4220
(dp4221
g73
(dp4222
sg82
g4216
sg75
(lp4223
g68
(g69
g70
NtRp4224
(dp4225
g73
(dp4226
g81
I4
ssg82
g4220
sg75
(lp4227
g68
(g77
g70
NtRp4228
(dp4229
g73
(dp4230
g81
I3
ssg82
Nsg75
(lp4231
g68
(g84
g70
NtRp4232
(dp4233
g73
(dp4234
sg82
g4228
sg75
(lp4235
g68
(g89
g70
NtRp4236
(dp4237
g73
(dp4238
sg82
g4232
sg75
(lp4239
g68
(g69
g70
NtRp4240
(dp4241
g73
(dp4242
g81
I3
ssg82
g4236
sg75
(lp4243
g3617
(S't\t\x00\x00\x00Resources'
tRp4244
asbasbasbag68
(g84
g70
NtRp4245
(dp4246
g73
(dp4247
sg82
g4228
sg75
(lp4248
g68
(g89
g70
NtRp4249
(dp4250
g73
(dp4251
sg82
g4245
sg75
(lp4252
g68
(g69
g70
NtRp4253
(dp4254
g73
(dp4255
g81
I3
ssg82
g4249
sg75
(lp4256
g111
asbasbasbag68
(g84
g70
NtRp4257
(dp4258
g73
(dp4259
sg82
g4228
sg75
(lp4260
g68
(g89
g70
NtRp4261
(dp4262
g73
(dp4263
sg82
g4257
sg75
(lp4264
g68
(g69
g70
NtRp4265
(dp4266
g73
(dp4267
g81
I3
ssg82
g4261
sg75
(lp4268
S'None'
p4269
asbasbasbag68
(g84
g70
NtRp4270
(dp4271
g73
(dp4272
sg82
g4228
sg75
(lp4273
g68
(g89
g70
NtRp4274
(dp4275
g73
(dp4276
sg82
g4270
sg75
(lp4277
g68
(g69
g70
NtRp4278
(dp4279
g73
(dp4280
g81
I3
ssg82
g4274
sg75
(lp4281
g68
(g77
g70
NtRp4282
(dp4283
g73
(dp4284
g81
I2
ssg82
Nsg75
(lp4285
g68
(g84
g70
NtRp4286
(dp4287
g73
(dp4288
sg82
g4282
sg75
(lp4289
g68
(g89
g70
NtRp4290
(dp4291
g73
(dp4292
sg82
g4286
sg75
(lp4293
g68
(g69
g70
NtRp4294
(dp4295
g73
(dp4296
g81
I2
ssg82
g4290
sg75
(lp4297
g68
(g77
g70
NtRp4298
(dp4299
g73
(dp4300
g81
I1
ssg82
Nsg75
(lp4301
g68
(g84
g70
NtRp4302
(dp4303
g73
(dp4304
sg82
g4298
sg75
(lp4305
g68
(g89
g70
NtRp4306
(dp4307
g73
(dp4308
sg82
g4302
sg75
(lp4309
g68
(g69
g70
NtRp4310
(dp4311
g73
(dp4312
g81
I1
ssg82
g4306
sg75
(lp4313
g3617
(S't\r\x00\x00\x00Documentation'
tRp4314
asbasbasbag68
(g84
g70
NtRp4315
(dp4316
g73
(dp4317
sg82
g4298
sg75
(lp4318
g68
(g89
g70
NtRp4319
(dp4320
g73
(dp4321
sg82
g4315
sg75
(lp4322
g68
(g69
g70
NtRp4323
(dp4324
g73
(dp4325
g81
I1
ssg82
g4319
sg75
(lp4326
I00
asbasbasbag68
(g84
g70
NtRp4327
(dp4328
g73
(dp4329
sg82
g4298
sg75
(lp4330
g68
(g89
g70
NtRp4331
(dp4332
g73
(dp4333
sg82
g4327
sg75
(lp4334
g68
(g69
g70
NtRp4335
(dp4336
g73
(dp4337
g81
I1
ssg82
g4331
sg75
(lp4338
S'http://www.web2py.com/book'
p4339
asbasbasbag68
(g84
g70
NtRp4340
(dp4341
g73
(dp4342
sg82
g4298
sg75
(lp4343
g68
(g89
g70
NtRp4344
(dp4345
g73
(dp4346
sg82
g4340
sg75
(lp4347
g68
(g69
g70
NtRp4348
(dp4349
g73
(dp4350
g81
I1
ssg82
g4344
sg75
(lp4351
(lp4352
(g3617
(S't\x07\x00\x00\x00Preface'
tRp4353
I00
S'http://www.web2py.com/book/default/chapter/00'
p4354
tp4355
a(g3617
(S't\x0c\x00\x00\x00Introduction'
tRp4356
I00
S'http://www.web2py.com/book/default/chapter/01'
p4357
tp4358
a(g3617
(S't\x06\x00\x00\x00Python'
tRp4359
I00
S'http://www.web2py.com/book/default/chapter/02'
p4360
tp4361
a(g3617
(S't\x08\x00\x00\x00Overview'
tRp4362
I00
S'http://www.web2py.com/book/default/chapter/03'
p4363
tp4364
a(g3617
(S's\x08\x00\x00\x00The Core'
tRp4365
I00
S'http://www.web2py.com/book/default/chapter/04'
p4366
tp4367
a(g3617
(S's\t\x00\x00\x00The Views'
tRp4368
I00
S'http://www.web2py.com/book/default/chapter/05'
p4369
tp4370
a(g3617
(S't\x08\x00\x00\x00Database'
tRp4371
I00
S'http://www.web2py.com/book/default/chapter/06'
p4372
tp4373
a(g3617
(S's\x14\x00\x00\x00Forms and Validators'
tRp4374
I00
S'http://www.web2py.com/book/default/chapter/07'
p4375
tp4376
a(g3617
(S's\x0e\x00\x00\x00Access Control'
tRp4377
I00
S'http://www.web2py.com/book/default/chapter/08'
p4378
tp4379
a(g3617
(S't\x08\x00\x00\x00Services'
tRp4380
I00
S'http://www.web2py.com/book/default/chapter/09'
p4381
tp4382
a(g3617
(S's\x0c\x00\x00\x00Ajax Recipes'
tRp4383
I00
S'http://www.web2py.com/book/default/chapter/10'
p4384
tp4385
a(g3617
(S's\x12\x00\x00\x00Deployment Recipes'
tRp4386
I00
S'http://www.web2py.com/book/default/chapter/11'
p4387
tp4388
a(g3617
(S's\r\x00\x00\x00Other Recipes'
tRp4389
I00
S'http://www.web2py.com/book/default/chapter/12'
p4390
tp4391
a(g3617
(S's\r\x00\x00\x00Buy this book'
tRp4392
I00
S'http://stores.lulu.com/web2py'
p4393
tp4394
aasbasbasbasbasbasbasbag68
(g84
g70
NtRp4395
(dp4396
g73
(dp4397
sg82
g4282
sg75
(lp4398
g68
(g89
g70
NtRp4399
(dp4400
g73
(dp4401
sg82
g4395
sg75
(lp4402
g68
(g69
g70
NtRp4403
(dp4404
g73
(dp4405
g81
I2
ssg82
g4399
sg75
(lp4406
g68
(g77
g70
NtRp4407
(dp4408
g73
(dp4409
g81
I1
ssg82
Nsg75
(lp4410
g68
(g84
g70
NtRp4411
(dp4412
g73
(dp4413
sg82
g4407
sg75
(lp4414
g68
(g89
g70
NtRp4415
(dp4416
g73
(dp4417
sg82
g4411
sg75
(lp4418
g68
(g69
g70
NtRp4419
(dp4420
g73
(dp4421
g81
I1
ssg82
g4415
sg75
(lp4422
g3617
(S't\t\x00\x00\x00Community'
tRp4423
asbasbasbag68
(g84
g70
NtRp4424
(dp4425
g73
(dp4426
sg82
g4407
sg75
(lp4427
g68
(g89
g70
NtRp4428
(dp4429
g73
(dp4430
sg82
g4424
sg75
(lp4431
g68
(g69
g70
NtRp4432
(dp4433
g73
(dp4434
g81
I1
ssg82
g4428
sg75
(lp4435
I00
asbasbasbag68
(g84
g70
NtRp4436
(dp4437
g73
(dp4438
sg82
g4407
sg75
(lp4439
g68
(g89
g70
NtRp4440
(dp4441
g73
(dp4442
sg82
g4436
sg75
(lp4443
g68
(g69
g70
NtRp4444
(dp4445
g73
(dp4446
g81
I1
ssg82
g4440
sg75
(lp4447
Nasbasbasbag68
(g84
g70
NtRp4448
(dp4449
g73
(dp4450
sg82
g4407
sg75
(lp4451
g68
(g89
g70
NtRp4452
(dp4453
g73
(dp4454
sg82
g4448
sg75
(lp4455
g68
(g69
g70
NtRp4456
(dp4457
g73
(dp4458
g81
I1
ssg82
g4452
sg75
(lp4459
(lp4460
(g3617
(S't\x06\x00\x00\x00Groups'
tRp4461
I00
S'http://www.web2py.com/examples/default/usergroups'
p4462
tp4463
a(g3617
(S't\x07\x00\x00\x00Twitter'
tRp4464
I00
S'http://twitter.com/web2py'
p4465
tp4466
a(g3617
(S's\t\x00\x00\x00Live chat'
tRp4467
I00
S'http://mibbit.com/?channel=%23web2py&server=irc.mibbit.net'
p4468
tp4469
a(g3617
(S's\n\x00\x00\x00User Voice'
tRp4470
I00
S'http://web2py.uservoice.com/'
p4471
tp4472
aasbasbasbasbasbasbasbag68
(g84
g70
NtRp4473
(dp4474
g73
(dp4475
sg82
g4282
sg75
(lp4476
g68
(g89
g70
NtRp4477
(dp4478
g73
(dp4479
sg82
g4473
sg75
(lp4480
g68
(g69
g70
NtRp4481
(dp4482
g73
(dp4483
g81
I2
ssg82
g4477
sg75
(lp4484
g68
(g77
g70
NtRp4485
(dp4486
g73
(dp4487
g81
I1
ssg82
Nsg75
(lp4488
g68
(g84
g70
NtRp4489
(dp4490
g73
(dp4491
sg82
g4485
sg75
(lp4492
g68
(g89
g70
NtRp4493
(dp4494
g73
(dp4495
sg82
g4489
sg75
(lp4496
g68
(g69
g70
NtRp4497
(dp4498
g73
(dp4499
g81
I1
ssg82
g4493
sg75
(lp4500
g3617
(S't\x06\x00\x00\x00Web2py'
tRp4501
asbasbasbag68
(g84
g70
NtRp4502
(dp4503
g73
(dp4504
sg82
g4485
sg75
(lp4505
g68
(g89
g70
NtRp4506
(dp4507
g73
(dp4508
sg82
g4502
sg75
(lp4509
g68
(g69
g70
NtRp4510
(dp4511
g73
(dp4512
g81
I1
ssg82
g4506
sg75
(lp4513
I00
asbasbasbag68
(g84
g70
NtRp4514
(dp4515
g73
(dp4516
sg82
g4485
sg75
(lp4517
g68
(g89
g70
NtRp4518
(dp4519
g73
(dp4520
sg82
g4514
sg75
(lp4521
g68
(g69
g70
NtRp4522
(dp4523
g73
(dp4524
g81
I1
ssg82
g4518
sg75
(lp4525
S'http://www.web2py.com'
p4526
asbasbasbag68
(g84
g70
NtRp4527
(dp4528
g73
(dp4529
sg82
g4485
sg75
(lp4530
g68
(g89
g70
NtRp4531
(dp4532
g73
(dp4533
sg82
g4527
sg75
(lp4534
g68
(g69
g70
NtRp4535
(dp4536
g73
(dp4537
g81
I1
ssg82
g4531
sg75
(lp4538
(lp4539
(g3617
(S't\x08\x00\x00\x00Download'
tRp4540
I00
S'http://www.web2py.com/examples/default/download'
p4541
tp4542
a(g3617
(S't\x07\x00\x00\x00Support'
tRp4543
I00
S'http://www.web2py.com/examples/default/support'
p4544
tp4545
a(g3617
(S's\x0e\x00\x00\x00Quick Examples'
tRp4546
I00
S'http://web2py.com/examples/default/examples'
p4547
tp4548
a(g3617
(S't\x03\x00\x00\x00FAQ'
tRp4549
I00
S'http://web2py.com/AlterEgo'
p4550
tp4551
a(g3617
(S's\x11\x00\x00\x00Free Applications'
tRp4552
I00
S'http://web2py.com/appliances'
p4553
tp4554
a(g3617
(S't\x07\x00\x00\x00Plugins'
tRp4555
I00
S'http://web2py.com/plugins'
p4556
tp4557
a(g3617
(S't\x07\x00\x00\x00Recipes'
tRp4558
I00
S'http://web2pyslices.com/'
p4559
tp4560
a(g3617
(S't\x04\x00\x00\x00Demo'
tRp4561
I00
S'http://web2py.com/demo_admin'
p4562
tp4563
a(g3617
(S't\x08\x00\x00\x00Semantic'
tRp4564
I00
S'http://web2py.com/semantic'
p4565
tp4566
a(g3617
(S't\x07\x00\x00\x00Layouts'
tRp4567
I00
S'http://web2py.com/layouts'
p4568
tp4569
a(g3617
(S't\x06\x00\x00\x00Videos'
tRp4570
I00
S'http://www.web2py.com/examples/default/videos/'
p4571
tp4572
aasbasbasbasbasbasbasbasbasbasbasbasbasbasbasbasbasbasbasbag68
(g84
g70
NtRp4573
(dp4574
g73
(dp4575
sg82
g3112
sg75
(lp4576
g68
(g89
g70
NtRp4577
(dp4578
g73
(dp4579
g93
g94
ssg82
g4573
sg75
(lp4580
S'meta'
p4581
asbag68
(g89
g70
NtRp4582
(dp4583
g73
(dp4584
g100
g101
ssg82
g4573
sg75
(lp4585
S':'
asbag68
(g89
g70
NtRp4586
(dp4587
g73
(dp4588
sg82
g4573
sg75
(lp4589
g68
(g69
g70
NtRp4590
(dp4591
g73
(dp4592
g81
I5
ssg82
g4586
sg75
(lp4593
g68
(g77
g70
NtRp4594
(dp4595
g73
(dp4596
g81
I4
ssg82
Nsg75
(lp4597
g68
(g84
g70
NtRp4598
(dp4599
g73
(dp4600
sg82
g4594
sg75
(lp4601
g68
(g89
g70
NtRp4602
(dp4603
g73
(dp4604
g93
g94
ssg82
g4598
sg75
(lp4605
S'author'
p4606
asbag68
(g89
g70
NtRp4607
(dp4608
g73
(dp4609
g100
g101
ssg82
g4598
sg75
(lp4610
S':'
asbag68
(g89
g70
NtRp4611
(dp4612
g73
(dp4613
sg82
g4598
sg75
(lp4614
g68
(g69
g70
NtRp4615
(dp4616
g73
(dp4617
g81
I4
ssg82
g4611
sg75
(lp4618
S'Your Name <you@example.com>'
p4619
asbasbasbag68
(g84
g70
NtRp4620
(dp4621
g73
(dp4622
sg82
g4594
sg75
(lp4623
g68
(g89
g70
NtRp4624
(dp4625
g73
(dp4626
g93
g94
ssg82
g4620
sg75
(lp4627
S'copyright'
p4628
asbag68
(g89
g70
NtRp4629
(dp4630
g73
(dp4631
g100
g101
ssg82
g4620
sg75
(lp4632
S':'
asbag68
(g89
g70
NtRp4633
(dp4634
g73
(dp4635
sg82
g4620
sg75
(lp4636
g68
(g69
g70
NtRp4637
(dp4638
g73
(dp4639
g81
I4
ssg82
g4633
sg75
(lp4640
S'Copyright 2011'
p4641
asbasbasbag68
(g84
g70
NtRp4642
(dp4643
g73
(dp4644
sg82
g4594
sg75
(lp4645
g68
(g89
g70
NtRp4646
(dp4647
g73
(dp4648
g93
g94
ssg82
g4642
sg75
(lp4649
S'description'
p4650
asbag68
(g89
g70
NtRp4651
(dp4652
g73
(dp4653
g100
g101
ssg82
g4642
sg75
(lp4654
S':'
asbag68
(g89
g70
NtRp4655
(dp4656
g73
(dp4657
sg82
g4642
sg75
(lp4658
g68
(g69
g70
NtRp4659
(dp4660
g73
(dp4661
g81
I4
ssg82
g4655
sg75
(lp4662
S'a cool new app'
p4663
asbasbasbag68
(g84
g70
NtRp4664
(dp4665
g73
(dp4666
sg82
g4594
sg75
(lp4667
g68
(g89
g70
NtRp4668
(dp4669
g73
(dp4670
g93
g94
ssg82
g4664
sg75
(lp4671
S'generator'
p4672
asbag68
(g89
g70
NtRp4673
(dp4674
g73
(dp4675
g100
g101
ssg82
g4664
sg75
(lp4676
S':'
asbag68
(g89
g70
NtRp4677
(dp4678
g73
(dp4679
sg82
g4664
sg75
(lp4680
g68
(g69
g70
NtRp4681
(dp4682
g73
(dp4683
g81
I4
ssg82
g4677
sg75
(lp4684
S'Web2py Web Framework'
p4685
asbasbasbag68
(g84
g70
NtRp4686
(dp4687
g73
(dp4688
sg82
g4594
sg75
(lp4689
g68
(g89
g70
NtRp4690
(dp4691
g73
(dp4692
g93
g94
ssg82
g4686
sg75
(lp4693
S'keywords'
p4694
asbag68
(g89
g70
NtRp4695
(dp4696
g73
(dp4697
g100
g101
ssg82
g4686
sg75
(lp4698
S':'
asbag68
(g89
g70
NtRp4699
(dp4700
g73
(dp4701
sg82
g4686
sg75
(lp4702
g68
(g69
g70
NtRp4703
(dp4704
g73
(dp4705
g81
I4
ssg82
g4699
sg75
(lp4706
S'web2py, python, framework'
p4707
asbasbasbasbasbasbasbag68
(g84
g70
NtRp4708
(dp4709
g73
(dp4710
sg82
g3112
sg75
(lp4711
g68
(g89
g70
NtRp4712
(dp4713
g73
(dp4714
g93
g94
ssg82
g4708
sg75
(lp4715
S'postprocessing'
p4716
asbag68
(g89
g70
NtRp4717
(dp4718
g73
(dp4719
g100
g101
ssg82
g4708
sg75
(lp4720
S':'
asbag68
(g89
g70
NtRp4721
(dp4722
g73
(dp4723
sg82
g4708
sg75
(lp4724
g68
(g69
g70
NtRp4725
(dp4726
g73
(dp4727
g81
I5
ssg82
g4721
sg75
(lp4728
g68
(g77
g70
NtRp4729
(dp4730
g73
(dp4731
g81
I4
ssg82
Nsg75
(lp4732
sbasbasbasbag68
(g84
g70
NtRp4733
(dp4734
g73
(dp4735
sg82
g3112
sg75
(lp4736
g68
(g89
g70
NtRp4737
(dp4738
g73
(dp4739
g93
g94
ssg82
g4733
sg75
(lp4740
S'session_file'
p4741
asbag68
(g89
g70
NtRp4742
(dp4743
g73
(dp4744
g100
g101
ssg82
g4733
sg75
(lp4745
S':'
asbag68
(g89
g70
NtRp4746
(dp4747
g73
(dp4748
sg82
g4733
sg75
(lp4749
g68
(g69
g70
NtRp4750
(dp4751
g73
(dp4752
g81
I5
ssg82
g4746
sg75
(lp4753
S"<open file '/home/ian/web2py/applications/places/sessions/127.0.0.1-9bd70a00-d029-4b6e-8bcc-a423c3a61399', mode 'rb+' at 0x318de40>"
p4754
asbasbasbag68
(g84
g70
NtRp4755
(dp4756
g73
(dp4757
sg82
g3112
sg75
(lp4758
g68
(g89
g70
NtRp4759
(dp4760
g73
(dp4761
g93
g94
ssg82
g4755
sg75
(lp4762
S'session_filename'
p4763
asbag68
(g89
g70
NtRp4764
(dp4765
g73
(dp4766
g100
g101
ssg82
g4755
sg75
(lp4767
S':'
asbag68
(g89
g70
NtRp4768
(dp4769
g73
(dp4770
sg82
g4755
sg75
(lp4771
g68
(g69
g70
NtRp4772
(dp4773
g73
(dp4774
g81
I5
ssg82
g4768
sg75
(lp4775
S'/home/ian/web2py/applications/places/sessions/127.0.0.1-9bd70a00-d029-4b6e-8bcc-a423c3a61399'
p4776
asbasbasbag68
(g84
g70
NtRp4777
(dp4778
g73
(dp4779
sg82
g3112
sg75
(lp4780
g68
(g89
g70
NtRp4781
(dp4782
g73
(dp4783
g93
g94
ssg82
g4777
sg75
(lp4784
S'session_id'
p4785
asbag68
(g89
g70
NtRp4786
(dp4787
g73
(dp4788
g100
g101
ssg82
g4777
sg75
(lp4789
S':'
asbag68
(g89
g70
NtRp4790
(dp4791
g73
(dp4792
sg82
g4777
sg75
(lp4793
g68
(g69
g70
NtRp4794
(dp4795
g73
(dp4796
g81
I5
ssg82
g4790
sg75
(lp4797
S'127.0.0.1-9bd70a00-d029-4b6e-8bcc-a423c3a61399'
p4798
asbasbasbag68
(g84
g70
NtRp4799
(dp4800
g73
(dp4801
sg82
g3112
sg75
(lp4802
g68
(g89
g70
NtRp4803
(dp4804
g73
(dp4805
g93
g94
ssg82
g4799
sg75
(lp4806
S'session_id_name'
p4807
asbag68
(g89
g70
NtRp4808
(dp4809
g73
(dp4810
g100
g101
ssg82
g4799
sg75
(lp4811
S':'
asbag68
(g89
g70
NtRp4812
(dp4813
g73
(dp4814
sg82
g4799
sg75
(lp4815
g68
(g69
g70
NtRp4816
(dp4817
g73
(dp4818
g81
I5
ssg82
g4812
sg75
(lp4819
g3169
asbasbasbag68
(g84
g70
NtRp4820
(dp4821
g73
(dp4822
sg82
g3112
sg75
(lp4823
g68
(g89
g70
NtRp4824
(dp4825
g73
(dp4826
g93
g94
ssg82
g4820
sg75
(lp4827
S'session_locked'
p4828
asbag68
(g89
g70
NtRp4829
(dp4830
g73
(dp4831
g100
g101
ssg82
g4820
sg75
(lp4832
S':'
asbag68
(g89
g70
NtRp4833
(dp4834
g73
(dp4835
sg82
g4820
sg75
(lp4836
g68
(g69
g70
NtRp4837
(dp4838
g73
(dp4839
g81
I5
ssg82
g4833
sg75
(lp4840
g1668
asbasbasbag68
(g84
g70
NtRp4841
(dp4842
g73
(dp4843
sg82
g3112
sg75
(lp4844
g68
(g89
g70
NtRp4845
(dp4846
g73
(dp4847
g93
g94
ssg82
g4841
sg75
(lp4848
S'session_new'
p4849
asbag68
(g89
g70
NtRp4850
(dp4851
g73
(dp4852
g100
g101
ssg82
g4841
sg75
(lp4853
S':'
asbag68
(g89
g70
NtRp4854
(dp4855
g73
(dp4856
sg82
g4841
sg75
(lp4857
g68
(g69
g70
NtRp4858
(dp4859
g73
(dp4860
g81
I5
ssg82
g4854
sg75
(lp4861
g111
asbasbasbag68
(g84
g70
NtRp4862
(dp4863
g73
(dp4864
sg82
g3112
sg75
(lp4865
g68
(g89
g70
NtRp4866
(dp4867
g73
(dp4868
g93
g94
ssg82
g4862
sg75
(lp4869
S'status'
p4870
asbag68
(g89
g70
NtRp4871
(dp4872
g73
(dp4873
g100
g101
ssg82
g4862
sg75
(lp4874
S':'
asbag68
(g89
g70
NtRp4875
(dp4876
g73
(dp4877
sg82
g4862
sg75
(lp4878
g68
(g69
g70
NtRp4879
(dp4880
g73
(dp4881
g81
I5
ssg82
g4875
sg75
(lp4882
S'200'
p4883
asbasbasbag68
(g84
g70
NtRp4884
(dp4885
g73
(dp4886
sg82
g3112
sg75
(lp4887
g68
(g89
g70
NtRp4888
(dp4889
g73
(dp4890
g93
g94
ssg82
g4884
sg75
(lp4891
S'subtitle'
p4892
asbag68
(g89
g70
NtRp4893
(dp4894
g73
(dp4895
g100
g101
ssg82
g4884
sg75
(lp4896
S':'
asbag68
(g89
g70
NtRp4897
(dp4898
g73
(dp4899
sg82
g4884
sg75
(lp4900
g68
(g69
g70
NtRp4901
(dp4902
g73
(dp4903
g81
I5
ssg82
g4897
sg75
(lp4904
g3617
(S's\r\x00\x00\x00customize me!'
tRp4905
asbasbasbag68
(g84
g70
NtRp4906
(dp4907
g73
(dp4908
sg82
g3112
sg75
(lp4909
g68
(g89
g70
NtRp4910
(dp4911
g73
(dp4912
g93
g94
ssg82
g4906
sg75
(lp4913
S'title'
p4914
asbag68
(g89
g70
NtRp4915
(dp4916
g73
(dp4917
g100
g101
ssg82
g4906
sg75
(lp4918
S':'
asbag68
(g89
g70
NtRp4919
(dp4920
g73
(dp4921
sg82
g4906
sg75
(lp4922
g68
(g69
g70
NtRp4923
(dp4924
g73
(dp4925
g81
I5
ssg82
g4919
sg75
(lp4926
g133
asbasbasbag68
(g84
g70
NtRp4927
(dp4928
g73
(dp4929
sg82
g3112
sg75
(lp4930
g68
(g89
g70
NtRp4931
(dp4932
g73
(dp4933
g93
g94
ssg82
g4927
sg75
(lp4934
g2312
asbag68
(g89
g70
NtRp4935
(dp4936
g73
(dp4937
g100
g101
ssg82
g4927
sg75
(lp4938
S':'
asbag68
(g89
g70
NtRp4939
(dp4940
g73
(dp4941
sg82
g4927
sg75
(lp4942
g68
(g69
g70
NtRp4943
(dp4944
g73
(dp4945
g81
I5
ssg82
g4939
sg75
(lp4946
g2325
asbasbasbag68
(g84
g70
NtRp4947
(dp4948
g73
(dp4949
sg82
g3112
sg75
(lp4950
g68
(g89
g70
NtRp4951
(dp4952
g73
(dp4953
g93
g94
ssg82
g4947
sg75
(lp4954
S'view'
p4955
asbag68
(g89
g70
NtRp4956
(dp4957
g73
(dp4958
g100
g101
ssg82
g4947
sg75
(lp4959
S':'
asbag68
(g89
g70
NtRp4960
(dp4961
g73
(dp4962
sg82
g4947
sg75
(lp4963
g68
(g69
g70
NtRp4964
(dp4965
g73
(dp4966
g81
I5
ssg82
g4960
sg75
(lp4967
S'default/index.html'
p4968
asbasbasbasbasbsS'locals'
p4969
(dp4970
g3
S"'/home/ian/web2py/applications/places/controllers/default.py'"
p4971
sg5
S"'# -*- coding: utf-8 -*-\\n# this file is released ...e_title)\\n\\nresponse._vars=response._caller(index)\\n'"
p4972
sssS'traceback'
p4973
S'Traceback (most recent call last):\n  File "/home/ian/web2py/gluon/restricted.py", line 193, in restricted\n    ccode = compile2(code,layer)\n  File "/home/ian/web2py/gluon/restricted.py", line 179, in compile2\n    return compile(code.rstrip().replace(\'\\r\\n\',\'\\n\')+\'\\n\', layer, \'exec\')\n  File "/home/ian/web2py/applications/places/controllers/default.py", line 96\n    return dict(form = form, closer=closer, the_title=the_title)\n                                                               ^\nIndentationError: unindent does not match any outer indentation level\n'
p4974
s.