(dp1
S'output'
p2
S''
sS'layer'
p3
S'/home/ian/Dropbox/Web_Pages/web2py-linux/applications/places/controllers/default.py'
p4
sS'code'
p5
S'# -*- coding: utf-8 -*-\n# this file is released under public domain and you can use without limitations\n\n#########################################################################\n## This is a samples controller\n## - index is the default action of any application\n## - user is required for authentication and authorization\n## - download is for downloading files uploaded in the db (does streaming)\n## - call exposes all registered services (none by default)\n#########################################################################\n\ndef index():\n    """\n    example action using the internationalization operator T and flash\n    rendered by views/default/index.html or views/generic.html\n    """   \n        \n    if request.args:\n        session.current = request.args[0]    \n    elif not session.current:\n        the_row = db(db.tags.id == 1).select()\n        session.current = the_row.tag\n    \n    current_row = db(db.tags.tag == session.current).select()    \n    current = current_row[0].id\n       \n    test = db(db.links.tags.contains(1)).select()\n       \n    links = db(db.links.tags.contains(current)).select()\n    \n    return dict(links = links, t = test[0])\n\ndef user():\n    """\n    exposes:\n    http://..../[app]/default/user/login\n    http://..../[app]/default/user/logout\n    http://..../[app]/default/user/register\n    http://..../[app]/default/user/profile\n    http://..../[app]/default/user/retrieve_password\n    http://..../[app]/default/user/change_password\n    use @auth.requires_login()\n        @auth.requires_membership(\'group name\')\n        @auth.requires_permission(\'read\',\'table name\',record_id)\n    to decorate functions that need access control\n    """\n    return dict(form=auth())\n\n\ndef download():\n    """\n    allows downloading of uploaded files\n    http://..../[app]/default/download/[filename]\n    """\n    return response.download(request,db)\n\n\ndef call():\n    """\n    exposes services. for example:\n    http://..../[app]/default/call/jsonrpc\n    decorate with @services.jsonrpc the functions to expose\n    supports xml, json, xmlrpc, jsonrpc, amfrpc, rss, csv\n    """\n    return service()\n\n\n@auth.requires_signature()\ndef data():\n    """\n    http://..../[app]/default/data/tables\n    http://..../[app]/default/data/create/[table]\n    http://..../[app]/default/data/read/[table]/[id]\n    http://..../[app]/default/data/update/[table]/[id]\n    http://..../[app]/default/data/delete/[table]/[id]\n    http://..../[app]/default/data/select/[table]\n    http://..../[app]/default/data/search/[table]\n    but URLs bust be signed, i.e. linked with\n      A(\'table\',_href=URL(\'data/tables\',user_signature=True))\n    or with the signed load operator\n      LOAD(\'default\',\'data.load\',args=\'tables\',ajax=True,user_signature=True)\n    """\n    return dict(form=crud())\n\nresponse._vars=response._caller(index)\n'
p6
sS'snapshot'
p7
(dp8
S'exception'
p9
(dp10
S'__hash__'
p11
S"<method-wrapper '__hash__' of exceptions.IndexError object>"
p12
sS'__setattr__'
p13
S"<method-wrapper '__setattr__' of exceptions.IndexError object>"
p14
sS'__reduce_ex__'
p15
S'<built-in method __reduce_ex__ of exceptions.IndexError object>'
p16
sS'__getslice__'
p17
S"<method-wrapper '__getslice__' of exceptions.IndexError object>"
p18
sS'__getitem__'
p19
S"<method-wrapper '__getitem__' of exceptions.IndexError object>"
p20
sS'__setstate__'
p21
S'<built-in method __setstate__ of exceptions.IndexError object>'
p22
sS'args'
p23
S"('list index out of range',)"
p24
sS'__reduce__'
p25
S'<built-in method __reduce__ of exceptions.IndexError object>'
p26
sS'__str__'
p27
S"<method-wrapper '__str__' of exceptions.IndexError object>"
p28
sS'__format__'
p29
S'<built-in method __format__ of exceptions.IndexError object>'
p30
sS'__getattribute__'
p31
S"<method-wrapper '__getattribute__' of exceptions.IndexError object>"
p32
sS'__class__'
p33
S"<type 'exceptions.IndexError'>"
p34
sS'__unicode__'
p35
S'<built-in method __unicode__ of exceptions.IndexError object>'
p36
sS'__delattr__'
p37
S"<method-wrapper '__delattr__' of exceptions.IndexError object>"
p38
sS'__subclasshook__'
p39
S'<built-in method __subclasshook__ of type object>'
p40
sS'__repr__'
p41
S"<method-wrapper '__repr__' of exceptions.IndexError object>"
p42
sS'__dict__'
p43
S'{}'
p44
sS'__sizeof__'
p45
S'<built-in method __sizeof__ of exceptions.IndexError object>'
p46
sS'__doc__'
p47
S"'Sequence index out of range.'"
p48
sS'__init__'
p49
S"<method-wrapper '__init__' of exceptions.IndexError object>"
p50
sS'__new__'
p51
S'<built-in method __new__ of type object>'
p52
ssS'evalue'
p53
S'list index out of range'
p54
sS'request'
p55
ccopy_reg
_reconstructor
p56
(cgluon.html
BEAUTIFY
p57
c__builtin__
object
p58
NtRp59
(dp60
S'attributes'
p61
(dp62
sS'components'
p63
(lp64
g56
(cgluon.html
TABLE
p65
g58
NtRp66
(dp67
g61
(dp68
S'level'
p69
I5
ssS'parent'
p70
Nsg63
(lp71
g56
(cgluon.html
TR
p72
g58
NtRp73
(dp74
g61
(dp75
sg70
g66
sg63
(lp76
g56
(cgluon.html
TD
p77
g58
NtRp78
(dp79
g61
(dp80
S'_style'
p81
S'font-weight:bold;'
p82
ssg70
g73
sg63
(lp83
S'ajax'
p84
asbag56
(g77
g58
NtRp85
(dp86
g61
(dp87
S'_valign'
p88
S'top'
p89
ssg70
g73
sg63
(lp90
S':'
asbag56
(g77
g58
NtRp91
(dp92
g61
(dp93
sg70
g73
sg63
(lp94
g56
(g57
g58
NtRp95
(dp96
g61
(dp97
g69
I5
ssg70
g91
sg63
(lp98
S'False'
p99
asbasbasbag56
(g72
g58
NtRp100
(dp101
g61
(dp102
sg70
g66
sg63
(lp103
g56
(g77
g58
NtRp104
(dp105
g61
(dp106
g81
g82
ssg70
g100
sg63
(lp107
S'application'
p108
asbag56
(g77
g58
NtRp109
(dp110
g61
(dp111
g88
g89
ssg70
g100
sg63
(lp112
S':'
asbag56
(g77
g58
NtRp113
(dp114
g61
(dp115
sg70
g100
sg63
(lp116
g56
(g57
g58
NtRp117
(dp118
g61
(dp119
g69
I5
ssg70
g113
sg63
(lp120
S'places'
p121
asbasbasbag56
(g72
g58
NtRp122
(dp123
g61
(dp124
sg70
g66
sg63
(lp125
g56
(g77
g58
NtRp126
(dp127
g61
(dp128
g81
g82
ssg70
g122
sg63
(lp129
g23
asbag56
(g77
g58
NtRp130
(dp131
g61
(dp132
g88
g89
ssg70
g122
sg63
(lp133
S':'
asbag56
(g77
g58
NtRp134
(dp135
g61
(dp136
sg70
g122
sg63
(lp137
g56
(g57
g58
NtRp138
(dp139
g61
(dp140
g69
I5
ssg70
g134
sg63
(lp141
g56
(g65
g58
NtRp142
(dp143
g61
(dp144
g69
I4
ssg70
Nsg63
(lp145
sbasbasbasbag56
(g72
g58
NtRp146
(dp147
g61
(dp148
sg70
g66
sg63
(lp149
g56
(g77
g58
NtRp150
(dp151
g61
(dp152
g81
g82
ssg70
g146
sg63
(lp153
S'body'
p154
asbag56
(g77
g58
NtRp155
(dp156
g61
(dp157
g88
g89
ssg70
g146
sg63
(lp158
S':'
asbag56
(g77
g58
NtRp159
(dp160
g61
(dp161
sg70
g146
sg63
(lp162
g56
(g57
g58
NtRp163
(dp164
g61
(dp165
g69
I5
ssg70
g159
sg63
(lp166
S'<cStringIO.StringO object at 0x34117d8>'
p167
asbasbasbag56
(g72
g58
NtRp168
(dp169
g61
(dp170
sg70
g66
sg63
(lp171
g56
(g77
g58
NtRp172
(dp173
g61
(dp174
g81
g82
ssg70
g168
sg63
(lp175
S'client'
p176
asbag56
(g77
g58
NtRp177
(dp178
g61
(dp179
g88
g89
ssg70
g168
sg63
(lp180
S':'
asbag56
(g77
g58
NtRp181
(dp182
g61
(dp183
sg70
g168
sg63
(lp184
g56
(g57
g58
NtRp185
(dp186
g61
(dp187
g69
I5
ssg70
g181
sg63
(lp188
S'127.0.0.1'
p189
asbasbasbag56
(g72
g58
NtRp190
(dp191
g61
(dp192
sg70
g66
sg63
(lp193
g56
(g77
g58
NtRp194
(dp195
g61
(dp196
g81
g82
ssg70
g190
sg63
(lp197
S'controller'
p198
asbag56
(g77
g58
NtRp199
(dp200
g61
(dp201
g88
g89
ssg70
g190
sg63
(lp202
S':'
asbag56
(g77
g58
NtRp203
(dp204
g61
(dp205
sg70
g190
sg63
(lp206
g56
(g57
g58
NtRp207
(dp208
g61
(dp209
g69
I5
ssg70
g203
sg63
(lp210
S'default'
p211
asbasbasbag56
(g72
g58
NtRp212
(dp213
g61
(dp214
sg70
g66
sg63
(lp215
g56
(g77
g58
NtRp216
(dp217
g61
(dp218
g81
g82
ssg70
g212
sg63
(lp219
S'cookies'
p220
asbag56
(g77
g58
NtRp221
(dp222
g61
(dp223
g88
g89
ssg70
g212
sg63
(lp224
S':'
asbag56
(g77
g58
NtRp225
(dp226
g61
(dp227
sg70
g212
sg63
(lp228
g56
(g57
g58
NtRp229
(dp230
g61
(dp231
g69
I5
ssg70
g225
sg63
(lp232
g56
(g65
g58
NtRp233
(dp234
g61
(dp235
g69
I4
ssg70
Nsg63
(lp236
g56
(g72
g58
NtRp237
(dp238
g61
(dp239
sg70
g233
sg63
(lp240
g56
(g77
g58
NtRp241
(dp242
g61
(dp243
g81
g82
ssg70
g237
sg63
(lp244
S'session_id_admin'
p245
asbag56
(g77
g58
NtRp246
(dp247
g61
(dp248
g88
g89
ssg70
g237
sg63
(lp249
S':'
asbag56
(g77
g58
NtRp250
(dp251
g61
(dp252
sg70
g237
sg63
(lp253
g56
(g57
g58
NtRp254
(dp255
g61
(dp256
g69
I4
ssg70
g250
sg63
(lp257
g56
(g65
g58
NtRp258
(dp259
g61
(dp260
g69
I3
ssg70
Nsg63
(lp261
g56
(g72
g58
NtRp262
(dp263
g61
(dp264
sg70
g258
sg63
(lp265
g56
(g77
g58
NtRp266
(dp267
g61
(dp268
g81
g82
ssg70
g262
sg63
(lp269
S'comment'
p270
asbag56
(g77
g58
NtRp271
(dp272
g61
(dp273
g88
g89
ssg70
g262
sg63
(lp274
S':'
asbag56
(g77
g58
NtRp275
(dp276
g61
(dp277
sg70
g262
sg63
(lp278
g56
(g57
g58
NtRp279
(dp280
g61
(dp281
g69
I3
ssg70
g275
sg63
(lp282
S''
asbasbasbag56
(g72
g58
NtRp283
(dp284
g61
(dp285
sg70
g258
sg63
(lp286
g56
(g77
g58
NtRp287
(dp288
g61
(dp289
g81
g82
ssg70
g283
sg63
(lp290
S'domain'
p291
asbag56
(g77
g58
NtRp292
(dp293
g61
(dp294
g88
g89
ssg70
g283
sg63
(lp295
S':'
asbag56
(g77
g58
NtRp296
(dp297
g61
(dp298
sg70
g283
sg63
(lp299
g56
(g57
g58
NtRp300
(dp301
g61
(dp302
g69
I3
ssg70
g296
sg63
(lp303
S''
asbasbasbag56
(g72
g58
NtRp304
(dp305
g61
(dp306
sg70
g258
sg63
(lp307
g56
(g77
g58
NtRp308
(dp309
g61
(dp310
g81
g82
ssg70
g304
sg63
(lp311
S'expires'
p312
asbag56
(g77
g58
NtRp313
(dp314
g61
(dp315
g88
g89
ssg70
g304
sg63
(lp316
S':'
asbag56
(g77
g58
NtRp317
(dp318
g61
(dp319
sg70
g304
sg63
(lp320
g56
(g57
g58
NtRp321
(dp322
g61
(dp323
g69
I3
ssg70
g317
sg63
(lp324
S''
asbasbasbag56
(g72
g58
NtRp325
(dp326
g61
(dp327
sg70
g258
sg63
(lp328
g56
(g77
g58
NtRp329
(dp330
g61
(dp331
g81
g82
ssg70
g325
sg63
(lp332
S'httponly'
p333
asbag56
(g77
g58
NtRp334
(dp335
g61
(dp336
g88
g89
ssg70
g325
sg63
(lp337
S':'
asbag56
(g77
g58
NtRp338
(dp339
g61
(dp340
sg70
g325
sg63
(lp341
g56
(g57
g58
NtRp342
(dp343
g61
(dp344
g69
I3
ssg70
g338
sg63
(lp345
S''
asbasbasbag56
(g72
g58
NtRp346
(dp347
g61
(dp348
sg70
g258
sg63
(lp349
g56
(g77
g58
NtRp350
(dp351
g61
(dp352
g81
g82
ssg70
g346
sg63
(lp353
S'max-age'
p354
asbag56
(g77
g58
NtRp355
(dp356
g61
(dp357
g88
g89
ssg70
g346
sg63
(lp358
S':'
asbag56
(g77
g58
NtRp359
(dp360
g61
(dp361
sg70
g346
sg63
(lp362
g56
(g57
g58
NtRp363
(dp364
g61
(dp365
g69
I3
ssg70
g359
sg63
(lp366
S''
asbasbasbag56
(g72
g58
NtRp367
(dp368
g61
(dp369
sg70
g258
sg63
(lp370
g56
(g77
g58
NtRp371
(dp372
g61
(dp373
g81
g82
ssg70
g367
sg63
(lp374
S'path'
p375
asbag56
(g77
g58
NtRp376
(dp377
g61
(dp378
g88
g89
ssg70
g367
sg63
(lp379
S':'
asbag56
(g77
g58
NtRp380
(dp381
g61
(dp382
sg70
g367
sg63
(lp383
g56
(g57
g58
NtRp384
(dp385
g61
(dp386
g69
I3
ssg70
g380
sg63
(lp387
S''
asbasbasbag56
(g72
g58
NtRp388
(dp389
g61
(dp390
sg70
g258
sg63
(lp391
g56
(g77
g58
NtRp392
(dp393
g61
(dp394
g81
g82
ssg70
g388
sg63
(lp395
S'secure'
p396
asbag56
(g77
g58
NtRp397
(dp398
g61
(dp399
g88
g89
ssg70
g388
sg63
(lp400
S':'
asbag56
(g77
g58
NtRp401
(dp402
g61
(dp403
sg70
g388
sg63
(lp404
g56
(g57
g58
NtRp405
(dp406
g61
(dp407
g69
I3
ssg70
g401
sg63
(lp408
S''
asbasbasbag56
(g72
g58
NtRp409
(dp410
g61
(dp411
sg70
g258
sg63
(lp412
g56
(g77
g58
NtRp413
(dp414
g61
(dp415
g81
g82
ssg70
g409
sg63
(lp416
S'version'
p417
asbag56
(g77
g58
NtRp418
(dp419
g61
(dp420
g88
g89
ssg70
g409
sg63
(lp421
S':'
asbag56
(g77
g58
NtRp422
(dp423
g61
(dp424
sg70
g409
sg63
(lp425
g56
(g57
g58
NtRp426
(dp427
g61
(dp428
g69
I3
ssg70
g422
sg63
(lp429
S''
asbasbasbasbasbasbasbag56
(g72
g58
NtRp430
(dp431
g61
(dp432
sg70
g233
sg63
(lp433
g56
(g77
g58
NtRp434
(dp435
g61
(dp436
g81
g82
ssg70
g430
sg63
(lp437
S'session_id_blog'
p438
asbag56
(g77
g58
NtRp439
(dp440
g61
(dp441
g88
g89
ssg70
g430
sg63
(lp442
S':'
asbag56
(g77
g58
NtRp443
(dp444
g61
(dp445
sg70
g430
sg63
(lp446
g56
(g57
g58
NtRp447
(dp448
g61
(dp449
g69
I4
ssg70
g443
sg63
(lp450
g56
(g65
g58
NtRp451
(dp452
g61
(dp453
g69
I3
ssg70
Nsg63
(lp454
g56
(g72
g58
NtRp455
(dp456
g61
(dp457
sg70
g451
sg63
(lp458
g56
(g77
g58
NtRp459
(dp460
g61
(dp461
g81
g82
ssg70
g455
sg63
(lp462
g270
asbag56
(g77
g58
NtRp463
(dp464
g61
(dp465
g88
g89
ssg70
g455
sg63
(lp466
S':'
asbag56
(g77
g58
NtRp467
(dp468
g61
(dp469
sg70
g455
sg63
(lp470
g56
(g57
g58
NtRp471
(dp472
g61
(dp473
g69
I3
ssg70
g467
sg63
(lp474
S''
asbasbasbag56
(g72
g58
NtRp475
(dp476
g61
(dp477
sg70
g451
sg63
(lp478
g56
(g77
g58
NtRp479
(dp480
g61
(dp481
g81
g82
ssg70
g475
sg63
(lp482
g291
asbag56
(g77
g58
NtRp483
(dp484
g61
(dp485
g88
g89
ssg70
g475
sg63
(lp486
S':'
asbag56
(g77
g58
NtRp487
(dp488
g61
(dp489
sg70
g475
sg63
(lp490
g56
(g57
g58
NtRp491
(dp492
g61
(dp493
g69
I3
ssg70
g487
sg63
(lp494
S''
asbasbasbag56
(g72
g58
NtRp495
(dp496
g61
(dp497
sg70
g451
sg63
(lp498
g56
(g77
g58
NtRp499
(dp500
g61
(dp501
g81
g82
ssg70
g495
sg63
(lp502
g312
asbag56
(g77
g58
NtRp503
(dp504
g61
(dp505
g88
g89
ssg70
g495
sg63
(lp506
S':'
asbag56
(g77
g58
NtRp507
(dp508
g61
(dp509
sg70
g495
sg63
(lp510
g56
(g57
g58
NtRp511
(dp512
g61
(dp513
g69
I3
ssg70
g507
sg63
(lp514
S''
asbasbasbag56
(g72
g58
NtRp515
(dp516
g61
(dp517
sg70
g451
sg63
(lp518
g56
(g77
g58
NtRp519
(dp520
g61
(dp521
g81
g82
ssg70
g515
sg63
(lp522
g333
asbag56
(g77
g58
NtRp523
(dp524
g61
(dp525
g88
g89
ssg70
g515
sg63
(lp526
S':'
asbag56
(g77
g58
NtRp527
(dp528
g61
(dp529
sg70
g515
sg63
(lp530
g56
(g57
g58
NtRp531
(dp532
g61
(dp533
g69
I3
ssg70
g527
sg63
(lp534
S''
asbasbasbag56
(g72
g58
NtRp535
(dp536
g61
(dp537
sg70
g451
sg63
(lp538
g56
(g77
g58
NtRp539
(dp540
g61
(dp541
g81
g82
ssg70
g535
sg63
(lp542
g354
asbag56
(g77
g58
NtRp543
(dp544
g61
(dp545
g88
g89
ssg70
g535
sg63
(lp546
S':'
asbag56
(g77
g58
NtRp547
(dp548
g61
(dp549
sg70
g535
sg63
(lp550
g56
(g57
g58
NtRp551
(dp552
g61
(dp553
g69
I3
ssg70
g547
sg63
(lp554
S''
asbasbasbag56
(g72
g58
NtRp555
(dp556
g61
(dp557
sg70
g451
sg63
(lp558
g56
(g77
g58
NtRp559
(dp560
g61
(dp561
g81
g82
ssg70
g555
sg63
(lp562
g375
asbag56
(g77
g58
NtRp563
(dp564
g61
(dp565
g88
g89
ssg70
g555
sg63
(lp566
S':'
asbag56
(g77
g58
NtRp567
(dp568
g61
(dp569
sg70
g555
sg63
(lp570
g56
(g57
g58
NtRp571
(dp572
g61
(dp573
g69
I3
ssg70
g567
sg63
(lp574
S''
asbasbasbag56
(g72
g58
NtRp575
(dp576
g61
(dp577
sg70
g451
sg63
(lp578
g56
(g77
g58
NtRp579
(dp580
g61
(dp581
g81
g82
ssg70
g575
sg63
(lp582
g396
asbag56
(g77
g58
NtRp583
(dp584
g61
(dp585
g88
g89
ssg70
g575
sg63
(lp586
S':'
asbag56
(g77
g58
NtRp587
(dp588
g61
(dp589
sg70
g575
sg63
(lp590
g56
(g57
g58
NtRp591
(dp592
g61
(dp593
g69
I3
ssg70
g587
sg63
(lp594
S''
asbasbasbag56
(g72
g58
NtRp595
(dp596
g61
(dp597
sg70
g451
sg63
(lp598
g56
(g77
g58
NtRp599
(dp600
g61
(dp601
g81
g82
ssg70
g595
sg63
(lp602
g417
asbag56
(g77
g58
NtRp603
(dp604
g61
(dp605
g88
g89
ssg70
g595
sg63
(lp606
S':'
asbag56
(g77
g58
NtRp607
(dp608
g61
(dp609
sg70
g595
sg63
(lp610
g56
(g57
g58
NtRp611
(dp612
g61
(dp613
g69
I3
ssg70
g607
sg63
(lp614
S''
asbasbasbasbasbasbasbag56
(g72
g58
NtRp615
(dp616
g61
(dp617
sg70
g233
sg63
(lp618
g56
(g77
g58
NtRp619
(dp620
g61
(dp621
g81
g82
ssg70
g615
sg63
(lp622
S'session_id_paideia'
p623
asbag56
(g77
g58
NtRp624
(dp625
g61
(dp626
g88
g89
ssg70
g615
sg63
(lp627
S':'
asbag56
(g77
g58
NtRp628
(dp629
g61
(dp630
sg70
g615
sg63
(lp631
g56
(g57
g58
NtRp632
(dp633
g61
(dp634
g69
I4
ssg70
g628
sg63
(lp635
g56
(g65
g58
NtRp636
(dp637
g61
(dp638
g69
I3
ssg70
Nsg63
(lp639
g56
(g72
g58
NtRp640
(dp641
g61
(dp642
sg70
g636
sg63
(lp643
g56
(g77
g58
NtRp644
(dp645
g61
(dp646
g81
g82
ssg70
g640
sg63
(lp647
g270
asbag56
(g77
g58
NtRp648
(dp649
g61
(dp650
g88
g89
ssg70
g640
sg63
(lp651
S':'
asbag56
(g77
g58
NtRp652
(dp653
g61
(dp654
sg70
g640
sg63
(lp655
g56
(g57
g58
NtRp656
(dp657
g61
(dp658
g69
I3
ssg70
g652
sg63
(lp659
S''
asbasbasbag56
(g72
g58
NtRp660
(dp661
g61
(dp662
sg70
g636
sg63
(lp663
g56
(g77
g58
NtRp664
(dp665
g61
(dp666
g81
g82
ssg70
g660
sg63
(lp667
g291
asbag56
(g77
g58
NtRp668
(dp669
g61
(dp670
g88
g89
ssg70
g660
sg63
(lp671
S':'
asbag56
(g77
g58
NtRp672
(dp673
g61
(dp674
sg70
g660
sg63
(lp675
g56
(g57
g58
NtRp676
(dp677
g61
(dp678
g69
I3
ssg70
g672
sg63
(lp679
S''
asbasbasbag56
(g72
g58
NtRp680
(dp681
g61
(dp682
sg70
g636
sg63
(lp683
g56
(g77
g58
NtRp684
(dp685
g61
(dp686
g81
g82
ssg70
g680
sg63
(lp687
g312
asbag56
(g77
g58
NtRp688
(dp689
g61
(dp690
g88
g89
ssg70
g680
sg63
(lp691
S':'
asbag56
(g77
g58
NtRp692
(dp693
g61
(dp694
sg70
g680
sg63
(lp695
g56
(g57
g58
NtRp696
(dp697
g61
(dp698
g69
I3
ssg70
g692
sg63
(lp699
S''
asbasbasbag56
(g72
g58
NtRp700
(dp701
g61
(dp702
sg70
g636
sg63
(lp703
g56
(g77
g58
NtRp704
(dp705
g61
(dp706
g81
g82
ssg70
g700
sg63
(lp707
g333
asbag56
(g77
g58
NtRp708
(dp709
g61
(dp710
g88
g89
ssg70
g700
sg63
(lp711
S':'
asbag56
(g77
g58
NtRp712
(dp713
g61
(dp714
sg70
g700
sg63
(lp715
g56
(g57
g58
NtRp716
(dp717
g61
(dp718
g69
I3
ssg70
g712
sg63
(lp719
S''
asbasbasbag56
(g72
g58
NtRp720
(dp721
g61
(dp722
sg70
g636
sg63
(lp723
g56
(g77
g58
NtRp724
(dp725
g61
(dp726
g81
g82
ssg70
g720
sg63
(lp727
g354
asbag56
(g77
g58
NtRp728
(dp729
g61
(dp730
g88
g89
ssg70
g720
sg63
(lp731
S':'
asbag56
(g77
g58
NtRp732
(dp733
g61
(dp734
sg70
g720
sg63
(lp735
g56
(g57
g58
NtRp736
(dp737
g61
(dp738
g69
I3
ssg70
g732
sg63
(lp739
S''
asbasbasbag56
(g72
g58
NtRp740
(dp741
g61
(dp742
sg70
g636
sg63
(lp743
g56
(g77
g58
NtRp744
(dp745
g61
(dp746
g81
g82
ssg70
g740
sg63
(lp747
g375
asbag56
(g77
g58
NtRp748
(dp749
g61
(dp750
g88
g89
ssg70
g740
sg63
(lp751
S':'
asbag56
(g77
g58
NtRp752
(dp753
g61
(dp754
sg70
g740
sg63
(lp755
g56
(g57
g58
NtRp756
(dp757
g61
(dp758
g69
I3
ssg70
g752
sg63
(lp759
S''
asbasbasbag56
(g72
g58
NtRp760
(dp761
g61
(dp762
sg70
g636
sg63
(lp763
g56
(g77
g58
NtRp764
(dp765
g61
(dp766
g81
g82
ssg70
g760
sg63
(lp767
g396
asbag56
(g77
g58
NtRp768
(dp769
g61
(dp770
g88
g89
ssg70
g760
sg63
(lp771
S':'
asbag56
(g77
g58
NtRp772
(dp773
g61
(dp774
sg70
g760
sg63
(lp775
g56
(g57
g58
NtRp776
(dp777
g61
(dp778
g69
I3
ssg70
g772
sg63
(lp779
S''
asbasbasbag56
(g72
g58
NtRp780
(dp781
g61
(dp782
sg70
g636
sg63
(lp783
g56
(g77
g58
NtRp784
(dp785
g61
(dp786
g81
g82
ssg70
g780
sg63
(lp787
g417
asbag56
(g77
g58
NtRp788
(dp789
g61
(dp790
g88
g89
ssg70
g780
sg63
(lp791
S':'
asbag56
(g77
g58
NtRp792
(dp793
g61
(dp794
sg70
g780
sg63
(lp795
g56
(g57
g58
NtRp796
(dp797
g61
(dp798
g69
I3
ssg70
g792
sg63
(lp799
S''
asbasbasbasbasbasbasbag56
(g72
g58
NtRp800
(dp801
g61
(dp802
sg70
g233
sg63
(lp803
g56
(g77
g58
NtRp804
(dp805
g61
(dp806
g81
g82
ssg70
g800
sg63
(lp807
S'session_id_places'
p808
asbag56
(g77
g58
NtRp809
(dp810
g61
(dp811
g88
g89
ssg70
g800
sg63
(lp812
S':'
asbag56
(g77
g58
NtRp813
(dp814
g61
(dp815
sg70
g800
sg63
(lp816
g56
(g57
g58
NtRp817
(dp818
g61
(dp819
g69
I4
ssg70
g813
sg63
(lp820
g56
(g65
g58
NtRp821
(dp822
g61
(dp823
g69
I3
ssg70
Nsg63
(lp824
g56
(g72
g58
NtRp825
(dp826
g61
(dp827
sg70
g821
sg63
(lp828
g56
(g77
g58
NtRp829
(dp830
g61
(dp831
g81
g82
ssg70
g825
sg63
(lp832
g270
asbag56
(g77
g58
NtRp833
(dp834
g61
(dp835
g88
g89
ssg70
g825
sg63
(lp836
S':'
asbag56
(g77
g58
NtRp837
(dp838
g61
(dp839
sg70
g825
sg63
(lp840
g56
(g57
g58
NtRp841
(dp842
g61
(dp843
g69
I3
ssg70
g837
sg63
(lp844
S''
asbasbasbag56
(g72
g58
NtRp845
(dp846
g61
(dp847
sg70
g821
sg63
(lp848
g56
(g77
g58
NtRp849
(dp850
g61
(dp851
g81
g82
ssg70
g845
sg63
(lp852
g291
asbag56
(g77
g58
NtRp853
(dp854
g61
(dp855
g88
g89
ssg70
g845
sg63
(lp856
S':'
asbag56
(g77
g58
NtRp857
(dp858
g61
(dp859
sg70
g845
sg63
(lp860
g56
(g57
g58
NtRp861
(dp862
g61
(dp863
g69
I3
ssg70
g857
sg63
(lp864
S''
asbasbasbag56
(g72
g58
NtRp865
(dp866
g61
(dp867
sg70
g821
sg63
(lp868
g56
(g77
g58
NtRp869
(dp870
g61
(dp871
g81
g82
ssg70
g865
sg63
(lp872
g312
asbag56
(g77
g58
NtRp873
(dp874
g61
(dp875
g88
g89
ssg70
g865
sg63
(lp876
S':'
asbag56
(g77
g58
NtRp877
(dp878
g61
(dp879
sg70
g865
sg63
(lp880
g56
(g57
g58
NtRp881
(dp882
g61
(dp883
g69
I3
ssg70
g877
sg63
(lp884
S''
asbasbasbag56
(g72
g58
NtRp885
(dp886
g61
(dp887
sg70
g821
sg63
(lp888
g56
(g77
g58
NtRp889
(dp890
g61
(dp891
g81
g82
ssg70
g885
sg63
(lp892
g333
asbag56
(g77
g58
NtRp893
(dp894
g61
(dp895
g88
g89
ssg70
g885
sg63
(lp896
S':'
asbag56
(g77
g58
NtRp897
(dp898
g61
(dp899
sg70
g885
sg63
(lp900
g56
(g57
g58
NtRp901
(dp902
g61
(dp903
g69
I3
ssg70
g897
sg63
(lp904
S''
asbasbasbag56
(g72
g58
NtRp905
(dp906
g61
(dp907
sg70
g821
sg63
(lp908
g56
(g77
g58
NtRp909
(dp910
g61
(dp911
g81
g82
ssg70
g905
sg63
(lp912
g354
asbag56
(g77
g58
NtRp913
(dp914
g61
(dp915
g88
g89
ssg70
g905
sg63
(lp916
S':'
asbag56
(g77
g58
NtRp917
(dp918
g61
(dp919
sg70
g905
sg63
(lp920
g56
(g57
g58
NtRp921
(dp922
g61
(dp923
g69
I3
ssg70
g917
sg63
(lp924
S''
asbasbasbag56
(g72
g58
NtRp925
(dp926
g61
(dp927
sg70
g821
sg63
(lp928
g56
(g77
g58
NtRp929
(dp930
g61
(dp931
g81
g82
ssg70
g925
sg63
(lp932
g375
asbag56
(g77
g58
NtRp933
(dp934
g61
(dp935
g88
g89
ssg70
g925
sg63
(lp936
S':'
asbag56
(g77
g58
NtRp937
(dp938
g61
(dp939
sg70
g925
sg63
(lp940
g56
(g57
g58
NtRp941
(dp942
g61
(dp943
g69
I3
ssg70
g937
sg63
(lp944
S''
asbasbasbag56
(g72
g58
NtRp945
(dp946
g61
(dp947
sg70
g821
sg63
(lp948
g56
(g77
g58
NtRp949
(dp950
g61
(dp951
g81
g82
ssg70
g945
sg63
(lp952
g396
asbag56
(g77
g58
NtRp953
(dp954
g61
(dp955
g88
g89
ssg70
g945
sg63
(lp956
S':'
asbag56
(g77
g58
NtRp957
(dp958
g61
(dp959
sg70
g945
sg63
(lp960
g56
(g57
g58
NtRp961
(dp962
g61
(dp963
g69
I3
ssg70
g957
sg63
(lp964
S''
asbasbasbag56
(g72
g58
NtRp965
(dp966
g61
(dp967
sg70
g821
sg63
(lp968
g56
(g77
g58
NtRp969
(dp970
g61
(dp971
g81
g82
ssg70
g965
sg63
(lp972
g417
asbag56
(g77
g58
NtRp973
(dp974
g61
(dp975
g88
g89
ssg70
g965
sg63
(lp976
S':'
asbag56
(g77
g58
NtRp977
(dp978
g61
(dp979
sg70
g965
sg63
(lp980
g56
(g57
g58
NtRp981
(dp982
g61
(dp983
g69
I3
ssg70
g977
sg63
(lp984
S''
asbasbasbasbasbasbasbag56
(g72
g58
NtRp985
(dp986
g61
(dp987
sg70
g233
sg63
(lp988
g56
(g77
g58
NtRp989
(dp990
g61
(dp991
g81
g82
ssg70
g985
sg63
(lp992
S'session_id_welcome'
p993
asbag56
(g77
g58
NtRp994
(dp995
g61
(dp996
g88
g89
ssg70
g985
sg63
(lp997
S':'
asbag56
(g77
g58
NtRp998
(dp999
g61
(dp1000
sg70
g985
sg63
(lp1001
g56
(g57
g58
NtRp1002
(dp1003
g61
(dp1004
g69
I4
ssg70
g998
sg63
(lp1005
g56
(g65
g58
NtRp1006
(dp1007
g61
(dp1008
g69
I3
ssg70
Nsg63
(lp1009
g56
(g72
g58
NtRp1010
(dp1011
g61
(dp1012
sg70
g1006
sg63
(lp1013
g56
(g77
g58
NtRp1014
(dp1015
g61
(dp1016
g81
g82
ssg70
g1010
sg63
(lp1017
g270
asbag56
(g77
g58
NtRp1018
(dp1019
g61
(dp1020
g88
g89
ssg70
g1010
sg63
(lp1021
S':'
asbag56
(g77
g58
NtRp1022
(dp1023
g61
(dp1024
sg70
g1010
sg63
(lp1025
g56
(g57
g58
NtRp1026
(dp1027
g61
(dp1028
g69
I3
ssg70
g1022
sg63
(lp1029
S''
asbasbasbag56
(g72
g58
NtRp1030
(dp1031
g61
(dp1032
sg70
g1006
sg63
(lp1033
g56
(g77
g58
NtRp1034
(dp1035
g61
(dp1036
g81
g82
ssg70
g1030
sg63
(lp1037
g291
asbag56
(g77
g58
NtRp1038
(dp1039
g61
(dp1040
g88
g89
ssg70
g1030
sg63
(lp1041
S':'
asbag56
(g77
g58
NtRp1042
(dp1043
g61
(dp1044
sg70
g1030
sg63
(lp1045
g56
(g57
g58
NtRp1046
(dp1047
g61
(dp1048
g69
I3
ssg70
g1042
sg63
(lp1049
S''
asbasbasbag56
(g72
g58
NtRp1050
(dp1051
g61
(dp1052
sg70
g1006
sg63
(lp1053
g56
(g77
g58
NtRp1054
(dp1055
g61
(dp1056
g81
g82
ssg70
g1050
sg63
(lp1057
g312
asbag56
(g77
g58
NtRp1058
(dp1059
g61
(dp1060
g88
g89
ssg70
g1050
sg63
(lp1061
S':'
asbag56
(g77
g58
NtRp1062
(dp1063
g61
(dp1064
sg70
g1050
sg63
(lp1065
g56
(g57
g58
NtRp1066
(dp1067
g61
(dp1068
g69
I3
ssg70
g1062
sg63
(lp1069
S''
asbasbasbag56
(g72
g58
NtRp1070
(dp1071
g61
(dp1072
sg70
g1006
sg63
(lp1073
g56
(g77
g58
NtRp1074
(dp1075
g61
(dp1076
g81
g82
ssg70
g1070
sg63
(lp1077
g333
asbag56
(g77
g58
NtRp1078
(dp1079
g61
(dp1080
g88
g89
ssg70
g1070
sg63
(lp1081
S':'
asbag56
(g77
g58
NtRp1082
(dp1083
g61
(dp1084
sg70
g1070
sg63
(lp1085
g56
(g57
g58
NtRp1086
(dp1087
g61
(dp1088
g69
I3
ssg70
g1082
sg63
(lp1089
S''
asbasbasbag56
(g72
g58
NtRp1090
(dp1091
g61
(dp1092
sg70
g1006
sg63
(lp1093
g56
(g77
g58
NtRp1094
(dp1095
g61
(dp1096
g81
g82
ssg70
g1090
sg63
(lp1097
g354
asbag56
(g77
g58
NtRp1098
(dp1099
g61
(dp1100
g88
g89
ssg70
g1090
sg63
(lp1101
S':'
asbag56
(g77
g58
NtRp1102
(dp1103
g61
(dp1104
sg70
g1090
sg63
(lp1105
g56
(g57
g58
NtRp1106
(dp1107
g61
(dp1108
g69
I3
ssg70
g1102
sg63
(lp1109
S''
asbasbasbag56
(g72
g58
NtRp1110
(dp1111
g61
(dp1112
sg70
g1006
sg63
(lp1113
g56
(g77
g58
NtRp1114
(dp1115
g61
(dp1116
g81
g82
ssg70
g1110
sg63
(lp1117
g375
asbag56
(g77
g58
NtRp1118
(dp1119
g61
(dp1120
g88
g89
ssg70
g1110
sg63
(lp1121
S':'
asbag56
(g77
g58
NtRp1122
(dp1123
g61
(dp1124
sg70
g1110
sg63
(lp1125
g56
(g57
g58
NtRp1126
(dp1127
g61
(dp1128
g69
I3
ssg70
g1122
sg63
(lp1129
S''
asbasbasbag56
(g72
g58
NtRp1130
(dp1131
g61
(dp1132
sg70
g1006
sg63
(lp1133
g56
(g77
g58
NtRp1134
(dp1135
g61
(dp1136
g81
g82
ssg70
g1130
sg63
(lp1137
g396
asbag56
(g77
g58
NtRp1138
(dp1139
g61
(dp1140
g88
g89
ssg70
g1130
sg63
(lp1141
S':'
asbag56
(g77
g58
NtRp1142
(dp1143
g61
(dp1144
sg70
g1130
sg63
(lp1145
g56
(g57
g58
NtRp1146
(dp1147
g61
(dp1148
g69
I3
ssg70
g1142
sg63
(lp1149
S''
asbasbasbag56
(g72
g58
NtRp1150
(dp1151
g61
(dp1152
sg70
g1006
sg63
(lp1153
g56
(g77
g58
NtRp1154
(dp1155
g61
(dp1156
g81
g82
ssg70
g1150
sg63
(lp1157
g417
asbag56
(g77
g58
NtRp1158
(dp1159
g61
(dp1160
g88
g89
ssg70
g1150
sg63
(lp1161
S':'
asbag56
(g77
g58
NtRp1162
(dp1163
g61
(dp1164
sg70
g1150
sg63
(lp1165
g56
(g57
g58
NtRp1166
(dp1167
g61
(dp1168
g69
I3
ssg70
g1162
sg63
(lp1169
S''
asbasbasbasbasbasbasbasbasbasbasbag56
(g72
g58
NtRp1170
(dp1171
g61
(dp1172
sg70
g66
sg63
(lp1173
g56
(g77
g58
NtRp1174
(dp1175
g61
(dp1176
g81
g82
ssg70
g1170
sg63
(lp1177
S'env'
p1178
asbag56
(g77
g58
NtRp1179
(dp1180
g61
(dp1181
g88
g89
ssg70
g1170
sg63
(lp1182
S':'
asbag56
(g77
g58
NtRp1183
(dp1184
g61
(dp1185
sg70
g1170
sg63
(lp1186
g56
(g57
g58
NtRp1187
(dp1188
g61
(dp1189
g69
I5
ssg70
g1183
sg63
(lp1190
g56
(g65
g58
NtRp1191
(dp1192
g61
(dp1193
g69
I4
ssg70
Nsg63
(lp1194
g56
(g72
g58
NtRp1195
(dp1196
g61
(dp1197
sg70
g1191
sg63
(lp1198
g56
(g77
g58
NtRp1199
(dp1200
g61
(dp1201
g81
g82
ssg70
g1195
sg63
(lp1202
S'app_folders'
p1203
asbag56
(g77
g58
NtRp1204
(dp1205
g61
(dp1206
g88
g89
ssg70
g1195
sg63
(lp1207
S':'
asbag56
(g77
g58
NtRp1208
(dp1209
g61
(dp1210
sg70
g1195
sg63
(lp1211
g56
(g57
g58
NtRp1212
(dp1213
g61
(dp1214
g69
I4
ssg70
g1208
sg63
(lp1215
S"set(['/home/ian/Dropbox/Web_Pages/web2py-linux/applications/blog/', '/home/ian/Dropbox/Web_Pages/web2py-linux/applications/places/', '/home/ian/Dropbox/Web_Pages/web2py-linux/applications/Paideia/', '/home/ian/Dropbox/Web_Pages/web2py-linux/applications/admin/', '/home/ian/Dropbox/Web_Pages/web2py-linux/applications/welcome/'])"
p1216
asbasbasbag56
(g72
g58
NtRp1217
(dp1218
g61
(dp1219
sg70
g1191
sg63
(lp1220
g56
(g77
g58
NtRp1221
(dp1222
g61
(dp1223
g81
g82
ssg70
g1217
sg63
(lp1224
S'applications_parent'
p1225
asbag56
(g77
g58
NtRp1226
(dp1227
g61
(dp1228
g88
g89
ssg70
g1217
sg63
(lp1229
S':'
asbag56
(g77
g58
NtRp1230
(dp1231
g61
(dp1232
sg70
g1217
sg63
(lp1233
g56
(g57
g58
NtRp1234
(dp1235
g61
(dp1236
g69
I4
ssg70
g1230
sg63
(lp1237
S'/home/ian/Dropbox/Web_Pages/web2py-linux'
p1238
asbasbasbag56
(g72
g58
NtRp1239
(dp1240
g61
(dp1241
sg70
g1191
sg63
(lp1242
g56
(g77
g58
NtRp1243
(dp1244
g61
(dp1245
g81
g82
ssg70
g1239
sg63
(lp1246
S'cmd_args'
p1247
asbag56
(g77
g58
NtRp1248
(dp1249
g61
(dp1250
g88
g89
ssg70
g1239
sg63
(lp1251
S':'
asbag56
(g77
g58
NtRp1252
(dp1253
g61
(dp1254
sg70
g1239
sg63
(lp1255
g56
(g57
g58
NtRp1256
(dp1257
g61
(dp1258
g69
I4
ssg70
g1252
sg63
(lp1259
g56
(g65
g58
NtRp1260
(dp1261
g61
(dp1262
g69
I3
ssg70
Nsg63
(lp1263
sbasbasbasbag56
(g72
g58
NtRp1264
(dp1265
g61
(dp1266
sg70
g1191
sg63
(lp1267
g56
(g77
g58
NtRp1268
(dp1269
g61
(dp1270
g81
g82
ssg70
g1264
sg63
(lp1271
S'cmd_options'
p1272
asbag56
(g77
g58
NtRp1273
(dp1274
g61
(dp1275
g88
g89
ssg70
g1264
sg63
(lp1276
S':'
asbag56
(g77
g58
NtRp1277
(dp1278
g61
(dp1279
sg70
g1264
sg63
(lp1280
g56
(g57
g58
NtRp1281
(dp1282
g61
(dp1283
g69
I4
ssg70
g1277
sg63
(lp1284
S"<Values at 0x2723170: {'verbose': False, 'ip': '127.0.0.1', 'shutdown_timeout': 5, 'taskbar': False, 'nocron': False, 'pid_filename': 'httpserver.pid', 'maxthreads': None, 'softcron': False, 'server_name': 'uriel', 'bpython': False, 'nogui': False, 'port': 8000, 'extcron': False, 'debuglevel': 30, 'test': None, 'folder': '/home/ian/Dropbox/Web_Pages/web2py-linux', 'config': '', 'import_models': False, 'winservice': '', 'shell': None, 'run': '', 'log_filename': 'httpserver.log', 'args': [''], 'ssl_ca_certificate': None, 'scheduler': None, 'profiler_filename': None, 'ssl_private_key': '', 'password': '<ask>', 'request_queue_size': 5, 'ssl_certificate': '', 'cronjob': False, 'plain': False, 'quiet': False, 'interfaces': None, 'minthreads': None, 'timeout': 10, 'numthreads': None, 'nobanner': False}>"
p1285
asbasbasbag56
(g72
g58
NtRp1286
(dp1287
g61
(dp1288
sg70
g1191
sg63
(lp1289
g56
(g77
g58
NtRp1290
(dp1291
g61
(dp1292
g81
g82
ssg70
g1286
sg63
(lp1293
S'db_sessions'
p1294
asbag56
(g77
g58
NtRp1295
(dp1296
g61
(dp1297
g88
g89
ssg70
g1286
sg63
(lp1298
S':'
asbag56
(g77
g58
NtRp1299
(dp1300
g61
(dp1301
sg70
g1286
sg63
(lp1302
g56
(g57
g58
NtRp1303
(dp1304
g61
(dp1305
g69
I4
ssg70
g1299
sg63
(lp1306
S'set([])'
p1307
asbasbasbag56
(g72
g58
NtRp1308
(dp1309
g61
(dp1310
sg70
g1191
sg63
(lp1311
g56
(g77
g58
NtRp1312
(dp1313
g61
(dp1314
g81
g82
ssg70
g1308
sg63
(lp1315
S'debugging'
p1316
asbag56
(g77
g58
NtRp1317
(dp1318
g61
(dp1319
g88
g89
ssg70
g1308
sg63
(lp1320
S':'
asbag56
(g77
g58
NtRp1321
(dp1322
g61
(dp1323
sg70
g1308
sg63
(lp1324
g56
(g57
g58
NtRp1325
(dp1326
g61
(dp1327
g69
I4
ssg70
g1321
sg63
(lp1328
g99
asbasbasbag56
(g72
g58
NtRp1329
(dp1330
g61
(dp1331
sg70
g1191
sg63
(lp1332
g56
(g77
g58
NtRp1333
(dp1334
g61
(dp1335
g81
g82
ssg70
g1329
sg63
(lp1336
S'gluon_parent'
p1337
asbag56
(g77
g58
NtRp1338
(dp1339
g61
(dp1340
g88
g89
ssg70
g1329
sg63
(lp1341
S':'
asbag56
(g77
g58
NtRp1342
(dp1343
g61
(dp1344
sg70
g1329
sg63
(lp1345
g56
(g57
g58
NtRp1346
(dp1347
g61
(dp1348
g69
I4
ssg70
g1342
sg63
(lp1349
S'/home/ian/Dropbox/Web_Pages/web2py-linux'
p1350
asbasbasbag56
(g72
g58
NtRp1351
(dp1352
g61
(dp1353
sg70
g1191
sg63
(lp1354
g56
(g77
g58
NtRp1355
(dp1356
g61
(dp1357
g81
g82
ssg70
g1351
sg63
(lp1358
S'http_accept'
p1359
asbag56
(g77
g58
NtRp1360
(dp1361
g61
(dp1362
g88
g89
ssg70
g1351
sg63
(lp1363
S':'
asbag56
(g77
g58
NtRp1364
(dp1365
g61
(dp1366
sg70
g1351
sg63
(lp1367
g56
(g57
g58
NtRp1368
(dp1369
g61
(dp1370
g69
I4
ssg70
g1364
sg63
(lp1371
S'text/html,application/xhtml+xml,application/xml;q=0.9,*/*;q=0.8'
p1372
asbasbasbag56
(g72
g58
NtRp1373
(dp1374
g61
(dp1375
sg70
g1191
sg63
(lp1376
g56
(g77
g58
NtRp1377
(dp1378
g61
(dp1379
g81
g82
ssg70
g1373
sg63
(lp1380
S'http_accept_charset'
p1381
asbag56
(g77
g58
NtRp1382
(dp1383
g61
(dp1384
g88
g89
ssg70
g1373
sg63
(lp1385
S':'
asbag56
(g77
g58
NtRp1386
(dp1387
g61
(dp1388
sg70
g1373
sg63
(lp1389
g56
(g57
g58
NtRp1390
(dp1391
g61
(dp1392
g69
I4
ssg70
g1386
sg63
(lp1393
S'UTF-8,*'
p1394
asbasbasbag56
(g72
g58
NtRp1395
(dp1396
g61
(dp1397
sg70
g1191
sg63
(lp1398
g56
(g77
g58
NtRp1399
(dp1400
g61
(dp1401
g81
g82
ssg70
g1395
sg63
(lp1402
S'http_accept_encoding'
p1403
asbag56
(g77
g58
NtRp1404
(dp1405
g61
(dp1406
g88
g89
ssg70
g1395
sg63
(lp1407
S':'
asbag56
(g77
g58
NtRp1408
(dp1409
g61
(dp1410
sg70
g1395
sg63
(lp1411
g56
(g57
g58
NtRp1412
(dp1413
g61
(dp1414
g69
I4
ssg70
g1408
sg63
(lp1415
S'gzip, deflate'
p1416
asbasbasbag56
(g72
g58
NtRp1417
(dp1418
g61
(dp1419
sg70
g1191
sg63
(lp1420
g56
(g77
g58
NtRp1421
(dp1422
g61
(dp1423
g81
g82
ssg70
g1417
sg63
(lp1424
S'http_accept_language'
p1425
asbag56
(g77
g58
NtRp1426
(dp1427
g61
(dp1428
g88
g89
ssg70
g1417
sg63
(lp1429
S':'
asbag56
(g77
g58
NtRp1430
(dp1431
g61
(dp1432
sg70
g1417
sg63
(lp1433
g56
(g57
g58
NtRp1434
(dp1435
g61
(dp1436
g69
I4
ssg70
g1430
sg63
(lp1437
S'en-us,en;q=0.5'
p1438
asbasbasbag56
(g72
g58
NtRp1439
(dp1440
g61
(dp1441
sg70
g1191
sg63
(lp1442
g56
(g77
g58
NtRp1443
(dp1444
g61
(dp1445
g81
g82
ssg70
g1439
sg63
(lp1446
S'http_cache_control'
p1447
asbag56
(g77
g58
NtRp1448
(dp1449
g61
(dp1450
g88
g89
ssg70
g1439
sg63
(lp1451
S':'
asbag56
(g77
g58
NtRp1452
(dp1453
g61
(dp1454
sg70
g1439
sg63
(lp1455
g56
(g57
g58
NtRp1456
(dp1457
g61
(dp1458
g69
I4
ssg70
g1452
sg63
(lp1459
S'max-age=0'
p1460
asbasbasbag56
(g72
g58
NtRp1461
(dp1462
g61
(dp1463
sg70
g1191
sg63
(lp1464
g56
(g77
g58
NtRp1465
(dp1466
g61
(dp1467
g81
g82
ssg70
g1461
sg63
(lp1468
S'http_connection'
p1469
asbag56
(g77
g58
NtRp1470
(dp1471
g61
(dp1472
g88
g89
ssg70
g1461
sg63
(lp1473
S':'
asbag56
(g77
g58
NtRp1474
(dp1475
g61
(dp1476
sg70
g1461
sg63
(lp1477
g56
(g57
g58
NtRp1478
(dp1479
g61
(dp1480
g69
I4
ssg70
g1474
sg63
(lp1481
S'keep-alive'
p1482
asbasbasbag56
(g72
g58
NtRp1483
(dp1484
g61
(dp1485
sg70
g1191
sg63
(lp1486
g56
(g77
g58
NtRp1487
(dp1488
g61
(dp1489
g81
g82
ssg70
g1483
sg63
(lp1490
S'http_cookie'
p1491
asbag56
(g77
g58
NtRp1492
(dp1493
g61
(dp1494
g88
g89
ssg70
g1483
sg63
(lp1495
S':'
asbag56
(g77
g58
NtRp1496
(dp1497
g61
(dp1498
sg70
g1483
sg63
(lp1499
g56
(g57
g58
NtRp1500
(dp1501
g61
(dp1502
g69
I4
ssg70
g1496
sg63
(lp1503
S'session_id_blog=127.0.0.1-f221c588-e499-4b63-9882-f52e2f06907c; session_id_welcome=127.0.0.1-c5e18343-d06e-414a-bb07-23cb8cf7ceb8; session_id_paideia=127.0.0.1-81eff388-1cde-41fb-8887-06f0c09ce763; session_id_admin=127.0.0.1-f8ad7263-b87d-41ed-bbe2-215e5232b6dc; session_id_places=127.0.0.1-ae378f77-b944-4a55-be06-eed4ce913913'
p1504
asbasbasbag56
(g72
g58
NtRp1505
(dp1506
g61
(dp1507
sg70
g1191
sg63
(lp1508
g56
(g77
g58
NtRp1509
(dp1510
g61
(dp1511
g81
g82
ssg70
g1505
sg63
(lp1512
S'http_host'
p1513
asbag56
(g77
g58
NtRp1514
(dp1515
g61
(dp1516
g88
g89
ssg70
g1505
sg63
(lp1517
S':'
asbag56
(g77
g58
NtRp1518
(dp1519
g61
(dp1520
sg70
g1505
sg63
(lp1521
g56
(g57
g58
NtRp1522
(dp1523
g61
(dp1524
g69
I4
ssg70
g1518
sg63
(lp1525
S'127.0.0.1:8000'
p1526
asbasbasbag56
(g72
g58
NtRp1527
(dp1528
g61
(dp1529
sg70
g1191
sg63
(lp1530
g56
(g77
g58
NtRp1531
(dp1532
g61
(dp1533
g81
g82
ssg70
g1527
sg63
(lp1534
S'http_referer'
p1535
asbag56
(g77
g58
NtRp1536
(dp1537
g61
(dp1538
g88
g89
ssg70
g1527
sg63
(lp1539
S':'
asbag56
(g77
g58
NtRp1540
(dp1541
g61
(dp1542
sg70
g1527
sg63
(lp1543
g56
(g57
g58
NtRp1544
(dp1545
g61
(dp1546
g69
I4
ssg70
g1540
sg63
(lp1547
S'http://127.0.0.1:8000/places/'
p1548
asbasbasbag56
(g72
g58
NtRp1549
(dp1550
g61
(dp1551
sg70
g1191
sg63
(lp1552
g56
(g77
g58
NtRp1553
(dp1554
g61
(dp1555
g81
g82
ssg70
g1549
sg63
(lp1556
S'http_user_agent'
p1557
asbag56
(g77
g58
NtRp1558
(dp1559
g61
(dp1560
g88
g89
ssg70
g1549
sg63
(lp1561
S':'
asbag56
(g77
g58
NtRp1562
(dp1563
g61
(dp1564
sg70
g1549
sg63
(lp1565
g56
(g57
g58
NtRp1566
(dp1567
g61
(dp1568
g69
I4
ssg70
g1562
sg63
(lp1569
S'Mozilla/5.0 (X11; Linux x86_64; rv:7.0.1) Gecko/20100101 Firefox/7.0.1'
p1570
asbasbasbag56
(g72
g58
NtRp1571
(dp1572
g61
(dp1573
sg70
g1191
sg63
(lp1574
g56
(g77
g58
NtRp1575
(dp1576
g61
(dp1577
g81
g82
ssg70
g1571
sg63
(lp1578
S'is_jython'
p1579
asbag56
(g77
g58
NtRp1580
(dp1581
g61
(dp1582
g88
g89
ssg70
g1571
sg63
(lp1583
S':'
asbag56
(g77
g58
NtRp1584
(dp1585
g61
(dp1586
sg70
g1571
sg63
(lp1587
g56
(g57
g58
NtRp1588
(dp1589
g61
(dp1590
g69
I4
ssg70
g1584
sg63
(lp1591
g99
asbasbasbag56
(g72
g58
NtRp1592
(dp1593
g61
(dp1594
sg70
g1191
sg63
(lp1595
g56
(g77
g58
NtRp1596
(dp1597
g61
(dp1598
g81
g82
ssg70
g1592
sg63
(lp1599
S'path_info'
p1600
asbag56
(g77
g58
NtRp1601
(dp1602
g61
(dp1603
g88
g89
ssg70
g1592
sg63
(lp1604
S':'
asbag56
(g77
g58
NtRp1605
(dp1606
g61
(dp1607
sg70
g1592
sg63
(lp1608
g56
(g57
g58
NtRp1609
(dp1610
g61
(dp1611
g69
I4
ssg70
g1605
sg63
(lp1612
S'/places/default/index'
p1613
asbasbasbag56
(g72
g58
NtRp1614
(dp1615
g61
(dp1616
sg70
g1191
sg63
(lp1617
g56
(g77
g58
NtRp1618
(dp1619
g61
(dp1620
g81
g82
ssg70
g1614
sg63
(lp1621
S'query_string'
p1622
asbag56
(g77
g58
NtRp1623
(dp1624
g61
(dp1625
g88
g89
ssg70
g1614
sg63
(lp1626
S':'
asbag56
(g77
g58
NtRp1627
(dp1628
g61
(dp1629
sg70
g1614
sg63
(lp1630
g56
(g57
g58
NtRp1631
(dp1632
g61
(dp1633
g69
I4
ssg70
g1627
sg63
(lp1634
S''
asbasbasbag56
(g72
g58
NtRp1635
(dp1636
g61
(dp1637
sg70
g1191
sg63
(lp1638
g56
(g77
g58
NtRp1639
(dp1640
g61
(dp1641
g81
g82
ssg70
g1635
sg63
(lp1642
S'remote_addr'
p1643
asbag56
(g77
g58
NtRp1644
(dp1645
g61
(dp1646
g88
g89
ssg70
g1635
sg63
(lp1647
S':'
asbag56
(g77
g58
NtRp1648
(dp1649
g61
(dp1650
sg70
g1635
sg63
(lp1651
g56
(g57
g58
NtRp1652
(dp1653
g61
(dp1654
g69
I4
ssg70
g1648
sg63
(lp1655
g189
asbasbasbag56
(g72
g58
NtRp1656
(dp1657
g61
(dp1658
sg70
g1191
sg63
(lp1659
g56
(g77
g58
NtRp1660
(dp1661
g61
(dp1662
g81
g82
ssg70
g1656
sg63
(lp1663
S'remote_port'
p1664
asbag56
(g77
g58
NtRp1665
(dp1666
g61
(dp1667
g88
g89
ssg70
g1656
sg63
(lp1668
S':'
asbag56
(g77
g58
NtRp1669
(dp1670
g61
(dp1671
sg70
g1656
sg63
(lp1672
g56
(g57
g58
NtRp1673
(dp1674
g61
(dp1675
g69
I4
ssg70
g1669
sg63
(lp1676
S'41918'
p1677
asbasbasbag56
(g72
g58
NtRp1678
(dp1679
g61
(dp1680
sg70
g1191
sg63
(lp1681
g56
(g77
g58
NtRp1682
(dp1683
g61
(dp1684
g81
g82
ssg70
g1678
sg63
(lp1685
S'request_method'
p1686
asbag56
(g77
g58
NtRp1687
(dp1688
g61
(dp1689
g88
g89
ssg70
g1678
sg63
(lp1690
S':'
asbag56
(g77
g58
NtRp1691
(dp1692
g61
(dp1693
sg70
g1678
sg63
(lp1694
g56
(g57
g58
NtRp1695
(dp1696
g61
(dp1697
g69
I4
ssg70
g1691
sg63
(lp1698
S'GET'
p1699
asbasbasbag56
(g72
g58
NtRp1700
(dp1701
g61
(dp1702
sg70
g1191
sg63
(lp1703
g56
(g77
g58
NtRp1704
(dp1705
g61
(dp1706
g81
g82
ssg70
g1700
sg63
(lp1707
S'script_name'
p1708
asbag56
(g77
g58
NtRp1709
(dp1710
g61
(dp1711
g88
g89
ssg70
g1700
sg63
(lp1712
S':'
asbag56
(g77
g58
NtRp1713
(dp1714
g61
(dp1715
sg70
g1700
sg63
(lp1716
g56
(g57
g58
NtRp1717
(dp1718
g61
(dp1719
g69
I4
ssg70
g1713
sg63
(lp1720
S''
asbasbasbag56
(g72
g58
NtRp1721
(dp1722
g61
(dp1723
sg70
g1191
sg63
(lp1724
g56
(g77
g58
NtRp1725
(dp1726
g61
(dp1727
g81
g82
ssg70
g1721
sg63
(lp1728
S'server_name'
p1729
asbag56
(g77
g58
NtRp1730
(dp1731
g61
(dp1732
g88
g89
ssg70
g1721
sg63
(lp1733
S':'
asbag56
(g77
g58
NtRp1734
(dp1735
g61
(dp1736
sg70
g1721
sg63
(lp1737
g56
(g57
g58
NtRp1738
(dp1739
g61
(dp1740
g69
I4
ssg70
g1734
sg63
(lp1741
S'uriel'
p1742
asbasbasbag56
(g72
g58
NtRp1743
(dp1744
g61
(dp1745
sg70
g1191
sg63
(lp1746
g56
(g77
g58
NtRp1747
(dp1748
g61
(dp1749
g81
g82
ssg70
g1743
sg63
(lp1750
S'server_port'
p1751
asbag56
(g77
g58
NtRp1752
(dp1753
g61
(dp1754
g88
g89
ssg70
g1743
sg63
(lp1755
S':'
asbag56
(g77
g58
NtRp1756
(dp1757
g61
(dp1758
sg70
g1743
sg63
(lp1759
g56
(g57
g58
NtRp1760
(dp1761
g61
(dp1762
g69
I4
ssg70
g1756
sg63
(lp1763
S'8000'
p1764
asbasbasbag56
(g72
g58
NtRp1765
(dp1766
g61
(dp1767
sg70
g1191
sg63
(lp1768
g56
(g77
g58
NtRp1769
(dp1770
g61
(dp1771
g81
g82
ssg70
g1765
sg63
(lp1772
S'server_protocol'
p1773
asbag56
(g77
g58
NtRp1774
(dp1775
g61
(dp1776
g88
g89
ssg70
g1765
sg63
(lp1777
S':'
asbag56
(g77
g58
NtRp1778
(dp1779
g61
(dp1780
sg70
g1765
sg63
(lp1781
g56
(g57
g58
NtRp1782
(dp1783
g61
(dp1784
g69
I4
ssg70
g1778
sg63
(lp1785
S'HTTP/1.1'
p1786
asbasbasbag56
(g72
g58
NtRp1787
(dp1788
g61
(dp1789
sg70
g1191
sg63
(lp1790
g56
(g77
g58
NtRp1791
(dp1792
g61
(dp1793
g81
g82
ssg70
g1787
sg63
(lp1794
S'server_software'
p1795
asbag56
(g77
g58
NtRp1796
(dp1797
g61
(dp1798
g88
g89
ssg70
g1787
sg63
(lp1799
S':'
asbag56
(g77
g58
NtRp1800
(dp1801
g61
(dp1802
sg70
g1787
sg63
(lp1803
g56
(g57
g58
NtRp1804
(dp1805
g61
(dp1806
g69
I4
ssg70
g1800
sg63
(lp1807
S'Rocket 1.2.4'
p1808
asbasbasbag56
(g72
g58
NtRp1809
(dp1810
g61
(dp1811
sg70
g1191
sg63
(lp1812
g56
(g77
g58
NtRp1813
(dp1814
g61
(dp1815
g81
g82
ssg70
g1809
sg63
(lp1816
S'web2py_crontype'
p1817
asbag56
(g77
g58
NtRp1818
(dp1819
g61
(dp1820
g88
g89
ssg70
g1809
sg63
(lp1821
S':'
asbag56
(g77
g58
NtRp1822
(dp1823
g61
(dp1824
sg70
g1809
sg63
(lp1825
g56
(g57
g58
NtRp1826
(dp1827
g61
(dp1828
g69
I4
ssg70
g1822
sg63
(lp1829
S'hard'
p1830
asbasbasbag56
(g72
g58
NtRp1831
(dp1832
g61
(dp1833
sg70
g1191
sg63
(lp1834
g56
(g77
g58
NtRp1835
(dp1836
g61
(dp1837
g81
g82
ssg70
g1831
sg63
(lp1838
S'web2py_path'
p1839
asbag56
(g77
g58
NtRp1840
(dp1841
g61
(dp1842
g88
g89
ssg70
g1831
sg63
(lp1843
S':'
asbag56
(g77
g58
NtRp1844
(dp1845
g61
(dp1846
sg70
g1831
sg63
(lp1847
g56
(g57
g58
NtRp1848
(dp1849
g61
(dp1850
g69
I4
ssg70
g1844
sg63
(lp1851
g1238
asbasbasbag56
(g72
g58
NtRp1852
(dp1853
g61
(dp1854
sg70
g1191
sg63
(lp1855
g56
(g77
g58
NtRp1856
(dp1857
g61
(dp1858
g81
g82
ssg70
g1852
sg63
(lp1859
S'web2py_version'
p1860
asbag56
(g77
g58
NtRp1861
(dp1862
g61
(dp1863
g88
g89
ssg70
g1852
sg63
(lp1864
S':'
asbag56
(g77
g58
NtRp1865
(dp1866
g61
(dp1867
sg70
g1852
sg63
(lp1868
g56
(g57
g58
NtRp1869
(dp1870
g61
(dp1871
g69
I4
ssg70
g1865
sg63
(lp1872
g56
(g65
g58
NtRp1873
(dp1874
g61
(dp1875
g69
I3
ssg70
Nsg63
(lp1876
g56
(g72
g58
NtRp1877
(dp1878
g61
(dp1879
sg70
g1873
sg63
(lp1880
g56
(g77
g58
NtRp1881
(dp1882
g61
(dp1883
sg70
g1877
sg63
(lp1884
g56
(g57
g58
NtRp1885
(dp1886
g61
(dp1887
g69
I3
ssg70
g1881
sg63
(lp1888
S'1'
asbasbasbag56
(g72
g58
NtRp1889
(dp1890
g61
(dp1891
sg70
g1873
sg63
(lp1892
g56
(g77
g58
NtRp1893
(dp1894
g61
(dp1895
sg70
g1889
sg63
(lp1896
g56
(g57
g58
NtRp1897
(dp1898
g61
(dp1899
g69
I3
ssg70
g1893
sg63
(lp1900
S'99'
p1901
asbasbasbag56
(g72
g58
NtRp1902
(dp1903
g61
(dp1904
sg70
g1873
sg63
(lp1905
g56
(g77
g58
NtRp1906
(dp1907
g61
(dp1908
sg70
g1902
sg63
(lp1909
g56
(g57
g58
NtRp1910
(dp1911
g61
(dp1912
g69
I3
ssg70
g1906
sg63
(lp1913
S'2'
asbasbasbag56
(g72
g58
NtRp1914
(dp1915
g61
(dp1916
sg70
g1873
sg63
(lp1917
g56
(g77
g58
NtRp1918
(dp1919
g61
(dp1920
sg70
g1914
sg63
(lp1921
g56
(g57
g58
NtRp1922
(dp1923
g61
(dp1924
g69
I3
ssg70
g1918
sg63
(lp1925
S'datetime.datetime(2011, 9, 26, 6, 55, 33)'
p1926
asbasbasbag56
(g72
g58
NtRp1927
(dp1928
g61
(dp1929
sg70
g1873
sg63
(lp1930
g56
(g77
g58
NtRp1931
(dp1932
g61
(dp1933
sg70
g1927
sg63
(lp1934
g56
(g57
g58
NtRp1935
(dp1936
g61
(dp1937
g69
I3
ssg70
g1931
sg63
(lp1938
S'stable'
p1939
asbasbasbasbasbasbasbag56
(g72
g58
NtRp1940
(dp1941
g61
(dp1942
sg70
g1191
sg63
(lp1943
g56
(g77
g58
NtRp1944
(dp1945
g61
(dp1946
g81
g82
ssg70
g1940
sg63
(lp1947
S'wsgi_errors'
p1948
asbag56
(g77
g58
NtRp1949
(dp1950
g61
(dp1951
g88
g89
ssg70
g1940
sg63
(lp1952
S':'
asbag56
(g77
g58
NtRp1953
(dp1954
g61
(dp1955
sg70
g1940
sg63
(lp1956
g56
(g57
g58
NtRp1957
(dp1958
g61
(dp1959
g69
I4
ssg70
g1953
sg63
(lp1960
S"<open file '<stderr>', mode 'w' at 0x7f4a416fc270>"
p1961
asbasbasbag56
(g72
g58
NtRp1962
(dp1963
g61
(dp1964
sg70
g1191
sg63
(lp1965
g56
(g77
g58
NtRp1966
(dp1967
g61
(dp1968
g81
g82
ssg70
g1962
sg63
(lp1969
S'wsgi_file_wrapper'
p1970
asbag56
(g77
g58
NtRp1971
(dp1972
g61
(dp1973
g88
g89
ssg70
g1962
sg63
(lp1974
S':'
asbag56
(g77
g58
NtRp1975
(dp1976
g61
(dp1977
sg70
g1962
sg63
(lp1978
g56
(g57
g58
NtRp1979
(dp1980
g61
(dp1981
g69
I4
ssg70
g1975
sg63
(lp1982
S'<class wsgiref.util.FileWrapper at 0x24b4870>'
p1983
asbasbasbag56
(g72
g58
NtRp1984
(dp1985
g61
(dp1986
sg70
g1191
sg63
(lp1987
g56
(g77
g58
NtRp1988
(dp1989
g61
(dp1990
g81
g82
ssg70
g1984
sg63
(lp1991
S'wsgi_input'
p1992
asbag56
(g77
g58
NtRp1993
(dp1994
g61
(dp1995
g88
g89
ssg70
g1984
sg63
(lp1996
S':'
asbag56
(g77
g58
NtRp1997
(dp1998
g61
(dp1999
sg70
g1984
sg63
(lp2000
g56
(g57
g58
NtRp2001
(dp2002
g61
(dp2003
g69
I4
ssg70
g1997
sg63
(lp2004
S'<socket._fileobject object at 0x2d7fbd0>'
p2005
asbasbasbag56
(g72
g58
NtRp2006
(dp2007
g61
(dp2008
sg70
g1191
sg63
(lp2009
g56
(g77
g58
NtRp2010
(dp2011
g61
(dp2012
g81
g82
ssg70
g2006
sg63
(lp2013
S'wsgi_multiprocess'
p2014
asbag56
(g77
g58
NtRp2015
(dp2016
g61
(dp2017
g88
g89
ssg70
g2006
sg63
(lp2018
S':'
asbag56
(g77
g58
NtRp2019
(dp2020
g61
(dp2021
sg70
g2006
sg63
(lp2022
g56
(g57
g58
NtRp2023
(dp2024
g61
(dp2025
g69
I4
ssg70
g2019
sg63
(lp2026
g99
asbasbasbag56
(g72
g58
NtRp2027
(dp2028
g61
(dp2029
sg70
g1191
sg63
(lp2030
g56
(g77
g58
NtRp2031
(dp2032
g61
(dp2033
g81
g82
ssg70
g2027
sg63
(lp2034
S'wsgi_multithread'
p2035
asbag56
(g77
g58
NtRp2036
(dp2037
g61
(dp2038
g88
g89
ssg70
g2027
sg63
(lp2039
S':'
asbag56
(g77
g58
NtRp2040
(dp2041
g61
(dp2042
sg70
g2027
sg63
(lp2043
g56
(g57
g58
NtRp2044
(dp2045
g61
(dp2046
g69
I4
ssg70
g2040
sg63
(lp2047
S'True'
p2048
asbasbasbag56
(g72
g58
NtRp2049
(dp2050
g61
(dp2051
sg70
g1191
sg63
(lp2052
g56
(g77
g58
NtRp2053
(dp2054
g61
(dp2055
g81
g82
ssg70
g2049
sg63
(lp2056
S'wsgi_run_once'
p2057
asbag56
(g77
g58
NtRp2058
(dp2059
g61
(dp2060
g88
g89
ssg70
g2049
sg63
(lp2061
S':'
asbag56
(g77
g58
NtRp2062
(dp2063
g61
(dp2064
sg70
g2049
sg63
(lp2065
g56
(g57
g58
NtRp2066
(dp2067
g61
(dp2068
g69
I4
ssg70
g2062
sg63
(lp2069
g99
asbasbasbag56
(g72
g58
NtRp2070
(dp2071
g61
(dp2072
sg70
g1191
sg63
(lp2073
g56
(g77
g58
NtRp2074
(dp2075
g61
(dp2076
g81
g82
ssg70
g2070
sg63
(lp2077
S'wsgi_url_scheme'
p2078
asbag56
(g77
g58
NtRp2079
(dp2080
g61
(dp2081
g88
g89
ssg70
g2070
sg63
(lp2082
S':'
asbag56
(g77
g58
NtRp2083
(dp2084
g61
(dp2085
sg70
g2070
sg63
(lp2086
g56
(g57
g58
NtRp2087
(dp2088
g61
(dp2089
g69
I4
ssg70
g2083
sg63
(lp2090
S'http'
p2091
asbasbasbag56
(g72
g58
NtRp2092
(dp2093
g61
(dp2094
sg70
g1191
sg63
(lp2095
g56
(g77
g58
NtRp2096
(dp2097
g61
(dp2098
g81
g82
ssg70
g2092
sg63
(lp2099
S'wsgi_version'
p2100
asbag56
(g77
g58
NtRp2101
(dp2102
g61
(dp2103
g88
g89
ssg70
g2092
sg63
(lp2104
S':'
asbag56
(g77
g58
NtRp2105
(dp2106
g61
(dp2107
sg70
g2092
sg63
(lp2108
g56
(g57
g58
NtRp2109
(dp2110
g61
(dp2111
g69
I4
ssg70
g2105
sg63
(lp2112
g56
(g65
g58
NtRp2113
(dp2114
g61
(dp2115
g69
I3
ssg70
Nsg63
(lp2116
g56
(g72
g58
NtRp2117
(dp2118
g61
(dp2119
sg70
g2113
sg63
(lp2120
g56
(g77
g58
NtRp2121
(dp2122
g61
(dp2123
sg70
g2117
sg63
(lp2124
g56
(g57
g58
NtRp2125
(dp2126
g61
(dp2127
g69
I3
ssg70
g2121
sg63
(lp2128
S'1'
asbasbasbag56
(g72
g58
NtRp2129
(dp2130
g61
(dp2131
sg70
g2113
sg63
(lp2132
g56
(g77
g58
NtRp2133
(dp2134
g61
(dp2135
sg70
g2129
sg63
(lp2136
g56
(g57
g58
NtRp2137
(dp2138
g61
(dp2139
g69
I3
ssg70
g2133
sg63
(lp2140
S'0'
asbasbasbasbasbasbasbasbasbasbasbag56
(g72
g58
NtRp2141
(dp2142
g61
(dp2143
sg70
g66
sg63
(lp2144
g56
(g77
g58
NtRp2145
(dp2146
g61
(dp2147
g81
g82
ssg70
g2141
sg63
(lp2148
S'extension'
p2149
asbag56
(g77
g58
NtRp2150
(dp2151
g61
(dp2152
g88
g89
ssg70
g2141
sg63
(lp2153
S':'
asbag56
(g77
g58
NtRp2154
(dp2155
g61
(dp2156
sg70
g2141
sg63
(lp2157
g56
(g57
g58
NtRp2158
(dp2159
g61
(dp2160
g69
I5
ssg70
g2154
sg63
(lp2161
S'html'
p2162
asbasbasbag56
(g72
g58
NtRp2163
(dp2164
g61
(dp2165
sg70
g66
sg63
(lp2166
g56
(g77
g58
NtRp2167
(dp2168
g61
(dp2169
g81
g82
ssg70
g2163
sg63
(lp2170
S'folder'
p2171
asbag56
(g77
g58
NtRp2172
(dp2173
g61
(dp2174
g88
g89
ssg70
g2163
sg63
(lp2175
S':'
asbag56
(g77
g58
NtRp2176
(dp2177
g61
(dp2178
sg70
g2163
sg63
(lp2179
g56
(g57
g58
NtRp2180
(dp2181
g61
(dp2182
g69
I5
ssg70
g2176
sg63
(lp2183
S'/home/ian/Dropbox/Web_Pages/web2py-linux/applications/places/'
p2184
asbasbasbag56
(g72
g58
NtRp2185
(dp2186
g61
(dp2187
sg70
g66
sg63
(lp2188
g56
(g77
g58
NtRp2189
(dp2190
g61
(dp2191
g81
g82
ssg70
g2185
sg63
(lp2192
S'function'
p2193
asbag56
(g77
g58
NtRp2194
(dp2195
g61
(dp2196
g88
g89
ssg70
g2185
sg63
(lp2197
S':'
asbag56
(g77
g58
NtRp2198
(dp2199
g61
(dp2200
sg70
g2185
sg63
(lp2201
g56
(g57
g58
NtRp2202
(dp2203
g61
(dp2204
g69
I5
ssg70
g2198
sg63
(lp2205
S'index'
p2206
asbasbasbag56
(g72
g58
NtRp2207
(dp2208
g61
(dp2209
sg70
g66
sg63
(lp2210
g56
(g77
g58
NtRp2211
(dp2212
g61
(dp2213
g81
g82
ssg70
g2207
sg63
(lp2214
S'get_vars'
p2215
asbag56
(g77
g58
NtRp2216
(dp2217
g61
(dp2218
g88
g89
ssg70
g2207
sg63
(lp2219
S':'
asbag56
(g77
g58
NtRp2220
(dp2221
g61
(dp2222
sg70
g2207
sg63
(lp2223
g56
(g57
g58
NtRp2224
(dp2225
g61
(dp2226
g69
I5
ssg70
g2220
sg63
(lp2227
g56
(g65
g58
NtRp2228
(dp2229
g61
(dp2230
g69
I4
ssg70
Nsg63
(lp2231
sbasbasbasbag56
(g72
g58
NtRp2232
(dp2233
g61
(dp2234
sg70
g66
sg63
(lp2235
g56
(g77
g58
NtRp2236
(dp2237
g61
(dp2238
g81
g82
ssg70
g2232
sg63
(lp2239
S'global_settings'
p2240
asbag56
(g77
g58
NtRp2241
(dp2242
g61
(dp2243
g88
g89
ssg70
g2232
sg63
(lp2244
S':'
asbag56
(g77
g58
NtRp2245
(dp2246
g61
(dp2247
sg70
g2232
sg63
(lp2248
g56
(g57
g58
NtRp2249
(dp2250
g61
(dp2251
g69
I5
ssg70
g2245
sg63
(lp2252
g56
(g65
g58
NtRp2253
(dp2254
g61
(dp2255
g69
I4
ssg70
Nsg63
(lp2256
g56
(g72
g58
NtRp2257
(dp2258
g61
(dp2259
sg70
g2253
sg63
(lp2260
g56
(g77
g58
NtRp2261
(dp2262
g61
(dp2263
g81
g82
ssg70
g2257
sg63
(lp2264
g1203
asbag56
(g77
g58
NtRp2265
(dp2266
g61
(dp2267
g88
g89
ssg70
g2257
sg63
(lp2268
S':'
asbag56
(g77
g58
NtRp2269
(dp2270
g61
(dp2271
sg70
g2257
sg63
(lp2272
g56
(g57
g58
NtRp2273
(dp2274
g61
(dp2275
g69
I4
ssg70
g2269
sg63
(lp2276
S"set(['/home/ian/Dropbox/Web_Pages/web2py-linux/applications/blog/', '/home/ian/Dropbox/Web_Pages/web2py-linux/applications/places/', '/home/ian/Dropbox/Web_Pages/web2py-linux/applications/Paideia/', '/home/ian/Dropbox/Web_Pages/web2py-linux/applications/admin/', '/home/ian/Dropbox/Web_Pages/web2py-linux/applications/welcome/'])"
p2277
asbasbasbag56
(g72
g58
NtRp2278
(dp2279
g61
(dp2280
sg70
g2253
sg63
(lp2281
g56
(g77
g58
NtRp2282
(dp2283
g61
(dp2284
g81
g82
ssg70
g2278
sg63
(lp2285
g1225
asbag56
(g77
g58
NtRp2286
(dp2287
g61
(dp2288
g88
g89
ssg70
g2278
sg63
(lp2289
S':'
asbag56
(g77
g58
NtRp2290
(dp2291
g61
(dp2292
sg70
g2278
sg63
(lp2293
g56
(g57
g58
NtRp2294
(dp2295
g61
(dp2296
g69
I4
ssg70
g2290
sg63
(lp2297
g1238
asbasbasbag56
(g72
g58
NtRp2298
(dp2299
g61
(dp2300
sg70
g2253
sg63
(lp2301
g56
(g77
g58
NtRp2302
(dp2303
g61
(dp2304
g81
g82
ssg70
g2298
sg63
(lp2305
g1247
asbag56
(g77
g58
NtRp2306
(dp2307
g61
(dp2308
g88
g89
ssg70
g2298
sg63
(lp2309
S':'
asbag56
(g77
g58
NtRp2310
(dp2311
g61
(dp2312
sg70
g2298
sg63
(lp2313
g56
(g57
g58
NtRp2314
(dp2315
g61
(dp2316
g69
I4
ssg70
g2310
sg63
(lp2317
g56
(g65
g58
NtRp2318
(dp2319
g61
(dp2320
g69
I3
ssg70
Nsg63
(lp2321
sbasbasbasbag56
(g72
g58
NtRp2322
(dp2323
g61
(dp2324
sg70
g2253
sg63
(lp2325
g56
(g77
g58
NtRp2326
(dp2327
g61
(dp2328
g81
g82
ssg70
g2322
sg63
(lp2329
g1272
asbag56
(g77
g58
NtRp2330
(dp2331
g61
(dp2332
g88
g89
ssg70
g2322
sg63
(lp2333
S':'
asbag56
(g77
g58
NtRp2334
(dp2335
g61
(dp2336
sg70
g2322
sg63
(lp2337
g56
(g57
g58
NtRp2338
(dp2339
g61
(dp2340
g69
I4
ssg70
g2334
sg63
(lp2341
S"<Values at 0x2723170: {'verbose': False, 'ip': '127.0.0.1', 'shutdown_timeout': 5, 'taskbar': False, 'nocron': False, 'pid_filename': 'httpserver.pid', 'maxthreads': None, 'softcron': False, 'server_name': 'uriel', 'bpython': False, 'nogui': False, 'port': 8000, 'extcron': False, 'debuglevel': 30, 'test': None, 'folder': '/home/ian/Dropbox/Web_Pages/web2py-linux', 'config': '', 'import_models': False, 'winservice': '', 'shell': None, 'run': '', 'log_filename': 'httpserver.log', 'args': [''], 'ssl_ca_certificate': None, 'scheduler': None, 'profiler_filename': None, 'ssl_private_key': '', 'password': '<ask>', 'request_queue_size': 5, 'ssl_certificate': '', 'cronjob': False, 'plain': False, 'quiet': False, 'interfaces': None, 'minthreads': None, 'timeout': 10, 'numthreads': None, 'nobanner': False}>"
p2342
asbasbasbag56
(g72
g58
NtRp2343
(dp2344
g61
(dp2345
sg70
g2253
sg63
(lp2346
g56
(g77
g58
NtRp2347
(dp2348
g61
(dp2349
g81
g82
ssg70
g2343
sg63
(lp2350
g1294
asbag56
(g77
g58
NtRp2351
(dp2352
g61
(dp2353
g88
g89
ssg70
g2343
sg63
(lp2354
S':'
asbag56
(g77
g58
NtRp2355
(dp2356
g61
(dp2357
sg70
g2343
sg63
(lp2358
g56
(g57
g58
NtRp2359
(dp2360
g61
(dp2361
g69
I4
ssg70
g2355
sg63
(lp2362
S'set([])'
p2363
asbasbasbag56
(g72
g58
NtRp2364
(dp2365
g61
(dp2366
sg70
g2253
sg63
(lp2367
g56
(g77
g58
NtRp2368
(dp2369
g61
(dp2370
g81
g82
ssg70
g2364
sg63
(lp2371
g1316
asbag56
(g77
g58
NtRp2372
(dp2373
g61
(dp2374
g88
g89
ssg70
g2364
sg63
(lp2375
S':'
asbag56
(g77
g58
NtRp2376
(dp2377
g61
(dp2378
sg70
g2364
sg63
(lp2379
g56
(g57
g58
NtRp2380
(dp2381
g61
(dp2382
g69
I4
ssg70
g2376
sg63
(lp2383
g99
asbasbasbag56
(g72
g58
NtRp2384
(dp2385
g61
(dp2386
sg70
g2253
sg63
(lp2387
g56
(g77
g58
NtRp2388
(dp2389
g61
(dp2390
g81
g82
ssg70
g2384
sg63
(lp2391
g1337
asbag56
(g77
g58
NtRp2392
(dp2393
g61
(dp2394
g88
g89
ssg70
g2384
sg63
(lp2395
S':'
asbag56
(g77
g58
NtRp2396
(dp2397
g61
(dp2398
sg70
g2384
sg63
(lp2399
g56
(g57
g58
NtRp2400
(dp2401
g61
(dp2402
g69
I4
ssg70
g2396
sg63
(lp2403
g1350
asbasbasbag56
(g72
g58
NtRp2404
(dp2405
g61
(dp2406
sg70
g2253
sg63
(lp2407
g56
(g77
g58
NtRp2408
(dp2409
g61
(dp2410
g81
g82
ssg70
g2404
sg63
(lp2411
g1579
asbag56
(g77
g58
NtRp2412
(dp2413
g61
(dp2414
g88
g89
ssg70
g2404
sg63
(lp2415
S':'
asbag56
(g77
g58
NtRp2416
(dp2417
g61
(dp2418
sg70
g2404
sg63
(lp2419
g56
(g57
g58
NtRp2420
(dp2421
g61
(dp2422
g69
I4
ssg70
g2416
sg63
(lp2423
g99
asbasbasbag56
(g72
g58
NtRp2424
(dp2425
g61
(dp2426
sg70
g2253
sg63
(lp2427
g56
(g77
g58
NtRp2428
(dp2429
g61
(dp2430
g81
g82
ssg70
g2424
sg63
(lp2431
g1817
asbag56
(g77
g58
NtRp2432
(dp2433
g61
(dp2434
g88
g89
ssg70
g2424
sg63
(lp2435
S':'
asbag56
(g77
g58
NtRp2436
(dp2437
g61
(dp2438
sg70
g2424
sg63
(lp2439
g56
(g57
g58
NtRp2440
(dp2441
g61
(dp2442
g69
I4
ssg70
g2436
sg63
(lp2443
g1830
asbasbasbag56
(g72
g58
NtRp2444
(dp2445
g61
(dp2446
sg70
g2253
sg63
(lp2447
g56
(g77
g58
NtRp2448
(dp2449
g61
(dp2450
g81
g82
ssg70
g2444
sg63
(lp2451
g1860
asbag56
(g77
g58
NtRp2452
(dp2453
g61
(dp2454
g88
g89
ssg70
g2444
sg63
(lp2455
S':'
asbag56
(g77
g58
NtRp2456
(dp2457
g61
(dp2458
sg70
g2444
sg63
(lp2459
g56
(g57
g58
NtRp2460
(dp2461
g61
(dp2462
g69
I4
ssg70
g2456
sg63
(lp2463
g56
(g65
g58
NtRp2464
(dp2465
g61
(dp2466
g69
I3
ssg70
Nsg63
(lp2467
g56
(g72
g58
NtRp2468
(dp2469
g61
(dp2470
sg70
g2464
sg63
(lp2471
g56
(g77
g58
NtRp2472
(dp2473
g61
(dp2474
sg70
g2468
sg63
(lp2475
g56
(g57
g58
NtRp2476
(dp2477
g61
(dp2478
g69
I3
ssg70
g2472
sg63
(lp2479
S'1'
asbasbasbag56
(g72
g58
NtRp2480
(dp2481
g61
(dp2482
sg70
g2464
sg63
(lp2483
g56
(g77
g58
NtRp2484
(dp2485
g61
(dp2486
sg70
g2480
sg63
(lp2487
g56
(g57
g58
NtRp2488
(dp2489
g61
(dp2490
g69
I3
ssg70
g2484
sg63
(lp2491
S'99'
p2492
asbasbasbag56
(g72
g58
NtRp2493
(dp2494
g61
(dp2495
sg70
g2464
sg63
(lp2496
g56
(g77
g58
NtRp2497
(dp2498
g61
(dp2499
sg70
g2493
sg63
(lp2500
g56
(g57
g58
NtRp2501
(dp2502
g61
(dp2503
g69
I3
ssg70
g2497
sg63
(lp2504
S'2'
asbasbasbag56
(g72
g58
NtRp2505
(dp2506
g61
(dp2507
sg70
g2464
sg63
(lp2508
g56
(g77
g58
NtRp2509
(dp2510
g61
(dp2511
sg70
g2505
sg63
(lp2512
g56
(g57
g58
NtRp2513
(dp2514
g61
(dp2515
g69
I3
ssg70
g2509
sg63
(lp2516
S'datetime.datetime(2011, 9, 26, 6, 55, 33)'
p2517
asbasbasbag56
(g72
g58
NtRp2518
(dp2519
g61
(dp2520
sg70
g2464
sg63
(lp2521
g56
(g77
g58
NtRp2522
(dp2523
g61
(dp2524
sg70
g2518
sg63
(lp2525
g56
(g57
g58
NtRp2526
(dp2527
g61
(dp2528
g69
I3
ssg70
g2522
sg63
(lp2529
g1939
asbasbasbasbasbasbasbasbasbasbasbag56
(g72
g58
NtRp2530
(dp2531
g61
(dp2532
sg70
g66
sg63
(lp2533
g56
(g77
g58
NtRp2534
(dp2535
g61
(dp2536
g81
g82
ssg70
g2530
sg63
(lp2537
S'is_https'
p2538
asbag56
(g77
g58
NtRp2539
(dp2540
g61
(dp2541
g88
g89
ssg70
g2530
sg63
(lp2542
S':'
asbag56
(g77
g58
NtRp2543
(dp2544
g61
(dp2545
sg70
g2530
sg63
(lp2546
g56
(g57
g58
NtRp2547
(dp2548
g61
(dp2549
g69
I5
ssg70
g2543
sg63
(lp2550
g99
asbasbasbag56
(g72
g58
NtRp2551
(dp2552
g61
(dp2553
sg70
g66
sg63
(lp2554
g56
(g77
g58
NtRp2555
(dp2556
g61
(dp2557
g81
g82
ssg70
g2551
sg63
(lp2558
S'is_local'
p2559
asbag56
(g77
g58
NtRp2560
(dp2561
g61
(dp2562
g88
g89
ssg70
g2551
sg63
(lp2563
S':'
asbag56
(g77
g58
NtRp2564
(dp2565
g61
(dp2566
sg70
g2551
sg63
(lp2567
g56
(g57
g58
NtRp2568
(dp2569
g61
(dp2570
g69
I5
ssg70
g2564
sg63
(lp2571
g2048
asbasbasbag56
(g72
g58
NtRp2572
(dp2573
g61
(dp2574
sg70
g66
sg63
(lp2575
g56
(g77
g58
NtRp2576
(dp2577
g61
(dp2578
g81
g82
ssg70
g2572
sg63
(lp2579
S'is_restful'
p2580
asbag56
(g77
g58
NtRp2581
(dp2582
g61
(dp2583
g88
g89
ssg70
g2572
sg63
(lp2584
S':'
asbag56
(g77
g58
NtRp2585
(dp2586
g61
(dp2587
sg70
g2572
sg63
(lp2588
g56
(g57
g58
NtRp2589
(dp2590
g61
(dp2591
g69
I5
ssg70
g2585
sg63
(lp2592
g99
asbasbasbag56
(g72
g58
NtRp2593
(dp2594
g61
(dp2595
sg70
g66
sg63
(lp2596
g56
(g77
g58
NtRp2597
(dp2598
g61
(dp2599
g81
g82
ssg70
g2593
sg63
(lp2600
S'now'
p2601
asbag56
(g77
g58
NtRp2602
(dp2603
g61
(dp2604
g88
g89
ssg70
g2593
sg63
(lp2605
S':'
asbag56
(g77
g58
NtRp2606
(dp2607
g61
(dp2608
sg70
g2593
sg63
(lp2609
g56
(g57
g58
NtRp2610
(dp2611
g61
(dp2612
g69
I5
ssg70
g2606
sg63
(lp2613
S'datetime.datetime(2011, 9, 30, 16, 34, 10, 444388)'
p2614
asbasbasbag56
(g72
g58
NtRp2615
(dp2616
g61
(dp2617
sg70
g66
sg63
(lp2618
g56
(g77
g58
NtRp2619
(dp2620
g61
(dp2621
g81
g82
ssg70
g2615
sg63
(lp2622
S'post_vars'
p2623
asbag56
(g77
g58
NtRp2624
(dp2625
g61
(dp2626
g88
g89
ssg70
g2615
sg63
(lp2627
S':'
asbag56
(g77
g58
NtRp2628
(dp2629
g61
(dp2630
sg70
g2615
sg63
(lp2631
g56
(g57
g58
NtRp2632
(dp2633
g61
(dp2634
g69
I5
ssg70
g2628
sg63
(lp2635
g56
(g65
g58
NtRp2636
(dp2637
g61
(dp2638
g69
I4
ssg70
Nsg63
(lp2639
sbasbasbasbag56
(g72
g58
NtRp2640
(dp2641
g61
(dp2642
sg70
g66
sg63
(lp2643
g56
(g77
g58
NtRp2644
(dp2645
g61
(dp2646
g81
g82
ssg70
g2640
sg63
(lp2647
S'url'
p2648
asbag56
(g77
g58
NtRp2649
(dp2650
g61
(dp2651
g88
g89
ssg70
g2640
sg63
(lp2652
S':'
asbag56
(g77
g58
NtRp2653
(dp2654
g61
(dp2655
sg70
g2640
sg63
(lp2656
g56
(g57
g58
NtRp2657
(dp2658
g61
(dp2659
g69
I5
ssg70
g2653
sg63
(lp2660
S'/places/default/index'
p2661
asbasbasbag56
(g72
g58
NtRp2662
(dp2663
g61
(dp2664
sg70
g66
sg63
(lp2665
g56
(g77
g58
NtRp2666
(dp2667
g61
(dp2668
g81
g82
ssg70
g2662
sg63
(lp2669
S'utcnow'
p2670
asbag56
(g77
g58
NtRp2671
(dp2672
g61
(dp2673
g88
g89
ssg70
g2662
sg63
(lp2674
S':'
asbag56
(g77
g58
NtRp2675
(dp2676
g61
(dp2677
sg70
g2662
sg63
(lp2678
g56
(g57
g58
NtRp2679
(dp2680
g61
(dp2681
g69
I5
ssg70
g2675
sg63
(lp2682
S'datetime.datetime(2011, 9, 30, 20, 34, 10, 444446)'
p2683
asbasbasbag56
(g72
g58
NtRp2684
(dp2685
g61
(dp2686
sg70
g66
sg63
(lp2687
g56
(g77
g58
NtRp2688
(dp2689
g61
(dp2690
g81
g82
ssg70
g2684
sg63
(lp2691
S'uuid'
p2692
asbag56
(g77
g58
NtRp2693
(dp2694
g61
(dp2695
g88
g89
ssg70
g2684
sg63
(lp2696
S':'
asbag56
(g77
g58
NtRp2697
(dp2698
g61
(dp2699
sg70
g2684
sg63
(lp2700
g56
(g57
g58
NtRp2701
(dp2702
g61
(dp2703
g69
I5
ssg70
g2697
sg63
(lp2704
S'places/127.0.0.1.2011-09-30.16-34-10.1cb0017b-2fd1-4bd8-b97f-7533beab3fe5'
p2705
asbasbasbag56
(g72
g58
NtRp2706
(dp2707
g61
(dp2708
sg70
g66
sg63
(lp2709
g56
(g77
g58
NtRp2710
(dp2711
g61
(dp2712
g81
g82
ssg70
g2706
sg63
(lp2713
S'vars'
p2714
asbag56
(g77
g58
NtRp2715
(dp2716
g61
(dp2717
g88
g89
ssg70
g2706
sg63
(lp2718
S':'
asbag56
(g77
g58
NtRp2719
(dp2720
g61
(dp2721
sg70
g2706
sg63
(lp2722
g56
(g57
g58
NtRp2723
(dp2724
g61
(dp2725
g69
I5
ssg70
g2719
sg63
(lp2726
g56
(g65
g58
NtRp2727
(dp2728
g61
(dp2729
g69
I4
ssg70
Nsg63
(lp2730
sbasbasbasbag56
(g72
g58
NtRp2731
(dp2732
g61
(dp2733
sg70
g66
sg63
(lp2734
g56
(g77
g58
NtRp2735
(dp2736
g61
(dp2737
g81
g82
ssg70
g2731
sg63
(lp2738
S'wsgi'
p2739
asbag56
(g77
g58
NtRp2740
(dp2741
g61
(dp2742
g88
g89
ssg70
g2731
sg63
(lp2743
S':'
asbag56
(g77
g58
NtRp2744
(dp2745
g61
(dp2746
sg70
g2731
sg63
(lp2747
g56
(g57
g58
NtRp2748
(dp2749
g61
(dp2750
g69
I5
ssg70
g2744
sg63
(lp2751
g56
(g65
g58
NtRp2752
(dp2753
g61
(dp2754
g69
I4
ssg70
Nsg63
(lp2755
g56
(g72
g58
NtRp2756
(dp2757
g61
(dp2758
sg70
g2752
sg63
(lp2759
g56
(g77
g58
NtRp2760
(dp2761
g61
(dp2762
g81
g82
ssg70
g2756
sg63
(lp2763
S'environ'
p2764
asbag56
(g77
g58
NtRp2765
(dp2766
g61
(dp2767
g88
g89
ssg70
g2756
sg63
(lp2768
S':'
asbag56
(g77
g58
NtRp2769
(dp2770
g61
(dp2771
sg70
g2756
sg63
(lp2772
g56
(g57
g58
NtRp2773
(dp2774
g61
(dp2775
g69
I4
ssg70
g2769
sg63
(lp2776
g56
(g65
g58
NtRp2777
(dp2778
g61
(dp2779
g69
I3
ssg70
Nsg63
(lp2780
g56
(g72
g58
NtRp2781
(dp2782
g61
(dp2783
sg70
g2777
sg63
(lp2784
g56
(g77
g58
NtRp2785
(dp2786
g61
(dp2787
g81
g82
ssg70
g2781
sg63
(lp2788
S'HTTP_ACCEPT'
p2789
asbag56
(g77
g58
NtRp2790
(dp2791
g61
(dp2792
g88
g89
ssg70
g2781
sg63
(lp2793
S':'
asbag56
(g77
g58
NtRp2794
(dp2795
g61
(dp2796
sg70
g2781
sg63
(lp2797
g56
(g57
g58
NtRp2798
(dp2799
g61
(dp2800
g69
I3
ssg70
g2794
sg63
(lp2801
g1372
asbasbasbag56
(g72
g58
NtRp2802
(dp2803
g61
(dp2804
sg70
g2777
sg63
(lp2805
g56
(g77
g58
NtRp2806
(dp2807
g61
(dp2808
g81
g82
ssg70
g2802
sg63
(lp2809
S'HTTP_ACCEPT_CHARSET'
p2810
asbag56
(g77
g58
NtRp2811
(dp2812
g61
(dp2813
g88
g89
ssg70
g2802
sg63
(lp2814
S':'
asbag56
(g77
g58
NtRp2815
(dp2816
g61
(dp2817
sg70
g2802
sg63
(lp2818
g56
(g57
g58
NtRp2819
(dp2820
g61
(dp2821
g69
I3
ssg70
g2815
sg63
(lp2822
g1394
asbasbasbag56
(g72
g58
NtRp2823
(dp2824
g61
(dp2825
sg70
g2777
sg63
(lp2826
g56
(g77
g58
NtRp2827
(dp2828
g61
(dp2829
g81
g82
ssg70
g2823
sg63
(lp2830
S'HTTP_ACCEPT_ENCODING'
p2831
asbag56
(g77
g58
NtRp2832
(dp2833
g61
(dp2834
g88
g89
ssg70
g2823
sg63
(lp2835
S':'
asbag56
(g77
g58
NtRp2836
(dp2837
g61
(dp2838
sg70
g2823
sg63
(lp2839
g56
(g57
g58
NtRp2840
(dp2841
g61
(dp2842
g69
I3
ssg70
g2836
sg63
(lp2843
g1416
asbasbasbag56
(g72
g58
NtRp2844
(dp2845
g61
(dp2846
sg70
g2777
sg63
(lp2847
g56
(g77
g58
NtRp2848
(dp2849
g61
(dp2850
g81
g82
ssg70
g2844
sg63
(lp2851
S'HTTP_ACCEPT_LANGUAGE'
p2852
asbag56
(g77
g58
NtRp2853
(dp2854
g61
(dp2855
g88
g89
ssg70
g2844
sg63
(lp2856
S':'
asbag56
(g77
g58
NtRp2857
(dp2858
g61
(dp2859
sg70
g2844
sg63
(lp2860
g56
(g57
g58
NtRp2861
(dp2862
g61
(dp2863
g69
I3
ssg70
g2857
sg63
(lp2864
g1438
asbasbasbag56
(g72
g58
NtRp2865
(dp2866
g61
(dp2867
sg70
g2777
sg63
(lp2868
g56
(g77
g58
NtRp2869
(dp2870
g61
(dp2871
g81
g82
ssg70
g2865
sg63
(lp2872
S'HTTP_CACHE_CONTROL'
p2873
asbag56
(g77
g58
NtRp2874
(dp2875
g61
(dp2876
g88
g89
ssg70
g2865
sg63
(lp2877
S':'
asbag56
(g77
g58
NtRp2878
(dp2879
g61
(dp2880
sg70
g2865
sg63
(lp2881
g56
(g57
g58
NtRp2882
(dp2883
g61
(dp2884
g69
I3
ssg70
g2878
sg63
(lp2885
g1460
asbasbasbag56
(g72
g58
NtRp2886
(dp2887
g61
(dp2888
sg70
g2777
sg63
(lp2889
g56
(g77
g58
NtRp2890
(dp2891
g61
(dp2892
g81
g82
ssg70
g2886
sg63
(lp2893
S'HTTP_CONNECTION'
p2894
asbag56
(g77
g58
NtRp2895
(dp2896
g61
(dp2897
g88
g89
ssg70
g2886
sg63
(lp2898
S':'
asbag56
(g77
g58
NtRp2899
(dp2900
g61
(dp2901
sg70
g2886
sg63
(lp2902
g56
(g57
g58
NtRp2903
(dp2904
g61
(dp2905
g69
I3
ssg70
g2899
sg63
(lp2906
g1482
asbasbasbag56
(g72
g58
NtRp2907
(dp2908
g61
(dp2909
sg70
g2777
sg63
(lp2910
g56
(g77
g58
NtRp2911
(dp2912
g61
(dp2913
g81
g82
ssg70
g2907
sg63
(lp2914
S'HTTP_COOKIE'
p2915
asbag56
(g77
g58
NtRp2916
(dp2917
g61
(dp2918
g88
g89
ssg70
g2907
sg63
(lp2919
S':'
asbag56
(g77
g58
NtRp2920
(dp2921
g61
(dp2922
sg70
g2907
sg63
(lp2923
g56
(g57
g58
NtRp2924
(dp2925
g61
(dp2926
g69
I3
ssg70
g2920
sg63
(lp2927
g1504
asbasbasbag56
(g72
g58
NtRp2928
(dp2929
g61
(dp2930
sg70
g2777
sg63
(lp2931
g56
(g77
g58
NtRp2932
(dp2933
g61
(dp2934
g81
g82
ssg70
g2928
sg63
(lp2935
S'HTTP_HOST'
p2936
asbag56
(g77
g58
NtRp2937
(dp2938
g61
(dp2939
g88
g89
ssg70
g2928
sg63
(lp2940
S':'
asbag56
(g77
g58
NtRp2941
(dp2942
g61
(dp2943
sg70
g2928
sg63
(lp2944
g56
(g57
g58
NtRp2945
(dp2946
g61
(dp2947
g69
I3
ssg70
g2941
sg63
(lp2948
g1526
asbasbasbag56
(g72
g58
NtRp2949
(dp2950
g61
(dp2951
sg70
g2777
sg63
(lp2952
g56
(g77
g58
NtRp2953
(dp2954
g61
(dp2955
g81
g82
ssg70
g2949
sg63
(lp2956
S'HTTP_REFERER'
p2957
asbag56
(g77
g58
NtRp2958
(dp2959
g61
(dp2960
g88
g89
ssg70
g2949
sg63
(lp2961
S':'
asbag56
(g77
g58
NtRp2962
(dp2963
g61
(dp2964
sg70
g2949
sg63
(lp2965
g56
(g57
g58
NtRp2966
(dp2967
g61
(dp2968
g69
I3
ssg70
g2962
sg63
(lp2969
g1548
asbasbasbag56
(g72
g58
NtRp2970
(dp2971
g61
(dp2972
sg70
g2777
sg63
(lp2973
g56
(g77
g58
NtRp2974
(dp2975
g61
(dp2976
g81
g82
ssg70
g2970
sg63
(lp2977
S'HTTP_USER_AGENT'
p2978
asbag56
(g77
g58
NtRp2979
(dp2980
g61
(dp2981
g88
g89
ssg70
g2970
sg63
(lp2982
S':'
asbag56
(g77
g58
NtRp2983
(dp2984
g61
(dp2985
sg70
g2970
sg63
(lp2986
g56
(g57
g58
NtRp2987
(dp2988
g61
(dp2989
g69
I3
ssg70
g2983
sg63
(lp2990
g1570
asbasbasbag56
(g72
g58
NtRp2991
(dp2992
g61
(dp2993
sg70
g2777
sg63
(lp2994
g56
(g77
g58
NtRp2995
(dp2996
g61
(dp2997
g81
g82
ssg70
g2991
sg63
(lp2998
S'PATH_INFO'
p2999
asbag56
(g77
g58
NtRp3000
(dp3001
g61
(dp3002
g88
g89
ssg70
g2991
sg63
(lp3003
S':'
asbag56
(g77
g58
NtRp3004
(dp3005
g61
(dp3006
sg70
g2991
sg63
(lp3007
g56
(g57
g58
NtRp3008
(dp3009
g61
(dp3010
g69
I3
ssg70
g3004
sg63
(lp3011
g1613
asbasbasbag56
(g72
g58
NtRp3012
(dp3013
g61
(dp3014
sg70
g2777
sg63
(lp3015
g56
(g77
g58
NtRp3016
(dp3017
g61
(dp3018
g81
g82
ssg70
g3012
sg63
(lp3019
S'QUERY_STRING'
p3020
asbag56
(g77
g58
NtRp3021
(dp3022
g61
(dp3023
g88
g89
ssg70
g3012
sg63
(lp3024
S':'
asbag56
(g77
g58
NtRp3025
(dp3026
g61
(dp3027
sg70
g3012
sg63
(lp3028
g56
(g57
g58
NtRp3029
(dp3030
g61
(dp3031
g69
I3
ssg70
g3025
sg63
(lp3032
S''
asbasbasbag56
(g72
g58
NtRp3033
(dp3034
g61
(dp3035
sg70
g2777
sg63
(lp3036
g56
(g77
g58
NtRp3037
(dp3038
g61
(dp3039
g81
g82
ssg70
g3033
sg63
(lp3040
S'REMOTE_ADDR'
p3041
asbag56
(g77
g58
NtRp3042
(dp3043
g61
(dp3044
g88
g89
ssg70
g3033
sg63
(lp3045
S':'
asbag56
(g77
g58
NtRp3046
(dp3047
g61
(dp3048
sg70
g3033
sg63
(lp3049
g56
(g57
g58
NtRp3050
(dp3051
g61
(dp3052
g69
I3
ssg70
g3046
sg63
(lp3053
g189
asbasbasbag56
(g72
g58
NtRp3054
(dp3055
g61
(dp3056
sg70
g2777
sg63
(lp3057
g56
(g77
g58
NtRp3058
(dp3059
g61
(dp3060
g81
g82
ssg70
g3054
sg63
(lp3061
S'REMOTE_PORT'
p3062
asbag56
(g77
g58
NtRp3063
(dp3064
g61
(dp3065
g88
g89
ssg70
g3054
sg63
(lp3066
S':'
asbag56
(g77
g58
NtRp3067
(dp3068
g61
(dp3069
sg70
g3054
sg63
(lp3070
g56
(g57
g58
NtRp3071
(dp3072
g61
(dp3073
g69
I3
ssg70
g3067
sg63
(lp3074
g1677
asbasbasbag56
(g72
g58
NtRp3075
(dp3076
g61
(dp3077
sg70
g2777
sg63
(lp3078
g56
(g77
g58
NtRp3079
(dp3080
g61
(dp3081
g81
g82
ssg70
g3075
sg63
(lp3082
S'REQUEST_METHOD'
p3083
asbag56
(g77
g58
NtRp3084
(dp3085
g61
(dp3086
g88
g89
ssg70
g3075
sg63
(lp3087
S':'
asbag56
(g77
g58
NtRp3088
(dp3089
g61
(dp3090
sg70
g3075
sg63
(lp3091
g56
(g57
g58
NtRp3092
(dp3093
g61
(dp3094
g69
I3
ssg70
g3088
sg63
(lp3095
g1699
asbasbasbag56
(g72
g58
NtRp3096
(dp3097
g61
(dp3098
sg70
g2777
sg63
(lp3099
g56
(g77
g58
NtRp3100
(dp3101
g61
(dp3102
g81
g82
ssg70
g3096
sg63
(lp3103
S'SCRIPT_NAME'
p3104
asbag56
(g77
g58
NtRp3105
(dp3106
g61
(dp3107
g88
g89
ssg70
g3096
sg63
(lp3108
S':'
asbag56
(g77
g58
NtRp3109
(dp3110
g61
(dp3111
sg70
g3096
sg63
(lp3112
g56
(g57
g58
NtRp3113
(dp3114
g61
(dp3115
g69
I3
ssg70
g3109
sg63
(lp3116
S''
asbasbasbag56
(g72
g58
NtRp3117
(dp3118
g61
(dp3119
sg70
g2777
sg63
(lp3120
g56
(g77
g58
NtRp3121
(dp3122
g61
(dp3123
g81
g82
ssg70
g3117
sg63
(lp3124
S'SERVER_NAME'
p3125
asbag56
(g77
g58
NtRp3126
(dp3127
g61
(dp3128
g88
g89
ssg70
g3117
sg63
(lp3129
S':'
asbag56
(g77
g58
NtRp3130
(dp3131
g61
(dp3132
sg70
g3117
sg63
(lp3133
g56
(g57
g58
NtRp3134
(dp3135
g61
(dp3136
g69
I3
ssg70
g3130
sg63
(lp3137
g1742
asbasbasbag56
(g72
g58
NtRp3138
(dp3139
g61
(dp3140
sg70
g2777
sg63
(lp3141
g56
(g77
g58
NtRp3142
(dp3143
g61
(dp3144
g81
g82
ssg70
g3138
sg63
(lp3145
S'SERVER_PORT'
p3146
asbag56
(g77
g58
NtRp3147
(dp3148
g61
(dp3149
g88
g89
ssg70
g3138
sg63
(lp3150
S':'
asbag56
(g77
g58
NtRp3151
(dp3152
g61
(dp3153
sg70
g3138
sg63
(lp3154
g56
(g57
g58
NtRp3155
(dp3156
g61
(dp3157
g69
I3
ssg70
g3151
sg63
(lp3158
g1764
asbasbasbag56
(g72
g58
NtRp3159
(dp3160
g61
(dp3161
sg70
g2777
sg63
(lp3162
g56
(g77
g58
NtRp3163
(dp3164
g61
(dp3165
g81
g82
ssg70
g3159
sg63
(lp3166
S'SERVER_PROTOCOL'
p3167
asbag56
(g77
g58
NtRp3168
(dp3169
g61
(dp3170
g88
g89
ssg70
g3159
sg63
(lp3171
S':'
asbag56
(g77
g58
NtRp3172
(dp3173
g61
(dp3174
sg70
g3159
sg63
(lp3175
g56
(g57
g58
NtRp3176
(dp3177
g61
(dp3178
g69
I3
ssg70
g3172
sg63
(lp3179
g1786
asbasbasbag56
(g72
g58
NtRp3180
(dp3181
g61
(dp3182
sg70
g2777
sg63
(lp3183
g56
(g77
g58
NtRp3184
(dp3185
g61
(dp3186
g81
g82
ssg70
g3180
sg63
(lp3187
S'SERVER_SOFTWARE'
p3188
asbag56
(g77
g58
NtRp3189
(dp3190
g61
(dp3191
g88
g89
ssg70
g3180
sg63
(lp3192
S':'
asbag56
(g77
g58
NtRp3193
(dp3194
g61
(dp3195
sg70
g3180
sg63
(lp3196
g56
(g57
g58
NtRp3197
(dp3198
g61
(dp3199
g69
I3
ssg70
g3193
sg63
(lp3200
g1808
asbasbasbag56
(g72
g58
NtRp3201
(dp3202
g61
(dp3203
sg70
g2777
sg63
(lp3204
g56
(g77
g58
NtRp3205
(dp3206
g61
(dp3207
g81
g82
ssg70
g3201
sg63
(lp3208
S'wsgi.errors'
p3209
asbag56
(g77
g58
NtRp3210
(dp3211
g61
(dp3212
g88
g89
ssg70
g3201
sg63
(lp3213
S':'
asbag56
(g77
g58
NtRp3214
(dp3215
g61
(dp3216
sg70
g3201
sg63
(lp3217
g56
(g57
g58
NtRp3218
(dp3219
g61
(dp3220
g69
I3
ssg70
g3214
sg63
(lp3221
S"<open file '<stderr>', mode 'w' at 0x7f4a416fc270>"
p3222
asbasbasbag56
(g72
g58
NtRp3223
(dp3224
g61
(dp3225
sg70
g2777
sg63
(lp3226
g56
(g77
g58
NtRp3227
(dp3228
g61
(dp3229
g81
g82
ssg70
g3223
sg63
(lp3230
S'wsgi.file_wrapper'
p3231
asbag56
(g77
g58
NtRp3232
(dp3233
g61
(dp3234
g88
g89
ssg70
g3223
sg63
(lp3235
S':'
asbag56
(g77
g58
NtRp3236
(dp3237
g61
(dp3238
sg70
g3223
sg63
(lp3239
g56
(g57
g58
NtRp3240
(dp3241
g61
(dp3242
g69
I3
ssg70
g3236
sg63
(lp3243
S'<class wsgiref.util.FileWrapper at 0x24b4870>'
p3244
asbasbasbag56
(g72
g58
NtRp3245
(dp3246
g61
(dp3247
sg70
g2777
sg63
(lp3248
g56
(g77
g58
NtRp3249
(dp3250
g61
(dp3251
g81
g82
ssg70
g3245
sg63
(lp3252
S'wsgi.input'
p3253
asbag56
(g77
g58
NtRp3254
(dp3255
g61
(dp3256
g88
g89
ssg70
g3245
sg63
(lp3257
S':'
asbag56
(g77
g58
NtRp3258
(dp3259
g61
(dp3260
sg70
g3245
sg63
(lp3261
g56
(g57
g58
NtRp3262
(dp3263
g61
(dp3264
g69
I3
ssg70
g3258
sg63
(lp3265
S'<cStringIO.StringO object at 0x34117d8>'
p3266
asbasbasbag56
(g72
g58
NtRp3267
(dp3268
g61
(dp3269
sg70
g2777
sg63
(lp3270
g56
(g77
g58
NtRp3271
(dp3272
g61
(dp3273
g81
g82
ssg70
g3267
sg63
(lp3274
S'wsgi.multiprocess'
p3275
asbag56
(g77
g58
NtRp3276
(dp3277
g61
(dp3278
g88
g89
ssg70
g3267
sg63
(lp3279
S':'
asbag56
(g77
g58
NtRp3280
(dp3281
g61
(dp3282
sg70
g3267
sg63
(lp3283
g56
(g57
g58
NtRp3284
(dp3285
g61
(dp3286
g69
I3
ssg70
g3280
sg63
(lp3287
g99
asbasbasbag56
(g72
g58
NtRp3288
(dp3289
g61
(dp3290
sg70
g2777
sg63
(lp3291
g56
(g77
g58
NtRp3292
(dp3293
g61
(dp3294
g81
g82
ssg70
g3288
sg63
(lp3295
S'wsgi.multithread'
p3296
asbag56
(g77
g58
NtRp3297
(dp3298
g61
(dp3299
g88
g89
ssg70
g3288
sg63
(lp3300
S':'
asbag56
(g77
g58
NtRp3301
(dp3302
g61
(dp3303
sg70
g3288
sg63
(lp3304
g56
(g57
g58
NtRp3305
(dp3306
g61
(dp3307
g69
I3
ssg70
g3301
sg63
(lp3308
g2048
asbasbasbag56
(g72
g58
NtRp3309
(dp3310
g61
(dp3311
sg70
g2777
sg63
(lp3312
g56
(g77
g58
NtRp3313
(dp3314
g61
(dp3315
g81
g82
ssg70
g3309
sg63
(lp3316
S'wsgi.run_once'
p3317
asbag56
(g77
g58
NtRp3318
(dp3319
g61
(dp3320
g88
g89
ssg70
g3309
sg63
(lp3321
S':'
asbag56
(g77
g58
NtRp3322
(dp3323
g61
(dp3324
sg70
g3309
sg63
(lp3325
g56
(g57
g58
NtRp3326
(dp3327
g61
(dp3328
g69
I3
ssg70
g3322
sg63
(lp3329
g99
asbasbasbag56
(g72
g58
NtRp3330
(dp3331
g61
(dp3332
sg70
g2777
sg63
(lp3333
g56
(g77
g58
NtRp3334
(dp3335
g61
(dp3336
g81
g82
ssg70
g3330
sg63
(lp3337
S'wsgi.url_scheme'
p3338
asbag56
(g77
g58
NtRp3339
(dp3340
g61
(dp3341
g88
g89
ssg70
g3330
sg63
(lp3342
S':'
asbag56
(g77
g58
NtRp3343
(dp3344
g61
(dp3345
sg70
g3330
sg63
(lp3346
g56
(g57
g58
NtRp3347
(dp3348
g61
(dp3349
g69
I3
ssg70
g3343
sg63
(lp3350
g2091
asbasbasbag56
(g72
g58
NtRp3351
(dp3352
g61
(dp3353
sg70
g2777
sg63
(lp3354
g56
(g77
g58
NtRp3355
(dp3356
g61
(dp3357
g81
g82
ssg70
g3351
sg63
(lp3358
S'wsgi.version'
p3359
asbag56
(g77
g58
NtRp3360
(dp3361
g61
(dp3362
g88
g89
ssg70
g3351
sg63
(lp3363
S':'
asbag56
(g77
g58
NtRp3364
(dp3365
g61
(dp3366
sg70
g3351
sg63
(lp3367
g56
(g57
g58
NtRp3368
(dp3369
g61
(dp3370
g69
I3
ssg70
g3364
sg63
(lp3371
S'1'
asbasbasbasbasbasbasbasbasbasbasbasbasbsS'frames'
p3372
(lp3373
(dp3374
S'file'
p3375
S'/home/ian/Dropbox/Web_Pages/web2py-linux/gluon/restricted.py'
p3376
sS'dump'
p3377
(dp3378
S'environment'
p3379
S"{'A': <class 'gluon.html.A'>, 'Auth': <class 'gluon.tools.Auth'>, 'B': <class 'gluon.html.B'>, 'BEAUTIFY': <class 'gluon.html.BEAUTIFY'>, 'BODY': <class 'gluon.html.BODY'>, 'BR': <class 'gluon.html.BR'>, 'BUTTON': <class 'gluon.html.BUTTON'>, 'CAT': <class 'gluon.html.CAT'>, 'CENTER': <class 'gluon.html.CENTER'>, 'CLEANUP': <class 'gluon.validators.CLEANUP'>, ...}"
p3380
sS'ccode'
p3381
S'<code object <module> at 0x2da0930, file "/home/...ications/places/controllers/default.py", line 12>'
p3382
ssS'lnum'
p3383
I194
sS'lines'
p3384
(dp3385
I192
S'        else:'
p3386
sI193
S'            ccode = compile2(code,layer)'
p3387
sI194
S'        exec ccode in environment'
p3388
sI195
S'    except HTTP:'
p3389
sI196
S'        raise'
p3390
sI197
S'    except Exception, error:'
p3391
sI198
S'        # XXX Show exception in Wing IDE if running in debugger'
p3392
sI189
S'    try:'
p3393
sI190
S'        if type(code) == types.CodeType:'
p3394
sI191
S'            ccode = code'
p3395
ssS'call'
p3396
S"(code='# -*- coding: utf-8 -*-\\n# this file is released ...=crud())\\n\\nresponse._vars=response._caller(index)\\n', environment={'A': <class 'gluon.html.A'>, 'Auth': <class 'gluon.tools.Auth'>, 'B': <class 'gluon.html.B'>, 'BEAUTIFY': <class 'gluon.html.BEAUTIFY'>, 'BODY': <class 'gluon.html.BODY'>, 'BR': <class 'gluon.html.BR'>, 'BUTTON': <class 'gluon.html.BUTTON'>, 'CAT': <class 'gluon.html.CAT'>, 'CENTER': <class 'gluon.html.CENTER'>, 'CLEANUP': <class 'gluon.validators.CLEANUP'>, ...}, layer='/home/ian/Dropbox/Web_Pages/web2py-linux/applications/places/controllers/default.py')"
p3397
sS'func'
p3398
S'restricted'
p3399
sa(dp3400
g3375
S'/home/ian/Dropbox/Web_Pages/web2py-linux/applications/places/controllers/default.py'
p3401
sg3377
(dp3402
sg3383
I85
sg3384
(dp3403
I74
S'    http://..../[app]/default/data/update/[table]/[id]'
p3404
sI75
S'    http://..../[app]/default/data/delete/[table]/[id]'
p3405
sI76
S'    http://..../[app]/default/data/select/[table]'
p3406
sI77
S'    http://..../[app]/default/data/search/[table]'
p3407
sI78
S'    but URLs bust be signed, i.e. linked with'
p3408
sI79
S"      A('table',_href=URL('data/tables',user_signature=True))"
p3409
sI80
S'    or with the signed load operator'
p3410
sI81
S"      LOAD('default','data.load',args='tables',ajax=True,user_signature=True)"
p3411
sI82
S'    """'
p3412
sI83
S'    return dict(form=crud())'
p3413
ssg3396
S'()'
p3414
sg3398
S'<module>'
p3415
sa(dp3416
g3375
S'/home/ian/Dropbox/Web_Pages/web2py-linux/gluon/globals.py'
p3417
sg3377
(dp3418
S'self'
p3419
S'undefined'
p3420
sS'f'
S'<function index>'
p3421
ssg3383
I149
sg3384
(dp3422
I144
S'        self.meta = Storage()      # used by web2py_ajax.html'
p3423
sI145
S'        self.menu = []             # used by the default view layout'
p3424
sI146
S'        self.files = []            # used by web2py_ajax.html'
p3425
sI147
S'        self.generic_patterns = [] # patterns to allow generic views'
p3426
sI148
S'        self._vars = None'
p3427
sI149
S'        self._caller = lambda f: f()'
p3428
sI150
S'        self._view_environment = None'
p3429
sI151
S'        self._custom_commit = None'
p3430
sI152
S'        self._custom_rollback = None'
p3431
sI153
S''
ssg3396
S'(f=<function index>)'
p3432
sg3398
S'<lambda>'
p3433
sa(dp3434
g3375
S'/home/ian/Dropbox/Web_Pages/web2py-linux/applications/places/controllers/default.py'
p3435
sg3377
(dp3436
S'test'
p3437
S'<gluon.dal.Rows object>'
p3438
sS'links'
p3439
S'<gluon.dal.Rows object>'
p3440
sS'builtindict'
p3441
S"<type 'dict'>"
p3442
sS't'
g3420
ssg3383
I31
sg3384
(dp3443
I32
S''
sI33
S'def user():'
p3444
sI34
S'    """'
p3445
sI35
S'    exposes:'
p3446
sI26
S''
sI27
S'    test = db(db.links.tags.contains(1)).select()'
p3447
sI28
S''
sI29
S'    links = db(db.links.tags.contains(current)).select()'
p3448
sI30
S''
sI31
S'    return dict(links = links, t = test[0])'
p3449
ssg3396
S'()'
p3450
sg3398
S'index'
p3451
sa(dp3452
g3375
S'/home/ian/Dropbox/Web_Pages/web2py-linux/gluon/dal.py'
p3453
sg3377
(dp3454
S'i'
S'0'
sS'self'
p3455
S'<gluon.dal.Rows object>'
p3456
sS'self.records'
p3457
S'[]'
p3458
sS'row'
p3459
g3420
ssg3383
I5868
sg3384
(dp3460
I5863
S''
sI5864
S'    def __getslice__(self, a, b):'
p3461
sI5865
S'        return Rows(self.db,self.records[a:b],self.colnames)'
p3462
sI5866
S''
sI5867
S'    def __getitem__(self, i):'
p3463
sI5868
S'        row = self.records[i]'
p3464
sI5869
S'        keys = row.keys()'
p3465
sI5870
S"        if self.compact and len(keys) == 1 and keys[0] != '_extra':"
p3466
sI5871
S'            return row[row.keys()[0]]'
p3467
sI5872
S'        return row'
p3468
ssg3396
S'(self=<gluon.dal.Rows object>, i=0)'
p3469
sg3398
g19
sasS'pyver'
p3470
S'Python 2.7.1+: /usr/bin/python2.7'
p3471
sS'session'
p3472
g56
(g57
g58
NtRp3473
(dp3474
g61
(dp3475
sg63
(lp3476
g56
(g65
g58
NtRp3477
(dp3478
g61
(dp3479
g69
I5
ssg70
Nsg63
(lp3480
g56
(g72
g58
NtRp3481
(dp3482
g61
(dp3483
sg70
g3477
sg63
(lp3484
g56
(g77
g58
NtRp3485
(dp3486
g61
(dp3487
g81
g82
ssg70
g3481
sg63
(lp3488
S'current'
p3489
asbag56
(g77
g58
NtRp3490
(dp3491
g61
(dp3492
g88
g89
ssg70
g3481
sg63
(lp3493
S':'
asbag56
(g77
g58
NtRp3494
(dp3495
g61
(dp3496
sg70
g3481
sg63
(lp3497
g56
(g57
g58
NtRp3498
(dp3499
g61
(dp3500
g69
I5
ssg70
g3494
sg63
(lp3501
S'webdev'
p3502
asbasbasbag56
(g72
g58
NtRp3503
(dp3504
g61
(dp3505
sg70
g3477
sg63
(lp3506
g56
(g77
g58
NtRp3507
(dp3508
g61
(dp3509
g81
g82
ssg70
g3503
sg63
(lp3510
S'last_query'
p3511
asbag56
(g77
g58
NtRp3512
(dp3513
g61
(dp3514
g88
g89
ssg70
g3503
sg63
(lp3515
S':'
asbag56
(g77
g58
NtRp3516
(dp3517
g61
(dp3518
sg70
g3503
sg63
(lp3519
g56
(g57
g58
NtRp3520
(dp3521
g61
(dp3522
g69
I5
ssg70
g3516
sg63
(lp3523
S'db.tags.id>0'
p3524
asbasbasbag56
(g72
g58
NtRp3525
(dp3526
g61
(dp3527
sg70
g3477
sg63
(lp3528
g56
(g77
g58
NtRp3529
(dp3530
g61
(dp3531
g81
g82
ssg70
g3525
sg63
(lp3532
S'tags'
p3533
asbag56
(g77
g58
NtRp3534
(dp3535
g61
(dp3536
g88
g89
ssg70
g3525
sg63
(lp3537
S':'
asbag56
(g77
g58
NtRp3538
(dp3539
g61
(dp3540
sg70
g3525
sg63
(lp3541
g56
(g57
g58
NtRp3542
(dp3543
g61
(dp3544
g69
I5
ssg70
g3538
sg63
(lp3545
g56
(g65
g58
NtRp3546
(dp3547
g61
(dp3548
g69
I4
ssg70
Nsg63
(lp3549
g56
(g72
g58
NtRp3550
(dp3551
g61
(dp3552
sg70
g3546
sg63
(lp3553
g56
(g77
g58
NtRp3554
(dp3555
g61
(dp3556
sg70
g3550
sg63
(lp3557
g56
(g57
g58
NtRp3558
(dp3559
g61
(dp3560
g69
I4
ssg70
g3554
sg63
(lp3561
g56
(g65
g58
NtRp3562
(dp3563
g61
(dp3564
g69
I3
ssg70
Nsg63
(lp3565
g56
(g72
g58
NtRp3566
(dp3567
g61
(dp3568
sg70
g3562
sg63
(lp3569
g56
(g77
g58
NtRp3570
(dp3571
g61
(dp3572
g81
g82
ssg70
g3566
sg63
(lp3573
S'id'
p3574
asbag56
(g77
g58
NtRp3575
(dp3576
g61
(dp3577
g88
g89
ssg70
g3566
sg63
(lp3578
S':'
asbag56
(g77
g58
NtRp3579
(dp3580
g61
(dp3581
sg70
g3566
sg63
(lp3582
g56
(g57
g58
NtRp3583
(dp3584
g61
(dp3585
g69
I3
ssg70
g3579
sg63
(lp3586
S'1'
asbasbasbag56
(g72
g58
NtRp3587
(dp3588
g61
(dp3589
sg70
g3562
sg63
(lp3590
g56
(g77
g58
NtRp3591
(dp3592
g61
(dp3593
g81
g82
ssg70
g3587
sg63
(lp3594
S'tag'
p3595
asbag56
(g77
g58
NtRp3596
(dp3597
g61
(dp3598
g88
g89
ssg70
g3587
sg63
(lp3599
S':'
asbag56
(g77
g58
NtRp3600
(dp3601
g61
(dp3602
sg70
g3587
sg63
(lp3603
g56
(g57
g58
NtRp3604
(dp3605
g61
(dp3606
g69
I3
ssg70
g3600
sg63
(lp3607
S'kitchen'
p3608
asbasbasbasbasbasbasbag56
(g72
g58
NtRp3609
(dp3610
g61
(dp3611
sg70
g3546
sg63
(lp3612
g56
(g77
g58
NtRp3613
(dp3614
g61
(dp3615
sg70
g3609
sg63
(lp3616
g56
(g57
g58
NtRp3617
(dp3618
g61
(dp3619
g69
I4
ssg70
g3613
sg63
(lp3620
g56
(g65
g58
NtRp3621
(dp3622
g61
(dp3623
g69
I3
ssg70
Nsg63
(lp3624
g56
(g72
g58
NtRp3625
(dp3626
g61
(dp3627
sg70
g3621
sg63
(lp3628
g56
(g77
g58
NtRp3629
(dp3630
g61
(dp3631
g81
g82
ssg70
g3625
sg63
(lp3632
S'id'
p3633
asbag56
(g77
g58
NtRp3634
(dp3635
g61
(dp3636
g88
g89
ssg70
g3625
sg63
(lp3637
S':'
asbag56
(g77
g58
NtRp3638
(dp3639
g61
(dp3640
sg70
g3625
sg63
(lp3641
g56
(g57
g58
NtRp3642
(dp3643
g61
(dp3644
g69
I3
ssg70
g3638
sg63
(lp3645
S'2'
asbasbasbag56
(g72
g58
NtRp3646
(dp3647
g61
(dp3648
sg70
g3621
sg63
(lp3649
g56
(g77
g58
NtRp3650
(dp3651
g61
(dp3652
g81
g82
ssg70
g3646
sg63
(lp3653
S'tag'
p3654
asbag56
(g77
g58
NtRp3655
(dp3656
g61
(dp3657
g88
g89
ssg70
g3646
sg63
(lp3658
S':'
asbag56
(g77
g58
NtRp3659
(dp3660
g61
(dp3661
sg70
g3646
sg63
(lp3662
g56
(g57
g58
NtRp3663
(dp3664
g61
(dp3665
g69
I3
ssg70
g3659
sg63
(lp3666
S'kids'
p3667
asbasbasbasbasbasbasbag56
(g72
g58
NtRp3668
(dp3669
g61
(dp3670
sg70
g3546
sg63
(lp3671
g56
(g77
g58
NtRp3672
(dp3673
g61
(dp3674
sg70
g3668
sg63
(lp3675
g56
(g57
g58
NtRp3676
(dp3677
g61
(dp3678
g69
I4
ssg70
g3672
sg63
(lp3679
g56
(g65
g58
NtRp3680
(dp3681
g61
(dp3682
g69
I3
ssg70
Nsg63
(lp3683
g56
(g72
g58
NtRp3684
(dp3685
g61
(dp3686
sg70
g3680
sg63
(lp3687
g56
(g77
g58
NtRp3688
(dp3689
g61
(dp3690
g81
g82
ssg70
g3684
sg63
(lp3691
S'id'
p3692
asbag56
(g77
g58
NtRp3693
(dp3694
g61
(dp3695
g88
g89
ssg70
g3684
sg63
(lp3696
S':'
asbag56
(g77
g58
NtRp3697
(dp3698
g61
(dp3699
sg70
g3684
sg63
(lp3700
g56
(g57
g58
NtRp3701
(dp3702
g61
(dp3703
g69
I3
ssg70
g3697
sg63
(lp3704
S'3'
asbasbasbag56
(g72
g58
NtRp3705
(dp3706
g61
(dp3707
sg70
g3680
sg63
(lp3708
g56
(g77
g58
NtRp3709
(dp3710
g61
(dp3711
g81
g82
ssg70
g3705
sg63
(lp3712
S'tag'
p3713
asbag56
(g77
g58
NtRp3714
(dp3715
g61
(dp3716
g88
g89
ssg70
g3705
sg63
(lp3717
S':'
asbag56
(g77
g58
NtRp3718
(dp3719
g61
(dp3720
sg70
g3705
sg63
(lp3721
g56
(g57
g58
NtRp3722
(dp3723
g61
(dp3724
g69
I3
ssg70
g3718
sg63
(lp3725
S'research'
p3726
asbasbasbasbasbasbasbag56
(g72
g58
NtRp3727
(dp3728
g61
(dp3729
sg70
g3546
sg63
(lp3730
g56
(g77
g58
NtRp3731
(dp3732
g61
(dp3733
sg70
g3727
sg63
(lp3734
g56
(g57
g58
NtRp3735
(dp3736
g61
(dp3737
g69
I4
ssg70
g3731
sg63
(lp3738
g56
(g65
g58
NtRp3739
(dp3740
g61
(dp3741
g69
I3
ssg70
Nsg63
(lp3742
g56
(g72
g58
NtRp3743
(dp3744
g61
(dp3745
sg70
g3739
sg63
(lp3746
g56
(g77
g58
NtRp3747
(dp3748
g61
(dp3749
g81
g82
ssg70
g3743
sg63
(lp3750
S'id'
p3751
asbag56
(g77
g58
NtRp3752
(dp3753
g61
(dp3754
g88
g89
ssg70
g3743
sg63
(lp3755
S':'
asbag56
(g77
g58
NtRp3756
(dp3757
g61
(dp3758
sg70
g3743
sg63
(lp3759
g56
(g57
g58
NtRp3760
(dp3761
g61
(dp3762
g69
I3
ssg70
g3756
sg63
(lp3763
S'4'
asbasbasbag56
(g72
g58
NtRp3764
(dp3765
g61
(dp3766
sg70
g3739
sg63
(lp3767
g56
(g77
g58
NtRp3768
(dp3769
g61
(dp3770
g81
g82
ssg70
g3764
sg63
(lp3771
S'tag'
p3772
asbag56
(g77
g58
NtRp3773
(dp3774
g61
(dp3775
g88
g89
ssg70
g3764
sg63
(lp3776
S':'
asbag56
(g77
g58
NtRp3777
(dp3778
g61
(dp3779
sg70
g3764
sg63
(lp3780
g56
(g57
g58
NtRp3781
(dp3782
g61
(dp3783
g69
I3
ssg70
g3777
sg63
(lp3784
S'webdev'
p3785
asbasbasbasbasbasbasbag56
(g72
g58
NtRp3786
(dp3787
g61
(dp3788
sg70
g3546
sg63
(lp3789
g56
(g77
g58
NtRp3790
(dp3791
g61
(dp3792
sg70
g3786
sg63
(lp3793
g56
(g57
g58
NtRp3794
(dp3795
g61
(dp3796
g69
I4
ssg70
g3790
sg63
(lp3797
g56
(g65
g58
NtRp3798
(dp3799
g61
(dp3800
g69
I3
ssg70
Nsg63
(lp3801
g56
(g72
g58
NtRp3802
(dp3803
g61
(dp3804
sg70
g3798
sg63
(lp3805
g56
(g77
g58
NtRp3806
(dp3807
g61
(dp3808
g81
g82
ssg70
g3802
sg63
(lp3809
S'id'
p3810
asbag56
(g77
g58
NtRp3811
(dp3812
g61
(dp3813
g88
g89
ssg70
g3802
sg63
(lp3814
S':'
asbag56
(g77
g58
NtRp3815
(dp3816
g61
(dp3817
sg70
g3802
sg63
(lp3818
g56
(g57
g58
NtRp3819
(dp3820
g61
(dp3821
g69
I3
ssg70
g3815
sg63
(lp3822
S'5'
asbasbasbag56
(g72
g58
NtRp3823
(dp3824
g61
(dp3825
sg70
g3798
sg63
(lp3826
g56
(g77
g58
NtRp3827
(dp3828
g61
(dp3829
g81
g82
ssg70
g3823
sg63
(lp3830
S'tag'
p3831
asbag56
(g77
g58
NtRp3832
(dp3833
g61
(dp3834
g88
g89
ssg70
g3823
sg63
(lp3835
S':'
asbag56
(g77
g58
NtRp3836
(dp3837
g61
(dp3838
sg70
g3823
sg63
(lp3839
g56
(g57
g58
NtRp3840
(dp3841
g61
(dp3842
g69
I3
ssg70
g3836
sg63
(lp3843
S'photography'
p3844
asbasbasbasbasbasbasbag56
(g72
g58
NtRp3845
(dp3846
g61
(dp3847
sg70
g3546
sg63
(lp3848
g56
(g77
g58
NtRp3849
(dp3850
g61
(dp3851
sg70
g3845
sg63
(lp3852
g56
(g57
g58
NtRp3853
(dp3854
g61
(dp3855
g69
I4
ssg70
g3849
sg63
(lp3856
g56
(g65
g58
NtRp3857
(dp3858
g61
(dp3859
g69
I3
ssg70
Nsg63
(lp3860
g56
(g72
g58
NtRp3861
(dp3862
g61
(dp3863
sg70
g3857
sg63
(lp3864
g56
(g77
g58
NtRp3865
(dp3866
g61
(dp3867
g81
g82
ssg70
g3861
sg63
(lp3868
S'id'
p3869
asbag56
(g77
g58
NtRp3870
(dp3871
g61
(dp3872
g88
g89
ssg70
g3861
sg63
(lp3873
S':'
asbag56
(g77
g58
NtRp3874
(dp3875
g61
(dp3876
sg70
g3861
sg63
(lp3877
g56
(g57
g58
NtRp3878
(dp3879
g61
(dp3880
g69
I3
ssg70
g3874
sg63
(lp3881
S'6'
asbasbasbag56
(g72
g58
NtRp3882
(dp3883
g61
(dp3884
sg70
g3857
sg63
(lp3885
g56
(g77
g58
NtRp3886
(dp3887
g61
(dp3888
g81
g82
ssg70
g3882
sg63
(lp3889
S'tag'
p3890
asbag56
(g77
g58
NtRp3891
(dp3892
g61
(dp3893
g88
g89
ssg70
g3882
sg63
(lp3894
S':'
asbag56
(g77
g58
NtRp3895
(dp3896
g61
(dp3897
sg70
g3882
sg63
(lp3898
g56
(g57
g58
NtRp3899
(dp3900
g61
(dp3901
g69
I3
ssg70
g3895
sg63
(lp3902
S'entertainment'
p3903
asbasbasbasbasbasbasbag56
(g72
g58
NtRp3904
(dp3905
g61
(dp3906
sg70
g3546
sg63
(lp3907
g56
(g77
g58
NtRp3908
(dp3909
g61
(dp3910
sg70
g3904
sg63
(lp3911
g56
(g57
g58
NtRp3912
(dp3913
g61
(dp3914
g69
I4
ssg70
g3908
sg63
(lp3915
g56
(g65
g58
NtRp3916
(dp3917
g61
(dp3918
g69
I3
ssg70
Nsg63
(lp3919
g56
(g72
g58
NtRp3920
(dp3921
g61
(dp3922
sg70
g3916
sg63
(lp3923
g56
(g77
g58
NtRp3924
(dp3925
g61
(dp3926
g81
g82
ssg70
g3920
sg63
(lp3927
S'id'
p3928
asbag56
(g77
g58
NtRp3929
(dp3930
g61
(dp3931
g88
g89
ssg70
g3920
sg63
(lp3932
S':'
asbag56
(g77
g58
NtRp3933
(dp3934
g61
(dp3935
sg70
g3920
sg63
(lp3936
g56
(g57
g58
NtRp3937
(dp3938
g61
(dp3939
g69
I3
ssg70
g3933
sg63
(lp3940
S'7'
asbasbasbag56
(g72
g58
NtRp3941
(dp3942
g61
(dp3943
sg70
g3916
sg63
(lp3944
g56
(g77
g58
NtRp3945
(dp3946
g61
(dp3947
g81
g82
ssg70
g3941
sg63
(lp3948
S'tag'
p3949
asbag56
(g77
g58
NtRp3950
(dp3951
g61
(dp3952
g88
g89
ssg70
g3941
sg63
(lp3953
S':'
asbag56
(g77
g58
NtRp3954
(dp3955
g61
(dp3956
sg70
g3941
sg63
(lp3957
g56
(g57
g58
NtRp3958
(dp3959
g61
(dp3960
g69
I3
ssg70
g3954
sg63
(lp3961
S'games'
p3962
asbasbasbasbasbasbasbag56
(g72
g58
NtRp3963
(dp3964
g61
(dp3965
sg70
g3546
sg63
(lp3966
g56
(g77
g58
NtRp3967
(dp3968
g61
(dp3969
sg70
g3963
sg63
(lp3970
g56
(g57
g58
NtRp3971
(dp3972
g61
(dp3973
g69
I4
ssg70
g3967
sg63
(lp3974
g56
(g65
g58
NtRp3975
(dp3976
g61
(dp3977
g69
I3
ssg70
Nsg63
(lp3978
g56
(g72
g58
NtRp3979
(dp3980
g61
(dp3981
sg70
g3975
sg63
(lp3982
g56
(g77
g58
NtRp3983
(dp3984
g61
(dp3985
g81
g82
ssg70
g3979
sg63
(lp3986
S'id'
p3987
asbag56
(g77
g58
NtRp3988
(dp3989
g61
(dp3990
g88
g89
ssg70
g3979
sg63
(lp3991
S':'
asbag56
(g77
g58
NtRp3992
(dp3993
g61
(dp3994
sg70
g3979
sg63
(lp3995
g56
(g57
g58
NtRp3996
(dp3997
g61
(dp3998
g69
I3
ssg70
g3992
sg63
(lp3999
S'8'
asbasbasbag56
(g72
g58
NtRp4000
(dp4001
g61
(dp4002
sg70
g3975
sg63
(lp4003
g56
(g77
g58
NtRp4004
(dp4005
g61
(dp4006
g81
g82
ssg70
g4000
sg63
(lp4007
S'tag'
p4008
asbag56
(g77
g58
NtRp4009
(dp4010
g61
(dp4011
g88
g89
ssg70
g4000
sg63
(lp4012
S':'
asbag56
(g77
g58
NtRp4013
(dp4014
g61
(dp4015
sg70
g4000
sg63
(lp4016
g56
(g57
g58
NtRp4017
(dp4018
g61
(dp4019
g69
I3
ssg70
g4013
sg63
(lp4020
S'design'
p4021
asbasbasbasbasbasbasbag56
(g72
g58
NtRp4022
(dp4023
g61
(dp4024
sg70
g3546
sg63
(lp4025
g56
(g77
g58
NtRp4026
(dp4027
g61
(dp4028
sg70
g4022
sg63
(lp4029
g56
(g57
g58
NtRp4030
(dp4031
g61
(dp4032
g69
I4
ssg70
g4026
sg63
(lp4033
g56
(g65
g58
NtRp4034
(dp4035
g61
(dp4036
g69
I3
ssg70
Nsg63
(lp4037
g56
(g72
g58
NtRp4038
(dp4039
g61
(dp4040
sg70
g4034
sg63
(lp4041
g56
(g77
g58
NtRp4042
(dp4043
g61
(dp4044
g81
g82
ssg70
g4038
sg63
(lp4045
S'id'
p4046
asbag56
(g77
g58
NtRp4047
(dp4048
g61
(dp4049
g88
g89
ssg70
g4038
sg63
(lp4050
S':'
asbag56
(g77
g58
NtRp4051
(dp4052
g61
(dp4053
sg70
g4038
sg63
(lp4054
g56
(g57
g58
NtRp4055
(dp4056
g61
(dp4057
g69
I3
ssg70
g4051
sg63
(lp4058
S'9'
asbasbasbag56
(g72
g58
NtRp4059
(dp4060
g61
(dp4061
sg70
g4034
sg63
(lp4062
g56
(g77
g58
NtRp4063
(dp4064
g61
(dp4065
g81
g82
ssg70
g4059
sg63
(lp4066
S'tag'
p4067
asbag56
(g77
g58
NtRp4068
(dp4069
g61
(dp4070
g88
g89
ssg70
g4059
sg63
(lp4071
S':'
asbag56
(g77
g58
NtRp4072
(dp4073
g61
(dp4074
sg70
g4059
sg63
(lp4075
g56
(g57
g58
NtRp4076
(dp4077
g61
(dp4078
g69
I3
ssg70
g4072
sg63
(lp4079
S'research'
p4080
asbasbasbasbasbasbasbasbasbasbasbasbasbsS'etype'
p4081
S"<type 'exceptions.IndexError'>"
p4082
sS'date'
p4083
S'Fri Sep 30 16:34:10 2011'
p4084
sS'response'
p4085
g56
(g57
g58
NtRp4086
(dp4087
g61
(dp4088
sg63
(lp4089
g56
(g65
g58
NtRp4090
(dp4091
g61
(dp4092
g69
I5
ssg70
Nsg63
(lp4093
g56
(g72
g58
NtRp4094
(dp4095
g61
(dp4096
sg70
g4090
sg63
(lp4097
g56
(g77
g58
NtRp4098
(dp4099
g61
(dp4100
g81
g82
ssg70
g4094
sg63
(lp4101
g154
asbag56
(g77
g58
NtRp4102
(dp4103
g61
(dp4104
g88
g89
ssg70
g4094
sg63
(lp4105
S':'
asbag56
(g77
g58
NtRp4106
(dp4107
g61
(dp4108
sg70
g4094
sg63
(lp4109
g56
(g57
g58
NtRp4110
(dp4111
g61
(dp4112
g69
I5
ssg70
g4106
sg63
(lp4113
S'<cStringIO.StringO object at 0x423bf10>'
p4114
asbasbasbag56
(g72
g58
NtRp4115
(dp4116
g61
(dp4117
sg70
g4090
sg63
(lp4118
g56
(g77
g58
NtRp4119
(dp4120
g61
(dp4121
g81
g82
ssg70
g4115
sg63
(lp4122
g220
asbag56
(g77
g58
NtRp4123
(dp4124
g61
(dp4125
g88
g89
ssg70
g4115
sg63
(lp4126
S':'
asbag56
(g77
g58
NtRp4127
(dp4128
g61
(dp4129
sg70
g4115
sg63
(lp4130
g56
(g57
g58
NtRp4131
(dp4132
g61
(dp4133
g69
I5
ssg70
g4127
sg63
(lp4134
g56
(g65
g58
NtRp4135
(dp4136
g61
(dp4137
g69
I4
ssg70
Nsg63
(lp4138
g56
(g72
g58
NtRp4139
(dp4140
g61
(dp4141
sg70
g4135
sg63
(lp4142
g56
(g77
g58
NtRp4143
(dp4144
g61
(dp4145
g81
g82
ssg70
g4139
sg63
(lp4146
S'session_id_places'
p4147
asbag56
(g77
g58
NtRp4148
(dp4149
g61
(dp4150
g88
g89
ssg70
g4139
sg63
(lp4151
S':'
asbag56
(g77
g58
NtRp4152
(dp4153
g61
(dp4154
sg70
g4139
sg63
(lp4155
g56
(g57
g58
NtRp4156
(dp4157
g61
(dp4158
g69
I4
ssg70
g4152
sg63
(lp4159
g56
(g65
g58
NtRp4160
(dp4161
g61
(dp4162
g69
I3
ssg70
Nsg63
(lp4163
g56
(g72
g58
NtRp4164
(dp4165
g61
(dp4166
sg70
g4160
sg63
(lp4167
g56
(g77
g58
NtRp4168
(dp4169
g61
(dp4170
g81
g82
ssg70
g4164
sg63
(lp4171
g270
asbag56
(g77
g58
NtRp4172
(dp4173
g61
(dp4174
g88
g89
ssg70
g4164
sg63
(lp4175
S':'
asbag56
(g77
g58
NtRp4176
(dp4177
g61
(dp4178
sg70
g4164
sg63
(lp4179
g56
(g57
g58
NtRp4180
(dp4181
g61
(dp4182
g69
I3
ssg70
g4176
sg63
(lp4183
S''
asbasbasbag56
(g72
g58
NtRp4184
(dp4185
g61
(dp4186
sg70
g4160
sg63
(lp4187
g56
(g77
g58
NtRp4188
(dp4189
g61
(dp4190
g81
g82
ssg70
g4184
sg63
(lp4191
g291
asbag56
(g77
g58
NtRp4192
(dp4193
g61
(dp4194
g88
g89
ssg70
g4184
sg63
(lp4195
S':'
asbag56
(g77
g58
NtRp4196
(dp4197
g61
(dp4198
sg70
g4184
sg63
(lp4199
g56
(g57
g58
NtRp4200
(dp4201
g61
(dp4202
g69
I3
ssg70
g4196
sg63
(lp4203
S''
asbasbasbag56
(g72
g58
NtRp4204
(dp4205
g61
(dp4206
sg70
g4160
sg63
(lp4207
g56
(g77
g58
NtRp4208
(dp4209
g61
(dp4210
g81
g82
ssg70
g4204
sg63
(lp4211
g312
asbag56
(g77
g58
NtRp4212
(dp4213
g61
(dp4214
g88
g89
ssg70
g4204
sg63
(lp4215
S':'
asbag56
(g77
g58
NtRp4216
(dp4217
g61
(dp4218
sg70
g4204
sg63
(lp4219
g56
(g57
g58
NtRp4220
(dp4221
g61
(dp4222
g69
I3
ssg70
g4216
sg63
(lp4223
S''
asbasbasbag56
(g72
g58
NtRp4224
(dp4225
g61
(dp4226
sg70
g4160
sg63
(lp4227
g56
(g77
g58
NtRp4228
(dp4229
g61
(dp4230
g81
g82
ssg70
g4224
sg63
(lp4231
g333
asbag56
(g77
g58
NtRp4232
(dp4233
g61
(dp4234
g88
g89
ssg70
g4224
sg63
(lp4235
S':'
asbag56
(g77
g58
NtRp4236
(dp4237
g61
(dp4238
sg70
g4224
sg63
(lp4239
g56
(g57
g58
NtRp4240
(dp4241
g61
(dp4242
g69
I3
ssg70
g4236
sg63
(lp4243
S''
asbasbasbag56
(g72
g58
NtRp4244
(dp4245
g61
(dp4246
sg70
g4160
sg63
(lp4247
g56
(g77
g58
NtRp4248
(dp4249
g61
(dp4250
g81
g82
ssg70
g4244
sg63
(lp4251
g354
asbag56
(g77
g58
NtRp4252
(dp4253
g61
(dp4254
g88
g89
ssg70
g4244
sg63
(lp4255
S':'
asbag56
(g77
g58
NtRp4256
(dp4257
g61
(dp4258
sg70
g4244
sg63
(lp4259
g56
(g57
g58
NtRp4260
(dp4261
g61
(dp4262
g69
I3
ssg70
g4256
sg63
(lp4263
S''
asbasbasbag56
(g72
g58
NtRp4264
(dp4265
g61
(dp4266
sg70
g4160
sg63
(lp4267
g56
(g77
g58
NtRp4268
(dp4269
g61
(dp4270
g81
g82
ssg70
g4264
sg63
(lp4271
g375
asbag56
(g77
g58
NtRp4272
(dp4273
g61
(dp4274
g88
g89
ssg70
g4264
sg63
(lp4275
S':'
asbag56
(g77
g58
NtRp4276
(dp4277
g61
(dp4278
sg70
g4264
sg63
(lp4279
g56
(g57
g58
NtRp4280
(dp4281
g61
(dp4282
g69
I3
ssg70
g4276
sg63
(lp4283
S'/'
asbasbasbag56
(g72
g58
NtRp4284
(dp4285
g61
(dp4286
sg70
g4160
sg63
(lp4287
g56
(g77
g58
NtRp4288
(dp4289
g61
(dp4290
g81
g82
ssg70
g4284
sg63
(lp4291
g396
asbag56
(g77
g58
NtRp4292
(dp4293
g61
(dp4294
g88
g89
ssg70
g4284
sg63
(lp4295
S':'
asbag56
(g77
g58
NtRp4296
(dp4297
g61
(dp4298
sg70
g4284
sg63
(lp4299
g56
(g57
g58
NtRp4300
(dp4301
g61
(dp4302
g69
I3
ssg70
g4296
sg63
(lp4303
S''
asbasbasbag56
(g72
g58
NtRp4304
(dp4305
g61
(dp4306
sg70
g4160
sg63
(lp4307
g56
(g77
g58
NtRp4308
(dp4309
g61
(dp4310
g81
g82
ssg70
g4304
sg63
(lp4311
g417
asbag56
(g77
g58
NtRp4312
(dp4313
g61
(dp4314
g88
g89
ssg70
g4304
sg63
(lp4315
S':'
asbag56
(g77
g58
NtRp4316
(dp4317
g61
(dp4318
sg70
g4304
sg63
(lp4319
g56
(g57
g58
NtRp4320
(dp4321
g61
(dp4322
g69
I3
ssg70
g4316
sg63
(lp4323
S''
asbasbasbasbasbasbasbasbasbasbasbag56
(g72
g58
NtRp4324
(dp4325
g61
(dp4326
sg70
g4090
sg63
(lp4327
g56
(g77
g58
NtRp4328
(dp4329
g61
(dp4330
g81
g82
ssg70
g4324
sg63
(lp4331
S'files'
p4332
asbag56
(g77
g58
NtRp4333
(dp4334
g61
(dp4335
g88
g89
ssg70
g4324
sg63
(lp4336
S':'
asbag56
(g77
g58
NtRp4337
(dp4338
g61
(dp4339
sg70
g4324
sg63
(lp4340
g56
(g57
g58
NtRp4341
(dp4342
g61
(dp4343
g69
I5
ssg70
g4337
sg63
(lp4344
g56
(g65
g58
NtRp4345
(dp4346
g61
(dp4347
g69
I4
ssg70
Nsg63
(lp4348
sbasbasbasbag56
(g72
g58
NtRp4349
(dp4350
g61
(dp4351
sg70
g4090
sg63
(lp4352
g56
(g77
g58
NtRp4353
(dp4354
g61
(dp4355
g81
g82
ssg70
g4349
sg63
(lp4356
S'flash'
p4357
asbag56
(g77
g58
NtRp4358
(dp4359
g61
(dp4360
g88
g89
ssg70
g4349
sg63
(lp4361
S':'
asbag56
(g77
g58
NtRp4362
(dp4363
g61
(dp4364
sg70
g4349
sg63
(lp4365
g56
(g57
g58
NtRp4366
(dp4367
g61
(dp4368
g69
I5
ssg70
g4362
sg63
(lp4369
S''
asbasbasbag56
(g72
g58
NtRp4370
(dp4371
g61
(dp4372
sg70
g4090
sg63
(lp4373
g56
(g77
g58
NtRp4374
(dp4375
g61
(dp4376
g81
g82
ssg70
g4370
sg63
(lp4377
S'generic_patterns'
p4378
asbag56
(g77
g58
NtRp4379
(dp4380
g61
(dp4381
g88
g89
ssg70
g4370
sg63
(lp4382
S':'
asbag56
(g77
g58
NtRp4383
(dp4384
g61
(dp4385
sg70
g4370
sg63
(lp4386
g56
(g57
g58
NtRp4387
(dp4388
g61
(dp4389
g69
I5
ssg70
g4383
sg63
(lp4390
g56
(g65
g58
NtRp4391
(dp4392
g61
(dp4393
g69
I4
ssg70
Nsg63
(lp4394
g56
(g72
g58
NtRp4395
(dp4396
g61
(dp4397
sg70
g4391
sg63
(lp4398
g56
(g77
g58
NtRp4399
(dp4400
g61
(dp4401
sg70
g4395
sg63
(lp4402
g56
(g57
g58
NtRp4403
(dp4404
g61
(dp4405
g69
I4
ssg70
g4399
sg63
(lp4406
S'*'
asbasbasbasbasbasbasbag56
(g72
g58
NtRp4407
(dp4408
g61
(dp4409
sg70
g4090
sg63
(lp4410
g56
(g77
g58
NtRp4411
(dp4412
g61
(dp4413
g81
g82
ssg70
g4407
sg63
(lp4414
S'headers'
p4415
asbag56
(g77
g58
NtRp4416
(dp4417
g61
(dp4418
g88
g89
ssg70
g4407
sg63
(lp4419
S':'
asbag56
(g77
g58
NtRp4420
(dp4421
g61
(dp4422
sg70
g4407
sg63
(lp4423
g56
(g57
g58
NtRp4424
(dp4425
g61
(dp4426
g69
I5
ssg70
g4420
sg63
(lp4427
g56
(g65
g58
NtRp4428
(dp4429
g61
(dp4430
g69
I4
ssg70
Nsg63
(lp4431
g56
(g72
g58
NtRp4432
(dp4433
g61
(dp4434
sg70
g4428
sg63
(lp4435
g56
(g77
g58
NtRp4436
(dp4437
g61
(dp4438
g81
g82
ssg70
g4432
sg63
(lp4439
S'Cache-Control'
p4440
asbag56
(g77
g58
NtRp4441
(dp4442
g61
(dp4443
g88
g89
ssg70
g4432
sg63
(lp4444
S':'
asbag56
(g77
g58
NtRp4445
(dp4446
g61
(dp4447
sg70
g4432
sg63
(lp4448
g56
(g57
g58
NtRp4449
(dp4450
g61
(dp4451
g69
I4
ssg70
g4445
sg63
(lp4452
S'no-store, no-cache, must-revalidate, post-check=0, pre-check=0'
p4453
asbasbasbag56
(g72
g58
NtRp4454
(dp4455
g61
(dp4456
sg70
g4428
sg63
(lp4457
g56
(g77
g58
NtRp4458
(dp4459
g61
(dp4460
g81
g82
ssg70
g4454
sg63
(lp4461
S'Content-Type'
p4462
asbag56
(g77
g58
NtRp4463
(dp4464
g61
(dp4465
g88
g89
ssg70
g4454
sg63
(lp4466
S':'
asbag56
(g77
g58
NtRp4467
(dp4468
g61
(dp4469
sg70
g4454
sg63
(lp4470
g56
(g57
g58
NtRp4471
(dp4472
g61
(dp4473
g69
I4
ssg70
g4467
sg63
(lp4474
S'text/html; charset=utf-8'
p4475
asbasbasbag56
(g72
g58
NtRp4476
(dp4477
g61
(dp4478
sg70
g4428
sg63
(lp4479
g56
(g77
g58
NtRp4480
(dp4481
g61
(dp4482
g81
g82
ssg70
g4476
sg63
(lp4483
S'Expires'
p4484
asbag56
(g77
g58
NtRp4485
(dp4486
g61
(dp4487
g88
g89
ssg70
g4476
sg63
(lp4488
S':'
asbag56
(g77
g58
NtRp4489
(dp4490
g61
(dp4491
sg70
g4476
sg63
(lp4492
g56
(g57
g58
NtRp4493
(dp4494
g61
(dp4495
g69
I4
ssg70
g4489
sg63
(lp4496
S'Fri, 30 Sep 2011 20:34:10 GMT'
p4497
asbasbasbag56
(g72
g58
NtRp4498
(dp4499
g61
(dp4500
sg70
g4428
sg63
(lp4501
g56
(g77
g58
NtRp4502
(dp4503
g61
(dp4504
g81
g82
ssg70
g4498
sg63
(lp4505
S'Pragma'
p4506
asbag56
(g77
g58
NtRp4507
(dp4508
g61
(dp4509
g88
g89
ssg70
g4498
sg63
(lp4510
S':'
asbag56
(g77
g58
NtRp4511
(dp4512
g61
(dp4513
sg70
g4498
sg63
(lp4514
g56
(g57
g58
NtRp4515
(dp4516
g61
(dp4517
g69
I4
ssg70
g4511
sg63
(lp4518
S'no-cache'
p4519
asbasbasbag56
(g72
g58
NtRp4520
(dp4521
g61
(dp4522
sg70
g4428
sg63
(lp4523
g56
(g77
g58
NtRp4524
(dp4525
g61
(dp4526
g81
g82
ssg70
g4520
sg63
(lp4527
S'X-Powered-By'
p4528
asbag56
(g77
g58
NtRp4529
(dp4530
g61
(dp4531
g88
g89
ssg70
g4520
sg63
(lp4532
S':'
asbag56
(g77
g58
NtRp4533
(dp4534
g61
(dp4535
sg70
g4520
sg63
(lp4536
g56
(g57
g58
NtRp4537
(dp4538
g61
(dp4539
g69
I4
ssg70
g4533
sg63
(lp4540
S'web2py'
p4541
asbasbasbasbasbasbasbag56
(g72
g58
NtRp4542
(dp4543
g61
(dp4544
sg70
g4090
sg63
(lp4545
g56
(g77
g58
NtRp4546
(dp4547
g61
(dp4548
g81
g82
ssg70
g4542
sg63
(lp4549
S'menu'
p4550
asbag56
(g77
g58
NtRp4551
(dp4552
g61
(dp4553
g88
g89
ssg70
g4542
sg63
(lp4554
S':'
asbag56
(g77
g58
NtRp4555
(dp4556
g61
(dp4557
sg70
g4542
sg63
(lp4558
g56
(g57
g58
NtRp4559
(dp4560
g61
(dp4561
g69
I5
ssg70
g4555
sg63
(lp4562
g56
(g65
g58
NtRp4563
(dp4564
g61
(dp4565
g69
I4
ssg70
Nsg63
(lp4566
g56
(g72
g58
NtRp4567
(dp4568
g61
(dp4569
sg70
g4563
sg63
(lp4570
g56
(g77
g58
NtRp4571
(dp4572
g61
(dp4573
sg70
g4567
sg63
(lp4574
g56
(g57
g58
NtRp4575
(dp4576
g61
(dp4577
g69
I4
ssg70
g4571
sg63
(lp4578
g56
(g65
g58
NtRp4579
(dp4580
g61
(dp4581
g69
I3
ssg70
Nsg63
(lp4582
g56
(g72
g58
NtRp4583
(dp4584
g61
(dp4585
sg70
g4579
sg63
(lp4586
g56
(g77
g58
NtRp4587
(dp4588
g61
(dp4589
sg70
g4583
sg63
(lp4590
g56
(g57
g58
NtRp4591
(dp4592
g61
(dp4593
g69
I3
ssg70
g4587
sg63
(lp4594
cgluon.languages
lazyT_unpickle
p4595
(S't\x04\x00\x00\x00Home'
tRp4596
asbasbasbag56
(g72
g58
NtRp4597
(dp4598
g61
(dp4599
sg70
g4579
sg63
(lp4600
g56
(g77
g58
NtRp4601
(dp4602
g61
(dp4603
sg70
g4597
sg63
(lp4604
g56
(g57
g58
NtRp4605
(dp4606
g61
(dp4607
g69
I3
ssg70
g4601
sg63
(lp4608
g99
asbasbasbag56
(g72
g58
NtRp4609
(dp4610
g61
(dp4611
sg70
g4579
sg63
(lp4612
g56
(g77
g58
NtRp4613
(dp4614
g61
(dp4615
sg70
g4609
sg63
(lp4616
g56
(g57
g58
NtRp4617
(dp4618
g61
(dp4619
g69
I3
ssg70
g4613
sg63
(lp4620
S'/places/default/index'
p4621
asbasbasbag56
(g72
g58
NtRp4622
(dp4623
g61
(dp4624
sg70
g4579
sg63
(lp4625
g56
(g77
g58
NtRp4626
(dp4627
g61
(dp4628
sg70
g4622
sg63
(lp4629
g56
(g57
g58
NtRp4630
(dp4631
g61
(dp4632
g69
I3
ssg70
g4626
sg63
(lp4633
g56
(g65
g58
NtRp4634
(dp4635
g61
(dp4636
g69
I2
ssg70
Nsg63
(lp4637
sbasbasbasbasbasbasbasbag56
(g72
g58
NtRp4638
(dp4639
g61
(dp4640
sg70
g4563
sg63
(lp4641
g56
(g77
g58
NtRp4642
(dp4643
g61
(dp4644
sg70
g4638
sg63
(lp4645
g56
(g57
g58
NtRp4646
(dp4647
g61
(dp4648
g69
I4
ssg70
g4642
sg63
(lp4649
g56
(g65
g58
NtRp4650
(dp4651
g61
(dp4652
g69
I3
ssg70
Nsg63
(lp4653
g56
(g72
g58
NtRp4654
(dp4655
g61
(dp4656
sg70
g4650
sg63
(lp4657
g56
(g77
g58
NtRp4658
(dp4659
g61
(dp4660
sg70
g4654
sg63
(lp4661
g56
(g57
g58
NtRp4662
(dp4663
g61
(dp4664
g69
I3
ssg70
g4658
sg63
(lp4665
g4595
(S's\x08\x00\x00\x00This App'
tRp4666
asbasbasbag56
(g72
g58
NtRp4667
(dp4668
g61
(dp4669
sg70
g4650
sg63
(lp4670
g56
(g77
g58
NtRp4671
(dp4672
g61
(dp4673
sg70
g4667
sg63
(lp4674
g56
(g57
g58
NtRp4675
(dp4676
g61
(dp4677
g69
I3
ssg70
g4671
sg63
(lp4678
g99
asbasbasbag56
(g72
g58
NtRp4679
(dp4680
g61
(dp4681
sg70
g4650
sg63
(lp4682
g56
(g77
g58
NtRp4683
(dp4684
g61
(dp4685
sg70
g4679
sg63
(lp4686
g56
(g57
g58
NtRp4687
(dp4688
g61
(dp4689
g69
I3
ssg70
g4683
sg63
(lp4690
S'/admin/default/design/places'
p4691
asbasbasbag56
(g72
g58
NtRp4692
(dp4693
g61
(dp4694
sg70
g4650
sg63
(lp4695
g56
(g77
g58
NtRp4696
(dp4697
g61
(dp4698
sg70
g4692
sg63
(lp4699
g56
(g57
g58
NtRp4700
(dp4701
g61
(dp4702
g69
I3
ssg70
g4696
sg63
(lp4703
g56
(g65
g58
NtRp4704
(dp4705
g61
(dp4706
g69
I2
ssg70
Nsg63
(lp4707
g56
(g72
g58
NtRp4708
(dp4709
g61
(dp4710
sg70
g4704
sg63
(lp4711
g56
(g77
g58
NtRp4712
(dp4713
g61
(dp4714
sg70
g4708
sg63
(lp4715
g56
(g57
g58
NtRp4716
(dp4717
g61
(dp4718
g69
I2
ssg70
g4712
sg63
(lp4719
g56
(g65
g58
NtRp4720
(dp4721
g61
(dp4722
g69
I1
ssg70
Nsg63
(lp4723
g56
(g72
g58
NtRp4724
(dp4725
g61
(dp4726
sg70
g4720
sg63
(lp4727
g56
(g77
g58
NtRp4728
(dp4729
g61
(dp4730
sg70
g4724
sg63
(lp4731
g56
(g57
g58
NtRp4732
(dp4733
g61
(dp4734
g69
I1
ssg70
g4728
sg63
(lp4735
g4595
(S't\n\x00\x00\x00Controller'
tRp4736
asbasbasbag56
(g72
g58
NtRp4737
(dp4738
g61
(dp4739
sg70
g4720
sg63
(lp4740
g56
(g77
g58
NtRp4741
(dp4742
g61
(dp4743
sg70
g4737
sg63
(lp4744
g56
(g57
g58
NtRp4745
(dp4746
g61
(dp4747
g69
I1
ssg70
g4741
sg63
(lp4748
I00
asbasbasbag56
(g72
g58
NtRp4749
(dp4750
g61
(dp4751
sg70
g4720
sg63
(lp4752
g56
(g77
g58
NtRp4753
(dp4754
g61
(dp4755
sg70
g4749
sg63
(lp4756
g56
(g57
g58
NtRp4757
(dp4758
g61
(dp4759
g69
I1
ssg70
g4753
sg63
(lp4760
S'/admin/default/edit/places/controllers/default.py'
p4761
asbasbasbasbasbasbasbag56
(g72
g58
NtRp4762
(dp4763
g61
(dp4764
sg70
g4704
sg63
(lp4765
g56
(g77
g58
NtRp4766
(dp4767
g61
(dp4768
sg70
g4762
sg63
(lp4769
g56
(g57
g58
NtRp4770
(dp4771
g61
(dp4772
g69
I2
ssg70
g4766
sg63
(lp4773
g56
(g65
g58
NtRp4774
(dp4775
g61
(dp4776
g69
I1
ssg70
Nsg63
(lp4777
g56
(g72
g58
NtRp4778
(dp4779
g61
(dp4780
sg70
g4774
sg63
(lp4781
g56
(g77
g58
NtRp4782
(dp4783
g61
(dp4784
sg70
g4778
sg63
(lp4785
g56
(g57
g58
NtRp4786
(dp4787
g61
(dp4788
g69
I1
ssg70
g4782
sg63
(lp4789
g4595
(S't\x04\x00\x00\x00View'
tRp4790
asbasbasbag56
(g72
g58
NtRp4791
(dp4792
g61
(dp4793
sg70
g4774
sg63
(lp4794
g56
(g77
g58
NtRp4795
(dp4796
g61
(dp4797
sg70
g4791
sg63
(lp4798
g56
(g57
g58
NtRp4799
(dp4800
g61
(dp4801
g69
I1
ssg70
g4795
sg63
(lp4802
I00
asbasbasbag56
(g72
g58
NtRp4803
(dp4804
g61
(dp4805
sg70
g4774
sg63
(lp4806
g56
(g77
g58
NtRp4807
(dp4808
g61
(dp4809
sg70
g4803
sg63
(lp4810
g56
(g57
g58
NtRp4811
(dp4812
g61
(dp4813
g69
I1
ssg70
g4807
sg63
(lp4814
S'/admin/default/edit/places/views/default/index.html'
p4815
asbasbasbasbasbasbasbag56
(g72
g58
NtRp4816
(dp4817
g61
(dp4818
sg70
g4704
sg63
(lp4819
g56
(g77
g58
NtRp4820
(dp4821
g61
(dp4822
sg70
g4816
sg63
(lp4823
g56
(g57
g58
NtRp4824
(dp4825
g61
(dp4826
g69
I2
ssg70
g4820
sg63
(lp4827
g56
(g65
g58
NtRp4828
(dp4829
g61
(dp4830
g69
I1
ssg70
Nsg63
(lp4831
g56
(g72
g58
NtRp4832
(dp4833
g61
(dp4834
sg70
g4828
sg63
(lp4835
g56
(g77
g58
NtRp4836
(dp4837
g61
(dp4838
sg70
g4832
sg63
(lp4839
g56
(g57
g58
NtRp4840
(dp4841
g61
(dp4842
g69
I1
ssg70
g4836
sg63
(lp4843
g4595
(S't\x06\x00\x00\x00Layout'
tRp4844
asbasbasbag56
(g72
g58
NtRp4845
(dp4846
g61
(dp4847
sg70
g4828
sg63
(lp4848
g56
(g77
g58
NtRp4849
(dp4850
g61
(dp4851
sg70
g4845
sg63
(lp4852
g56
(g57
g58
NtRp4853
(dp4854
g61
(dp4855
g69
I1
ssg70
g4849
sg63
(lp4856
I00
asbasbasbag56
(g72
g58
NtRp4857
(dp4858
g61
(dp4859
sg70
g4828
sg63
(lp4860
g56
(g77
g58
NtRp4861
(dp4862
g61
(dp4863
sg70
g4857
sg63
(lp4864
g56
(g57
g58
NtRp4865
(dp4866
g61
(dp4867
g69
I1
ssg70
g4861
sg63
(lp4868
S'/admin/default/edit/places/views/layout.html'
p4869
asbasbasbasbasbasbasbag56
(g72
g58
NtRp4870
(dp4871
g61
(dp4872
sg70
g4704
sg63
(lp4873
g56
(g77
g58
NtRp4874
(dp4875
g61
(dp4876
sg70
g4870
sg63
(lp4877
g56
(g57
g58
NtRp4878
(dp4879
g61
(dp4880
g69
I2
ssg70
g4874
sg63
(lp4881
g56
(g65
g58
NtRp4882
(dp4883
g61
(dp4884
g69
I1
ssg70
Nsg63
(lp4885
g56
(g72
g58
NtRp4886
(dp4887
g61
(dp4888
sg70
g4882
sg63
(lp4889
g56
(g77
g58
NtRp4890
(dp4891
g61
(dp4892
sg70
g4886
sg63
(lp4893
g56
(g57
g58
NtRp4894
(dp4895
g61
(dp4896
g69
I1
ssg70
g4890
sg63
(lp4897
g4595
(S't\n\x00\x00\x00Stylesheet'
tRp4898
asbasbasbag56
(g72
g58
NtRp4899
(dp4900
g61
(dp4901
sg70
g4882
sg63
(lp4902
g56
(g77
g58
NtRp4903
(dp4904
g61
(dp4905
sg70
g4899
sg63
(lp4906
g56
(g57
g58
NtRp4907
(dp4908
g61
(dp4909
g69
I1
ssg70
g4903
sg63
(lp4910
I00
asbasbasbag56
(g72
g58
NtRp4911
(dp4912
g61
(dp4913
sg70
g4882
sg63
(lp4914
g56
(g77
g58
NtRp4915
(dp4916
g61
(dp4917
sg70
g4911
sg63
(lp4918
g56
(g57
g58
NtRp4919
(dp4920
g61
(dp4921
g69
I1
ssg70
g4915
sg63
(lp4922
S'/admin/default/edit/places/static/base.css'
p4923
asbasbasbasbasbasbasbag56
(g72
g58
NtRp4924
(dp4925
g61
(dp4926
sg70
g4704
sg63
(lp4927
g56
(g77
g58
NtRp4928
(dp4929
g61
(dp4930
sg70
g4924
sg63
(lp4931
g56
(g57
g58
NtRp4932
(dp4933
g61
(dp4934
g69
I2
ssg70
g4928
sg63
(lp4935
g56
(g65
g58
NtRp4936
(dp4937
g61
(dp4938
g69
I1
ssg70
Nsg63
(lp4939
g56
(g72
g58
NtRp4940
(dp4941
g61
(dp4942
sg70
g4936
sg63
(lp4943
g56
(g77
g58
NtRp4944
(dp4945
g61
(dp4946
sg70
g4940
sg63
(lp4947
g56
(g57
g58
NtRp4948
(dp4949
g61
(dp4950
g69
I1
ssg70
g4944
sg63
(lp4951
g4595
(S's\x08\x00\x00\x00DB Model'
tRp4952
asbasbasbag56
(g72
g58
NtRp4953
(dp4954
g61
(dp4955
sg70
g4936
sg63
(lp4956
g56
(g77
g58
NtRp4957
(dp4958
g61
(dp4959
sg70
g4953
sg63
(lp4960
g56
(g57
g58
NtRp4961
(dp4962
g61
(dp4963
g69
I1
ssg70
g4957
sg63
(lp4964
I00
asbasbasbag56
(g72
g58
NtRp4965
(dp4966
g61
(dp4967
sg70
g4936
sg63
(lp4968
g56
(g77
g58
NtRp4969
(dp4970
g61
(dp4971
sg70
g4965
sg63
(lp4972
g56
(g57
g58
NtRp4973
(dp4974
g61
(dp4975
g69
I1
ssg70
g4969
sg63
(lp4976
S'/admin/default/edit/places/models/db.py'
p4977
asbasbasbasbasbasbasbag56
(g72
g58
NtRp4978
(dp4979
g61
(dp4980
sg70
g4704
sg63
(lp4981
g56
(g77
g58
NtRp4982
(dp4983
g61
(dp4984
sg70
g4978
sg63
(lp4985
g56
(g57
g58
NtRp4986
(dp4987
g61
(dp4988
g69
I2
ssg70
g4982
sg63
(lp4989
g56
(g65
g58
NtRp4990
(dp4991
g61
(dp4992
g69
I1
ssg70
Nsg63
(lp4993
g56
(g72
g58
NtRp4994
(dp4995
g61
(dp4996
sg70
g4990
sg63
(lp4997
g56
(g77
g58
NtRp4998
(dp4999
g61
(dp5000
sg70
g4994
sg63
(lp5001
g56
(g57
g58
NtRp5002
(dp5003
g61
(dp5004
g69
I1
ssg70
g4998
sg63
(lp5005
g4595
(S's\n\x00\x00\x00Menu Model'
tRp5006
asbasbasbag56
(g72
g58
NtRp5007
(dp5008
g61
(dp5009
sg70
g4990
sg63
(lp5010
g56
(g77
g58
NtRp5011
(dp5012
g61
(dp5013
sg70
g5007
sg63
(lp5014
g56
(g57
g58
NtRp5015
(dp5016
g61
(dp5017
g69
I1
ssg70
g5011
sg63
(lp5018
I00
asbasbasbag56
(g72
g58
NtRp5019
(dp5020
g61
(dp5021
sg70
g4990
sg63
(lp5022
g56
(g77
g58
NtRp5023
(dp5024
g61
(dp5025
sg70
g5019
sg63
(lp5026
g56
(g57
g58
NtRp5027
(dp5028
g61
(dp5029
g69
I1
ssg70
g5023
sg63
(lp5030
S'/admin/default/edit/places/models/menu.py'
p5031
asbasbasbasbasbasbasbag56
(g72
g58
NtRp5032
(dp5033
g61
(dp5034
sg70
g4704
sg63
(lp5035
g56
(g77
g58
NtRp5036
(dp5037
g61
(dp5038
sg70
g5032
sg63
(lp5039
g56
(g57
g58
NtRp5040
(dp5041
g61
(dp5042
g69
I2
ssg70
g5036
sg63
(lp5043
g56
(g65
g58
NtRp5044
(dp5045
g61
(dp5046
g69
I1
ssg70
Nsg63
(lp5047
g56
(g72
g58
NtRp5048
(dp5049
g61
(dp5050
sg70
g5044
sg63
(lp5051
g56
(g77
g58
NtRp5052
(dp5053
g61
(dp5054
sg70
g5048
sg63
(lp5055
g56
(g57
g58
NtRp5056
(dp5057
g61
(dp5058
g69
I1
ssg70
g5052
sg63
(lp5059
g4595
(S't\x08\x00\x00\x00Database'
tRp5060
asbasbasbag56
(g72
g58
NtRp5061
(dp5062
g61
(dp5063
sg70
g5044
sg63
(lp5064
g56
(g77
g58
NtRp5065
(dp5066
g61
(dp5067
sg70
g5061
sg63
(lp5068
g56
(g57
g58
NtRp5069
(dp5070
g61
(dp5071
g69
I1
ssg70
g5065
sg63
(lp5072
I00
asbasbasbag56
(g72
g58
NtRp5073
(dp5074
g61
(dp5075
sg70
g5044
sg63
(lp5076
g56
(g77
g58
NtRp5077
(dp5078
g61
(dp5079
sg70
g5073
sg63
(lp5080
g56
(g57
g58
NtRp5081
(dp5082
g61
(dp5083
g69
I1
ssg70
g5077
sg63
(lp5084
S'/places/appadmin/index'
p5085
asbasbasbasbasbasbasbag56
(g72
g58
NtRp5086
(dp5087
g61
(dp5088
sg70
g4704
sg63
(lp5089
g56
(g77
g58
NtRp5090
(dp5091
g61
(dp5092
sg70
g5086
sg63
(lp5093
g56
(g57
g58
NtRp5094
(dp5095
g61
(dp5096
g69
I2
ssg70
g5090
sg63
(lp5097
g56
(g65
g58
NtRp5098
(dp5099
g61
(dp5100
g69
I1
ssg70
Nsg63
(lp5101
g56
(g72
g58
NtRp5102
(dp5103
g61
(dp5104
sg70
g5098
sg63
(lp5105
g56
(g77
g58
NtRp5106
(dp5107
g61
(dp5108
sg70
g5102
sg63
(lp5109
g56
(g57
g58
NtRp5110
(dp5111
g61
(dp5112
g69
I1
ssg70
g5106
sg63
(lp5113
g4595
(S't\x06\x00\x00\x00Errors'
tRp5114
asbasbasbag56
(g72
g58
NtRp5115
(dp5116
g61
(dp5117
sg70
g5098
sg63
(lp5118
g56
(g77
g58
NtRp5119
(dp5120
g61
(dp5121
sg70
g5115
sg63
(lp5122
g56
(g57
g58
NtRp5123
(dp5124
g61
(dp5125
g69
I1
ssg70
g5119
sg63
(lp5126
I00
asbasbasbag56
(g72
g58
NtRp5127
(dp5128
g61
(dp5129
sg70
g5098
sg63
(lp5130
g56
(g77
g58
NtRp5131
(dp5132
g61
(dp5133
sg70
g5127
sg63
(lp5134
g56
(g57
g58
NtRp5135
(dp5136
g61
(dp5137
g69
I1
ssg70
g5131
sg63
(lp5138
S'/admin/default/errors/places'
p5139
asbasbasbasbasbasbasbag56
(g72
g58
NtRp5140
(dp5141
g61
(dp5142
sg70
g4704
sg63
(lp5143
g56
(g77
g58
NtRp5144
(dp5145
g61
(dp5146
sg70
g5140
sg63
(lp5147
g56
(g57
g58
NtRp5148
(dp5149
g61
(dp5150
g69
I2
ssg70
g5144
sg63
(lp5151
g56
(g65
g58
NtRp5152
(dp5153
g61
(dp5154
g69
I1
ssg70
Nsg63
(lp5155
g56
(g72
g58
NtRp5156
(dp5157
g61
(dp5158
sg70
g5152
sg63
(lp5159
g56
(g77
g58
NtRp5160
(dp5161
g61
(dp5162
sg70
g5156
sg63
(lp5163
g56
(g57
g58
NtRp5164
(dp5165
g61
(dp5166
g69
I1
ssg70
g5160
sg63
(lp5167
g4595
(S't\x05\x00\x00\x00About'
tRp5168
asbasbasbag56
(g72
g58
NtRp5169
(dp5170
g61
(dp5171
sg70
g5152
sg63
(lp5172
g56
(g77
g58
NtRp5173
(dp5174
g61
(dp5175
sg70
g5169
sg63
(lp5176
g56
(g57
g58
NtRp5177
(dp5178
g61
(dp5179
g69
I1
ssg70
g5173
sg63
(lp5180
I00
asbasbasbag56
(g72
g58
NtRp5181
(dp5182
g61
(dp5183
sg70
g5152
sg63
(lp5184
g56
(g77
g58
NtRp5185
(dp5186
g61
(dp5187
sg70
g5181
sg63
(lp5188
g56
(g57
g58
NtRp5189
(dp5190
g61
(dp5191
g69
I1
ssg70
g5185
sg63
(lp5192
S'/admin/default/about/places'
p5193
asbasbasbasbasbasbasbasbasbasbasbasbasbasbasbag56
(g72
g58
NtRp5194
(dp5195
g61
(dp5196
sg70
g4563
sg63
(lp5197
g56
(g77
g58
NtRp5198
(dp5199
g61
(dp5200
sg70
g5194
sg63
(lp5201
g56
(g57
g58
NtRp5202
(dp5203
g61
(dp5204
g69
I4
ssg70
g5198
sg63
(lp5205
g56
(g65
g58
NtRp5206
(dp5207
g61
(dp5208
g69
I3
ssg70
Nsg63
(lp5209
g56
(g72
g58
NtRp5210
(dp5211
g61
(dp5212
sg70
g5206
sg63
(lp5213
g56
(g77
g58
NtRp5214
(dp5215
g61
(dp5216
sg70
g5210
sg63
(lp5217
g56
(g57
g58
NtRp5218
(dp5219
g61
(dp5220
g69
I3
ssg70
g5214
sg63
(lp5221
g4595
(S't\t\x00\x00\x00Resources'
tRp5222
asbasbasbag56
(g72
g58
NtRp5223
(dp5224
g61
(dp5225
sg70
g5206
sg63
(lp5226
g56
(g77
g58
NtRp5227
(dp5228
g61
(dp5229
sg70
g5223
sg63
(lp5230
g56
(g57
g58
NtRp5231
(dp5232
g61
(dp5233
g69
I3
ssg70
g5227
sg63
(lp5234
g99
asbasbasbag56
(g72
g58
NtRp5235
(dp5236
g61
(dp5237
sg70
g5206
sg63
(lp5238
g56
(g77
g58
NtRp5239
(dp5240
g61
(dp5241
sg70
g5235
sg63
(lp5242
g56
(g57
g58
NtRp5243
(dp5244
g61
(dp5245
g69
I3
ssg70
g5239
sg63
(lp5246
S'None'
p5247
asbasbasbag56
(g72
g58
NtRp5248
(dp5249
g61
(dp5250
sg70
g5206
sg63
(lp5251
g56
(g77
g58
NtRp5252
(dp5253
g61
(dp5254
sg70
g5248
sg63
(lp5255
g56
(g57
g58
NtRp5256
(dp5257
g61
(dp5258
g69
I3
ssg70
g5252
sg63
(lp5259
g56
(g65
g58
NtRp5260
(dp5261
g61
(dp5262
g69
I2
ssg70
Nsg63
(lp5263
g56
(g72
g58
NtRp5264
(dp5265
g61
(dp5266
sg70
g5260
sg63
(lp5267
g56
(g77
g58
NtRp5268
(dp5269
g61
(dp5270
sg70
g5264
sg63
(lp5271
g56
(g57
g58
NtRp5272
(dp5273
g61
(dp5274
g69
I2
ssg70
g5268
sg63
(lp5275
g56
(g65
g58
NtRp5276
(dp5277
g61
(dp5278
g69
I1
ssg70
Nsg63
(lp5279
g56
(g72
g58
NtRp5280
(dp5281
g61
(dp5282
sg70
g5276
sg63
(lp5283
g56
(g77
g58
NtRp5284
(dp5285
g61
(dp5286
sg70
g5280
sg63
(lp5287
g56
(g57
g58
NtRp5288
(dp5289
g61
(dp5290
g69
I1
ssg70
g5284
sg63
(lp5291
g4595
(S't\r\x00\x00\x00Documentation'
tRp5292
asbasbasbag56
(g72
g58
NtRp5293
(dp5294
g61
(dp5295
sg70
g5276
sg63
(lp5296
g56
(g77
g58
NtRp5297
(dp5298
g61
(dp5299
sg70
g5293
sg63
(lp5300
g56
(g57
g58
NtRp5301
(dp5302
g61
(dp5303
g69
I1
ssg70
g5297
sg63
(lp5304
I00
asbasbasbag56
(g72
g58
NtRp5305
(dp5306
g61
(dp5307
sg70
g5276
sg63
(lp5308
g56
(g77
g58
NtRp5309
(dp5310
g61
(dp5311
sg70
g5305
sg63
(lp5312
g56
(g57
g58
NtRp5313
(dp5314
g61
(dp5315
g69
I1
ssg70
g5309
sg63
(lp5316
S'http://www.web2py.com/book'
p5317
asbasbasbag56
(g72
g58
NtRp5318
(dp5319
g61
(dp5320
sg70
g5276
sg63
(lp5321
g56
(g77
g58
NtRp5322
(dp5323
g61
(dp5324
sg70
g5318
sg63
(lp5325
g56
(g57
g58
NtRp5326
(dp5327
g61
(dp5328
g69
I1
ssg70
g5322
sg63
(lp5329
(lp5330
(g4595
(S't\x07\x00\x00\x00Preface'
tRp5331
I00
S'http://www.web2py.com/book/default/chapter/00'
p5332
tp5333
a(g4595
(S't\x0c\x00\x00\x00Introduction'
tRp5334
I00
S'http://www.web2py.com/book/default/chapter/01'
p5335
tp5336
a(g4595
(S't\x06\x00\x00\x00Python'
tRp5337
I00
S'http://www.web2py.com/book/default/chapter/02'
p5338
tp5339
a(g4595
(S't\x08\x00\x00\x00Overview'
tRp5340
I00
S'http://www.web2py.com/book/default/chapter/03'
p5341
tp5342
a(g4595
(S's\x08\x00\x00\x00The Core'
tRp5343
I00
S'http://www.web2py.com/book/default/chapter/04'
p5344
tp5345
a(g4595
(S's\t\x00\x00\x00The Views'
tRp5346
I00
S'http://www.web2py.com/book/default/chapter/05'
p5347
tp5348
a(g4595
(S't\x08\x00\x00\x00Database'
tRp5349
I00
S'http://www.web2py.com/book/default/chapter/06'
p5350
tp5351
a(g4595
(S's\x14\x00\x00\x00Forms and Validators'
tRp5352
I00
S'http://www.web2py.com/book/default/chapter/07'
p5353
tp5354
a(g4595
(S's\x0e\x00\x00\x00Access Control'
tRp5355
I00
S'http://www.web2py.com/book/default/chapter/08'
p5356
tp5357
a(g4595
(S't\x08\x00\x00\x00Services'
tRp5358
I00
S'http://www.web2py.com/book/default/chapter/09'
p5359
tp5360
a(g4595
(S's\x0c\x00\x00\x00Ajax Recipes'
tRp5361
I00
S'http://www.web2py.com/book/default/chapter/10'
p5362
tp5363
a(g4595
(S's\x12\x00\x00\x00Deployment Recipes'
tRp5364
I00
S'http://www.web2py.com/book/default/chapter/11'
p5365
tp5366
a(g4595
(S's\r\x00\x00\x00Other Recipes'
tRp5367
I00
S'http://www.web2py.com/book/default/chapter/12'
p5368
tp5369
a(g4595
(S's\r\x00\x00\x00Buy this book'
tRp5370
I00
S'http://stores.lulu.com/web2py'
p5371
tp5372
aasbasbasbasbasbasbasbag56
(g72
g58
NtRp5373
(dp5374
g61
(dp5375
sg70
g5260
sg63
(lp5376
g56
(g77
g58
NtRp5377
(dp5378
g61
(dp5379
sg70
g5373
sg63
(lp5380
g56
(g57
g58
NtRp5381
(dp5382
g61
(dp5383
g69
I2
ssg70
g5377
sg63
(lp5384
g56
(g65
g58
NtRp5385
(dp5386
g61
(dp5387
g69
I1
ssg70
Nsg63
(lp5388
g56
(g72
g58
NtRp5389
(dp5390
g61
(dp5391
sg70
g5385
sg63
(lp5392
g56
(g77
g58
NtRp5393
(dp5394
g61
(dp5395
sg70
g5389
sg63
(lp5396
g56
(g57
g58
NtRp5397
(dp5398
g61
(dp5399
g69
I1
ssg70
g5393
sg63
(lp5400
g4595
(S't\t\x00\x00\x00Community'
tRp5401
asbasbasbag56
(g72
g58
NtRp5402
(dp5403
g61
(dp5404
sg70
g5385
sg63
(lp5405
g56
(g77
g58
NtRp5406
(dp5407
g61
(dp5408
sg70
g5402
sg63
(lp5409
g56
(g57
g58
NtRp5410
(dp5411
g61
(dp5412
g69
I1
ssg70
g5406
sg63
(lp5413
I00
asbasbasbag56
(g72
g58
NtRp5414
(dp5415
g61
(dp5416
sg70
g5385
sg63
(lp5417
g56
(g77
g58
NtRp5418
(dp5419
g61
(dp5420
sg70
g5414
sg63
(lp5421
g56
(g57
g58
NtRp5422
(dp5423
g61
(dp5424
g69
I1
ssg70
g5418
sg63
(lp5425
Nasbasbasbag56
(g72
g58
NtRp5426
(dp5427
g61
(dp5428
sg70
g5385
sg63
(lp5429
g56
(g77
g58
NtRp5430
(dp5431
g61
(dp5432
sg70
g5426
sg63
(lp5433
g56
(g57
g58
NtRp5434
(dp5435
g61
(dp5436
g69
I1
ssg70
g5430
sg63
(lp5437
(lp5438
(g4595
(S't\x06\x00\x00\x00Groups'
tRp5439
I00
S'http://www.web2py.com/examples/default/usergroups'
p5440
tp5441
a(g4595
(S't\x07\x00\x00\x00Twitter'
tRp5442
I00
S'http://twitter.com/web2py'
p5443
tp5444
a(g4595
(S's\t\x00\x00\x00Live chat'
tRp5445
I00
S'http://mibbit.com/?channel=%23web2py&server=irc.mibbit.net'
p5446
tp5447
a(g4595
(S's\n\x00\x00\x00User Voice'
tRp5448
I00
S'http://web2py.uservoice.com/'
p5449
tp5450
aasbasbasbasbasbasbasbag56
(g72
g58
NtRp5451
(dp5452
g61
(dp5453
sg70
g5260
sg63
(lp5454
g56
(g77
g58
NtRp5455
(dp5456
g61
(dp5457
sg70
g5451
sg63
(lp5458
g56
(g57
g58
NtRp5459
(dp5460
g61
(dp5461
g69
I2
ssg70
g5455
sg63
(lp5462
g56
(g65
g58
NtRp5463
(dp5464
g61
(dp5465
g69
I1
ssg70
Nsg63
(lp5466
g56
(g72
g58
NtRp5467
(dp5468
g61
(dp5469
sg70
g5463
sg63
(lp5470
g56
(g77
g58
NtRp5471
(dp5472
g61
(dp5473
sg70
g5467
sg63
(lp5474
g56
(g57
g58
NtRp5475
(dp5476
g61
(dp5477
g69
I1
ssg70
g5471
sg63
(lp5478
g4595
(S't\x06\x00\x00\x00Web2py'
tRp5479
asbasbasbag56
(g72
g58
NtRp5480
(dp5481
g61
(dp5482
sg70
g5463
sg63
(lp5483
g56
(g77
g58
NtRp5484
(dp5485
g61
(dp5486
sg70
g5480
sg63
(lp5487
g56
(g57
g58
NtRp5488
(dp5489
g61
(dp5490
g69
I1
ssg70
g5484
sg63
(lp5491
I00
asbasbasbag56
(g72
g58
NtRp5492
(dp5493
g61
(dp5494
sg70
g5463
sg63
(lp5495
g56
(g77
g58
NtRp5496
(dp5497
g61
(dp5498
sg70
g5492
sg63
(lp5499
g56
(g57
g58
NtRp5500
(dp5501
g61
(dp5502
g69
I1
ssg70
g5496
sg63
(lp5503
S'http://www.web2py.com'
p5504
asbasbasbag56
(g72
g58
NtRp5505
(dp5506
g61
(dp5507
sg70
g5463
sg63
(lp5508
g56
(g77
g58
NtRp5509
(dp5510
g61
(dp5511
sg70
g5505
sg63
(lp5512
g56
(g57
g58
NtRp5513
(dp5514
g61
(dp5515
g69
I1
ssg70
g5509
sg63
(lp5516
(lp5517
(g4595
(S't\x08\x00\x00\x00Download'
tRp5518
I00
S'http://www.web2py.com/examples/default/download'
p5519
tp5520
a(g4595
(S't\x07\x00\x00\x00Support'
tRp5521
I00
S'http://www.web2py.com/examples/default/support'
p5522
tp5523
a(g4595
(S's\x0e\x00\x00\x00Quick Examples'
tRp5524
I00
S'http://web2py.com/examples/default/examples'
p5525
tp5526
a(g4595
(S't\x03\x00\x00\x00FAQ'
tRp5527
I00
S'http://web2py.com/AlterEgo'
p5528
tp5529
a(g4595
(S's\x11\x00\x00\x00Free Applications'
tRp5530
I00
S'http://web2py.com/appliances'
p5531
tp5532
a(g4595
(S't\x07\x00\x00\x00Plugins'
tRp5533
I00
S'http://web2py.com/plugins'
p5534
tp5535
a(g4595
(S't\x07\x00\x00\x00Recipes'
tRp5536
I00
S'http://web2pyslices.com/'
p5537
tp5538
a(g4595
(S't\x04\x00\x00\x00Demo'
tRp5539
I00
S'http://web2py.com/demo_admin'
p5540
tp5541
a(g4595
(S't\x08\x00\x00\x00Semantic'
tRp5542
I00
S'http://web2py.com/semantic'
p5543
tp5544
a(g4595
(S't\x07\x00\x00\x00Layouts'
tRp5545
I00
S'http://web2py.com/layouts'
p5546
tp5547
a(g4595
(S't\x06\x00\x00\x00Videos'
tRp5548
I00
S'http://www.web2py.com/examples/default/videos/'
p5549
tp5550
aasbasbasbasbasbasbasbasbasbasbasbasbasbasbasbasbasbasbasbag56
(g72
g58
NtRp5551
(dp5552
g61
(dp5553
sg70
g4090
sg63
(lp5554
g56
(g77
g58
NtRp5555
(dp5556
g61
(dp5557
g81
g82
ssg70
g5551
sg63
(lp5558
S'meta'
p5559
asbag56
(g77
g58
NtRp5560
(dp5561
g61
(dp5562
g88
g89
ssg70
g5551
sg63
(lp5563
S':'
asbag56
(g77
g58
NtRp5564
(dp5565
g61
(dp5566
sg70
g5551
sg63
(lp5567
g56
(g57
g58
NtRp5568
(dp5569
g61
(dp5570
g69
I5
ssg70
g5564
sg63
(lp5571
g56
(g65
g58
NtRp5572
(dp5573
g61
(dp5574
g69
I4
ssg70
Nsg63
(lp5575
g56
(g72
g58
NtRp5576
(dp5577
g61
(dp5578
sg70
g5572
sg63
(lp5579
g56
(g77
g58
NtRp5580
(dp5581
g61
(dp5582
g81
g82
ssg70
g5576
sg63
(lp5583
S'author'
p5584
asbag56
(g77
g58
NtRp5585
(dp5586
g61
(dp5587
g88
g89
ssg70
g5576
sg63
(lp5588
S':'
asbag56
(g77
g58
NtRp5589
(dp5590
g61
(dp5591
sg70
g5576
sg63
(lp5592
g56
(g57
g58
NtRp5593
(dp5594
g61
(dp5595
g69
I4
ssg70
g5589
sg63
(lp5596
S'Your Name <you@example.com>'
p5597
asbasbasbag56
(g72
g58
NtRp5598
(dp5599
g61
(dp5600
sg70
g5572
sg63
(lp5601
g56
(g77
g58
NtRp5602
(dp5603
g61
(dp5604
g81
g82
ssg70
g5598
sg63
(lp5605
S'copyright'
p5606
asbag56
(g77
g58
NtRp5607
(dp5608
g61
(dp5609
g88
g89
ssg70
g5598
sg63
(lp5610
S':'
asbag56
(g77
g58
NtRp5611
(dp5612
g61
(dp5613
sg70
g5598
sg63
(lp5614
g56
(g57
g58
NtRp5615
(dp5616
g61
(dp5617
g69
I4
ssg70
g5611
sg63
(lp5618
S'Copyright 2011'
p5619
asbasbasbag56
(g72
g58
NtRp5620
(dp5621
g61
(dp5622
sg70
g5572
sg63
(lp5623
g56
(g77
g58
NtRp5624
(dp5625
g61
(dp5626
g81
g82
ssg70
g5620
sg63
(lp5627
S'description'
p5628
asbag56
(g77
g58
NtRp5629
(dp5630
g61
(dp5631
g88
g89
ssg70
g5620
sg63
(lp5632
S':'
asbag56
(g77
g58
NtRp5633
(dp5634
g61
(dp5635
sg70
g5620
sg63
(lp5636
g56
(g57
g58
NtRp5637
(dp5638
g61
(dp5639
g69
I4
ssg70
g5633
sg63
(lp5640
S'a cool new app'
p5641
asbasbasbag56
(g72
g58
NtRp5642
(dp5643
g61
(dp5644
sg70
g5572
sg63
(lp5645
g56
(g77
g58
NtRp5646
(dp5647
g61
(dp5648
g81
g82
ssg70
g5642
sg63
(lp5649
S'generator'
p5650
asbag56
(g77
g58
NtRp5651
(dp5652
g61
(dp5653
g88
g89
ssg70
g5642
sg63
(lp5654
S':'
asbag56
(g77
g58
NtRp5655
(dp5656
g61
(dp5657
sg70
g5642
sg63
(lp5658
g56
(g57
g58
NtRp5659
(dp5660
g61
(dp5661
g69
I4
ssg70
g5655
sg63
(lp5662
S'Web2py Web Framework'
p5663
asbasbasbag56
(g72
g58
NtRp5664
(dp5665
g61
(dp5666
sg70
g5572
sg63
(lp5667
g56
(g77
g58
NtRp5668
(dp5669
g61
(dp5670
g81
g82
ssg70
g5664
sg63
(lp5671
S'keywords'
p5672
asbag56
(g77
g58
NtRp5673
(dp5674
g61
(dp5675
g88
g89
ssg70
g5664
sg63
(lp5676
S':'
asbag56
(g77
g58
NtRp5677
(dp5678
g61
(dp5679
sg70
g5664
sg63
(lp5680
g56
(g57
g58
NtRp5681
(dp5682
g61
(dp5683
g69
I4
ssg70
g5677
sg63
(lp5684
S'web2py, python, framework'
p5685
asbasbasbasbasbasbasbag56
(g72
g58
NtRp5686
(dp5687
g61
(dp5688
sg70
g4090
sg63
(lp5689
g56
(g77
g58
NtRp5690
(dp5691
g61
(dp5692
g81
g82
ssg70
g5686
sg63
(lp5693
S'postprocessing'
p5694
asbag56
(g77
g58
NtRp5695
(dp5696
g61
(dp5697
g88
g89
ssg70
g5686
sg63
(lp5698
S':'
asbag56
(g77
g58
NtRp5699
(dp5700
g61
(dp5701
sg70
g5686
sg63
(lp5702
g56
(g57
g58
NtRp5703
(dp5704
g61
(dp5705
g69
I5
ssg70
g5699
sg63
(lp5706
g56
(g65
g58
NtRp5707
(dp5708
g61
(dp5709
g69
I4
ssg70
Nsg63
(lp5710
sbasbasbasbag56
(g72
g58
NtRp5711
(dp5712
g61
(dp5713
sg70
g4090
sg63
(lp5714
g56
(g77
g58
NtRp5715
(dp5716
g61
(dp5717
g81
g82
ssg70
g5711
sg63
(lp5718
S'session_file'
p5719
asbag56
(g77
g58
NtRp5720
(dp5721
g61
(dp5722
g88
g89
ssg70
g5711
sg63
(lp5723
S':'
asbag56
(g77
g58
NtRp5724
(dp5725
g61
(dp5726
sg70
g5711
sg63
(lp5727
g56
(g57
g58
NtRp5728
(dp5729
g61
(dp5730
g69
I5
ssg70
g5724
sg63
(lp5731
S"<open file '/home/ian/Dropbox/Web_Pages/web2py-linux/applications/places/sessions/127.0.0.1-ae378f77-b944-4a55-be06-eed4ce913913', mode 'rb+' at 0x303ed20>"
p5732
asbasbasbag56
(g72
g58
NtRp5733
(dp5734
g61
(dp5735
sg70
g4090
sg63
(lp5736
g56
(g77
g58
NtRp5737
(dp5738
g61
(dp5739
g81
g82
ssg70
g5733
sg63
(lp5740
S'session_filename'
p5741
asbag56
(g77
g58
NtRp5742
(dp5743
g61
(dp5744
g88
g89
ssg70
g5733
sg63
(lp5745
S':'
asbag56
(g77
g58
NtRp5746
(dp5747
g61
(dp5748
sg70
g5733
sg63
(lp5749
g56
(g57
g58
NtRp5750
(dp5751
g61
(dp5752
g69
I5
ssg70
g5746
sg63
(lp5753
S'/home/ian/Dropbox/Web_Pages/web2py-linux/applications/places/sessions/127.0.0.1-ae378f77-b944-4a55-be06-eed4ce913913'
p5754
asbasbasbag56
(g72
g58
NtRp5755
(dp5756
g61
(dp5757
sg70
g4090
sg63
(lp5758
g56
(g77
g58
NtRp5759
(dp5760
g61
(dp5761
g81
g82
ssg70
g5755
sg63
(lp5762
S'session_id'
p5763
asbag56
(g77
g58
NtRp5764
(dp5765
g61
(dp5766
g88
g89
ssg70
g5755
sg63
(lp5767
S':'
asbag56
(g77
g58
NtRp5768
(dp5769
g61
(dp5770
sg70
g5755
sg63
(lp5771
g56
(g57
g58
NtRp5772
(dp5773
g61
(dp5774
g69
I5
ssg70
g5768
sg63
(lp5775
S'127.0.0.1-ae378f77-b944-4a55-be06-eed4ce913913'
p5776
asbasbasbag56
(g72
g58
NtRp5777
(dp5778
g61
(dp5779
sg70
g4090
sg63
(lp5780
g56
(g77
g58
NtRp5781
(dp5782
g61
(dp5783
g81
g82
ssg70
g5777
sg63
(lp5784
S'session_id_name'
p5785
asbag56
(g77
g58
NtRp5786
(dp5787
g61
(dp5788
g88
g89
ssg70
g5777
sg63
(lp5789
S':'
asbag56
(g77
g58
NtRp5790
(dp5791
g61
(dp5792
sg70
g5777
sg63
(lp5793
g56
(g57
g58
NtRp5794
(dp5795
g61
(dp5796
g69
I5
ssg70
g5790
sg63
(lp5797
g4147
asbasbasbag56
(g72
g58
NtRp5798
(dp5799
g61
(dp5800
sg70
g4090
sg63
(lp5801
g56
(g77
g58
NtRp5802
(dp5803
g61
(dp5804
g81
g82
ssg70
g5798
sg63
(lp5805
S'session_locked'
p5806
asbag56
(g77
g58
NtRp5807
(dp5808
g61
(dp5809
g88
g89
ssg70
g5798
sg63
(lp5810
S':'
asbag56
(g77
g58
NtRp5811
(dp5812
g61
(dp5813
sg70
g5798
sg63
(lp5814
g56
(g57
g58
NtRp5815
(dp5816
g61
(dp5817
g69
I5
ssg70
g5811
sg63
(lp5818
g2048
asbasbasbag56
(g72
g58
NtRp5819
(dp5820
g61
(dp5821
sg70
g4090
sg63
(lp5822
g56
(g77
g58
NtRp5823
(dp5824
g61
(dp5825
g81
g82
ssg70
g5819
sg63
(lp5826
S'session_new'
p5827
asbag56
(g77
g58
NtRp5828
(dp5829
g61
(dp5830
g88
g89
ssg70
g5819
sg63
(lp5831
S':'
asbag56
(g77
g58
NtRp5832
(dp5833
g61
(dp5834
sg70
g5819
sg63
(lp5835
g56
(g57
g58
NtRp5836
(dp5837
g61
(dp5838
g69
I5
ssg70
g5832
sg63
(lp5839
g99
asbasbasbag56
(g72
g58
NtRp5840
(dp5841
g61
(dp5842
sg70
g4090
sg63
(lp5843
g56
(g77
g58
NtRp5844
(dp5845
g61
(dp5846
g81
g82
ssg70
g5840
sg63
(lp5847
S'status'
p5848
asbag56
(g77
g58
NtRp5849
(dp5850
g61
(dp5851
g88
g89
ssg70
g5840
sg63
(lp5852
S':'
asbag56
(g77
g58
NtRp5853
(dp5854
g61
(dp5855
sg70
g5840
sg63
(lp5856
g56
(g57
g58
NtRp5857
(dp5858
g61
(dp5859
g69
I5
ssg70
g5853
sg63
(lp5860
S'200'
p5861
asbasbasbag56
(g72
g58
NtRp5862
(dp5863
g61
(dp5864
sg70
g4090
sg63
(lp5865
g56
(g77
g58
NtRp5866
(dp5867
g61
(dp5868
g81
g82
ssg70
g5862
sg63
(lp5869
S'subtitle'
p5870
asbag56
(g77
g58
NtRp5871
(dp5872
g61
(dp5873
g88
g89
ssg70
g5862
sg63
(lp5874
S':'
asbag56
(g77
g58
NtRp5875
(dp5876
g61
(dp5877
sg70
g5862
sg63
(lp5878
g56
(g57
g58
NtRp5879
(dp5880
g61
(dp5881
g69
I5
ssg70
g5875
sg63
(lp5882
g4595
(S's\r\x00\x00\x00customize me!'
tRp5883
asbasbasbag56
(g72
g58
NtRp5884
(dp5885
g61
(dp5886
sg70
g4090
sg63
(lp5887
g56
(g77
g58
NtRp5888
(dp5889
g61
(dp5890
g81
g82
ssg70
g5884
sg63
(lp5891
S'title'
p5892
asbag56
(g77
g58
NtRp5893
(dp5894
g61
(dp5895
g88
g89
ssg70
g5884
sg63
(lp5896
S':'
asbag56
(g77
g58
NtRp5897
(dp5898
g61
(dp5899
sg70
g5884
sg63
(lp5900
g56
(g57
g58
NtRp5901
(dp5902
g61
(dp5903
g69
I5
ssg70
g5897
sg63
(lp5904
g121
asbasbasbag56
(g72
g58
NtRp5905
(dp5906
g61
(dp5907
sg70
g4090
sg63
(lp5908
g56
(g77
g58
NtRp5909
(dp5910
g61
(dp5911
g81
g82
ssg70
g5905
sg63
(lp5912
g2692
asbag56
(g77
g58
NtRp5913
(dp5914
g61
(dp5915
g88
g89
ssg70
g5905
sg63
(lp5916
S':'
asbag56
(g77
g58
NtRp5917
(dp5918
g61
(dp5919
sg70
g5905
sg63
(lp5920
g56
(g57
g58
NtRp5921
(dp5922
g61
(dp5923
g69
I5
ssg70
g5917
sg63
(lp5924
g2705
asbasbasbag56
(g72
g58
NtRp5925
(dp5926
g61
(dp5927
sg70
g4090
sg63
(lp5928
g56
(g77
g58
NtRp5929
(dp5930
g61
(dp5931
g81
g82
ssg70
g5925
sg63
(lp5932
S'view'
p5933
asbag56
(g77
g58
NtRp5934
(dp5935
g61
(dp5936
g88
g89
ssg70
g5925
sg63
(lp5937
S':'
asbag56
(g77
g58
NtRp5938
(dp5939
g61
(dp5940
sg70
g5925
sg63
(lp5941
g56
(g57
g58
NtRp5942
(dp5943
g61
(dp5944
g69
I5
ssg70
g5938
sg63
(lp5945
S'default/index.html'
p5946
asbasbasbasbasbsS'locals'
p5947
(dp5948
S'i'
S'0'
sS'self'
p5949
S'<gluon.dal.Rows object>'
p5950
sssS'traceback'
p5951
S'Traceback (most recent call last):\n  File "/home/ian/Dropbox/Web_Pages/web2py-linux/gluon/restricted.py", line 194, in restricted\n    exec ccode in environment\n  File "/home/ian/Dropbox/Web_Pages/web2py-linux/applications/places/controllers/default.py", line 85, in <module>\n  File "/home/ian/Dropbox/Web_Pages/web2py-linux/gluon/globals.py", line 149, in <lambda>\n    self._caller = lambda f: f()\n  File "/home/ian/Dropbox/Web_Pages/web2py-linux/applications/places/controllers/default.py", line 31, in index\n    return dict(links = links, t = test[0])\n  File "/home/ian/Dropbox/Web_Pages/web2py-linux/gluon/dal.py", line 5868, in __getitem__\n    row = self.records[i]\nIndexError: list index out of range\n'
p5952
s.