(dp1
S'output'
p2
S''
sS'layer'
p3
S'/home/ian/Dropbox/Web_Pages/web2py-linux/applications/places/views/default/index.html'
p4
sS'code'
p5
S'left_sidebar_enabled=right_sidebar_enabled=False\nresponse.write(\'\\n\', escape=False)\nresponse.write(\'<!DOCTYPE html>\\n<html lang="\', escape=False)\nresponse.write(T.accepted_language or \'en\')\nresponse.write(\'" class="no-js"><!-- no-js need it for modernzr -->\\n  <head>\\n    \\n    <meta charset="utf-8" />        \\n    <!-- www.phpied.com/conditional-comments-block-downloads/ -->\\n    <!--[if IE]>\\n      <!-- Always force latest IE rendering engine \\n       (even in intranet) & Chrome Frame \\n       Remove this if you use the .htaccess -->\\n      <meta http-equiv="X-UA-Compatible" content="IE=edge,chrome=1">\\n    <![endif]-->    \\n\\n    <title>\', escape=False)\nresponse.write(response.title or request.application)\nresponse.write(\'</title>\\n    \\n    <!-- http://dev.w3.org/html5/markup/meta.name.html -->\\n    <meta name="application-name" content="\', escape=False)\nresponse.write(request.application)\nresponse.write(\'" /> \\n    \\n    <!-- Speaking of Google, don\\\'t forget to set your site up: \\n     http://google.com/webmasters -->\\n    <meta name="google-site-verification" content="" />\\n    \\n    <!--  Mobile Viewport Fix\\n      j.mp/mobileviewport & davidbcalhoun.com/2010/viewport-metatag \\n      device-width: Occupy full width of the screen in its current orientation\\n      initial-scale = 1.0 retains dimensions instead of zooming out if page height > device height\\n      maximum-scale = 1.0 retains dimensions instead of zooming in if page width < device width\\n      -->\\n    <meta name="viewport" content="width=device-width, initial-scale=1.0, maximum-scale=1.0">\\n    \\n    <!-- Place favicon.ico and apple-touch-icon.png in the root of your domain and delete these references -->\\n    <link rel="shortcut icon" href="\', escape=False)\nresponse.write(URL(\'static\',\'favicon.ico\'))\nresponse.write(\'" type="image/x-icon">\\n    <link rel="apple-touch-icon" href="\', escape=False)\nresponse.write(URL(\'static\',\'favicon.png\'))\nresponse.write(\'">\\n\\n    <!-- For the less-enabled mobile browsers like Opera Mini -->\\n    <link rel="stylesheet" media="handheld" href="\', escape=False)\nresponse.write(URL(\'static\',\'css/handheld.css\'))\nresponse.write(\'">\\n    \\n    <!-- All JavaScript at the bottom, except for Modernizr which enables HTML5 elements & feature detects -->\\n    <script src="\', escape=False)\nresponse.write(URL(\'static\',\'js/modernizr-1.7.min.js\'))\nresponse.write(\'"></script>\\n    \\n    \', escape=False)\n#------  require CSS and JS files for this page (read info in base.css) ------\nresponse.write(\'\\n    \', escape=False)\nresponse.files.append(URL(\'static\',\'css/base.css\'))\nresponse.write(\'\\n    \', escape=False)\nresponse.files.append(URL(\'static\',\'css/superfish.css\'))\nresponse.write(\'\\n    \', escape=False)\nresponse.files.append(URL(\'static\',\'js/superfish.js\'))\nresponse.write(\'\\n    \', escape=False)\n#------ include web2py specific js code (jquery, calendar, form stuff) ------\nresponse.write(\'\\n    \', escape=False)\nresponse.files.insert(0,URL(\'static\',\'js/jquery.js\'))\nresponse.files.insert(1,URL(\'static\',\'css/anytime.css\'))\nresponse.files.insert(2,URL(\'static\',\'js/anytime.js\'))\nresponse.include_meta()\nresponse.include_files()\nresponse.write(\'\\n<script type="text/javascript"><!--\\n    // These variables are used by the web2py_ajax_init function in web2py_ajax.js (which is loaded below).\\n    var w2p_ajax_confirm_message = "\', escape=False)\nresponse.write(T(\'Are you sure you want to delete this object?\'))\nresponse.write(\'";\\n    var w2p_ajax_date_format = "\', escape=False)\nresponse.write(T(\'%Y-%m-%d\'))\nresponse.write(\'";\\n    var w2p_ajax_datetime_format = "\', escape=False)\nresponse.write(T(\'%Y-%m-%d %H:%M:%S\'))\nresponse.write(\'";\\n    //--></script>\\n    <script src="\', escape=False)\nresponse.write(URL(\'static\',\'js/web2py_ajax.js\'))\nresponse.write(\'" type="text/javascript"></script>\\n\', escape=False)\nresponse.write(\'\\n\\n    \', escape=False)\n#using sidebars need to know what sidebar you want to use\n#prior of using it, because of static width size of content, you can use\n#left_sidebar, right_sidebar, both or none (False left and right)\nleft_sidebar_enabled = globals().get(\'left_sidebar_enabled\',False)\nright_sidebar_enabled = globals().get(\'right_sidebar_enabled\',False)\nif left_sidebar_enabled and right_sidebar_enabled: width_content=\'63%\'\nelif left_sidebar_enabled != right_sidebar_enabled: width_content=\'740px\'\nelse: width_content=\'100%\'\nif left_sidebar_enabled: left_sidebar_style = \'style="display: block;"\'\nelse: left_sidebar_style = \'style="display: none;"\'\nif right_sidebar_enabled: right_sidebar_style = \'style="display: block;"\'\nelse: right_sidebar_style = \'style="display: none;"\'\nstyle_content = \'style="width: %s"\' % width_content\nresponse.write(\'\\n    \\n    <!-- uncomment here to load jquery-ui -->\\n    \\n    <link rel="stylesheet" href="http://ajax.googleapis.com/ajax/libs/jqueryui/1.8.16/themes/base/jquery-ui.css" type="text/css" media="all" />\\n    <script src="http://ajax.googleapis.com/ajax/libs/jqueryui/1.8.16/jquery-ui.min.js" type="text/javascript"></script>\\n    \\n   <!-- uncomment to load jquery-ui -->\\n    \\n    \\n  </head>\\n  \\n  <!-- paulirish.com/2008/conditional-stylesheets-vs-css-hacks-answer-neither/ -->  \\n  <!--[if lt IE 7 ]> <body class="ie6"> <![endif]-->\\n  <!--[if IE 7 ]>    <body class="ie7"> <![endif]-->\\n  <!--[if IE 8 ]>    <body class="ie8"> <![endif]-->\\n  <!--[if IE 9 ]>    <body class="ie9"> <![endif]-->\\n  <!--[if (gt IE 9)|!(IE)]><!--> <body> <!--<![endif]-->\\n    \\n    <div class="flash">\', escape=False)\nresponse.write(response.flash or \'\')\nresponse.write(\'</div> <!-- notification div -->\\n\\n        \\n\\n    <div id="container">                        \\n      \\n      <div id="wrapper">        \\n      \', escape=False)\ntry:\n    response.write(auth.navbar(action=URL(\'default\',\'user\')))\nexcept:pass\nresponse.write(\'\\n    \\n    <div id="header"> <!-- header and login nav -->\\n      \', escape=False)\nresponse.write(\' <!-- this is default header -->\\n      \\n      <h1>\\n        <span id="appname">\', escape=False)\nresponse.write(request.application.capitalize())\nresponse.write(\'</span>App\\n      </h1>\\n      <div style="clear: both;"></div><!-- Clear the divs -->\\n      \', escape=False)\nresponse.write(\'\\n    </div><!-- header  -->\\n    \\n    <div id="statusbar"><!-- statusbar is menu zone -->\\n      \', escape=False)\nresponse.write(\' <!-- this is default statusbar -->\\n      \', escape=False)\n#------ superfish menu ------\nresponse.write(\'\\n      \', escape=False)\nresponse.write(MENU(response.menu,_class=\'sf-menu\'))\nresponse.write(\'\\n      <script type="text/javascript">\\n        jQuery(document).ready(function(){\\n        jQuery(\\\'ul.sf-menu\\\').superfish();});\\n      </script>\\n\\n      <!-- AddToAny BEGIN -->\\n      <div style="padding: 7px; float:right;" class="a2a_kit a2a_default_style"><a class="a2a_dd" href="http://www.addtoany.com/share_save">Share</a></div><script type="text/javascript" src="http://static.addtoany.com/menu/page.js"></script>\\n      <!-- AddToAny END -->\\n\\n      <div style="clear: both;"></div><!-- Clear the divs -->   \\n      \', escape=False)\nresponse.write(\'               \\n    </div><!-- statusbar -->\\n    \\n    <div id="page"> <!-- Here my central body -->     \\n\\n      \', escape=False)\nif left_sidebar_enabled:\n    response.write(\'\\n          <div id="left_sidebar" \', escape=False)\n    response.write(XML(left_sidebar_style))\n    response.write(\' >\\n            <div style="padding: 4px;">\\n          \', escape=False)\n    response.write(\'New Left Sidebar Content\', escape=False)\n    response.write(\'       \\n            </div>\\n          </div><!-- left_sidebar -->\\n      \', escape=False)\n    pass\nresponse.write(\'\\n\\n      <!-- content -->\\n      <div id="content" \', escape=False)\nresponse.write(XML(style_content))\nresponse.write(\' >\\n        \', escape=False)\nresponse.write(\'\\n\\n<ul>\\n\', escape=False)\nfor tag in session.tags:\n    response.write(\'\\n\\n\', escape=False)\n    if tag.tag == current:\n        response.write(\'\\n\', escape=False)\n        response.write(LI(A(tag, _href(\'index.load\', args=[tag.tag]), _class=\'current\', cid="links")))\n        response.write(\'\\n\', escape=False)\n        pass\n    response.write(\'\\n\\n\', escape=False)\nelse:\n    response.write(\'\\n\', escape=False)\n    response.write(LI(A(tag, _href(\'index.load\', args=[tag.tag]), cid="links")))\n    response.write(\'\\n\', escape=False)\n    pass\nresponse.write(\'\\n\\n\', escape=False)\npass\nresponse.write(\'\\n\\n</ul>\\n\\n<section id="links">\\n\\n\', escape=False)\nresponse.write(LOAD(\'index.load\',ajax=True))\nresponse.write(\'\\n\\n</section>\\n\\n\', escape=False)\nelse:\n    response.write(\'\\n\', escape=False)\n    response.write(BEAUTIFY(response._vars))\n    response.write(\'\\n\', escape=False)\n    pass\nresponse.write(\'\\n\\n\', escape=False)\nresponse.write(\'\\n\', escape=False)\nresponse.write(\'\\n\', escape=False)\nresponse.write(\' \\n      </div>\\n      <!-- content -->\\n\\n      \', escape=False)\nif right_sidebar_enabled:\n    response.write(\'\\n          <div id="right_sidebar" \', escape=False)\n    response.write(XML(right_sidebar_style))\n    response.write(\' >\\n            <div style="padding: 4px;">\\n              \', escape=False)\n    response.write(\'New Right Sidebar Content\', escape=False)\n    response.write(\'\\n            </div>\\n      </div><!-- right_sidebar -->\\n          \', escape=False)\n    pass\nresponse.write(\'\\n\\n\\n      <div style="clear: both;"></div><!-- Clear the divs -->\\n      \\n    </div><!-- page -->                         \\n    \\n    <div id="footer">\\n      \', escape=False)\nresponse.write(\' <!-- this is default footer -->\\n      <a href="http://www.web2py.com/" style="float: left; padding-right: 6px;">\\n        <img src="\', escape=False)\nresponse.write(URL(\'static\',\'images/poweredby.png\'))\nresponse.write(\'"/>\\n      </a>\\n      \', escape=False)\nresponse.write(T(\'Copyright\'))\nresponse.write(\' &#169; 2011               \\n      <div style="clear: both;"></div><!-- Clear the divs -->\\n      \', escape=False)\nresponse.write(\'\\n\\n    </div><!-- footer -->           \\n      </div><!-- wrapper -->\\n    </div><!-- container -->        \\n    \\n    <!--[if lt IE 7 ]>\\n    <script src="\', escape=False)\nresponse.write(URL(\'static\',\'js/dd_belatedpng.js\'))\nresponse.write(\'"></script>\\n    <script> DD_belatedPNG.fix(\\\'img, .png_bg\\\'); //fix any <img> or .png_bg background-images </script>\\n    <![endif]-->\\n    \', escape=False)\nif response.google_analytics_id:\n    response.write("<script>/* http://mathiasbynens.be/notes/async-analytics-snippet */ var _gaq=[[\'_setAccount\',\'", escape=False)\n    response.write(response.google_analyitics_id)\n    response.write("\'],[\'_trackPageview\']];(function(d,t){var g=d.createElement(t),s=d.getElementsByTagName(t)[0];g.src=\'//www.google-analytics.com/ga.js\';s.parentNode.insertBefore(g,s)}(document,\'script\')) </script>", escape=False)\n    pass\nresponse.write(\'\\n  </body>\\n</html>\\n\', escape=False)'
p6
sS'snapshot'
p7
(dp8
S'exception'
p9
(dp10
S'__getslice__'
p11
S"<method-wrapper '__getslice__' of exceptions.SyntaxError object>"
p12
sS'text'
p13
S"'else:\\n'"
p14
sS'__str__'
p15
S"<method-wrapper '__str__' of exceptions.SyntaxError object>"
p16
sS'__reduce__'
p17
S'<built-in method __reduce__ of exceptions.SyntaxError object>'
p18
sS'__dict__'
p19
S'{}'
p20
sS'__sizeof__'
p21
S'<built-in method __sizeof__ of exceptions.SyntaxError object>'
p22
sS'__init__'
p23
S"<method-wrapper '__init__' of exceptions.SyntaxError object>"
p24
sS'__setattr__'
p25
S"<method-wrapper '__setattr__' of exceptions.SyntaxError object>"
p26
sS'__reduce_ex__'
p27
S'<built-in method __reduce_ex__ of exceptions.SyntaxError object>'
p28
sS'__new__'
p29
S'<built-in method __new__ of type object>'
p30
sS'__format__'
p31
S'<built-in method __format__ of exceptions.SyntaxError object>'
p32
sS'__class__'
p33
S"<type 'exceptions.SyntaxError'>"
p34
sS'filename'
p35
S"'/home/ian/Dropbox/Web_Pages/web2py-linux/applications/places/views/default/index.html'"
p36
sS'lineno'
p37
S'102'
p38
sS'msg'
p39
S"'invalid syntax'"
p40
sS'__doc__'
p41
S"'Invalid syntax.'"
p42
sS'__getitem__'
p43
S"<method-wrapper '__getitem__' of exceptions.SyntaxError object>"
p44
sS'__setstate__'
p45
S'<built-in method __setstate__ of exceptions.SyntaxError object>'
p46
sS'__getattribute__'
p47
S"<method-wrapper '__getattribute__' of exceptions.SyntaxError object>"
p48
sS'print_file_and_line'
p49
S'None'
p50
sS'args'
p51
S"('invalid syntax', ('/home/ian/Dropbox/Web_Pages/web2py-linux/applications/places/views/default/index.html', 102, 4, 'else:\\n'))"
p52
sS'__subclasshook__'
p53
S'<built-in method __subclasshook__ of type object>'
p54
sS'offset'
p55
S'4'
sS'__unicode__'
p56
S'<built-in method __unicode__ of exceptions.SyntaxError object>'
p57
sS'__delattr__'
p58
S"<method-wrapper '__delattr__' of exceptions.SyntaxError object>"
p59
sS'__repr__'
p60
S"<method-wrapper '__repr__' of exceptions.SyntaxError object>"
p61
sS'__hash__'
p62
S"<method-wrapper '__hash__' of exceptions.SyntaxError object>"
p63
ssS'evalue'
p64
S'invalid syntax (index.html, line 102)'
p65
sS'request'
p66
ccopy_reg
_reconstructor
p67
(cgluon.html
BEAUTIFY
p68
c__builtin__
object
p69
NtRp70
(dp71
S'attributes'
p72
(dp73
sS'components'
p74
(lp75
g67
(cgluon.html
TABLE
p76
g69
NtRp77
(dp78
g72
(dp79
S'level'
p80
I5
ssS'parent'
p81
Nsg74
(lp82
g67
(cgluon.html
TR
p83
g69
NtRp84
(dp85
g72
(dp86
sg81
g77
sg74
(lp87
g67
(cgluon.html
TD
p88
g69
NtRp89
(dp90
g72
(dp91
S'_style'
p92
S'font-weight:bold;'
p93
ssg81
g84
sg74
(lp94
S'ajax'
p95
asbag67
(g88
g69
NtRp96
(dp97
g72
(dp98
S'_valign'
p99
S'top'
p100
ssg81
g84
sg74
(lp101
S':'
asbag67
(g88
g69
NtRp102
(dp103
g72
(dp104
sg81
g84
sg74
(lp105
g67
(g68
g69
NtRp106
(dp107
g72
(dp108
g80
I5
ssg81
g102
sg74
(lp109
S'False'
p110
asbasbasbag67
(g83
g69
NtRp111
(dp112
g72
(dp113
sg81
g77
sg74
(lp114
g67
(g88
g69
NtRp115
(dp116
g72
(dp117
g92
g93
ssg81
g111
sg74
(lp118
S'application'
p119
asbag67
(g88
g69
NtRp120
(dp121
g72
(dp122
g99
g100
ssg81
g111
sg74
(lp123
S':'
asbag67
(g88
g69
NtRp124
(dp125
g72
(dp126
sg81
g111
sg74
(lp127
g67
(g68
g69
NtRp128
(dp129
g72
(dp130
g80
I5
ssg81
g124
sg74
(lp131
S'places'
p132
asbasbasbag67
(g83
g69
NtRp133
(dp134
g72
(dp135
sg81
g77
sg74
(lp136
g67
(g88
g69
NtRp137
(dp138
g72
(dp139
g92
g93
ssg81
g133
sg74
(lp140
g51
asbag67
(g88
g69
NtRp141
(dp142
g72
(dp143
g99
g100
ssg81
g133
sg74
(lp144
S':'
asbag67
(g88
g69
NtRp145
(dp146
g72
(dp147
sg81
g133
sg74
(lp148
g67
(g68
g69
NtRp149
(dp150
g72
(dp151
g80
I5
ssg81
g145
sg74
(lp152
g67
(g76
g69
NtRp153
(dp154
g72
(dp155
g80
I4
ssg81
Nsg74
(lp156
sbasbasbasbag67
(g83
g69
NtRp157
(dp158
g72
(dp159
sg81
g77
sg74
(lp160
g67
(g88
g69
NtRp161
(dp162
g72
(dp163
g92
g93
ssg81
g157
sg74
(lp164
S'body'
p165
asbag67
(g88
g69
NtRp166
(dp167
g72
(dp168
g99
g100
ssg81
g157
sg74
(lp169
S':'
asbag67
(g88
g69
NtRp170
(dp171
g72
(dp172
sg81
g157
sg74
(lp173
g67
(g68
g69
NtRp174
(dp175
g72
(dp176
g80
I5
ssg81
g170
sg74
(lp177
S'<cStringIO.StringO object at 0x37a7810>'
p178
asbasbasbag67
(g83
g69
NtRp179
(dp180
g72
(dp181
sg81
g77
sg74
(lp182
g67
(g88
g69
NtRp183
(dp184
g72
(dp185
g92
g93
ssg81
g179
sg74
(lp186
S'client'
p187
asbag67
(g88
g69
NtRp188
(dp189
g72
(dp190
g99
g100
ssg81
g179
sg74
(lp191
S':'
asbag67
(g88
g69
NtRp192
(dp193
g72
(dp194
sg81
g179
sg74
(lp195
g67
(g68
g69
NtRp196
(dp197
g72
(dp198
g80
I5
ssg81
g192
sg74
(lp199
S'127.0.0.1'
p200
asbasbasbag67
(g83
g69
NtRp201
(dp202
g72
(dp203
sg81
g77
sg74
(lp204
g67
(g88
g69
NtRp205
(dp206
g72
(dp207
g92
g93
ssg81
g201
sg74
(lp208
S'controller'
p209
asbag67
(g88
g69
NtRp210
(dp211
g72
(dp212
g99
g100
ssg81
g201
sg74
(lp213
S':'
asbag67
(g88
g69
NtRp214
(dp215
g72
(dp216
sg81
g201
sg74
(lp217
g67
(g68
g69
NtRp218
(dp219
g72
(dp220
g80
I5
ssg81
g214
sg74
(lp221
S'default'
p222
asbasbasbag67
(g83
g69
NtRp223
(dp224
g72
(dp225
sg81
g77
sg74
(lp226
g67
(g88
g69
NtRp227
(dp228
g72
(dp229
g92
g93
ssg81
g223
sg74
(lp230
S'cookies'
p231
asbag67
(g88
g69
NtRp232
(dp233
g72
(dp234
g99
g100
ssg81
g223
sg74
(lp235
S':'
asbag67
(g88
g69
NtRp236
(dp237
g72
(dp238
sg81
g223
sg74
(lp239
g67
(g68
g69
NtRp240
(dp241
g72
(dp242
g80
I5
ssg81
g236
sg74
(lp243
g67
(g76
g69
NtRp244
(dp245
g72
(dp246
g80
I4
ssg81
Nsg74
(lp247
g67
(g83
g69
NtRp248
(dp249
g72
(dp250
sg81
g244
sg74
(lp251
g67
(g88
g69
NtRp252
(dp253
g72
(dp254
g92
g93
ssg81
g248
sg74
(lp255
S'session_id_admin'
p256
asbag67
(g88
g69
NtRp257
(dp258
g72
(dp259
g99
g100
ssg81
g248
sg74
(lp260
S':'
asbag67
(g88
g69
NtRp261
(dp262
g72
(dp263
sg81
g248
sg74
(lp264
g67
(g68
g69
NtRp265
(dp266
g72
(dp267
g80
I4
ssg81
g261
sg74
(lp268
g67
(g76
g69
NtRp269
(dp270
g72
(dp271
g80
I3
ssg81
Nsg74
(lp272
g67
(g83
g69
NtRp273
(dp274
g72
(dp275
sg81
g269
sg74
(lp276
g67
(g88
g69
NtRp277
(dp278
g72
(dp279
g92
g93
ssg81
g273
sg74
(lp280
S'comment'
p281
asbag67
(g88
g69
NtRp282
(dp283
g72
(dp284
g99
g100
ssg81
g273
sg74
(lp285
S':'
asbag67
(g88
g69
NtRp286
(dp287
g72
(dp288
sg81
g273
sg74
(lp289
g67
(g68
g69
NtRp290
(dp291
g72
(dp292
g80
I3
ssg81
g286
sg74
(lp293
S''
asbasbasbag67
(g83
g69
NtRp294
(dp295
g72
(dp296
sg81
g269
sg74
(lp297
g67
(g88
g69
NtRp298
(dp299
g72
(dp300
g92
g93
ssg81
g294
sg74
(lp301
S'domain'
p302
asbag67
(g88
g69
NtRp303
(dp304
g72
(dp305
g99
g100
ssg81
g294
sg74
(lp306
S':'
asbag67
(g88
g69
NtRp307
(dp308
g72
(dp309
sg81
g294
sg74
(lp310
g67
(g68
g69
NtRp311
(dp312
g72
(dp313
g80
I3
ssg81
g307
sg74
(lp314
S''
asbasbasbag67
(g83
g69
NtRp315
(dp316
g72
(dp317
sg81
g269
sg74
(lp318
g67
(g88
g69
NtRp319
(dp320
g72
(dp321
g92
g93
ssg81
g315
sg74
(lp322
S'expires'
p323
asbag67
(g88
g69
NtRp324
(dp325
g72
(dp326
g99
g100
ssg81
g315
sg74
(lp327
S':'
asbag67
(g88
g69
NtRp328
(dp329
g72
(dp330
sg81
g315
sg74
(lp331
g67
(g68
g69
NtRp332
(dp333
g72
(dp334
g80
I3
ssg81
g328
sg74
(lp335
S''
asbasbasbag67
(g83
g69
NtRp336
(dp337
g72
(dp338
sg81
g269
sg74
(lp339
g67
(g88
g69
NtRp340
(dp341
g72
(dp342
g92
g93
ssg81
g336
sg74
(lp343
S'httponly'
p344
asbag67
(g88
g69
NtRp345
(dp346
g72
(dp347
g99
g100
ssg81
g336
sg74
(lp348
S':'
asbag67
(g88
g69
NtRp349
(dp350
g72
(dp351
sg81
g336
sg74
(lp352
g67
(g68
g69
NtRp353
(dp354
g72
(dp355
g80
I3
ssg81
g349
sg74
(lp356
S''
asbasbasbag67
(g83
g69
NtRp357
(dp358
g72
(dp359
sg81
g269
sg74
(lp360
g67
(g88
g69
NtRp361
(dp362
g72
(dp363
g92
g93
ssg81
g357
sg74
(lp364
S'max-age'
p365
asbag67
(g88
g69
NtRp366
(dp367
g72
(dp368
g99
g100
ssg81
g357
sg74
(lp369
S':'
asbag67
(g88
g69
NtRp370
(dp371
g72
(dp372
sg81
g357
sg74
(lp373
g67
(g68
g69
NtRp374
(dp375
g72
(dp376
g80
I3
ssg81
g370
sg74
(lp377
S''
asbasbasbag67
(g83
g69
NtRp378
(dp379
g72
(dp380
sg81
g269
sg74
(lp381
g67
(g88
g69
NtRp382
(dp383
g72
(dp384
g92
g93
ssg81
g378
sg74
(lp385
S'path'
p386
asbag67
(g88
g69
NtRp387
(dp388
g72
(dp389
g99
g100
ssg81
g378
sg74
(lp390
S':'
asbag67
(g88
g69
NtRp391
(dp392
g72
(dp393
sg81
g378
sg74
(lp394
g67
(g68
g69
NtRp395
(dp396
g72
(dp397
g80
I3
ssg81
g391
sg74
(lp398
S''
asbasbasbag67
(g83
g69
NtRp399
(dp400
g72
(dp401
sg81
g269
sg74
(lp402
g67
(g88
g69
NtRp403
(dp404
g72
(dp405
g92
g93
ssg81
g399
sg74
(lp406
S'secure'
p407
asbag67
(g88
g69
NtRp408
(dp409
g72
(dp410
g99
g100
ssg81
g399
sg74
(lp411
S':'
asbag67
(g88
g69
NtRp412
(dp413
g72
(dp414
sg81
g399
sg74
(lp415
g67
(g68
g69
NtRp416
(dp417
g72
(dp418
g80
I3
ssg81
g412
sg74
(lp419
S''
asbasbasbag67
(g83
g69
NtRp420
(dp421
g72
(dp422
sg81
g269
sg74
(lp423
g67
(g88
g69
NtRp424
(dp425
g72
(dp426
g92
g93
ssg81
g420
sg74
(lp427
S'version'
p428
asbag67
(g88
g69
NtRp429
(dp430
g72
(dp431
g99
g100
ssg81
g420
sg74
(lp432
S':'
asbag67
(g88
g69
NtRp433
(dp434
g72
(dp435
sg81
g420
sg74
(lp436
g67
(g68
g69
NtRp437
(dp438
g72
(dp439
g80
I3
ssg81
g433
sg74
(lp440
S''
asbasbasbasbasbasbasbag67
(g83
g69
NtRp441
(dp442
g72
(dp443
sg81
g244
sg74
(lp444
g67
(g88
g69
NtRp445
(dp446
g72
(dp447
g92
g93
ssg81
g441
sg74
(lp448
S'session_id_blog'
p449
asbag67
(g88
g69
NtRp450
(dp451
g72
(dp452
g99
g100
ssg81
g441
sg74
(lp453
S':'
asbag67
(g88
g69
NtRp454
(dp455
g72
(dp456
sg81
g441
sg74
(lp457
g67
(g68
g69
NtRp458
(dp459
g72
(dp460
g80
I4
ssg81
g454
sg74
(lp461
g67
(g76
g69
NtRp462
(dp463
g72
(dp464
g80
I3
ssg81
Nsg74
(lp465
g67
(g83
g69
NtRp466
(dp467
g72
(dp468
sg81
g462
sg74
(lp469
g67
(g88
g69
NtRp470
(dp471
g72
(dp472
g92
g93
ssg81
g466
sg74
(lp473
g281
asbag67
(g88
g69
NtRp474
(dp475
g72
(dp476
g99
g100
ssg81
g466
sg74
(lp477
S':'
asbag67
(g88
g69
NtRp478
(dp479
g72
(dp480
sg81
g466
sg74
(lp481
g67
(g68
g69
NtRp482
(dp483
g72
(dp484
g80
I3
ssg81
g478
sg74
(lp485
S''
asbasbasbag67
(g83
g69
NtRp486
(dp487
g72
(dp488
sg81
g462
sg74
(lp489
g67
(g88
g69
NtRp490
(dp491
g72
(dp492
g92
g93
ssg81
g486
sg74
(lp493
g302
asbag67
(g88
g69
NtRp494
(dp495
g72
(dp496
g99
g100
ssg81
g486
sg74
(lp497
S':'
asbag67
(g88
g69
NtRp498
(dp499
g72
(dp500
sg81
g486
sg74
(lp501
g67
(g68
g69
NtRp502
(dp503
g72
(dp504
g80
I3
ssg81
g498
sg74
(lp505
S''
asbasbasbag67
(g83
g69
NtRp506
(dp507
g72
(dp508
sg81
g462
sg74
(lp509
g67
(g88
g69
NtRp510
(dp511
g72
(dp512
g92
g93
ssg81
g506
sg74
(lp513
g323
asbag67
(g88
g69
NtRp514
(dp515
g72
(dp516
g99
g100
ssg81
g506
sg74
(lp517
S':'
asbag67
(g88
g69
NtRp518
(dp519
g72
(dp520
sg81
g506
sg74
(lp521
g67
(g68
g69
NtRp522
(dp523
g72
(dp524
g80
I3
ssg81
g518
sg74
(lp525
S''
asbasbasbag67
(g83
g69
NtRp526
(dp527
g72
(dp528
sg81
g462
sg74
(lp529
g67
(g88
g69
NtRp530
(dp531
g72
(dp532
g92
g93
ssg81
g526
sg74
(lp533
g344
asbag67
(g88
g69
NtRp534
(dp535
g72
(dp536
g99
g100
ssg81
g526
sg74
(lp537
S':'
asbag67
(g88
g69
NtRp538
(dp539
g72
(dp540
sg81
g526
sg74
(lp541
g67
(g68
g69
NtRp542
(dp543
g72
(dp544
g80
I3
ssg81
g538
sg74
(lp545
S''
asbasbasbag67
(g83
g69
NtRp546
(dp547
g72
(dp548
sg81
g462
sg74
(lp549
g67
(g88
g69
NtRp550
(dp551
g72
(dp552
g92
g93
ssg81
g546
sg74
(lp553
g365
asbag67
(g88
g69
NtRp554
(dp555
g72
(dp556
g99
g100
ssg81
g546
sg74
(lp557
S':'
asbag67
(g88
g69
NtRp558
(dp559
g72
(dp560
sg81
g546
sg74
(lp561
g67
(g68
g69
NtRp562
(dp563
g72
(dp564
g80
I3
ssg81
g558
sg74
(lp565
S''
asbasbasbag67
(g83
g69
NtRp566
(dp567
g72
(dp568
sg81
g462
sg74
(lp569
g67
(g88
g69
NtRp570
(dp571
g72
(dp572
g92
g93
ssg81
g566
sg74
(lp573
g386
asbag67
(g88
g69
NtRp574
(dp575
g72
(dp576
g99
g100
ssg81
g566
sg74
(lp577
S':'
asbag67
(g88
g69
NtRp578
(dp579
g72
(dp580
sg81
g566
sg74
(lp581
g67
(g68
g69
NtRp582
(dp583
g72
(dp584
g80
I3
ssg81
g578
sg74
(lp585
S''
asbasbasbag67
(g83
g69
NtRp586
(dp587
g72
(dp588
sg81
g462
sg74
(lp589
g67
(g88
g69
NtRp590
(dp591
g72
(dp592
g92
g93
ssg81
g586
sg74
(lp593
g407
asbag67
(g88
g69
NtRp594
(dp595
g72
(dp596
g99
g100
ssg81
g586
sg74
(lp597
S':'
asbag67
(g88
g69
NtRp598
(dp599
g72
(dp600
sg81
g586
sg74
(lp601
g67
(g68
g69
NtRp602
(dp603
g72
(dp604
g80
I3
ssg81
g598
sg74
(lp605
S''
asbasbasbag67
(g83
g69
NtRp606
(dp607
g72
(dp608
sg81
g462
sg74
(lp609
g67
(g88
g69
NtRp610
(dp611
g72
(dp612
g92
g93
ssg81
g606
sg74
(lp613
g428
asbag67
(g88
g69
NtRp614
(dp615
g72
(dp616
g99
g100
ssg81
g606
sg74
(lp617
S':'
asbag67
(g88
g69
NtRp618
(dp619
g72
(dp620
sg81
g606
sg74
(lp621
g67
(g68
g69
NtRp622
(dp623
g72
(dp624
g80
I3
ssg81
g618
sg74
(lp625
S''
asbasbasbasbasbasbasbag67
(g83
g69
NtRp626
(dp627
g72
(dp628
sg81
g244
sg74
(lp629
g67
(g88
g69
NtRp630
(dp631
g72
(dp632
g92
g93
ssg81
g626
sg74
(lp633
S'session_id_paideia'
p634
asbag67
(g88
g69
NtRp635
(dp636
g72
(dp637
g99
g100
ssg81
g626
sg74
(lp638
S':'
asbag67
(g88
g69
NtRp639
(dp640
g72
(dp641
sg81
g626
sg74
(lp642
g67
(g68
g69
NtRp643
(dp644
g72
(dp645
g80
I4
ssg81
g639
sg74
(lp646
g67
(g76
g69
NtRp647
(dp648
g72
(dp649
g80
I3
ssg81
Nsg74
(lp650
g67
(g83
g69
NtRp651
(dp652
g72
(dp653
sg81
g647
sg74
(lp654
g67
(g88
g69
NtRp655
(dp656
g72
(dp657
g92
g93
ssg81
g651
sg74
(lp658
g281
asbag67
(g88
g69
NtRp659
(dp660
g72
(dp661
g99
g100
ssg81
g651
sg74
(lp662
S':'
asbag67
(g88
g69
NtRp663
(dp664
g72
(dp665
sg81
g651
sg74
(lp666
g67
(g68
g69
NtRp667
(dp668
g72
(dp669
g80
I3
ssg81
g663
sg74
(lp670
S''
asbasbasbag67
(g83
g69
NtRp671
(dp672
g72
(dp673
sg81
g647
sg74
(lp674
g67
(g88
g69
NtRp675
(dp676
g72
(dp677
g92
g93
ssg81
g671
sg74
(lp678
g302
asbag67
(g88
g69
NtRp679
(dp680
g72
(dp681
g99
g100
ssg81
g671
sg74
(lp682
S':'
asbag67
(g88
g69
NtRp683
(dp684
g72
(dp685
sg81
g671
sg74
(lp686
g67
(g68
g69
NtRp687
(dp688
g72
(dp689
g80
I3
ssg81
g683
sg74
(lp690
S''
asbasbasbag67
(g83
g69
NtRp691
(dp692
g72
(dp693
sg81
g647
sg74
(lp694
g67
(g88
g69
NtRp695
(dp696
g72
(dp697
g92
g93
ssg81
g691
sg74
(lp698
g323
asbag67
(g88
g69
NtRp699
(dp700
g72
(dp701
g99
g100
ssg81
g691
sg74
(lp702
S':'
asbag67
(g88
g69
NtRp703
(dp704
g72
(dp705
sg81
g691
sg74
(lp706
g67
(g68
g69
NtRp707
(dp708
g72
(dp709
g80
I3
ssg81
g703
sg74
(lp710
S''
asbasbasbag67
(g83
g69
NtRp711
(dp712
g72
(dp713
sg81
g647
sg74
(lp714
g67
(g88
g69
NtRp715
(dp716
g72
(dp717
g92
g93
ssg81
g711
sg74
(lp718
g344
asbag67
(g88
g69
NtRp719
(dp720
g72
(dp721
g99
g100
ssg81
g711
sg74
(lp722
S':'
asbag67
(g88
g69
NtRp723
(dp724
g72
(dp725
sg81
g711
sg74
(lp726
g67
(g68
g69
NtRp727
(dp728
g72
(dp729
g80
I3
ssg81
g723
sg74
(lp730
S''
asbasbasbag67
(g83
g69
NtRp731
(dp732
g72
(dp733
sg81
g647
sg74
(lp734
g67
(g88
g69
NtRp735
(dp736
g72
(dp737
g92
g93
ssg81
g731
sg74
(lp738
g365
asbag67
(g88
g69
NtRp739
(dp740
g72
(dp741
g99
g100
ssg81
g731
sg74
(lp742
S':'
asbag67
(g88
g69
NtRp743
(dp744
g72
(dp745
sg81
g731
sg74
(lp746
g67
(g68
g69
NtRp747
(dp748
g72
(dp749
g80
I3
ssg81
g743
sg74
(lp750
S''
asbasbasbag67
(g83
g69
NtRp751
(dp752
g72
(dp753
sg81
g647
sg74
(lp754
g67
(g88
g69
NtRp755
(dp756
g72
(dp757
g92
g93
ssg81
g751
sg74
(lp758
g386
asbag67
(g88
g69
NtRp759
(dp760
g72
(dp761
g99
g100
ssg81
g751
sg74
(lp762
S':'
asbag67
(g88
g69
NtRp763
(dp764
g72
(dp765
sg81
g751
sg74
(lp766
g67
(g68
g69
NtRp767
(dp768
g72
(dp769
g80
I3
ssg81
g763
sg74
(lp770
S''
asbasbasbag67
(g83
g69
NtRp771
(dp772
g72
(dp773
sg81
g647
sg74
(lp774
g67
(g88
g69
NtRp775
(dp776
g72
(dp777
g92
g93
ssg81
g771
sg74
(lp778
g407
asbag67
(g88
g69
NtRp779
(dp780
g72
(dp781
g99
g100
ssg81
g771
sg74
(lp782
S':'
asbag67
(g88
g69
NtRp783
(dp784
g72
(dp785
sg81
g771
sg74
(lp786
g67
(g68
g69
NtRp787
(dp788
g72
(dp789
g80
I3
ssg81
g783
sg74
(lp790
S''
asbasbasbag67
(g83
g69
NtRp791
(dp792
g72
(dp793
sg81
g647
sg74
(lp794
g67
(g88
g69
NtRp795
(dp796
g72
(dp797
g92
g93
ssg81
g791
sg74
(lp798
g428
asbag67
(g88
g69
NtRp799
(dp800
g72
(dp801
g99
g100
ssg81
g791
sg74
(lp802
S':'
asbag67
(g88
g69
NtRp803
(dp804
g72
(dp805
sg81
g791
sg74
(lp806
g67
(g68
g69
NtRp807
(dp808
g72
(dp809
g80
I3
ssg81
g803
sg74
(lp810
S''
asbasbasbasbasbasbasbag67
(g83
g69
NtRp811
(dp812
g72
(dp813
sg81
g244
sg74
(lp814
g67
(g88
g69
NtRp815
(dp816
g72
(dp817
g92
g93
ssg81
g811
sg74
(lp818
S'session_id_places'
p819
asbag67
(g88
g69
NtRp820
(dp821
g72
(dp822
g99
g100
ssg81
g811
sg74
(lp823
S':'
asbag67
(g88
g69
NtRp824
(dp825
g72
(dp826
sg81
g811
sg74
(lp827
g67
(g68
g69
NtRp828
(dp829
g72
(dp830
g80
I4
ssg81
g824
sg74
(lp831
g67
(g76
g69
NtRp832
(dp833
g72
(dp834
g80
I3
ssg81
Nsg74
(lp835
g67
(g83
g69
NtRp836
(dp837
g72
(dp838
sg81
g832
sg74
(lp839
g67
(g88
g69
NtRp840
(dp841
g72
(dp842
g92
g93
ssg81
g836
sg74
(lp843
g281
asbag67
(g88
g69
NtRp844
(dp845
g72
(dp846
g99
g100
ssg81
g836
sg74
(lp847
S':'
asbag67
(g88
g69
NtRp848
(dp849
g72
(dp850
sg81
g836
sg74
(lp851
g67
(g68
g69
NtRp852
(dp853
g72
(dp854
g80
I3
ssg81
g848
sg74
(lp855
S''
asbasbasbag67
(g83
g69
NtRp856
(dp857
g72
(dp858
sg81
g832
sg74
(lp859
g67
(g88
g69
NtRp860
(dp861
g72
(dp862
g92
g93
ssg81
g856
sg74
(lp863
g302
asbag67
(g88
g69
NtRp864
(dp865
g72
(dp866
g99
g100
ssg81
g856
sg74
(lp867
S':'
asbag67
(g88
g69
NtRp868
(dp869
g72
(dp870
sg81
g856
sg74
(lp871
g67
(g68
g69
NtRp872
(dp873
g72
(dp874
g80
I3
ssg81
g868
sg74
(lp875
S''
asbasbasbag67
(g83
g69
NtRp876
(dp877
g72
(dp878
sg81
g832
sg74
(lp879
g67
(g88
g69
NtRp880
(dp881
g72
(dp882
g92
g93
ssg81
g876
sg74
(lp883
g323
asbag67
(g88
g69
NtRp884
(dp885
g72
(dp886
g99
g100
ssg81
g876
sg74
(lp887
S':'
asbag67
(g88
g69
NtRp888
(dp889
g72
(dp890
sg81
g876
sg74
(lp891
g67
(g68
g69
NtRp892
(dp893
g72
(dp894
g80
I3
ssg81
g888
sg74
(lp895
S''
asbasbasbag67
(g83
g69
NtRp896
(dp897
g72
(dp898
sg81
g832
sg74
(lp899
g67
(g88
g69
NtRp900
(dp901
g72
(dp902
g92
g93
ssg81
g896
sg74
(lp903
g344
asbag67
(g88
g69
NtRp904
(dp905
g72
(dp906
g99
g100
ssg81
g896
sg74
(lp907
S':'
asbag67
(g88
g69
NtRp908
(dp909
g72
(dp910
sg81
g896
sg74
(lp911
g67
(g68
g69
NtRp912
(dp913
g72
(dp914
g80
I3
ssg81
g908
sg74
(lp915
S''
asbasbasbag67
(g83
g69
NtRp916
(dp917
g72
(dp918
sg81
g832
sg74
(lp919
g67
(g88
g69
NtRp920
(dp921
g72
(dp922
g92
g93
ssg81
g916
sg74
(lp923
g365
asbag67
(g88
g69
NtRp924
(dp925
g72
(dp926
g99
g100
ssg81
g916
sg74
(lp927
S':'
asbag67
(g88
g69
NtRp928
(dp929
g72
(dp930
sg81
g916
sg74
(lp931
g67
(g68
g69
NtRp932
(dp933
g72
(dp934
g80
I3
ssg81
g928
sg74
(lp935
S''
asbasbasbag67
(g83
g69
NtRp936
(dp937
g72
(dp938
sg81
g832
sg74
(lp939
g67
(g88
g69
NtRp940
(dp941
g72
(dp942
g92
g93
ssg81
g936
sg74
(lp943
g386
asbag67
(g88
g69
NtRp944
(dp945
g72
(dp946
g99
g100
ssg81
g936
sg74
(lp947
S':'
asbag67
(g88
g69
NtRp948
(dp949
g72
(dp950
sg81
g936
sg74
(lp951
g67
(g68
g69
NtRp952
(dp953
g72
(dp954
g80
I3
ssg81
g948
sg74
(lp955
S''
asbasbasbag67
(g83
g69
NtRp956
(dp957
g72
(dp958
sg81
g832
sg74
(lp959
g67
(g88
g69
NtRp960
(dp961
g72
(dp962
g92
g93
ssg81
g956
sg74
(lp963
g407
asbag67
(g88
g69
NtRp964
(dp965
g72
(dp966
g99
g100
ssg81
g956
sg74
(lp967
S':'
asbag67
(g88
g69
NtRp968
(dp969
g72
(dp970
sg81
g956
sg74
(lp971
g67
(g68
g69
NtRp972
(dp973
g72
(dp974
g80
I3
ssg81
g968
sg74
(lp975
S''
asbasbasbag67
(g83
g69
NtRp976
(dp977
g72
(dp978
sg81
g832
sg74
(lp979
g67
(g88
g69
NtRp980
(dp981
g72
(dp982
g92
g93
ssg81
g976
sg74
(lp983
g428
asbag67
(g88
g69
NtRp984
(dp985
g72
(dp986
g99
g100
ssg81
g976
sg74
(lp987
S':'
asbag67
(g88
g69
NtRp988
(dp989
g72
(dp990
sg81
g976
sg74
(lp991
g67
(g68
g69
NtRp992
(dp993
g72
(dp994
g80
I3
ssg81
g988
sg74
(lp995
S''
asbasbasbasbasbasbasbag67
(g83
g69
NtRp996
(dp997
g72
(dp998
sg81
g244
sg74
(lp999
g67
(g88
g69
NtRp1000
(dp1001
g72
(dp1002
g92
g93
ssg81
g996
sg74
(lp1003
S'session_id_welcome'
p1004
asbag67
(g88
g69
NtRp1005
(dp1006
g72
(dp1007
g99
g100
ssg81
g996
sg74
(lp1008
S':'
asbag67
(g88
g69
NtRp1009
(dp1010
g72
(dp1011
sg81
g996
sg74
(lp1012
g67
(g68
g69
NtRp1013
(dp1014
g72
(dp1015
g80
I4
ssg81
g1009
sg74
(lp1016
g67
(g76
g69
NtRp1017
(dp1018
g72
(dp1019
g80
I3
ssg81
Nsg74
(lp1020
g67
(g83
g69
NtRp1021
(dp1022
g72
(dp1023
sg81
g1017
sg74
(lp1024
g67
(g88
g69
NtRp1025
(dp1026
g72
(dp1027
g92
g93
ssg81
g1021
sg74
(lp1028
g281
asbag67
(g88
g69
NtRp1029
(dp1030
g72
(dp1031
g99
g100
ssg81
g1021
sg74
(lp1032
S':'
asbag67
(g88
g69
NtRp1033
(dp1034
g72
(dp1035
sg81
g1021
sg74
(lp1036
g67
(g68
g69
NtRp1037
(dp1038
g72
(dp1039
g80
I3
ssg81
g1033
sg74
(lp1040
S''
asbasbasbag67
(g83
g69
NtRp1041
(dp1042
g72
(dp1043
sg81
g1017
sg74
(lp1044
g67
(g88
g69
NtRp1045
(dp1046
g72
(dp1047
g92
g93
ssg81
g1041
sg74
(lp1048
g302
asbag67
(g88
g69
NtRp1049
(dp1050
g72
(dp1051
g99
g100
ssg81
g1041
sg74
(lp1052
S':'
asbag67
(g88
g69
NtRp1053
(dp1054
g72
(dp1055
sg81
g1041
sg74
(lp1056
g67
(g68
g69
NtRp1057
(dp1058
g72
(dp1059
g80
I3
ssg81
g1053
sg74
(lp1060
S''
asbasbasbag67
(g83
g69
NtRp1061
(dp1062
g72
(dp1063
sg81
g1017
sg74
(lp1064
g67
(g88
g69
NtRp1065
(dp1066
g72
(dp1067
g92
g93
ssg81
g1061
sg74
(lp1068
g323
asbag67
(g88
g69
NtRp1069
(dp1070
g72
(dp1071
g99
g100
ssg81
g1061
sg74
(lp1072
S':'
asbag67
(g88
g69
NtRp1073
(dp1074
g72
(dp1075
sg81
g1061
sg74
(lp1076
g67
(g68
g69
NtRp1077
(dp1078
g72
(dp1079
g80
I3
ssg81
g1073
sg74
(lp1080
S''
asbasbasbag67
(g83
g69
NtRp1081
(dp1082
g72
(dp1083
sg81
g1017
sg74
(lp1084
g67
(g88
g69
NtRp1085
(dp1086
g72
(dp1087
g92
g93
ssg81
g1081
sg74
(lp1088
g344
asbag67
(g88
g69
NtRp1089
(dp1090
g72
(dp1091
g99
g100
ssg81
g1081
sg74
(lp1092
S':'
asbag67
(g88
g69
NtRp1093
(dp1094
g72
(dp1095
sg81
g1081
sg74
(lp1096
g67
(g68
g69
NtRp1097
(dp1098
g72
(dp1099
g80
I3
ssg81
g1093
sg74
(lp1100
S''
asbasbasbag67
(g83
g69
NtRp1101
(dp1102
g72
(dp1103
sg81
g1017
sg74
(lp1104
g67
(g88
g69
NtRp1105
(dp1106
g72
(dp1107
g92
g93
ssg81
g1101
sg74
(lp1108
g365
asbag67
(g88
g69
NtRp1109
(dp1110
g72
(dp1111
g99
g100
ssg81
g1101
sg74
(lp1112
S':'
asbag67
(g88
g69
NtRp1113
(dp1114
g72
(dp1115
sg81
g1101
sg74
(lp1116
g67
(g68
g69
NtRp1117
(dp1118
g72
(dp1119
g80
I3
ssg81
g1113
sg74
(lp1120
S''
asbasbasbag67
(g83
g69
NtRp1121
(dp1122
g72
(dp1123
sg81
g1017
sg74
(lp1124
g67
(g88
g69
NtRp1125
(dp1126
g72
(dp1127
g92
g93
ssg81
g1121
sg74
(lp1128
g386
asbag67
(g88
g69
NtRp1129
(dp1130
g72
(dp1131
g99
g100
ssg81
g1121
sg74
(lp1132
S':'
asbag67
(g88
g69
NtRp1133
(dp1134
g72
(dp1135
sg81
g1121
sg74
(lp1136
g67
(g68
g69
NtRp1137
(dp1138
g72
(dp1139
g80
I3
ssg81
g1133
sg74
(lp1140
S''
asbasbasbag67
(g83
g69
NtRp1141
(dp1142
g72
(dp1143
sg81
g1017
sg74
(lp1144
g67
(g88
g69
NtRp1145
(dp1146
g72
(dp1147
g92
g93
ssg81
g1141
sg74
(lp1148
g407
asbag67
(g88
g69
NtRp1149
(dp1150
g72
(dp1151
g99
g100
ssg81
g1141
sg74
(lp1152
S':'
asbag67
(g88
g69
NtRp1153
(dp1154
g72
(dp1155
sg81
g1141
sg74
(lp1156
g67
(g68
g69
NtRp1157
(dp1158
g72
(dp1159
g80
I3
ssg81
g1153
sg74
(lp1160
S''
asbasbasbag67
(g83
g69
NtRp1161
(dp1162
g72
(dp1163
sg81
g1017
sg74
(lp1164
g67
(g88
g69
NtRp1165
(dp1166
g72
(dp1167
g92
g93
ssg81
g1161
sg74
(lp1168
g428
asbag67
(g88
g69
NtRp1169
(dp1170
g72
(dp1171
g99
g100
ssg81
g1161
sg74
(lp1172
S':'
asbag67
(g88
g69
NtRp1173
(dp1174
g72
(dp1175
sg81
g1161
sg74
(lp1176
g67
(g68
g69
NtRp1177
(dp1178
g72
(dp1179
g80
I3
ssg81
g1173
sg74
(lp1180
S''
asbasbasbasbasbasbasbasbasbasbasbag67
(g83
g69
NtRp1181
(dp1182
g72
(dp1183
sg81
g77
sg74
(lp1184
g67
(g88
g69
NtRp1185
(dp1186
g72
(dp1187
g92
g93
ssg81
g1181
sg74
(lp1188
S'env'
p1189
asbag67
(g88
g69
NtRp1190
(dp1191
g72
(dp1192
g99
g100
ssg81
g1181
sg74
(lp1193
S':'
asbag67
(g88
g69
NtRp1194
(dp1195
g72
(dp1196
sg81
g1181
sg74
(lp1197
g67
(g68
g69
NtRp1198
(dp1199
g72
(dp1200
g80
I5
ssg81
g1194
sg74
(lp1201
g67
(g76
g69
NtRp1202
(dp1203
g72
(dp1204
g80
I4
ssg81
Nsg74
(lp1205
g67
(g83
g69
NtRp1206
(dp1207
g72
(dp1208
sg81
g1202
sg74
(lp1209
g67
(g88
g69
NtRp1210
(dp1211
g72
(dp1212
g92
g93
ssg81
g1206
sg74
(lp1213
S'app_folders'
p1214
asbag67
(g88
g69
NtRp1215
(dp1216
g72
(dp1217
g99
g100
ssg81
g1206
sg74
(lp1218
S':'
asbag67
(g88
g69
NtRp1219
(dp1220
g72
(dp1221
sg81
g1206
sg74
(lp1222
g67
(g68
g69
NtRp1223
(dp1224
g72
(dp1225
g80
I4
ssg81
g1219
sg74
(lp1226
S"set(['/home/ian/Dropbox/Web_Pages/web2py-linux/applications/blog/', '/home/ian/Dropbox/Web_Pages/web2py-linux/applications/places/', '/home/ian/Dropbox/Web_Pages/web2py-linux/applications/Paideia/', '/home/ian/Dropbox/Web_Pages/web2py-linux/applications/admin/', '/home/ian/Dropbox/Web_Pages/web2py-linux/applications/welcome/'])"
p1227
asbasbasbag67
(g83
g69
NtRp1228
(dp1229
g72
(dp1230
sg81
g1202
sg74
(lp1231
g67
(g88
g69
NtRp1232
(dp1233
g72
(dp1234
g92
g93
ssg81
g1228
sg74
(lp1235
S'applications_parent'
p1236
asbag67
(g88
g69
NtRp1237
(dp1238
g72
(dp1239
g99
g100
ssg81
g1228
sg74
(lp1240
S':'
asbag67
(g88
g69
NtRp1241
(dp1242
g72
(dp1243
sg81
g1228
sg74
(lp1244
g67
(g68
g69
NtRp1245
(dp1246
g72
(dp1247
g80
I4
ssg81
g1241
sg74
(lp1248
S'/home/ian/Dropbox/Web_Pages/web2py-linux'
p1249
asbasbasbag67
(g83
g69
NtRp1250
(dp1251
g72
(dp1252
sg81
g1202
sg74
(lp1253
g67
(g88
g69
NtRp1254
(dp1255
g72
(dp1256
g92
g93
ssg81
g1250
sg74
(lp1257
S'cmd_args'
p1258
asbag67
(g88
g69
NtRp1259
(dp1260
g72
(dp1261
g99
g100
ssg81
g1250
sg74
(lp1262
S':'
asbag67
(g88
g69
NtRp1263
(dp1264
g72
(dp1265
sg81
g1250
sg74
(lp1266
g67
(g68
g69
NtRp1267
(dp1268
g72
(dp1269
g80
I4
ssg81
g1263
sg74
(lp1270
g67
(g76
g69
NtRp1271
(dp1272
g72
(dp1273
g80
I3
ssg81
Nsg74
(lp1274
sbasbasbasbag67
(g83
g69
NtRp1275
(dp1276
g72
(dp1277
sg81
g1202
sg74
(lp1278
g67
(g88
g69
NtRp1279
(dp1280
g72
(dp1281
g92
g93
ssg81
g1275
sg74
(lp1282
S'cmd_options'
p1283
asbag67
(g88
g69
NtRp1284
(dp1285
g72
(dp1286
g99
g100
ssg81
g1275
sg74
(lp1287
S':'
asbag67
(g88
g69
NtRp1288
(dp1289
g72
(dp1290
sg81
g1275
sg74
(lp1291
g67
(g68
g69
NtRp1292
(dp1293
g72
(dp1294
g80
I4
ssg81
g1288
sg74
(lp1295
S"<Values at 0x2723170: {'verbose': False, 'ip': '127.0.0.1', 'shutdown_timeout': 5, 'taskbar': False, 'nocron': False, 'pid_filename': 'httpserver.pid', 'maxthreads': None, 'softcron': False, 'server_name': 'uriel', 'bpython': False, 'nogui': False, 'port': 8000, 'extcron': False, 'debuglevel': 30, 'test': None, 'folder': '/home/ian/Dropbox/Web_Pages/web2py-linux', 'config': '', 'import_models': False, 'winservice': '', 'shell': None, 'run': '', 'log_filename': 'httpserver.log', 'args': [''], 'ssl_ca_certificate': None, 'scheduler': None, 'profiler_filename': None, 'ssl_private_key': '', 'password': '<ask>', 'request_queue_size': 5, 'ssl_certificate': '', 'cronjob': False, 'plain': False, 'quiet': False, 'interfaces': None, 'minthreads': None, 'timeout': 10, 'numthreads': None, 'nobanner': False}>"
p1296
asbasbasbag67
(g83
g69
NtRp1297
(dp1298
g72
(dp1299
sg81
g1202
sg74
(lp1300
g67
(g88
g69
NtRp1301
(dp1302
g72
(dp1303
g92
g93
ssg81
g1297
sg74
(lp1304
S'db_sessions'
p1305
asbag67
(g88
g69
NtRp1306
(dp1307
g72
(dp1308
g99
g100
ssg81
g1297
sg74
(lp1309
S':'
asbag67
(g88
g69
NtRp1310
(dp1311
g72
(dp1312
sg81
g1297
sg74
(lp1313
g67
(g68
g69
NtRp1314
(dp1315
g72
(dp1316
g80
I4
ssg81
g1310
sg74
(lp1317
S'set([])'
p1318
asbasbasbag67
(g83
g69
NtRp1319
(dp1320
g72
(dp1321
sg81
g1202
sg74
(lp1322
g67
(g88
g69
NtRp1323
(dp1324
g72
(dp1325
g92
g93
ssg81
g1319
sg74
(lp1326
S'debugging'
p1327
asbag67
(g88
g69
NtRp1328
(dp1329
g72
(dp1330
g99
g100
ssg81
g1319
sg74
(lp1331
S':'
asbag67
(g88
g69
NtRp1332
(dp1333
g72
(dp1334
sg81
g1319
sg74
(lp1335
g67
(g68
g69
NtRp1336
(dp1337
g72
(dp1338
g80
I4
ssg81
g1332
sg74
(lp1339
g110
asbasbasbag67
(g83
g69
NtRp1340
(dp1341
g72
(dp1342
sg81
g1202
sg74
(lp1343
g67
(g88
g69
NtRp1344
(dp1345
g72
(dp1346
g92
g93
ssg81
g1340
sg74
(lp1347
S'gluon_parent'
p1348
asbag67
(g88
g69
NtRp1349
(dp1350
g72
(dp1351
g99
g100
ssg81
g1340
sg74
(lp1352
S':'
asbag67
(g88
g69
NtRp1353
(dp1354
g72
(dp1355
sg81
g1340
sg74
(lp1356
g67
(g68
g69
NtRp1357
(dp1358
g72
(dp1359
g80
I4
ssg81
g1353
sg74
(lp1360
S'/home/ian/Dropbox/Web_Pages/web2py-linux'
p1361
asbasbasbag67
(g83
g69
NtRp1362
(dp1363
g72
(dp1364
sg81
g1202
sg74
(lp1365
g67
(g88
g69
NtRp1366
(dp1367
g72
(dp1368
g92
g93
ssg81
g1362
sg74
(lp1369
S'http_accept'
p1370
asbag67
(g88
g69
NtRp1371
(dp1372
g72
(dp1373
g99
g100
ssg81
g1362
sg74
(lp1374
S':'
asbag67
(g88
g69
NtRp1375
(dp1376
g72
(dp1377
sg81
g1362
sg74
(lp1378
g67
(g68
g69
NtRp1379
(dp1380
g72
(dp1381
g80
I4
ssg81
g1375
sg74
(lp1382
S'text/html,application/xhtml+xml,application/xml;q=0.9,*/*;q=0.8'
p1383
asbasbasbag67
(g83
g69
NtRp1384
(dp1385
g72
(dp1386
sg81
g1202
sg74
(lp1387
g67
(g88
g69
NtRp1388
(dp1389
g72
(dp1390
g92
g93
ssg81
g1384
sg74
(lp1391
S'http_accept_charset'
p1392
asbag67
(g88
g69
NtRp1393
(dp1394
g72
(dp1395
g99
g100
ssg81
g1384
sg74
(lp1396
S':'
asbag67
(g88
g69
NtRp1397
(dp1398
g72
(dp1399
sg81
g1384
sg74
(lp1400
g67
(g68
g69
NtRp1401
(dp1402
g72
(dp1403
g80
I4
ssg81
g1397
sg74
(lp1404
S'UTF-8,*'
p1405
asbasbasbag67
(g83
g69
NtRp1406
(dp1407
g72
(dp1408
sg81
g1202
sg74
(lp1409
g67
(g88
g69
NtRp1410
(dp1411
g72
(dp1412
g92
g93
ssg81
g1406
sg74
(lp1413
S'http_accept_encoding'
p1414
asbag67
(g88
g69
NtRp1415
(dp1416
g72
(dp1417
g99
g100
ssg81
g1406
sg74
(lp1418
S':'
asbag67
(g88
g69
NtRp1419
(dp1420
g72
(dp1421
sg81
g1406
sg74
(lp1422
g67
(g68
g69
NtRp1423
(dp1424
g72
(dp1425
g80
I4
ssg81
g1419
sg74
(lp1426
S'gzip, deflate'
p1427
asbasbasbag67
(g83
g69
NtRp1428
(dp1429
g72
(dp1430
sg81
g1202
sg74
(lp1431
g67
(g88
g69
NtRp1432
(dp1433
g72
(dp1434
g92
g93
ssg81
g1428
sg74
(lp1435
S'http_accept_language'
p1436
asbag67
(g88
g69
NtRp1437
(dp1438
g72
(dp1439
g99
g100
ssg81
g1428
sg74
(lp1440
S':'
asbag67
(g88
g69
NtRp1441
(dp1442
g72
(dp1443
sg81
g1428
sg74
(lp1444
g67
(g68
g69
NtRp1445
(dp1446
g72
(dp1447
g80
I4
ssg81
g1441
sg74
(lp1448
S'en-us,en;q=0.5'
p1449
asbasbasbag67
(g83
g69
NtRp1450
(dp1451
g72
(dp1452
sg81
g1202
sg74
(lp1453
g67
(g88
g69
NtRp1454
(dp1455
g72
(dp1456
g92
g93
ssg81
g1450
sg74
(lp1457
S'http_cache_control'
p1458
asbag67
(g88
g69
NtRp1459
(dp1460
g72
(dp1461
g99
g100
ssg81
g1450
sg74
(lp1462
S':'
asbag67
(g88
g69
NtRp1463
(dp1464
g72
(dp1465
sg81
g1450
sg74
(lp1466
g67
(g68
g69
NtRp1467
(dp1468
g72
(dp1469
g80
I4
ssg81
g1463
sg74
(lp1470
S'max-age=0'
p1471
asbasbasbag67
(g83
g69
NtRp1472
(dp1473
g72
(dp1474
sg81
g1202
sg74
(lp1475
g67
(g88
g69
NtRp1476
(dp1477
g72
(dp1478
g92
g93
ssg81
g1472
sg74
(lp1479
S'http_connection'
p1480
asbag67
(g88
g69
NtRp1481
(dp1482
g72
(dp1483
g99
g100
ssg81
g1472
sg74
(lp1484
S':'
asbag67
(g88
g69
NtRp1485
(dp1486
g72
(dp1487
sg81
g1472
sg74
(lp1488
g67
(g68
g69
NtRp1489
(dp1490
g72
(dp1491
g80
I4
ssg81
g1485
sg74
(lp1492
S'keep-alive'
p1493
asbasbasbag67
(g83
g69
NtRp1494
(dp1495
g72
(dp1496
sg81
g1202
sg74
(lp1497
g67
(g88
g69
NtRp1498
(dp1499
g72
(dp1500
g92
g93
ssg81
g1494
sg74
(lp1501
S'http_cookie'
p1502
asbag67
(g88
g69
NtRp1503
(dp1504
g72
(dp1505
g99
g100
ssg81
g1494
sg74
(lp1506
S':'
asbag67
(g88
g69
NtRp1507
(dp1508
g72
(dp1509
sg81
g1494
sg74
(lp1510
g67
(g68
g69
NtRp1511
(dp1512
g72
(dp1513
g80
I4
ssg81
g1507
sg74
(lp1514
S'session_id_blog=127.0.0.1-f221c588-e499-4b63-9882-f52e2f06907c; session_id_welcome=127.0.0.1-c5e18343-d06e-414a-bb07-23cb8cf7ceb8; session_id_paideia=127.0.0.1-81eff388-1cde-41fb-8887-06f0c09ce763; session_id_admin=127.0.0.1-f8ad7263-b87d-41ed-bbe2-215e5232b6dc; session_id_places=127.0.0.1-ae378f77-b944-4a55-be06-eed4ce913913'
p1515
asbasbasbag67
(g83
g69
NtRp1516
(dp1517
g72
(dp1518
sg81
g1202
sg74
(lp1519
g67
(g88
g69
NtRp1520
(dp1521
g72
(dp1522
g92
g93
ssg81
g1516
sg74
(lp1523
S'http_host'
p1524
asbag67
(g88
g69
NtRp1525
(dp1526
g72
(dp1527
g99
g100
ssg81
g1516
sg74
(lp1528
S':'
asbag67
(g88
g69
NtRp1529
(dp1530
g72
(dp1531
sg81
g1516
sg74
(lp1532
g67
(g68
g69
NtRp1533
(dp1534
g72
(dp1535
g80
I4
ssg81
g1529
sg74
(lp1536
S'127.0.0.1:8000'
p1537
asbasbasbag67
(g83
g69
NtRp1538
(dp1539
g72
(dp1540
sg81
g1202
sg74
(lp1541
g67
(g88
g69
NtRp1542
(dp1543
g72
(dp1544
g92
g93
ssg81
g1538
sg74
(lp1545
S'http_user_agent'
p1546
asbag67
(g88
g69
NtRp1547
(dp1548
g72
(dp1549
g99
g100
ssg81
g1538
sg74
(lp1550
S':'
asbag67
(g88
g69
NtRp1551
(dp1552
g72
(dp1553
sg81
g1538
sg74
(lp1554
g67
(g68
g69
NtRp1555
(dp1556
g72
(dp1557
g80
I4
ssg81
g1551
sg74
(lp1558
S'Mozilla/5.0 (X11; Linux x86_64; rv:7.0.1) Gecko/20100101 Firefox/7.0.1'
p1559
asbasbasbag67
(g83
g69
NtRp1560
(dp1561
g72
(dp1562
sg81
g1202
sg74
(lp1563
g67
(g88
g69
NtRp1564
(dp1565
g72
(dp1566
g92
g93
ssg81
g1560
sg74
(lp1567
S'is_jython'
p1568
asbag67
(g88
g69
NtRp1569
(dp1570
g72
(dp1571
g99
g100
ssg81
g1560
sg74
(lp1572
S':'
asbag67
(g88
g69
NtRp1573
(dp1574
g72
(dp1575
sg81
g1560
sg74
(lp1576
g67
(g68
g69
NtRp1577
(dp1578
g72
(dp1579
g80
I4
ssg81
g1573
sg74
(lp1580
g110
asbasbasbag67
(g83
g69
NtRp1581
(dp1582
g72
(dp1583
sg81
g1202
sg74
(lp1584
g67
(g88
g69
NtRp1585
(dp1586
g72
(dp1587
g92
g93
ssg81
g1581
sg74
(lp1588
S'path_info'
p1589
asbag67
(g88
g69
NtRp1590
(dp1591
g72
(dp1592
g99
g100
ssg81
g1581
sg74
(lp1593
S':'
asbag67
(g88
g69
NtRp1594
(dp1595
g72
(dp1596
sg81
g1581
sg74
(lp1597
g67
(g68
g69
NtRp1598
(dp1599
g72
(dp1600
g80
I4
ssg81
g1594
sg74
(lp1601
S'/places/'
p1602
asbasbasbag67
(g83
g69
NtRp1603
(dp1604
g72
(dp1605
sg81
g1202
sg74
(lp1606
g67
(g88
g69
NtRp1607
(dp1608
g72
(dp1609
g92
g93
ssg81
g1603
sg74
(lp1610
S'query_string'
p1611
asbag67
(g88
g69
NtRp1612
(dp1613
g72
(dp1614
g99
g100
ssg81
g1603
sg74
(lp1615
S':'
asbag67
(g88
g69
NtRp1616
(dp1617
g72
(dp1618
sg81
g1603
sg74
(lp1619
g67
(g68
g69
NtRp1620
(dp1621
g72
(dp1622
g80
I4
ssg81
g1616
sg74
(lp1623
S''
asbasbasbag67
(g83
g69
NtRp1624
(dp1625
g72
(dp1626
sg81
g1202
sg74
(lp1627
g67
(g88
g69
NtRp1628
(dp1629
g72
(dp1630
g92
g93
ssg81
g1624
sg74
(lp1631
S'remote_addr'
p1632
asbag67
(g88
g69
NtRp1633
(dp1634
g72
(dp1635
g99
g100
ssg81
g1624
sg74
(lp1636
S':'
asbag67
(g88
g69
NtRp1637
(dp1638
g72
(dp1639
sg81
g1624
sg74
(lp1640
g67
(g68
g69
NtRp1641
(dp1642
g72
(dp1643
g80
I4
ssg81
g1637
sg74
(lp1644
g200
asbasbasbag67
(g83
g69
NtRp1645
(dp1646
g72
(dp1647
sg81
g1202
sg74
(lp1648
g67
(g88
g69
NtRp1649
(dp1650
g72
(dp1651
g92
g93
ssg81
g1645
sg74
(lp1652
S'remote_port'
p1653
asbag67
(g88
g69
NtRp1654
(dp1655
g72
(dp1656
g99
g100
ssg81
g1645
sg74
(lp1657
S':'
asbag67
(g88
g69
NtRp1658
(dp1659
g72
(dp1660
sg81
g1645
sg74
(lp1661
g67
(g68
g69
NtRp1662
(dp1663
g72
(dp1664
g80
I4
ssg81
g1658
sg74
(lp1665
S'57559'
p1666
asbasbasbag67
(g83
g69
NtRp1667
(dp1668
g72
(dp1669
sg81
g1202
sg74
(lp1670
g67
(g88
g69
NtRp1671
(dp1672
g72
(dp1673
g92
g93
ssg81
g1667
sg74
(lp1674
S'request_method'
p1675
asbag67
(g88
g69
NtRp1676
(dp1677
g72
(dp1678
g99
g100
ssg81
g1667
sg74
(lp1679
S':'
asbag67
(g88
g69
NtRp1680
(dp1681
g72
(dp1682
sg81
g1667
sg74
(lp1683
g67
(g68
g69
NtRp1684
(dp1685
g72
(dp1686
g80
I4
ssg81
g1680
sg74
(lp1687
S'GET'
p1688
asbasbasbag67
(g83
g69
NtRp1689
(dp1690
g72
(dp1691
sg81
g1202
sg74
(lp1692
g67
(g88
g69
NtRp1693
(dp1694
g72
(dp1695
g92
g93
ssg81
g1689
sg74
(lp1696
S'script_name'
p1697
asbag67
(g88
g69
NtRp1698
(dp1699
g72
(dp1700
g99
g100
ssg81
g1689
sg74
(lp1701
S':'
asbag67
(g88
g69
NtRp1702
(dp1703
g72
(dp1704
sg81
g1689
sg74
(lp1705
g67
(g68
g69
NtRp1706
(dp1707
g72
(dp1708
g80
I4
ssg81
g1702
sg74
(lp1709
S''
asbasbasbag67
(g83
g69
NtRp1710
(dp1711
g72
(dp1712
sg81
g1202
sg74
(lp1713
g67
(g88
g69
NtRp1714
(dp1715
g72
(dp1716
g92
g93
ssg81
g1710
sg74
(lp1717
S'server_name'
p1718
asbag67
(g88
g69
NtRp1719
(dp1720
g72
(dp1721
g99
g100
ssg81
g1710
sg74
(lp1722
S':'
asbag67
(g88
g69
NtRp1723
(dp1724
g72
(dp1725
sg81
g1710
sg74
(lp1726
g67
(g68
g69
NtRp1727
(dp1728
g72
(dp1729
g80
I4
ssg81
g1723
sg74
(lp1730
S'uriel'
p1731
asbasbasbag67
(g83
g69
NtRp1732
(dp1733
g72
(dp1734
sg81
g1202
sg74
(lp1735
g67
(g88
g69
NtRp1736
(dp1737
g72
(dp1738
g92
g93
ssg81
g1732
sg74
(lp1739
S'server_port'
p1740
asbag67
(g88
g69
NtRp1741
(dp1742
g72
(dp1743
g99
g100
ssg81
g1732
sg74
(lp1744
S':'
asbag67
(g88
g69
NtRp1745
(dp1746
g72
(dp1747
sg81
g1732
sg74
(lp1748
g67
(g68
g69
NtRp1749
(dp1750
g72
(dp1751
g80
I4
ssg81
g1745
sg74
(lp1752
S'8000'
p1753
asbasbasbag67
(g83
g69
NtRp1754
(dp1755
g72
(dp1756
sg81
g1202
sg74
(lp1757
g67
(g88
g69
NtRp1758
(dp1759
g72
(dp1760
g92
g93
ssg81
g1754
sg74
(lp1761
S'server_protocol'
p1762
asbag67
(g88
g69
NtRp1763
(dp1764
g72
(dp1765
g99
g100
ssg81
g1754
sg74
(lp1766
S':'
asbag67
(g88
g69
NtRp1767
(dp1768
g72
(dp1769
sg81
g1754
sg74
(lp1770
g67
(g68
g69
NtRp1771
(dp1772
g72
(dp1773
g80
I4
ssg81
g1767
sg74
(lp1774
S'HTTP/1.1'
p1775
asbasbasbag67
(g83
g69
NtRp1776
(dp1777
g72
(dp1778
sg81
g1202
sg74
(lp1779
g67
(g88
g69
NtRp1780
(dp1781
g72
(dp1782
g92
g93
ssg81
g1776
sg74
(lp1783
S'server_software'
p1784
asbag67
(g88
g69
NtRp1785
(dp1786
g72
(dp1787
g99
g100
ssg81
g1776
sg74
(lp1788
S':'
asbag67
(g88
g69
NtRp1789
(dp1790
g72
(dp1791
sg81
g1776
sg74
(lp1792
g67
(g68
g69
NtRp1793
(dp1794
g72
(dp1795
g80
I4
ssg81
g1789
sg74
(lp1796
S'Rocket 1.2.4'
p1797
asbasbasbag67
(g83
g69
NtRp1798
(dp1799
g72
(dp1800
sg81
g1202
sg74
(lp1801
g67
(g88
g69
NtRp1802
(dp1803
g72
(dp1804
g92
g93
ssg81
g1798
sg74
(lp1805
S'web2py_crontype'
p1806
asbag67
(g88
g69
NtRp1807
(dp1808
g72
(dp1809
g99
g100
ssg81
g1798
sg74
(lp1810
S':'
asbag67
(g88
g69
NtRp1811
(dp1812
g72
(dp1813
sg81
g1798
sg74
(lp1814
g67
(g68
g69
NtRp1815
(dp1816
g72
(dp1817
g80
I4
ssg81
g1811
sg74
(lp1818
S'hard'
p1819
asbasbasbag67
(g83
g69
NtRp1820
(dp1821
g72
(dp1822
sg81
g1202
sg74
(lp1823
g67
(g88
g69
NtRp1824
(dp1825
g72
(dp1826
g92
g93
ssg81
g1820
sg74
(lp1827
S'web2py_path'
p1828
asbag67
(g88
g69
NtRp1829
(dp1830
g72
(dp1831
g99
g100
ssg81
g1820
sg74
(lp1832
S':'
asbag67
(g88
g69
NtRp1833
(dp1834
g72
(dp1835
sg81
g1820
sg74
(lp1836
g67
(g68
g69
NtRp1837
(dp1838
g72
(dp1839
g80
I4
ssg81
g1833
sg74
(lp1840
g1249
asbasbasbag67
(g83
g69
NtRp1841
(dp1842
g72
(dp1843
sg81
g1202
sg74
(lp1844
g67
(g88
g69
NtRp1845
(dp1846
g72
(dp1847
g92
g93
ssg81
g1841
sg74
(lp1848
S'web2py_version'
p1849
asbag67
(g88
g69
NtRp1850
(dp1851
g72
(dp1852
g99
g100
ssg81
g1841
sg74
(lp1853
S':'
asbag67
(g88
g69
NtRp1854
(dp1855
g72
(dp1856
sg81
g1841
sg74
(lp1857
g67
(g68
g69
NtRp1858
(dp1859
g72
(dp1860
g80
I4
ssg81
g1854
sg74
(lp1861
g67
(g76
g69
NtRp1862
(dp1863
g72
(dp1864
g80
I3
ssg81
Nsg74
(lp1865
g67
(g83
g69
NtRp1866
(dp1867
g72
(dp1868
sg81
g1862
sg74
(lp1869
g67
(g88
g69
NtRp1870
(dp1871
g72
(dp1872
sg81
g1866
sg74
(lp1873
g67
(g68
g69
NtRp1874
(dp1875
g72
(dp1876
g80
I3
ssg81
g1870
sg74
(lp1877
S'1'
asbasbasbag67
(g83
g69
NtRp1878
(dp1879
g72
(dp1880
sg81
g1862
sg74
(lp1881
g67
(g88
g69
NtRp1882
(dp1883
g72
(dp1884
sg81
g1878
sg74
(lp1885
g67
(g68
g69
NtRp1886
(dp1887
g72
(dp1888
g80
I3
ssg81
g1882
sg74
(lp1889
S'99'
p1890
asbasbasbag67
(g83
g69
NtRp1891
(dp1892
g72
(dp1893
sg81
g1862
sg74
(lp1894
g67
(g88
g69
NtRp1895
(dp1896
g72
(dp1897
sg81
g1891
sg74
(lp1898
g67
(g68
g69
NtRp1899
(dp1900
g72
(dp1901
g80
I3
ssg81
g1895
sg74
(lp1902
S'2'
asbasbasbag67
(g83
g69
NtRp1903
(dp1904
g72
(dp1905
sg81
g1862
sg74
(lp1906
g67
(g88
g69
NtRp1907
(dp1908
g72
(dp1909
sg81
g1903
sg74
(lp1910
g67
(g68
g69
NtRp1911
(dp1912
g72
(dp1913
g80
I3
ssg81
g1907
sg74
(lp1914
S'datetime.datetime(2011, 9, 26, 6, 55, 33)'
p1915
asbasbasbag67
(g83
g69
NtRp1916
(dp1917
g72
(dp1918
sg81
g1862
sg74
(lp1919
g67
(g88
g69
NtRp1920
(dp1921
g72
(dp1922
sg81
g1916
sg74
(lp1923
g67
(g68
g69
NtRp1924
(dp1925
g72
(dp1926
g80
I3
ssg81
g1920
sg74
(lp1927
S'stable'
p1928
asbasbasbasbasbasbasbag67
(g83
g69
NtRp1929
(dp1930
g72
(dp1931
sg81
g1202
sg74
(lp1932
g67
(g88
g69
NtRp1933
(dp1934
g72
(dp1935
g92
g93
ssg81
g1929
sg74
(lp1936
S'wsgi_errors'
p1937
asbag67
(g88
g69
NtRp1938
(dp1939
g72
(dp1940
g99
g100
ssg81
g1929
sg74
(lp1941
S':'
asbag67
(g88
g69
NtRp1942
(dp1943
g72
(dp1944
sg81
g1929
sg74
(lp1945
g67
(g68
g69
NtRp1946
(dp1947
g72
(dp1948
g80
I4
ssg81
g1942
sg74
(lp1949
S"<open file '<stderr>', mode 'w' at 0x7f4a416fc270>"
p1950
asbasbasbag67
(g83
g69
NtRp1951
(dp1952
g72
(dp1953
sg81
g1202
sg74
(lp1954
g67
(g88
g69
NtRp1955
(dp1956
g72
(dp1957
g92
g93
ssg81
g1951
sg74
(lp1958
S'wsgi_file_wrapper'
p1959
asbag67
(g88
g69
NtRp1960
(dp1961
g72
(dp1962
g99
g100
ssg81
g1951
sg74
(lp1963
S':'
asbag67
(g88
g69
NtRp1964
(dp1965
g72
(dp1966
sg81
g1951
sg74
(lp1967
g67
(g68
g69
NtRp1968
(dp1969
g72
(dp1970
g80
I4
ssg81
g1964
sg74
(lp1971
S'<class wsgiref.util.FileWrapper at 0x24b4870>'
p1972
asbasbasbag67
(g83
g69
NtRp1973
(dp1974
g72
(dp1975
sg81
g1202
sg74
(lp1976
g67
(g88
g69
NtRp1977
(dp1978
g72
(dp1979
g92
g93
ssg81
g1973
sg74
(lp1980
S'wsgi_input'
p1981
asbag67
(g88
g69
NtRp1982
(dp1983
g72
(dp1984
g99
g100
ssg81
g1973
sg74
(lp1985
S':'
asbag67
(g88
g69
NtRp1986
(dp1987
g72
(dp1988
sg81
g1973
sg74
(lp1989
g67
(g68
g69
NtRp1990
(dp1991
g72
(dp1992
g80
I4
ssg81
g1986
sg74
(lp1993
S'<socket._fileobject object at 0x2d42dd0>'
p1994
asbasbasbag67
(g83
g69
NtRp1995
(dp1996
g72
(dp1997
sg81
g1202
sg74
(lp1998
g67
(g88
g69
NtRp1999
(dp2000
g72
(dp2001
g92
g93
ssg81
g1995
sg74
(lp2002
S'wsgi_multiprocess'
p2003
asbag67
(g88
g69
NtRp2004
(dp2005
g72
(dp2006
g99
g100
ssg81
g1995
sg74
(lp2007
S':'
asbag67
(g88
g69
NtRp2008
(dp2009
g72
(dp2010
sg81
g1995
sg74
(lp2011
g67
(g68
g69
NtRp2012
(dp2013
g72
(dp2014
g80
I4
ssg81
g2008
sg74
(lp2015
g110
asbasbasbag67
(g83
g69
NtRp2016
(dp2017
g72
(dp2018
sg81
g1202
sg74
(lp2019
g67
(g88
g69
NtRp2020
(dp2021
g72
(dp2022
g92
g93
ssg81
g2016
sg74
(lp2023
S'wsgi_multithread'
p2024
asbag67
(g88
g69
NtRp2025
(dp2026
g72
(dp2027
g99
g100
ssg81
g2016
sg74
(lp2028
S':'
asbag67
(g88
g69
NtRp2029
(dp2030
g72
(dp2031
sg81
g2016
sg74
(lp2032
g67
(g68
g69
NtRp2033
(dp2034
g72
(dp2035
g80
I4
ssg81
g2029
sg74
(lp2036
S'True'
p2037
asbasbasbag67
(g83
g69
NtRp2038
(dp2039
g72
(dp2040
sg81
g1202
sg74
(lp2041
g67
(g88
g69
NtRp2042
(dp2043
g72
(dp2044
g92
g93
ssg81
g2038
sg74
(lp2045
S'wsgi_run_once'
p2046
asbag67
(g88
g69
NtRp2047
(dp2048
g72
(dp2049
g99
g100
ssg81
g2038
sg74
(lp2050
S':'
asbag67
(g88
g69
NtRp2051
(dp2052
g72
(dp2053
sg81
g2038
sg74
(lp2054
g67
(g68
g69
NtRp2055
(dp2056
g72
(dp2057
g80
I4
ssg81
g2051
sg74
(lp2058
g110
asbasbasbag67
(g83
g69
NtRp2059
(dp2060
g72
(dp2061
sg81
g1202
sg74
(lp2062
g67
(g88
g69
NtRp2063
(dp2064
g72
(dp2065
g92
g93
ssg81
g2059
sg74
(lp2066
S'wsgi_url_scheme'
p2067
asbag67
(g88
g69
NtRp2068
(dp2069
g72
(dp2070
g99
g100
ssg81
g2059
sg74
(lp2071
S':'
asbag67
(g88
g69
NtRp2072
(dp2073
g72
(dp2074
sg81
g2059
sg74
(lp2075
g67
(g68
g69
NtRp2076
(dp2077
g72
(dp2078
g80
I4
ssg81
g2072
sg74
(lp2079
S'http'
p2080
asbasbasbag67
(g83
g69
NtRp2081
(dp2082
g72
(dp2083
sg81
g1202
sg74
(lp2084
g67
(g88
g69
NtRp2085
(dp2086
g72
(dp2087
g92
g93
ssg81
g2081
sg74
(lp2088
S'wsgi_version'
p2089
asbag67
(g88
g69
NtRp2090
(dp2091
g72
(dp2092
g99
g100
ssg81
g2081
sg74
(lp2093
S':'
asbag67
(g88
g69
NtRp2094
(dp2095
g72
(dp2096
sg81
g2081
sg74
(lp2097
g67
(g68
g69
NtRp2098
(dp2099
g72
(dp2100
g80
I4
ssg81
g2094
sg74
(lp2101
g67
(g76
g69
NtRp2102
(dp2103
g72
(dp2104
g80
I3
ssg81
Nsg74
(lp2105
g67
(g83
g69
NtRp2106
(dp2107
g72
(dp2108
sg81
g2102
sg74
(lp2109
g67
(g88
g69
NtRp2110
(dp2111
g72
(dp2112
sg81
g2106
sg74
(lp2113
g67
(g68
g69
NtRp2114
(dp2115
g72
(dp2116
g80
I3
ssg81
g2110
sg74
(lp2117
S'1'
asbasbasbag67
(g83
g69
NtRp2118
(dp2119
g72
(dp2120
sg81
g2102
sg74
(lp2121
g67
(g88
g69
NtRp2122
(dp2123
g72
(dp2124
sg81
g2118
sg74
(lp2125
g67
(g68
g69
NtRp2126
(dp2127
g72
(dp2128
g80
I3
ssg81
g2122
sg74
(lp2129
S'0'
asbasbasbasbasbasbasbasbasbasbasbag67
(g83
g69
NtRp2130
(dp2131
g72
(dp2132
sg81
g77
sg74
(lp2133
g67
(g88
g69
NtRp2134
(dp2135
g72
(dp2136
g92
g93
ssg81
g2130
sg74
(lp2137
S'extension'
p2138
asbag67
(g88
g69
NtRp2139
(dp2140
g72
(dp2141
g99
g100
ssg81
g2130
sg74
(lp2142
S':'
asbag67
(g88
g69
NtRp2143
(dp2144
g72
(dp2145
sg81
g2130
sg74
(lp2146
g67
(g68
g69
NtRp2147
(dp2148
g72
(dp2149
g80
I5
ssg81
g2143
sg74
(lp2150
S'html'
p2151
asbasbasbag67
(g83
g69
NtRp2152
(dp2153
g72
(dp2154
sg81
g77
sg74
(lp2155
g67
(g88
g69
NtRp2156
(dp2157
g72
(dp2158
g92
g93
ssg81
g2152
sg74
(lp2159
S'folder'
p2160
asbag67
(g88
g69
NtRp2161
(dp2162
g72
(dp2163
g99
g100
ssg81
g2152
sg74
(lp2164
S':'
asbag67
(g88
g69
NtRp2165
(dp2166
g72
(dp2167
sg81
g2152
sg74
(lp2168
g67
(g68
g69
NtRp2169
(dp2170
g72
(dp2171
g80
I5
ssg81
g2165
sg74
(lp2172
S'/home/ian/Dropbox/Web_Pages/web2py-linux/applications/places/'
p2173
asbasbasbag67
(g83
g69
NtRp2174
(dp2175
g72
(dp2176
sg81
g77
sg74
(lp2177
g67
(g88
g69
NtRp2178
(dp2179
g72
(dp2180
g92
g93
ssg81
g2174
sg74
(lp2181
S'function'
p2182
asbag67
(g88
g69
NtRp2183
(dp2184
g72
(dp2185
g99
g100
ssg81
g2174
sg74
(lp2186
S':'
asbag67
(g88
g69
NtRp2187
(dp2188
g72
(dp2189
sg81
g2174
sg74
(lp2190
g67
(g68
g69
NtRp2191
(dp2192
g72
(dp2193
g80
I5
ssg81
g2187
sg74
(lp2194
S'index'
p2195
asbasbasbag67
(g83
g69
NtRp2196
(dp2197
g72
(dp2198
sg81
g77
sg74
(lp2199
g67
(g88
g69
NtRp2200
(dp2201
g72
(dp2202
g92
g93
ssg81
g2196
sg74
(lp2203
S'get_vars'
p2204
asbag67
(g88
g69
NtRp2205
(dp2206
g72
(dp2207
g99
g100
ssg81
g2196
sg74
(lp2208
S':'
asbag67
(g88
g69
NtRp2209
(dp2210
g72
(dp2211
sg81
g2196
sg74
(lp2212
g67
(g68
g69
NtRp2213
(dp2214
g72
(dp2215
g80
I5
ssg81
g2209
sg74
(lp2216
g67
(g76
g69
NtRp2217
(dp2218
g72
(dp2219
g80
I4
ssg81
Nsg74
(lp2220
sbasbasbasbag67
(g83
g69
NtRp2221
(dp2222
g72
(dp2223
sg81
g77
sg74
(lp2224
g67
(g88
g69
NtRp2225
(dp2226
g72
(dp2227
g92
g93
ssg81
g2221
sg74
(lp2228
S'global_settings'
p2229
asbag67
(g88
g69
NtRp2230
(dp2231
g72
(dp2232
g99
g100
ssg81
g2221
sg74
(lp2233
S':'
asbag67
(g88
g69
NtRp2234
(dp2235
g72
(dp2236
sg81
g2221
sg74
(lp2237
g67
(g68
g69
NtRp2238
(dp2239
g72
(dp2240
g80
I5
ssg81
g2234
sg74
(lp2241
g67
(g76
g69
NtRp2242
(dp2243
g72
(dp2244
g80
I4
ssg81
Nsg74
(lp2245
g67
(g83
g69
NtRp2246
(dp2247
g72
(dp2248
sg81
g2242
sg74
(lp2249
g67
(g88
g69
NtRp2250
(dp2251
g72
(dp2252
g92
g93
ssg81
g2246
sg74
(lp2253
g1214
asbag67
(g88
g69
NtRp2254
(dp2255
g72
(dp2256
g99
g100
ssg81
g2246
sg74
(lp2257
S':'
asbag67
(g88
g69
NtRp2258
(dp2259
g72
(dp2260
sg81
g2246
sg74
(lp2261
g67
(g68
g69
NtRp2262
(dp2263
g72
(dp2264
g80
I4
ssg81
g2258
sg74
(lp2265
S"set(['/home/ian/Dropbox/Web_Pages/web2py-linux/applications/blog/', '/home/ian/Dropbox/Web_Pages/web2py-linux/applications/places/', '/home/ian/Dropbox/Web_Pages/web2py-linux/applications/Paideia/', '/home/ian/Dropbox/Web_Pages/web2py-linux/applications/admin/', '/home/ian/Dropbox/Web_Pages/web2py-linux/applications/welcome/'])"
p2266
asbasbasbag67
(g83
g69
NtRp2267
(dp2268
g72
(dp2269
sg81
g2242
sg74
(lp2270
g67
(g88
g69
NtRp2271
(dp2272
g72
(dp2273
g92
g93
ssg81
g2267
sg74
(lp2274
g1236
asbag67
(g88
g69
NtRp2275
(dp2276
g72
(dp2277
g99
g100
ssg81
g2267
sg74
(lp2278
S':'
asbag67
(g88
g69
NtRp2279
(dp2280
g72
(dp2281
sg81
g2267
sg74
(lp2282
g67
(g68
g69
NtRp2283
(dp2284
g72
(dp2285
g80
I4
ssg81
g2279
sg74
(lp2286
g1249
asbasbasbag67
(g83
g69
NtRp2287
(dp2288
g72
(dp2289
sg81
g2242
sg74
(lp2290
g67
(g88
g69
NtRp2291
(dp2292
g72
(dp2293
g92
g93
ssg81
g2287
sg74
(lp2294
g1258
asbag67
(g88
g69
NtRp2295
(dp2296
g72
(dp2297
g99
g100
ssg81
g2287
sg74
(lp2298
S':'
asbag67
(g88
g69
NtRp2299
(dp2300
g72
(dp2301
sg81
g2287
sg74
(lp2302
g67
(g68
g69
NtRp2303
(dp2304
g72
(dp2305
g80
I4
ssg81
g2299
sg74
(lp2306
g67
(g76
g69
NtRp2307
(dp2308
g72
(dp2309
g80
I3
ssg81
Nsg74
(lp2310
sbasbasbasbag67
(g83
g69
NtRp2311
(dp2312
g72
(dp2313
sg81
g2242
sg74
(lp2314
g67
(g88
g69
NtRp2315
(dp2316
g72
(dp2317
g92
g93
ssg81
g2311
sg74
(lp2318
g1283
asbag67
(g88
g69
NtRp2319
(dp2320
g72
(dp2321
g99
g100
ssg81
g2311
sg74
(lp2322
S':'
asbag67
(g88
g69
NtRp2323
(dp2324
g72
(dp2325
sg81
g2311
sg74
(lp2326
g67
(g68
g69
NtRp2327
(dp2328
g72
(dp2329
g80
I4
ssg81
g2323
sg74
(lp2330
S"<Values at 0x2723170: {'verbose': False, 'ip': '127.0.0.1', 'shutdown_timeout': 5, 'taskbar': False, 'nocron': False, 'pid_filename': 'httpserver.pid', 'maxthreads': None, 'softcron': False, 'server_name': 'uriel', 'bpython': False, 'nogui': False, 'port': 8000, 'extcron': False, 'debuglevel': 30, 'test': None, 'folder': '/home/ian/Dropbox/Web_Pages/web2py-linux', 'config': '', 'import_models': False, 'winservice': '', 'shell': None, 'run': '', 'log_filename': 'httpserver.log', 'args': [''], 'ssl_ca_certificate': None, 'scheduler': None, 'profiler_filename': None, 'ssl_private_key': '', 'password': '<ask>', 'request_queue_size': 5, 'ssl_certificate': '', 'cronjob': False, 'plain': False, 'quiet': False, 'interfaces': None, 'minthreads': None, 'timeout': 10, 'numthreads': None, 'nobanner': False}>"
p2331
asbasbasbag67
(g83
g69
NtRp2332
(dp2333
g72
(dp2334
sg81
g2242
sg74
(lp2335
g67
(g88
g69
NtRp2336
(dp2337
g72
(dp2338
g92
g93
ssg81
g2332
sg74
(lp2339
g1305
asbag67
(g88
g69
NtRp2340
(dp2341
g72
(dp2342
g99
g100
ssg81
g2332
sg74
(lp2343
S':'
asbag67
(g88
g69
NtRp2344
(dp2345
g72
(dp2346
sg81
g2332
sg74
(lp2347
g67
(g68
g69
NtRp2348
(dp2349
g72
(dp2350
g80
I4
ssg81
g2344
sg74
(lp2351
S'set([])'
p2352
asbasbasbag67
(g83
g69
NtRp2353
(dp2354
g72
(dp2355
sg81
g2242
sg74
(lp2356
g67
(g88
g69
NtRp2357
(dp2358
g72
(dp2359
g92
g93
ssg81
g2353
sg74
(lp2360
g1327
asbag67
(g88
g69
NtRp2361
(dp2362
g72
(dp2363
g99
g100
ssg81
g2353
sg74
(lp2364
S':'
asbag67
(g88
g69
NtRp2365
(dp2366
g72
(dp2367
sg81
g2353
sg74
(lp2368
g67
(g68
g69
NtRp2369
(dp2370
g72
(dp2371
g80
I4
ssg81
g2365
sg74
(lp2372
g110
asbasbasbag67
(g83
g69
NtRp2373
(dp2374
g72
(dp2375
sg81
g2242
sg74
(lp2376
g67
(g88
g69
NtRp2377
(dp2378
g72
(dp2379
g92
g93
ssg81
g2373
sg74
(lp2380
g1348
asbag67
(g88
g69
NtRp2381
(dp2382
g72
(dp2383
g99
g100
ssg81
g2373
sg74
(lp2384
S':'
asbag67
(g88
g69
NtRp2385
(dp2386
g72
(dp2387
sg81
g2373
sg74
(lp2388
g67
(g68
g69
NtRp2389
(dp2390
g72
(dp2391
g80
I4
ssg81
g2385
sg74
(lp2392
g1361
asbasbasbag67
(g83
g69
NtRp2393
(dp2394
g72
(dp2395
sg81
g2242
sg74
(lp2396
g67
(g88
g69
NtRp2397
(dp2398
g72
(dp2399
g92
g93
ssg81
g2393
sg74
(lp2400
g1568
asbag67
(g88
g69
NtRp2401
(dp2402
g72
(dp2403
g99
g100
ssg81
g2393
sg74
(lp2404
S':'
asbag67
(g88
g69
NtRp2405
(dp2406
g72
(dp2407
sg81
g2393
sg74
(lp2408
g67
(g68
g69
NtRp2409
(dp2410
g72
(dp2411
g80
I4
ssg81
g2405
sg74
(lp2412
g110
asbasbasbag67
(g83
g69
NtRp2413
(dp2414
g72
(dp2415
sg81
g2242
sg74
(lp2416
g67
(g88
g69
NtRp2417
(dp2418
g72
(dp2419
g92
g93
ssg81
g2413
sg74
(lp2420
g1806
asbag67
(g88
g69
NtRp2421
(dp2422
g72
(dp2423
g99
g100
ssg81
g2413
sg74
(lp2424
S':'
asbag67
(g88
g69
NtRp2425
(dp2426
g72
(dp2427
sg81
g2413
sg74
(lp2428
g67
(g68
g69
NtRp2429
(dp2430
g72
(dp2431
g80
I4
ssg81
g2425
sg74
(lp2432
g1819
asbasbasbag67
(g83
g69
NtRp2433
(dp2434
g72
(dp2435
sg81
g2242
sg74
(lp2436
g67
(g88
g69
NtRp2437
(dp2438
g72
(dp2439
g92
g93
ssg81
g2433
sg74
(lp2440
g1849
asbag67
(g88
g69
NtRp2441
(dp2442
g72
(dp2443
g99
g100
ssg81
g2433
sg74
(lp2444
S':'
asbag67
(g88
g69
NtRp2445
(dp2446
g72
(dp2447
sg81
g2433
sg74
(lp2448
g67
(g68
g69
NtRp2449
(dp2450
g72
(dp2451
g80
I4
ssg81
g2445
sg74
(lp2452
g67
(g76
g69
NtRp2453
(dp2454
g72
(dp2455
g80
I3
ssg81
Nsg74
(lp2456
g67
(g83
g69
NtRp2457
(dp2458
g72
(dp2459
sg81
g2453
sg74
(lp2460
g67
(g88
g69
NtRp2461
(dp2462
g72
(dp2463
sg81
g2457
sg74
(lp2464
g67
(g68
g69
NtRp2465
(dp2466
g72
(dp2467
g80
I3
ssg81
g2461
sg74
(lp2468
S'1'
asbasbasbag67
(g83
g69
NtRp2469
(dp2470
g72
(dp2471
sg81
g2453
sg74
(lp2472
g67
(g88
g69
NtRp2473
(dp2474
g72
(dp2475
sg81
g2469
sg74
(lp2476
g67
(g68
g69
NtRp2477
(dp2478
g72
(dp2479
g80
I3
ssg81
g2473
sg74
(lp2480
S'99'
p2481
asbasbasbag67
(g83
g69
NtRp2482
(dp2483
g72
(dp2484
sg81
g2453
sg74
(lp2485
g67
(g88
g69
NtRp2486
(dp2487
g72
(dp2488
sg81
g2482
sg74
(lp2489
g67
(g68
g69
NtRp2490
(dp2491
g72
(dp2492
g80
I3
ssg81
g2486
sg74
(lp2493
S'2'
asbasbasbag67
(g83
g69
NtRp2494
(dp2495
g72
(dp2496
sg81
g2453
sg74
(lp2497
g67
(g88
g69
NtRp2498
(dp2499
g72
(dp2500
sg81
g2494
sg74
(lp2501
g67
(g68
g69
NtRp2502
(dp2503
g72
(dp2504
g80
I3
ssg81
g2498
sg74
(lp2505
S'datetime.datetime(2011, 9, 26, 6, 55, 33)'
p2506
asbasbasbag67
(g83
g69
NtRp2507
(dp2508
g72
(dp2509
sg81
g2453
sg74
(lp2510
g67
(g88
g69
NtRp2511
(dp2512
g72
(dp2513
sg81
g2507
sg74
(lp2514
g67
(g68
g69
NtRp2515
(dp2516
g72
(dp2517
g80
I3
ssg81
g2511
sg74
(lp2518
g1928
asbasbasbasbasbasbasbasbasbasbasbag67
(g83
g69
NtRp2519
(dp2520
g72
(dp2521
sg81
g77
sg74
(lp2522
g67
(g88
g69
NtRp2523
(dp2524
g72
(dp2525
g92
g93
ssg81
g2519
sg74
(lp2526
S'is_https'
p2527
asbag67
(g88
g69
NtRp2528
(dp2529
g72
(dp2530
g99
g100
ssg81
g2519
sg74
(lp2531
S':'
asbag67
(g88
g69
NtRp2532
(dp2533
g72
(dp2534
sg81
g2519
sg74
(lp2535
g67
(g68
g69
NtRp2536
(dp2537
g72
(dp2538
g80
I5
ssg81
g2532
sg74
(lp2539
g110
asbasbasbag67
(g83
g69
NtRp2540
(dp2541
g72
(dp2542
sg81
g77
sg74
(lp2543
g67
(g88
g69
NtRp2544
(dp2545
g72
(dp2546
g92
g93
ssg81
g2540
sg74
(lp2547
S'is_local'
p2548
asbag67
(g88
g69
NtRp2549
(dp2550
g72
(dp2551
g99
g100
ssg81
g2540
sg74
(lp2552
S':'
asbag67
(g88
g69
NtRp2553
(dp2554
g72
(dp2555
sg81
g2540
sg74
(lp2556
g67
(g68
g69
NtRp2557
(dp2558
g72
(dp2559
g80
I5
ssg81
g2553
sg74
(lp2560
g2037
asbasbasbag67
(g83
g69
NtRp2561
(dp2562
g72
(dp2563
sg81
g77
sg74
(lp2564
g67
(g88
g69
NtRp2565
(dp2566
g72
(dp2567
g92
g93
ssg81
g2561
sg74
(lp2568
S'is_restful'
p2569
asbag67
(g88
g69
NtRp2570
(dp2571
g72
(dp2572
g99
g100
ssg81
g2561
sg74
(lp2573
S':'
asbag67
(g88
g69
NtRp2574
(dp2575
g72
(dp2576
sg81
g2561
sg74
(lp2577
g67
(g68
g69
NtRp2578
(dp2579
g72
(dp2580
g80
I5
ssg81
g2574
sg74
(lp2581
g110
asbasbasbag67
(g83
g69
NtRp2582
(dp2583
g72
(dp2584
sg81
g77
sg74
(lp2585
g67
(g88
g69
NtRp2586
(dp2587
g72
(dp2588
g92
g93
ssg81
g2582
sg74
(lp2589
S'now'
p2590
asbag67
(g88
g69
NtRp2591
(dp2592
g72
(dp2593
g99
g100
ssg81
g2582
sg74
(lp2594
S':'
asbag67
(g88
g69
NtRp2595
(dp2596
g72
(dp2597
sg81
g2582
sg74
(lp2598
g67
(g68
g69
NtRp2599
(dp2600
g72
(dp2601
g80
I5
ssg81
g2595
sg74
(lp2602
S'datetime.datetime(2011, 9, 30, 16, 3, 57, 184352)'
p2603
asbasbasbag67
(g83
g69
NtRp2604
(dp2605
g72
(dp2606
sg81
g77
sg74
(lp2607
g67
(g88
g69
NtRp2608
(dp2609
g72
(dp2610
g92
g93
ssg81
g2604
sg74
(lp2611
S'post_vars'
p2612
asbag67
(g88
g69
NtRp2613
(dp2614
g72
(dp2615
g99
g100
ssg81
g2604
sg74
(lp2616
S':'
asbag67
(g88
g69
NtRp2617
(dp2618
g72
(dp2619
sg81
g2604
sg74
(lp2620
g67
(g68
g69
NtRp2621
(dp2622
g72
(dp2623
g80
I5
ssg81
g2617
sg74
(lp2624
g67
(g76
g69
NtRp2625
(dp2626
g72
(dp2627
g80
I4
ssg81
Nsg74
(lp2628
sbasbasbasbag67
(g83
g69
NtRp2629
(dp2630
g72
(dp2631
sg81
g77
sg74
(lp2632
g67
(g88
g69
NtRp2633
(dp2634
g72
(dp2635
g92
g93
ssg81
g2629
sg74
(lp2636
S'url'
p2637
asbag67
(g88
g69
NtRp2638
(dp2639
g72
(dp2640
g99
g100
ssg81
g2629
sg74
(lp2641
S':'
asbag67
(g88
g69
NtRp2642
(dp2643
g72
(dp2644
sg81
g2629
sg74
(lp2645
g67
(g68
g69
NtRp2646
(dp2647
g72
(dp2648
g80
I5
ssg81
g2642
sg74
(lp2649
S'/places/default/index'
p2650
asbasbasbag67
(g83
g69
NtRp2651
(dp2652
g72
(dp2653
sg81
g77
sg74
(lp2654
g67
(g88
g69
NtRp2655
(dp2656
g72
(dp2657
g92
g93
ssg81
g2651
sg74
(lp2658
S'utcnow'
p2659
asbag67
(g88
g69
NtRp2660
(dp2661
g72
(dp2662
g99
g100
ssg81
g2651
sg74
(lp2663
S':'
asbag67
(g88
g69
NtRp2664
(dp2665
g72
(dp2666
sg81
g2651
sg74
(lp2667
g67
(g68
g69
NtRp2668
(dp2669
g72
(dp2670
g80
I5
ssg81
g2664
sg74
(lp2671
S'datetime.datetime(2011, 9, 30, 20, 3, 57, 184409)'
p2672
asbasbasbag67
(g83
g69
NtRp2673
(dp2674
g72
(dp2675
sg81
g77
sg74
(lp2676
g67
(g88
g69
NtRp2677
(dp2678
g72
(dp2679
g92
g93
ssg81
g2673
sg74
(lp2680
S'uuid'
p2681
asbag67
(g88
g69
NtRp2682
(dp2683
g72
(dp2684
g99
g100
ssg81
g2673
sg74
(lp2685
S':'
asbag67
(g88
g69
NtRp2686
(dp2687
g72
(dp2688
sg81
g2673
sg74
(lp2689
g67
(g68
g69
NtRp2690
(dp2691
g72
(dp2692
g80
I5
ssg81
g2686
sg74
(lp2693
S'places/127.0.0.1.2011-09-30.16-03-57.214d89ba-4e13-4834-aab8-7be9051498a0'
p2694
asbasbasbag67
(g83
g69
NtRp2695
(dp2696
g72
(dp2697
sg81
g77
sg74
(lp2698
g67
(g88
g69
NtRp2699
(dp2700
g72
(dp2701
g92
g93
ssg81
g2695
sg74
(lp2702
S'vars'
p2703
asbag67
(g88
g69
NtRp2704
(dp2705
g72
(dp2706
g99
g100
ssg81
g2695
sg74
(lp2707
S':'
asbag67
(g88
g69
NtRp2708
(dp2709
g72
(dp2710
sg81
g2695
sg74
(lp2711
g67
(g68
g69
NtRp2712
(dp2713
g72
(dp2714
g80
I5
ssg81
g2708
sg74
(lp2715
g67
(g76
g69
NtRp2716
(dp2717
g72
(dp2718
g80
I4
ssg81
Nsg74
(lp2719
sbasbasbasbag67
(g83
g69
NtRp2720
(dp2721
g72
(dp2722
sg81
g77
sg74
(lp2723
g67
(g88
g69
NtRp2724
(dp2725
g72
(dp2726
g92
g93
ssg81
g2720
sg74
(lp2727
S'wsgi'
p2728
asbag67
(g88
g69
NtRp2729
(dp2730
g72
(dp2731
g99
g100
ssg81
g2720
sg74
(lp2732
S':'
asbag67
(g88
g69
NtRp2733
(dp2734
g72
(dp2735
sg81
g2720
sg74
(lp2736
g67
(g68
g69
NtRp2737
(dp2738
g72
(dp2739
g80
I5
ssg81
g2733
sg74
(lp2740
g67
(g76
g69
NtRp2741
(dp2742
g72
(dp2743
g80
I4
ssg81
Nsg74
(lp2744
g67
(g83
g69
NtRp2745
(dp2746
g72
(dp2747
sg81
g2741
sg74
(lp2748
g67
(g88
g69
NtRp2749
(dp2750
g72
(dp2751
g92
g93
ssg81
g2745
sg74
(lp2752
S'environ'
p2753
asbag67
(g88
g69
NtRp2754
(dp2755
g72
(dp2756
g99
g100
ssg81
g2745
sg74
(lp2757
S':'
asbag67
(g88
g69
NtRp2758
(dp2759
g72
(dp2760
sg81
g2745
sg74
(lp2761
g67
(g68
g69
NtRp2762
(dp2763
g72
(dp2764
g80
I4
ssg81
g2758
sg74
(lp2765
g67
(g76
g69
NtRp2766
(dp2767
g72
(dp2768
g80
I3
ssg81
Nsg74
(lp2769
g67
(g83
g69
NtRp2770
(dp2771
g72
(dp2772
sg81
g2766
sg74
(lp2773
g67
(g88
g69
NtRp2774
(dp2775
g72
(dp2776
g92
g93
ssg81
g2770
sg74
(lp2777
S'HTTP_ACCEPT'
p2778
asbag67
(g88
g69
NtRp2779
(dp2780
g72
(dp2781
g99
g100
ssg81
g2770
sg74
(lp2782
S':'
asbag67
(g88
g69
NtRp2783
(dp2784
g72
(dp2785
sg81
g2770
sg74
(lp2786
g67
(g68
g69
NtRp2787
(dp2788
g72
(dp2789
g80
I3
ssg81
g2783
sg74
(lp2790
g1383
asbasbasbag67
(g83
g69
NtRp2791
(dp2792
g72
(dp2793
sg81
g2766
sg74
(lp2794
g67
(g88
g69
NtRp2795
(dp2796
g72
(dp2797
g92
g93
ssg81
g2791
sg74
(lp2798
S'HTTP_ACCEPT_CHARSET'
p2799
asbag67
(g88
g69
NtRp2800
(dp2801
g72
(dp2802
g99
g100
ssg81
g2791
sg74
(lp2803
S':'
asbag67
(g88
g69
NtRp2804
(dp2805
g72
(dp2806
sg81
g2791
sg74
(lp2807
g67
(g68
g69
NtRp2808
(dp2809
g72
(dp2810
g80
I3
ssg81
g2804
sg74
(lp2811
g1405
asbasbasbag67
(g83
g69
NtRp2812
(dp2813
g72
(dp2814
sg81
g2766
sg74
(lp2815
g67
(g88
g69
NtRp2816
(dp2817
g72
(dp2818
g92
g93
ssg81
g2812
sg74
(lp2819
S'HTTP_ACCEPT_ENCODING'
p2820
asbag67
(g88
g69
NtRp2821
(dp2822
g72
(dp2823
g99
g100
ssg81
g2812
sg74
(lp2824
S':'
asbag67
(g88
g69
NtRp2825
(dp2826
g72
(dp2827
sg81
g2812
sg74
(lp2828
g67
(g68
g69
NtRp2829
(dp2830
g72
(dp2831
g80
I3
ssg81
g2825
sg74
(lp2832
g1427
asbasbasbag67
(g83
g69
NtRp2833
(dp2834
g72
(dp2835
sg81
g2766
sg74
(lp2836
g67
(g88
g69
NtRp2837
(dp2838
g72
(dp2839
g92
g93
ssg81
g2833
sg74
(lp2840
S'HTTP_ACCEPT_LANGUAGE'
p2841
asbag67
(g88
g69
NtRp2842
(dp2843
g72
(dp2844
g99
g100
ssg81
g2833
sg74
(lp2845
S':'
asbag67
(g88
g69
NtRp2846
(dp2847
g72
(dp2848
sg81
g2833
sg74
(lp2849
g67
(g68
g69
NtRp2850
(dp2851
g72
(dp2852
g80
I3
ssg81
g2846
sg74
(lp2853
g1449
asbasbasbag67
(g83
g69
NtRp2854
(dp2855
g72
(dp2856
sg81
g2766
sg74
(lp2857
g67
(g88
g69
NtRp2858
(dp2859
g72
(dp2860
g92
g93
ssg81
g2854
sg74
(lp2861
S'HTTP_CACHE_CONTROL'
p2862
asbag67
(g88
g69
NtRp2863
(dp2864
g72
(dp2865
g99
g100
ssg81
g2854
sg74
(lp2866
S':'
asbag67
(g88
g69
NtRp2867
(dp2868
g72
(dp2869
sg81
g2854
sg74
(lp2870
g67
(g68
g69
NtRp2871
(dp2872
g72
(dp2873
g80
I3
ssg81
g2867
sg74
(lp2874
g1471
asbasbasbag67
(g83
g69
NtRp2875
(dp2876
g72
(dp2877
sg81
g2766
sg74
(lp2878
g67
(g88
g69
NtRp2879
(dp2880
g72
(dp2881
g92
g93
ssg81
g2875
sg74
(lp2882
S'HTTP_CONNECTION'
p2883
asbag67
(g88
g69
NtRp2884
(dp2885
g72
(dp2886
g99
g100
ssg81
g2875
sg74
(lp2887
S':'
asbag67
(g88
g69
NtRp2888
(dp2889
g72
(dp2890
sg81
g2875
sg74
(lp2891
g67
(g68
g69
NtRp2892
(dp2893
g72
(dp2894
g80
I3
ssg81
g2888
sg74
(lp2895
g1493
asbasbasbag67
(g83
g69
NtRp2896
(dp2897
g72
(dp2898
sg81
g2766
sg74
(lp2899
g67
(g88
g69
NtRp2900
(dp2901
g72
(dp2902
g92
g93
ssg81
g2896
sg74
(lp2903
S'HTTP_COOKIE'
p2904
asbag67
(g88
g69
NtRp2905
(dp2906
g72
(dp2907
g99
g100
ssg81
g2896
sg74
(lp2908
S':'
asbag67
(g88
g69
NtRp2909
(dp2910
g72
(dp2911
sg81
g2896
sg74
(lp2912
g67
(g68
g69
NtRp2913
(dp2914
g72
(dp2915
g80
I3
ssg81
g2909
sg74
(lp2916
g1515
asbasbasbag67
(g83
g69
NtRp2917
(dp2918
g72
(dp2919
sg81
g2766
sg74
(lp2920
g67
(g88
g69
NtRp2921
(dp2922
g72
(dp2923
g92
g93
ssg81
g2917
sg74
(lp2924
S'HTTP_HOST'
p2925
asbag67
(g88
g69
NtRp2926
(dp2927
g72
(dp2928
g99
g100
ssg81
g2917
sg74
(lp2929
S':'
asbag67
(g88
g69
NtRp2930
(dp2931
g72
(dp2932
sg81
g2917
sg74
(lp2933
g67
(g68
g69
NtRp2934
(dp2935
g72
(dp2936
g80
I3
ssg81
g2930
sg74
(lp2937
g1537
asbasbasbag67
(g83
g69
NtRp2938
(dp2939
g72
(dp2940
sg81
g2766
sg74
(lp2941
g67
(g88
g69
NtRp2942
(dp2943
g72
(dp2944
g92
g93
ssg81
g2938
sg74
(lp2945
S'HTTP_USER_AGENT'
p2946
asbag67
(g88
g69
NtRp2947
(dp2948
g72
(dp2949
g99
g100
ssg81
g2938
sg74
(lp2950
S':'
asbag67
(g88
g69
NtRp2951
(dp2952
g72
(dp2953
sg81
g2938
sg74
(lp2954
g67
(g68
g69
NtRp2955
(dp2956
g72
(dp2957
g80
I3
ssg81
g2951
sg74
(lp2958
g1559
asbasbasbag67
(g83
g69
NtRp2959
(dp2960
g72
(dp2961
sg81
g2766
sg74
(lp2962
g67
(g88
g69
NtRp2963
(dp2964
g72
(dp2965
g92
g93
ssg81
g2959
sg74
(lp2966
S'PATH_INFO'
p2967
asbag67
(g88
g69
NtRp2968
(dp2969
g72
(dp2970
g99
g100
ssg81
g2959
sg74
(lp2971
S':'
asbag67
(g88
g69
NtRp2972
(dp2973
g72
(dp2974
sg81
g2959
sg74
(lp2975
g67
(g68
g69
NtRp2976
(dp2977
g72
(dp2978
g80
I3
ssg81
g2972
sg74
(lp2979
g1602
asbasbasbag67
(g83
g69
NtRp2980
(dp2981
g72
(dp2982
sg81
g2766
sg74
(lp2983
g67
(g88
g69
NtRp2984
(dp2985
g72
(dp2986
g92
g93
ssg81
g2980
sg74
(lp2987
S'QUERY_STRING'
p2988
asbag67
(g88
g69
NtRp2989
(dp2990
g72
(dp2991
g99
g100
ssg81
g2980
sg74
(lp2992
S':'
asbag67
(g88
g69
NtRp2993
(dp2994
g72
(dp2995
sg81
g2980
sg74
(lp2996
g67
(g68
g69
NtRp2997
(dp2998
g72
(dp2999
g80
I3
ssg81
g2993
sg74
(lp3000
S''
asbasbasbag67
(g83
g69
NtRp3001
(dp3002
g72
(dp3003
sg81
g2766
sg74
(lp3004
g67
(g88
g69
NtRp3005
(dp3006
g72
(dp3007
g92
g93
ssg81
g3001
sg74
(lp3008
S'REMOTE_ADDR'
p3009
asbag67
(g88
g69
NtRp3010
(dp3011
g72
(dp3012
g99
g100
ssg81
g3001
sg74
(lp3013
S':'
asbag67
(g88
g69
NtRp3014
(dp3015
g72
(dp3016
sg81
g3001
sg74
(lp3017
g67
(g68
g69
NtRp3018
(dp3019
g72
(dp3020
g80
I3
ssg81
g3014
sg74
(lp3021
g200
asbasbasbag67
(g83
g69
NtRp3022
(dp3023
g72
(dp3024
sg81
g2766
sg74
(lp3025
g67
(g88
g69
NtRp3026
(dp3027
g72
(dp3028
g92
g93
ssg81
g3022
sg74
(lp3029
S'REMOTE_PORT'
p3030
asbag67
(g88
g69
NtRp3031
(dp3032
g72
(dp3033
g99
g100
ssg81
g3022
sg74
(lp3034
S':'
asbag67
(g88
g69
NtRp3035
(dp3036
g72
(dp3037
sg81
g3022
sg74
(lp3038
g67
(g68
g69
NtRp3039
(dp3040
g72
(dp3041
g80
I3
ssg81
g3035
sg74
(lp3042
g1666
asbasbasbag67
(g83
g69
NtRp3043
(dp3044
g72
(dp3045
sg81
g2766
sg74
(lp3046
g67
(g88
g69
NtRp3047
(dp3048
g72
(dp3049
g92
g93
ssg81
g3043
sg74
(lp3050
S'REQUEST_METHOD'
p3051
asbag67
(g88
g69
NtRp3052
(dp3053
g72
(dp3054
g99
g100
ssg81
g3043
sg74
(lp3055
S':'
asbag67
(g88
g69
NtRp3056
(dp3057
g72
(dp3058
sg81
g3043
sg74
(lp3059
g67
(g68
g69
NtRp3060
(dp3061
g72
(dp3062
g80
I3
ssg81
g3056
sg74
(lp3063
g1688
asbasbasbag67
(g83
g69
NtRp3064
(dp3065
g72
(dp3066
sg81
g2766
sg74
(lp3067
g67
(g88
g69
NtRp3068
(dp3069
g72
(dp3070
g92
g93
ssg81
g3064
sg74
(lp3071
S'SCRIPT_NAME'
p3072
asbag67
(g88
g69
NtRp3073
(dp3074
g72
(dp3075
g99
g100
ssg81
g3064
sg74
(lp3076
S':'
asbag67
(g88
g69
NtRp3077
(dp3078
g72
(dp3079
sg81
g3064
sg74
(lp3080
g67
(g68
g69
NtRp3081
(dp3082
g72
(dp3083
g80
I3
ssg81
g3077
sg74
(lp3084
S''
asbasbasbag67
(g83
g69
NtRp3085
(dp3086
g72
(dp3087
sg81
g2766
sg74
(lp3088
g67
(g88
g69
NtRp3089
(dp3090
g72
(dp3091
g92
g93
ssg81
g3085
sg74
(lp3092
S'SERVER_NAME'
p3093
asbag67
(g88
g69
NtRp3094
(dp3095
g72
(dp3096
g99
g100
ssg81
g3085
sg74
(lp3097
S':'
asbag67
(g88
g69
NtRp3098
(dp3099
g72
(dp3100
sg81
g3085
sg74
(lp3101
g67
(g68
g69
NtRp3102
(dp3103
g72
(dp3104
g80
I3
ssg81
g3098
sg74
(lp3105
g1731
asbasbasbag67
(g83
g69
NtRp3106
(dp3107
g72
(dp3108
sg81
g2766
sg74
(lp3109
g67
(g88
g69
NtRp3110
(dp3111
g72
(dp3112
g92
g93
ssg81
g3106
sg74
(lp3113
S'SERVER_PORT'
p3114
asbag67
(g88
g69
NtRp3115
(dp3116
g72
(dp3117
g99
g100
ssg81
g3106
sg74
(lp3118
S':'
asbag67
(g88
g69
NtRp3119
(dp3120
g72
(dp3121
sg81
g3106
sg74
(lp3122
g67
(g68
g69
NtRp3123
(dp3124
g72
(dp3125
g80
I3
ssg81
g3119
sg74
(lp3126
g1753
asbasbasbag67
(g83
g69
NtRp3127
(dp3128
g72
(dp3129
sg81
g2766
sg74
(lp3130
g67
(g88
g69
NtRp3131
(dp3132
g72
(dp3133
g92
g93
ssg81
g3127
sg74
(lp3134
S'SERVER_PROTOCOL'
p3135
asbag67
(g88
g69
NtRp3136
(dp3137
g72
(dp3138
g99
g100
ssg81
g3127
sg74
(lp3139
S':'
asbag67
(g88
g69
NtRp3140
(dp3141
g72
(dp3142
sg81
g3127
sg74
(lp3143
g67
(g68
g69
NtRp3144
(dp3145
g72
(dp3146
g80
I3
ssg81
g3140
sg74
(lp3147
g1775
asbasbasbag67
(g83
g69
NtRp3148
(dp3149
g72
(dp3150
sg81
g2766
sg74
(lp3151
g67
(g88
g69
NtRp3152
(dp3153
g72
(dp3154
g92
g93
ssg81
g3148
sg74
(lp3155
S'SERVER_SOFTWARE'
p3156
asbag67
(g88
g69
NtRp3157
(dp3158
g72
(dp3159
g99
g100
ssg81
g3148
sg74
(lp3160
S':'
asbag67
(g88
g69
NtRp3161
(dp3162
g72
(dp3163
sg81
g3148
sg74
(lp3164
g67
(g68
g69
NtRp3165
(dp3166
g72
(dp3167
g80
I3
ssg81
g3161
sg74
(lp3168
g1797
asbasbasbag67
(g83
g69
NtRp3169
(dp3170
g72
(dp3171
sg81
g2766
sg74
(lp3172
g67
(g88
g69
NtRp3173
(dp3174
g72
(dp3175
g92
g93
ssg81
g3169
sg74
(lp3176
S'wsgi.errors'
p3177
asbag67
(g88
g69
NtRp3178
(dp3179
g72
(dp3180
g99
g100
ssg81
g3169
sg74
(lp3181
S':'
asbag67
(g88
g69
NtRp3182
(dp3183
g72
(dp3184
sg81
g3169
sg74
(lp3185
g67
(g68
g69
NtRp3186
(dp3187
g72
(dp3188
g80
I3
ssg81
g3182
sg74
(lp3189
S"<open file '<stderr>', mode 'w' at 0x7f4a416fc270>"
p3190
asbasbasbag67
(g83
g69
NtRp3191
(dp3192
g72
(dp3193
sg81
g2766
sg74
(lp3194
g67
(g88
g69
NtRp3195
(dp3196
g72
(dp3197
g92
g93
ssg81
g3191
sg74
(lp3198
S'wsgi.file_wrapper'
p3199
asbag67
(g88
g69
NtRp3200
(dp3201
g72
(dp3202
g99
g100
ssg81
g3191
sg74
(lp3203
S':'
asbag67
(g88
g69
NtRp3204
(dp3205
g72
(dp3206
sg81
g3191
sg74
(lp3207
g67
(g68
g69
NtRp3208
(dp3209
g72
(dp3210
g80
I3
ssg81
g3204
sg74
(lp3211
S'<class wsgiref.util.FileWrapper at 0x24b4870>'
p3212
asbasbasbag67
(g83
g69
NtRp3213
(dp3214
g72
(dp3215
sg81
g2766
sg74
(lp3216
g67
(g88
g69
NtRp3217
(dp3218
g72
(dp3219
g92
g93
ssg81
g3213
sg74
(lp3220
S'wsgi.input'
p3221
asbag67
(g88
g69
NtRp3222
(dp3223
g72
(dp3224
g99
g100
ssg81
g3213
sg74
(lp3225
S':'
asbag67
(g88
g69
NtRp3226
(dp3227
g72
(dp3228
sg81
g3213
sg74
(lp3229
g67
(g68
g69
NtRp3230
(dp3231
g72
(dp3232
g80
I3
ssg81
g3226
sg74
(lp3233
S'<cStringIO.StringO object at 0x37a7810>'
p3234
asbasbasbag67
(g83
g69
NtRp3235
(dp3236
g72
(dp3237
sg81
g2766
sg74
(lp3238
g67
(g88
g69
NtRp3239
(dp3240
g72
(dp3241
g92
g93
ssg81
g3235
sg74
(lp3242
S'wsgi.multiprocess'
p3243
asbag67
(g88
g69
NtRp3244
(dp3245
g72
(dp3246
g99
g100
ssg81
g3235
sg74
(lp3247
S':'
asbag67
(g88
g69
NtRp3248
(dp3249
g72
(dp3250
sg81
g3235
sg74
(lp3251
g67
(g68
g69
NtRp3252
(dp3253
g72
(dp3254
g80
I3
ssg81
g3248
sg74
(lp3255
g110
asbasbasbag67
(g83
g69
NtRp3256
(dp3257
g72
(dp3258
sg81
g2766
sg74
(lp3259
g67
(g88
g69
NtRp3260
(dp3261
g72
(dp3262
g92
g93
ssg81
g3256
sg74
(lp3263
S'wsgi.multithread'
p3264
asbag67
(g88
g69
NtRp3265
(dp3266
g72
(dp3267
g99
g100
ssg81
g3256
sg74
(lp3268
S':'
asbag67
(g88
g69
NtRp3269
(dp3270
g72
(dp3271
sg81
g3256
sg74
(lp3272
g67
(g68
g69
NtRp3273
(dp3274
g72
(dp3275
g80
I3
ssg81
g3269
sg74
(lp3276
g2037
asbasbasbag67
(g83
g69
NtRp3277
(dp3278
g72
(dp3279
sg81
g2766
sg74
(lp3280
g67
(g88
g69
NtRp3281
(dp3282
g72
(dp3283
g92
g93
ssg81
g3277
sg74
(lp3284
S'wsgi.run_once'
p3285
asbag67
(g88
g69
NtRp3286
(dp3287
g72
(dp3288
g99
g100
ssg81
g3277
sg74
(lp3289
S':'
asbag67
(g88
g69
NtRp3290
(dp3291
g72
(dp3292
sg81
g3277
sg74
(lp3293
g67
(g68
g69
NtRp3294
(dp3295
g72
(dp3296
g80
I3
ssg81
g3290
sg74
(lp3297
g110
asbasbasbag67
(g83
g69
NtRp3298
(dp3299
g72
(dp3300
sg81
g2766
sg74
(lp3301
g67
(g88
g69
NtRp3302
(dp3303
g72
(dp3304
g92
g93
ssg81
g3298
sg74
(lp3305
S'wsgi.url_scheme'
p3306
asbag67
(g88
g69
NtRp3307
(dp3308
g72
(dp3309
g99
g100
ssg81
g3298
sg74
(lp3310
S':'
asbag67
(g88
g69
NtRp3311
(dp3312
g72
(dp3313
sg81
g3298
sg74
(lp3314
g67
(g68
g69
NtRp3315
(dp3316
g72
(dp3317
g80
I3
ssg81
g3311
sg74
(lp3318
g2080
asbasbasbag67
(g83
g69
NtRp3319
(dp3320
g72
(dp3321
sg81
g2766
sg74
(lp3322
g67
(g88
g69
NtRp3323
(dp3324
g72
(dp3325
g92
g93
ssg81
g3319
sg74
(lp3326
S'wsgi.version'
p3327
asbag67
(g88
g69
NtRp3328
(dp3329
g72
(dp3330
g99
g100
ssg81
g3319
sg74
(lp3331
S':'
asbag67
(g88
g69
NtRp3332
(dp3333
g72
(dp3334
sg81
g3319
sg74
(lp3335
g67
(g68
g69
NtRp3336
(dp3337
g72
(dp3338
g80
I3
ssg81
g3332
sg74
(lp3339
S'1'
asbasbasbasbasbasbasbasbasbasbasbasbasbsS'frames'
p3340
(lp3341
(dp3342
S'file'
p3343
S'/home/ian/Dropbox/Web_Pages/web2py-linux/gluon/restricted.py'
p3344
sS'dump'
p3345
(dp3346
S'code'
p3347
S'r"left_sidebar_enabled=right_sidebar_enabled=False...nse.write(\'\\n  </body>\\n</html>\\n\', escape=False)"'
p3348
sS'layer'
p3349
S"'/home/ian/Dropbox/Web_Pages/web2py-linux/applications/places/views/default/index.html'"
p3350
sS'global compile2'
p3351
S'<function compile2>'
p3352
sS'ccode'
p3353
S'undefined'
p3354
ssS'lnum'
p3355
I193
sS'lines'
p3356
(dp3357
I192
S'        else:'
p3358
sI193
S'            ccode = compile2(code,layer)'
p3359
sI194
S'        exec ccode in environment'
p3360
sI195
S'    except HTTP:'
p3361
sI196
S'        raise'
p3362
sI197
S'    except Exception, error:'
p3363
sI188
S"    environment['__file__'] = layer"
p3364
sI189
S'    try:'
p3365
sI190
S'        if type(code) == types.CodeType:'
p3366
sI191
S'            ccode = code'
p3367
ssS'call'
p3368
S'(code=r"left_sidebar_enabled=right_sidebar_enabled=False...nse.write(\'\\n  </body>\\n</html>\\n\', escape=False)", environment={\'A\': <class \'gluon.html.A\'>, \'Auth\': <class \'gluon.tools.Auth\'>, \'B\': <class \'gluon.html.B\'>, \'BEAUTIFY\': <class \'gluon.html.BEAUTIFY\'>, \'BODY\': <class \'gluon.html.BODY\'>, \'BR\': <class \'gluon.html.BR\'>, \'BUTTON\': <class \'gluon.html.BUTTON\'>, \'CAT\': <class \'gluon.html.CAT\'>, \'CENTER\': <class \'gluon.html.CENTER\'>, \'CLEANUP\': <class \'gluon.validators.CLEANUP\'>, ...}, layer=\'/home/ian/Dropbox/Web_Pages/web2py-linux/applications/places/views/default/index.html\')'
p3369
sS'func'
p3370
S'restricted'
p3371
sa(dp3372
g3343
S'/home/ian/Dropbox/Web_Pages/web2py-linux/gluon/restricted.py'
p3373
sg3345
(dp3374
S'builtincompile'
p3375
S'<built-in function compile>'
p3376
sS'code'
p3377
S'r"left_sidebar_enabled=right_sidebar_enabled=False...nse.write(\'\\n  </body>\\n</html>\\n\', escape=False)"'
p3378
sS'code.rstrip'
p3379
S'<built-in method rstrip of str object>'
p3380
sS').replace'
p3381
g3354
sS'layer'
p3382
S"'/home/ian/Dropbox/Web_Pages/web2py-linux/applications/places/views/default/index.html'"
p3383
ssg3355
I179
sg3356
(dp3384
I174
S''
sI175
S'def compile2(code,layer):'
p3385
sI176
S'    """'
p3386
sI177
S"    The +'\\n' is necessary else compile fails when code ends in a comment."
p3387
sI178
S'    """'
p3388
sI179
S"    return compile(code.rstrip().replace('\\r\\n','\\n')+'\\n', layer, 'exec')"
p3389
sI180
S''
sI181
S"def restricted(code, environment=None, layer='Unknown'):"
p3390
sI182
S'    """'
p3391
sI183
S'    runs code in environment and returns the output. if an exception occurs'
p3392
ssg3368
S'(code=r"left_sidebar_enabled=right_sidebar_enabled=False...nse.write(\'\\n  </body>\\n</html>\\n\', escape=False)", layer=\'/home/ian/Dropbox/Web_Pages/web2py-linux/applications/places/views/default/index.html\')'
p3393
sg3370
S'compile2'
p3394
sasS'pyver'
p3395
S'Python 2.7.1+: /usr/bin/python2.7'
p3396
sS'session'
p3397
g67
(g68
g69
NtRp3398
(dp3399
g72
(dp3400
sg74
(lp3401
g67
(g76
g69
NtRp3402
(dp3403
g72
(dp3404
g80
I5
ssg81
Nsg74
(lp3405
g67
(g83
g69
NtRp3406
(dp3407
g72
(dp3408
sg81
g3402
sg74
(lp3409
g67
(g88
g69
NtRp3410
(dp3411
g72
(dp3412
g92
g93
ssg81
g3406
sg74
(lp3413
S'current'
p3414
asbag67
(g88
g69
NtRp3415
(dp3416
g72
(dp3417
g99
g100
ssg81
g3406
sg74
(lp3418
S':'
asbag67
(g88
g69
NtRp3419
(dp3420
g72
(dp3421
sg81
g3406
sg74
(lp3422
g67
(g68
g69
NtRp3423
(dp3424
g72
(dp3425
g80
I5
ssg81
g3419
sg74
(lp3426
S'kitchen'
p3427
asbasbasbag67
(g83
g69
NtRp3428
(dp3429
g72
(dp3430
sg81
g3402
sg74
(lp3431
g67
(g88
g69
NtRp3432
(dp3433
g72
(dp3434
g92
g93
ssg81
g3428
sg74
(lp3435
S'last_query'
p3436
asbag67
(g88
g69
NtRp3437
(dp3438
g72
(dp3439
g99
g100
ssg81
g3428
sg74
(lp3440
S':'
asbag67
(g88
g69
NtRp3441
(dp3442
g72
(dp3443
sg81
g3428
sg74
(lp3444
g67
(g68
g69
NtRp3445
(dp3446
g72
(dp3447
g80
I5
ssg81
g3441
sg74
(lp3448
S'db.tags.id>0'
p3449
asbasbasbag67
(g83
g69
NtRp3450
(dp3451
g72
(dp3452
sg81
g3402
sg74
(lp3453
g67
(g88
g69
NtRp3454
(dp3455
g72
(dp3456
g92
g93
ssg81
g3450
sg74
(lp3457
S'tags'
p3458
asbag67
(g88
g69
NtRp3459
(dp3460
g72
(dp3461
g99
g100
ssg81
g3450
sg74
(lp3462
S':'
asbag67
(g88
g69
NtRp3463
(dp3464
g72
(dp3465
sg81
g3450
sg74
(lp3466
g67
(g68
g69
NtRp3467
(dp3468
g72
(dp3469
g80
I5
ssg81
g3463
sg74
(lp3470
cgluon.dal
Rows_unpickler
p3471
(S"(lp1\n(dp2\nS'tag'\np3\nS'kitchen'\np4\nsS'id'\np5\nI1\nsa(dp6\nS'tag'\np7\nS'kids'\np8\nsS'id'\np9\nI2\nsa(dp10\nS'tag'\np11\nS'research'\np12\nsS'id'\np13\nI3\nsa(dp14\nS'tag'\np15\nS'webdev'\np16\nsS'id'\np17\nI4\nsa(dp18\nS'tag'\np19\nS'photography'\np20\nsS'id'\np21\nI5\nsa(dp22\nS'tag'\np23\nS'entertainment'\np24\nsS'id'\np25\nI6\nsa(dp26\nS'tag'\np27\nS'games'\np28\nsS'id'\np29\nI7\nsa(dp30\nS'tag'\np31\nS'design'\np32\nsS'id'\np33\nI8\nsa(dp34\nS'tag'\np35\nS'research'\np36\nsS'id'\np37\nI9\nsa."
tRp3472
asbasbasbasbasbsS'etype'
p3473
S"<type 'exceptions.SyntaxError'>"
p3474
sS'date'
p3475
S'Fri Sep 30 16:03:57 2011'
p3476
sS'response'
p3477
g67
(g68
g69
NtRp3478
(dp3479
g72
(dp3480
sg74
(lp3481
g67
(g76
g69
NtRp3482
(dp3483
g72
(dp3484
g80
I5
ssg81
Nsg74
(lp3485
g67
(g83
g69
NtRp3486
(dp3487
g72
(dp3488
sg81
g3482
sg74
(lp3489
g67
(g88
g69
NtRp3490
(dp3491
g72
(dp3492
g92
g93
ssg81
g3486
sg74
(lp3493
g165
asbag67
(g88
g69
NtRp3494
(dp3495
g72
(dp3496
g99
g100
ssg81
g3486
sg74
(lp3497
S':'
asbag67
(g88
g69
NtRp3498
(dp3499
g72
(dp3500
sg81
g3486
sg74
(lp3501
g67
(g68
g69
NtRp3502
(dp3503
g72
(dp3504
g80
I5
ssg81
g3498
sg74
(lp3505
S'<cStringIO.StringO object at 0x2cb4f48>'
p3506
asbasbasbag67
(g83
g69
NtRp3507
(dp3508
g72
(dp3509
sg81
g3482
sg74
(lp3510
g67
(g88
g69
NtRp3511
(dp3512
g72
(dp3513
g92
g93
ssg81
g3507
sg74
(lp3514
g231
asbag67
(g88
g69
NtRp3515
(dp3516
g72
(dp3517
g99
g100
ssg81
g3507
sg74
(lp3518
S':'
asbag67
(g88
g69
NtRp3519
(dp3520
g72
(dp3521
sg81
g3507
sg74
(lp3522
g67
(g68
g69
NtRp3523
(dp3524
g72
(dp3525
g80
I5
ssg81
g3519
sg74
(lp3526
g67
(g76
g69
NtRp3527
(dp3528
g72
(dp3529
g80
I4
ssg81
Nsg74
(lp3530
g67
(g83
g69
NtRp3531
(dp3532
g72
(dp3533
sg81
g3527
sg74
(lp3534
g67
(g88
g69
NtRp3535
(dp3536
g72
(dp3537
g92
g93
ssg81
g3531
sg74
(lp3538
S'session_id_places'
p3539
asbag67
(g88
g69
NtRp3540
(dp3541
g72
(dp3542
g99
g100
ssg81
g3531
sg74
(lp3543
S':'
asbag67
(g88
g69
NtRp3544
(dp3545
g72
(dp3546
sg81
g3531
sg74
(lp3547
g67
(g68
g69
NtRp3548
(dp3549
g72
(dp3550
g80
I4
ssg81
g3544
sg74
(lp3551
g67
(g76
g69
NtRp3552
(dp3553
g72
(dp3554
g80
I3
ssg81
Nsg74
(lp3555
g67
(g83
g69
NtRp3556
(dp3557
g72
(dp3558
sg81
g3552
sg74
(lp3559
g67
(g88
g69
NtRp3560
(dp3561
g72
(dp3562
g92
g93
ssg81
g3556
sg74
(lp3563
g281
asbag67
(g88
g69
NtRp3564
(dp3565
g72
(dp3566
g99
g100
ssg81
g3556
sg74
(lp3567
S':'
asbag67
(g88
g69
NtRp3568
(dp3569
g72
(dp3570
sg81
g3556
sg74
(lp3571
g67
(g68
g69
NtRp3572
(dp3573
g72
(dp3574
g80
I3
ssg81
g3568
sg74
(lp3575
S''
asbasbasbag67
(g83
g69
NtRp3576
(dp3577
g72
(dp3578
sg81
g3552
sg74
(lp3579
g67
(g88
g69
NtRp3580
(dp3581
g72
(dp3582
g92
g93
ssg81
g3576
sg74
(lp3583
g302
asbag67
(g88
g69
NtRp3584
(dp3585
g72
(dp3586
g99
g100
ssg81
g3576
sg74
(lp3587
S':'
asbag67
(g88
g69
NtRp3588
(dp3589
g72
(dp3590
sg81
g3576
sg74
(lp3591
g67
(g68
g69
NtRp3592
(dp3593
g72
(dp3594
g80
I3
ssg81
g3588
sg74
(lp3595
S''
asbasbasbag67
(g83
g69
NtRp3596
(dp3597
g72
(dp3598
sg81
g3552
sg74
(lp3599
g67
(g88
g69
NtRp3600
(dp3601
g72
(dp3602
g92
g93
ssg81
g3596
sg74
(lp3603
g323
asbag67
(g88
g69
NtRp3604
(dp3605
g72
(dp3606
g99
g100
ssg81
g3596
sg74
(lp3607
S':'
asbag67
(g88
g69
NtRp3608
(dp3609
g72
(dp3610
sg81
g3596
sg74
(lp3611
g67
(g68
g69
NtRp3612
(dp3613
g72
(dp3614
g80
I3
ssg81
g3608
sg74
(lp3615
S''
asbasbasbag67
(g83
g69
NtRp3616
(dp3617
g72
(dp3618
sg81
g3552
sg74
(lp3619
g67
(g88
g69
NtRp3620
(dp3621
g72
(dp3622
g92
g93
ssg81
g3616
sg74
(lp3623
g344
asbag67
(g88
g69
NtRp3624
(dp3625
g72
(dp3626
g99
g100
ssg81
g3616
sg74
(lp3627
S':'
asbag67
(g88
g69
NtRp3628
(dp3629
g72
(dp3630
sg81
g3616
sg74
(lp3631
g67
(g68
g69
NtRp3632
(dp3633
g72
(dp3634
g80
I3
ssg81
g3628
sg74
(lp3635
S''
asbasbasbag67
(g83
g69
NtRp3636
(dp3637
g72
(dp3638
sg81
g3552
sg74
(lp3639
g67
(g88
g69
NtRp3640
(dp3641
g72
(dp3642
g92
g93
ssg81
g3636
sg74
(lp3643
g365
asbag67
(g88
g69
NtRp3644
(dp3645
g72
(dp3646
g99
g100
ssg81
g3636
sg74
(lp3647
S':'
asbag67
(g88
g69
NtRp3648
(dp3649
g72
(dp3650
sg81
g3636
sg74
(lp3651
g67
(g68
g69
NtRp3652
(dp3653
g72
(dp3654
g80
I3
ssg81
g3648
sg74
(lp3655
S''
asbasbasbag67
(g83
g69
NtRp3656
(dp3657
g72
(dp3658
sg81
g3552
sg74
(lp3659
g67
(g88
g69
NtRp3660
(dp3661
g72
(dp3662
g92
g93
ssg81
g3656
sg74
(lp3663
g386
asbag67
(g88
g69
NtRp3664
(dp3665
g72
(dp3666
g99
g100
ssg81
g3656
sg74
(lp3667
S':'
asbag67
(g88
g69
NtRp3668
(dp3669
g72
(dp3670
sg81
g3656
sg74
(lp3671
g67
(g68
g69
NtRp3672
(dp3673
g72
(dp3674
g80
I3
ssg81
g3668
sg74
(lp3675
S'/'
asbasbasbag67
(g83
g69
NtRp3676
(dp3677
g72
(dp3678
sg81
g3552
sg74
(lp3679
g67
(g88
g69
NtRp3680
(dp3681
g72
(dp3682
g92
g93
ssg81
g3676
sg74
(lp3683
g407
asbag67
(g88
g69
NtRp3684
(dp3685
g72
(dp3686
g99
g100
ssg81
g3676
sg74
(lp3687
S':'
asbag67
(g88
g69
NtRp3688
(dp3689
g72
(dp3690
sg81
g3676
sg74
(lp3691
g67
(g68
g69
NtRp3692
(dp3693
g72
(dp3694
g80
I3
ssg81
g3688
sg74
(lp3695
S''
asbasbasbag67
(g83
g69
NtRp3696
(dp3697
g72
(dp3698
sg81
g3552
sg74
(lp3699
g67
(g88
g69
NtRp3700
(dp3701
g72
(dp3702
g92
g93
ssg81
g3696
sg74
(lp3703
g428
asbag67
(g88
g69
NtRp3704
(dp3705
g72
(dp3706
g99
g100
ssg81
g3696
sg74
(lp3707
S':'
asbag67
(g88
g69
NtRp3708
(dp3709
g72
(dp3710
sg81
g3696
sg74
(lp3711
g67
(g68
g69
NtRp3712
(dp3713
g72
(dp3714
g80
I3
ssg81
g3708
sg74
(lp3715
S''
asbasbasbasbasbasbasbasbasbasbasbag67
(g83
g69
NtRp3716
(dp3717
g72
(dp3718
sg81
g3482
sg74
(lp3719
g67
(g88
g69
NtRp3720
(dp3721
g72
(dp3722
g92
g93
ssg81
g3716
sg74
(lp3723
S'files'
p3724
asbag67
(g88
g69
NtRp3725
(dp3726
g72
(dp3727
g99
g100
ssg81
g3716
sg74
(lp3728
S':'
asbag67
(g88
g69
NtRp3729
(dp3730
g72
(dp3731
sg81
g3716
sg74
(lp3732
g67
(g68
g69
NtRp3733
(dp3734
g72
(dp3735
g80
I5
ssg81
g3729
sg74
(lp3736
g67
(g76
g69
NtRp3737
(dp3738
g72
(dp3739
g80
I4
ssg81
Nsg74
(lp3740
sbasbasbasbag67
(g83
g69
NtRp3741
(dp3742
g72
(dp3743
sg81
g3482
sg74
(lp3744
g67
(g88
g69
NtRp3745
(dp3746
g72
(dp3747
g92
g93
ssg81
g3741
sg74
(lp3748
S'flash'
p3749
asbag67
(g88
g69
NtRp3750
(dp3751
g72
(dp3752
g99
g100
ssg81
g3741
sg74
(lp3753
S':'
asbag67
(g88
g69
NtRp3754
(dp3755
g72
(dp3756
sg81
g3741
sg74
(lp3757
g67
(g68
g69
NtRp3758
(dp3759
g72
(dp3760
g80
I5
ssg81
g3754
sg74
(lp3761
S''
asbasbasbag67
(g83
g69
NtRp3762
(dp3763
g72
(dp3764
sg81
g3482
sg74
(lp3765
g67
(g88
g69
NtRp3766
(dp3767
g72
(dp3768
g92
g93
ssg81
g3762
sg74
(lp3769
S'generic_patterns'
p3770
asbag67
(g88
g69
NtRp3771
(dp3772
g72
(dp3773
g99
g100
ssg81
g3762
sg74
(lp3774
S':'
asbag67
(g88
g69
NtRp3775
(dp3776
g72
(dp3777
sg81
g3762
sg74
(lp3778
g67
(g68
g69
NtRp3779
(dp3780
g72
(dp3781
g80
I5
ssg81
g3775
sg74
(lp3782
g67
(g76
g69
NtRp3783
(dp3784
g72
(dp3785
g80
I4
ssg81
Nsg74
(lp3786
g67
(g83
g69
NtRp3787
(dp3788
g72
(dp3789
sg81
g3783
sg74
(lp3790
g67
(g88
g69
NtRp3791
(dp3792
g72
(dp3793
sg81
g3787
sg74
(lp3794
g67
(g68
g69
NtRp3795
(dp3796
g72
(dp3797
g80
I4
ssg81
g3791
sg74
(lp3798
S'*'
asbasbasbasbasbasbasbag67
(g83
g69
NtRp3799
(dp3800
g72
(dp3801
sg81
g3482
sg74
(lp3802
g67
(g88
g69
NtRp3803
(dp3804
g72
(dp3805
g92
g93
ssg81
g3799
sg74
(lp3806
S'headers'
p3807
asbag67
(g88
g69
NtRp3808
(dp3809
g72
(dp3810
g99
g100
ssg81
g3799
sg74
(lp3811
S':'
asbag67
(g88
g69
NtRp3812
(dp3813
g72
(dp3814
sg81
g3799
sg74
(lp3815
g67
(g68
g69
NtRp3816
(dp3817
g72
(dp3818
g80
I5
ssg81
g3812
sg74
(lp3819
g67
(g76
g69
NtRp3820
(dp3821
g72
(dp3822
g80
I4
ssg81
Nsg74
(lp3823
g67
(g83
g69
NtRp3824
(dp3825
g72
(dp3826
sg81
g3820
sg74
(lp3827
g67
(g88
g69
NtRp3828
(dp3829
g72
(dp3830
g92
g93
ssg81
g3824
sg74
(lp3831
S'Cache-Control'
p3832
asbag67
(g88
g69
NtRp3833
(dp3834
g72
(dp3835
g99
g100
ssg81
g3824
sg74
(lp3836
S':'
asbag67
(g88
g69
NtRp3837
(dp3838
g72
(dp3839
sg81
g3824
sg74
(lp3840
g67
(g68
g69
NtRp3841
(dp3842
g72
(dp3843
g80
I4
ssg81
g3837
sg74
(lp3844
S'no-store, no-cache, must-revalidate, post-check=0, pre-check=0'
p3845
asbasbasbag67
(g83
g69
NtRp3846
(dp3847
g72
(dp3848
sg81
g3820
sg74
(lp3849
g67
(g88
g69
NtRp3850
(dp3851
g72
(dp3852
g92
g93
ssg81
g3846
sg74
(lp3853
S'Content-Type'
p3854
asbag67
(g88
g69
NtRp3855
(dp3856
g72
(dp3857
g99
g100
ssg81
g3846
sg74
(lp3858
S':'
asbag67
(g88
g69
NtRp3859
(dp3860
g72
(dp3861
sg81
g3846
sg74
(lp3862
g67
(g68
g69
NtRp3863
(dp3864
g72
(dp3865
g80
I4
ssg81
g3859
sg74
(lp3866
S'text/html; charset=utf-8'
p3867
asbasbasbag67
(g83
g69
NtRp3868
(dp3869
g72
(dp3870
sg81
g3820
sg74
(lp3871
g67
(g88
g69
NtRp3872
(dp3873
g72
(dp3874
g92
g93
ssg81
g3868
sg74
(lp3875
S'Expires'
p3876
asbag67
(g88
g69
NtRp3877
(dp3878
g72
(dp3879
g99
g100
ssg81
g3868
sg74
(lp3880
S':'
asbag67
(g88
g69
NtRp3881
(dp3882
g72
(dp3883
sg81
g3868
sg74
(lp3884
g67
(g68
g69
NtRp3885
(dp3886
g72
(dp3887
g80
I4
ssg81
g3881
sg74
(lp3888
S'Fri, 30 Sep 2011 20:03:57 GMT'
p3889
asbasbasbag67
(g83
g69
NtRp3890
(dp3891
g72
(dp3892
sg81
g3820
sg74
(lp3893
g67
(g88
g69
NtRp3894
(dp3895
g72
(dp3896
g92
g93
ssg81
g3890
sg74
(lp3897
S'Pragma'
p3898
asbag67
(g88
g69
NtRp3899
(dp3900
g72
(dp3901
g99
g100
ssg81
g3890
sg74
(lp3902
S':'
asbag67
(g88
g69
NtRp3903
(dp3904
g72
(dp3905
sg81
g3890
sg74
(lp3906
g67
(g68
g69
NtRp3907
(dp3908
g72
(dp3909
g80
I4
ssg81
g3903
sg74
(lp3910
S'no-cache'
p3911
asbasbasbag67
(g83
g69
NtRp3912
(dp3913
g72
(dp3914
sg81
g3820
sg74
(lp3915
g67
(g88
g69
NtRp3916
(dp3917
g72
(dp3918
g92
g93
ssg81
g3912
sg74
(lp3919
S'X-Powered-By'
p3920
asbag67
(g88
g69
NtRp3921
(dp3922
g72
(dp3923
g99
g100
ssg81
g3912
sg74
(lp3924
S':'
asbag67
(g88
g69
NtRp3925
(dp3926
g72
(dp3927
sg81
g3912
sg74
(lp3928
g67
(g68
g69
NtRp3929
(dp3930
g72
(dp3931
g80
I4
ssg81
g3925
sg74
(lp3932
S'web2py'
p3933
asbasbasbasbasbasbasbag67
(g83
g69
NtRp3934
(dp3935
g72
(dp3936
sg81
g3482
sg74
(lp3937
g67
(g88
g69
NtRp3938
(dp3939
g72
(dp3940
g92
g93
ssg81
g3934
sg74
(lp3941
S'menu'
p3942
asbag67
(g88
g69
NtRp3943
(dp3944
g72
(dp3945
g99
g100
ssg81
g3934
sg74
(lp3946
S':'
asbag67
(g88
g69
NtRp3947
(dp3948
g72
(dp3949
sg81
g3934
sg74
(lp3950
g67
(g68
g69
NtRp3951
(dp3952
g72
(dp3953
g80
I5
ssg81
g3947
sg74
(lp3954
g67
(g76
g69
NtRp3955
(dp3956
g72
(dp3957
g80
I4
ssg81
Nsg74
(lp3958
g67
(g83
g69
NtRp3959
(dp3960
g72
(dp3961
sg81
g3955
sg74
(lp3962
g67
(g88
g69
NtRp3963
(dp3964
g72
(dp3965
sg81
g3959
sg74
(lp3966
g67
(g68
g69
NtRp3967
(dp3968
g72
(dp3969
g80
I4
ssg81
g3963
sg74
(lp3970
g67
(g76
g69
NtRp3971
(dp3972
g72
(dp3973
g80
I3
ssg81
Nsg74
(lp3974
g67
(g83
g69
NtRp3975
(dp3976
g72
(dp3977
sg81
g3971
sg74
(lp3978
g67
(g88
g69
NtRp3979
(dp3980
g72
(dp3981
sg81
g3975
sg74
(lp3982
g67
(g68
g69
NtRp3983
(dp3984
g72
(dp3985
g80
I3
ssg81
g3979
sg74
(lp3986
cgluon.languages
lazyT_unpickle
p3987
(S't\x04\x00\x00\x00Home'
tRp3988
asbasbasbag67
(g83
g69
NtRp3989
(dp3990
g72
(dp3991
sg81
g3971
sg74
(lp3992
g67
(g88
g69
NtRp3993
(dp3994
g72
(dp3995
sg81
g3989
sg74
(lp3996
g67
(g68
g69
NtRp3997
(dp3998
g72
(dp3999
g80
I3
ssg81
g3993
sg74
(lp4000
g110
asbasbasbag67
(g83
g69
NtRp4001
(dp4002
g72
(dp4003
sg81
g3971
sg74
(lp4004
g67
(g88
g69
NtRp4005
(dp4006
g72
(dp4007
sg81
g4001
sg74
(lp4008
g67
(g68
g69
NtRp4009
(dp4010
g72
(dp4011
g80
I3
ssg81
g4005
sg74
(lp4012
S'/places/default/index'
p4013
asbasbasbag67
(g83
g69
NtRp4014
(dp4015
g72
(dp4016
sg81
g3971
sg74
(lp4017
g67
(g88
g69
NtRp4018
(dp4019
g72
(dp4020
sg81
g4014
sg74
(lp4021
g67
(g68
g69
NtRp4022
(dp4023
g72
(dp4024
g80
I3
ssg81
g4018
sg74
(lp4025
g67
(g76
g69
NtRp4026
(dp4027
g72
(dp4028
g80
I2
ssg81
Nsg74
(lp4029
sbasbasbasbasbasbasbasbag67
(g83
g69
NtRp4030
(dp4031
g72
(dp4032
sg81
g3955
sg74
(lp4033
g67
(g88
g69
NtRp4034
(dp4035
g72
(dp4036
sg81
g4030
sg74
(lp4037
g67
(g68
g69
NtRp4038
(dp4039
g72
(dp4040
g80
I4
ssg81
g4034
sg74
(lp4041
g67
(g76
g69
NtRp4042
(dp4043
g72
(dp4044
g80
I3
ssg81
Nsg74
(lp4045
g67
(g83
g69
NtRp4046
(dp4047
g72
(dp4048
sg81
g4042
sg74
(lp4049
g67
(g88
g69
NtRp4050
(dp4051
g72
(dp4052
sg81
g4046
sg74
(lp4053
g67
(g68
g69
NtRp4054
(dp4055
g72
(dp4056
g80
I3
ssg81
g4050
sg74
(lp4057
g3987
(S's\x08\x00\x00\x00This App'
tRp4058
asbasbasbag67
(g83
g69
NtRp4059
(dp4060
g72
(dp4061
sg81
g4042
sg74
(lp4062
g67
(g88
g69
NtRp4063
(dp4064
g72
(dp4065
sg81
g4059
sg74
(lp4066
g67
(g68
g69
NtRp4067
(dp4068
g72
(dp4069
g80
I3
ssg81
g4063
sg74
(lp4070
g110
asbasbasbag67
(g83
g69
NtRp4071
(dp4072
g72
(dp4073
sg81
g4042
sg74
(lp4074
g67
(g88
g69
NtRp4075
(dp4076
g72
(dp4077
sg81
g4071
sg74
(lp4078
g67
(g68
g69
NtRp4079
(dp4080
g72
(dp4081
g80
I3
ssg81
g4075
sg74
(lp4082
S'/admin/default/design/places'
p4083
asbasbasbag67
(g83
g69
NtRp4084
(dp4085
g72
(dp4086
sg81
g4042
sg74
(lp4087
g67
(g88
g69
NtRp4088
(dp4089
g72
(dp4090
sg81
g4084
sg74
(lp4091
g67
(g68
g69
NtRp4092
(dp4093
g72
(dp4094
g80
I3
ssg81
g4088
sg74
(lp4095
g67
(g76
g69
NtRp4096
(dp4097
g72
(dp4098
g80
I2
ssg81
Nsg74
(lp4099
g67
(g83
g69
NtRp4100
(dp4101
g72
(dp4102
sg81
g4096
sg74
(lp4103
g67
(g88
g69
NtRp4104
(dp4105
g72
(dp4106
sg81
g4100
sg74
(lp4107
g67
(g68
g69
NtRp4108
(dp4109
g72
(dp4110
g80
I2
ssg81
g4104
sg74
(lp4111
g67
(g76
g69
NtRp4112
(dp4113
g72
(dp4114
g80
I1
ssg81
Nsg74
(lp4115
g67
(g83
g69
NtRp4116
(dp4117
g72
(dp4118
sg81
g4112
sg74
(lp4119
g67
(g88
g69
NtRp4120
(dp4121
g72
(dp4122
sg81
g4116
sg74
(lp4123
g67
(g68
g69
NtRp4124
(dp4125
g72
(dp4126
g80
I1
ssg81
g4120
sg74
(lp4127
g3987
(S't\n\x00\x00\x00Controller'
tRp4128
asbasbasbag67
(g83
g69
NtRp4129
(dp4130
g72
(dp4131
sg81
g4112
sg74
(lp4132
g67
(g88
g69
NtRp4133
(dp4134
g72
(dp4135
sg81
g4129
sg74
(lp4136
g67
(g68
g69
NtRp4137
(dp4138
g72
(dp4139
g80
I1
ssg81
g4133
sg74
(lp4140
I00
asbasbasbag67
(g83
g69
NtRp4141
(dp4142
g72
(dp4143
sg81
g4112
sg74
(lp4144
g67
(g88
g69
NtRp4145
(dp4146
g72
(dp4147
sg81
g4141
sg74
(lp4148
g67
(g68
g69
NtRp4149
(dp4150
g72
(dp4151
g80
I1
ssg81
g4145
sg74
(lp4152
S'/admin/default/edit/places/controllers/default.py'
p4153
asbasbasbasbasbasbasbag67
(g83
g69
NtRp4154
(dp4155
g72
(dp4156
sg81
g4096
sg74
(lp4157
g67
(g88
g69
NtRp4158
(dp4159
g72
(dp4160
sg81
g4154
sg74
(lp4161
g67
(g68
g69
NtRp4162
(dp4163
g72
(dp4164
g80
I2
ssg81
g4158
sg74
(lp4165
g67
(g76
g69
NtRp4166
(dp4167
g72
(dp4168
g80
I1
ssg81
Nsg74
(lp4169
g67
(g83
g69
NtRp4170
(dp4171
g72
(dp4172
sg81
g4166
sg74
(lp4173
g67
(g88
g69
NtRp4174
(dp4175
g72
(dp4176
sg81
g4170
sg74
(lp4177
g67
(g68
g69
NtRp4178
(dp4179
g72
(dp4180
g80
I1
ssg81
g4174
sg74
(lp4181
g3987
(S't\x04\x00\x00\x00View'
tRp4182
asbasbasbag67
(g83
g69
NtRp4183
(dp4184
g72
(dp4185
sg81
g4166
sg74
(lp4186
g67
(g88
g69
NtRp4187
(dp4188
g72
(dp4189
sg81
g4183
sg74
(lp4190
g67
(g68
g69
NtRp4191
(dp4192
g72
(dp4193
g80
I1
ssg81
g4187
sg74
(lp4194
I00
asbasbasbag67
(g83
g69
NtRp4195
(dp4196
g72
(dp4197
sg81
g4166
sg74
(lp4198
g67
(g88
g69
NtRp4199
(dp4200
g72
(dp4201
sg81
g4195
sg74
(lp4202
g67
(g68
g69
NtRp4203
(dp4204
g72
(dp4205
g80
I1
ssg81
g4199
sg74
(lp4206
S'/admin/default/edit/places/views/default/index.html'
p4207
asbasbasbasbasbasbasbag67
(g83
g69
NtRp4208
(dp4209
g72
(dp4210
sg81
g4096
sg74
(lp4211
g67
(g88
g69
NtRp4212
(dp4213
g72
(dp4214
sg81
g4208
sg74
(lp4215
g67
(g68
g69
NtRp4216
(dp4217
g72
(dp4218
g80
I2
ssg81
g4212
sg74
(lp4219
g67
(g76
g69
NtRp4220
(dp4221
g72
(dp4222
g80
I1
ssg81
Nsg74
(lp4223
g67
(g83
g69
NtRp4224
(dp4225
g72
(dp4226
sg81
g4220
sg74
(lp4227
g67
(g88
g69
NtRp4228
(dp4229
g72
(dp4230
sg81
g4224
sg74
(lp4231
g67
(g68
g69
NtRp4232
(dp4233
g72
(dp4234
g80
I1
ssg81
g4228
sg74
(lp4235
g3987
(S't\x06\x00\x00\x00Layout'
tRp4236
asbasbasbag67
(g83
g69
NtRp4237
(dp4238
g72
(dp4239
sg81
g4220
sg74
(lp4240
g67
(g88
g69
NtRp4241
(dp4242
g72
(dp4243
sg81
g4237
sg74
(lp4244
g67
(g68
g69
NtRp4245
(dp4246
g72
(dp4247
g80
I1
ssg81
g4241
sg74
(lp4248
I00
asbasbasbag67
(g83
g69
NtRp4249
(dp4250
g72
(dp4251
sg81
g4220
sg74
(lp4252
g67
(g88
g69
NtRp4253
(dp4254
g72
(dp4255
sg81
g4249
sg74
(lp4256
g67
(g68
g69
NtRp4257
(dp4258
g72
(dp4259
g80
I1
ssg81
g4253
sg74
(lp4260
S'/admin/default/edit/places/views/layout.html'
p4261
asbasbasbasbasbasbasbag67
(g83
g69
NtRp4262
(dp4263
g72
(dp4264
sg81
g4096
sg74
(lp4265
g67
(g88
g69
NtRp4266
(dp4267
g72
(dp4268
sg81
g4262
sg74
(lp4269
g67
(g68
g69
NtRp4270
(dp4271
g72
(dp4272
g80
I2
ssg81
g4266
sg74
(lp4273
g67
(g76
g69
NtRp4274
(dp4275
g72
(dp4276
g80
I1
ssg81
Nsg74
(lp4277
g67
(g83
g69
NtRp4278
(dp4279
g72
(dp4280
sg81
g4274
sg74
(lp4281
g67
(g88
g69
NtRp4282
(dp4283
g72
(dp4284
sg81
g4278
sg74
(lp4285
g67
(g68
g69
NtRp4286
(dp4287
g72
(dp4288
g80
I1
ssg81
g4282
sg74
(lp4289
g3987
(S't\n\x00\x00\x00Stylesheet'
tRp4290
asbasbasbag67
(g83
g69
NtRp4291
(dp4292
g72
(dp4293
sg81
g4274
sg74
(lp4294
g67
(g88
g69
NtRp4295
(dp4296
g72
(dp4297
sg81
g4291
sg74
(lp4298
g67
(g68
g69
NtRp4299
(dp4300
g72
(dp4301
g80
I1
ssg81
g4295
sg74
(lp4302
I00
asbasbasbag67
(g83
g69
NtRp4303
(dp4304
g72
(dp4305
sg81
g4274
sg74
(lp4306
g67
(g88
g69
NtRp4307
(dp4308
g72
(dp4309
sg81
g4303
sg74
(lp4310
g67
(g68
g69
NtRp4311
(dp4312
g72
(dp4313
g80
I1
ssg81
g4307
sg74
(lp4314
S'/admin/default/edit/places/static/base.css'
p4315
asbasbasbasbasbasbasbag67
(g83
g69
NtRp4316
(dp4317
g72
(dp4318
sg81
g4096
sg74
(lp4319
g67
(g88
g69
NtRp4320
(dp4321
g72
(dp4322
sg81
g4316
sg74
(lp4323
g67
(g68
g69
NtRp4324
(dp4325
g72
(dp4326
g80
I2
ssg81
g4320
sg74
(lp4327
g67
(g76
g69
NtRp4328
(dp4329
g72
(dp4330
g80
I1
ssg81
Nsg74
(lp4331
g67
(g83
g69
NtRp4332
(dp4333
g72
(dp4334
sg81
g4328
sg74
(lp4335
g67
(g88
g69
NtRp4336
(dp4337
g72
(dp4338
sg81
g4332
sg74
(lp4339
g67
(g68
g69
NtRp4340
(dp4341
g72
(dp4342
g80
I1
ssg81
g4336
sg74
(lp4343
g3987
(S's\x08\x00\x00\x00DB Model'
tRp4344
asbasbasbag67
(g83
g69
NtRp4345
(dp4346
g72
(dp4347
sg81
g4328
sg74
(lp4348
g67
(g88
g69
NtRp4349
(dp4350
g72
(dp4351
sg81
g4345
sg74
(lp4352
g67
(g68
g69
NtRp4353
(dp4354
g72
(dp4355
g80
I1
ssg81
g4349
sg74
(lp4356
I00
asbasbasbag67
(g83
g69
NtRp4357
(dp4358
g72
(dp4359
sg81
g4328
sg74
(lp4360
g67
(g88
g69
NtRp4361
(dp4362
g72
(dp4363
sg81
g4357
sg74
(lp4364
g67
(g68
g69
NtRp4365
(dp4366
g72
(dp4367
g80
I1
ssg81
g4361
sg74
(lp4368
S'/admin/default/edit/places/models/db.py'
p4369
asbasbasbasbasbasbasbag67
(g83
g69
NtRp4370
(dp4371
g72
(dp4372
sg81
g4096
sg74
(lp4373
g67
(g88
g69
NtRp4374
(dp4375
g72
(dp4376
sg81
g4370
sg74
(lp4377
g67
(g68
g69
NtRp4378
(dp4379
g72
(dp4380
g80
I2
ssg81
g4374
sg74
(lp4381
g67
(g76
g69
NtRp4382
(dp4383
g72
(dp4384
g80
I1
ssg81
Nsg74
(lp4385
g67
(g83
g69
NtRp4386
(dp4387
g72
(dp4388
sg81
g4382
sg74
(lp4389
g67
(g88
g69
NtRp4390
(dp4391
g72
(dp4392
sg81
g4386
sg74
(lp4393
g67
(g68
g69
NtRp4394
(dp4395
g72
(dp4396
g80
I1
ssg81
g4390
sg74
(lp4397
g3987
(S's\n\x00\x00\x00Menu Model'
tRp4398
asbasbasbag67
(g83
g69
NtRp4399
(dp4400
g72
(dp4401
sg81
g4382
sg74
(lp4402
g67
(g88
g69
NtRp4403
(dp4404
g72
(dp4405
sg81
g4399
sg74
(lp4406
g67
(g68
g69
NtRp4407
(dp4408
g72
(dp4409
g80
I1
ssg81
g4403
sg74
(lp4410
I00
asbasbasbag67
(g83
g69
NtRp4411
(dp4412
g72
(dp4413
sg81
g4382
sg74
(lp4414
g67
(g88
g69
NtRp4415
(dp4416
g72
(dp4417
sg81
g4411
sg74
(lp4418
g67
(g68
g69
NtRp4419
(dp4420
g72
(dp4421
g80
I1
ssg81
g4415
sg74
(lp4422
S'/admin/default/edit/places/models/menu.py'
p4423
asbasbasbasbasbasbasbag67
(g83
g69
NtRp4424
(dp4425
g72
(dp4426
sg81
g4096
sg74
(lp4427
g67
(g88
g69
NtRp4428
(dp4429
g72
(dp4430
sg81
g4424
sg74
(lp4431
g67
(g68
g69
NtRp4432
(dp4433
g72
(dp4434
g80
I2
ssg81
g4428
sg74
(lp4435
g67
(g76
g69
NtRp4436
(dp4437
g72
(dp4438
g80
I1
ssg81
Nsg74
(lp4439
g67
(g83
g69
NtRp4440
(dp4441
g72
(dp4442
sg81
g4436
sg74
(lp4443
g67
(g88
g69
NtRp4444
(dp4445
g72
(dp4446
sg81
g4440
sg74
(lp4447
g67
(g68
g69
NtRp4448
(dp4449
g72
(dp4450
g80
I1
ssg81
g4444
sg74
(lp4451
g3987
(S't\x08\x00\x00\x00Database'
tRp4452
asbasbasbag67
(g83
g69
NtRp4453
(dp4454
g72
(dp4455
sg81
g4436
sg74
(lp4456
g67
(g88
g69
NtRp4457
(dp4458
g72
(dp4459
sg81
g4453
sg74
(lp4460
g67
(g68
g69
NtRp4461
(dp4462
g72
(dp4463
g80
I1
ssg81
g4457
sg74
(lp4464
I00
asbasbasbag67
(g83
g69
NtRp4465
(dp4466
g72
(dp4467
sg81
g4436
sg74
(lp4468
g67
(g88
g69
NtRp4469
(dp4470
g72
(dp4471
sg81
g4465
sg74
(lp4472
g67
(g68
g69
NtRp4473
(dp4474
g72
(dp4475
g80
I1
ssg81
g4469
sg74
(lp4476
S'/places/appadmin/index'
p4477
asbasbasbasbasbasbasbag67
(g83
g69
NtRp4478
(dp4479
g72
(dp4480
sg81
g4096
sg74
(lp4481
g67
(g88
g69
NtRp4482
(dp4483
g72
(dp4484
sg81
g4478
sg74
(lp4485
g67
(g68
g69
NtRp4486
(dp4487
g72
(dp4488
g80
I2
ssg81
g4482
sg74
(lp4489
g67
(g76
g69
NtRp4490
(dp4491
g72
(dp4492
g80
I1
ssg81
Nsg74
(lp4493
g67
(g83
g69
NtRp4494
(dp4495
g72
(dp4496
sg81
g4490
sg74
(lp4497
g67
(g88
g69
NtRp4498
(dp4499
g72
(dp4500
sg81
g4494
sg74
(lp4501
g67
(g68
g69
NtRp4502
(dp4503
g72
(dp4504
g80
I1
ssg81
g4498
sg74
(lp4505
g3987
(S't\x06\x00\x00\x00Errors'
tRp4506
asbasbasbag67
(g83
g69
NtRp4507
(dp4508
g72
(dp4509
sg81
g4490
sg74
(lp4510
g67
(g88
g69
NtRp4511
(dp4512
g72
(dp4513
sg81
g4507
sg74
(lp4514
g67
(g68
g69
NtRp4515
(dp4516
g72
(dp4517
g80
I1
ssg81
g4511
sg74
(lp4518
I00
asbasbasbag67
(g83
g69
NtRp4519
(dp4520
g72
(dp4521
sg81
g4490
sg74
(lp4522
g67
(g88
g69
NtRp4523
(dp4524
g72
(dp4525
sg81
g4519
sg74
(lp4526
g67
(g68
g69
NtRp4527
(dp4528
g72
(dp4529
g80
I1
ssg81
g4523
sg74
(lp4530
S'/admin/default/errors/places'
p4531
asbasbasbasbasbasbasbag67
(g83
g69
NtRp4532
(dp4533
g72
(dp4534
sg81
g4096
sg74
(lp4535
g67
(g88
g69
NtRp4536
(dp4537
g72
(dp4538
sg81
g4532
sg74
(lp4539
g67
(g68
g69
NtRp4540
(dp4541
g72
(dp4542
g80
I2
ssg81
g4536
sg74
(lp4543
g67
(g76
g69
NtRp4544
(dp4545
g72
(dp4546
g80
I1
ssg81
Nsg74
(lp4547
g67
(g83
g69
NtRp4548
(dp4549
g72
(dp4550
sg81
g4544
sg74
(lp4551
g67
(g88
g69
NtRp4552
(dp4553
g72
(dp4554
sg81
g4548
sg74
(lp4555
g67
(g68
g69
NtRp4556
(dp4557
g72
(dp4558
g80
I1
ssg81
g4552
sg74
(lp4559
g3987
(S't\x05\x00\x00\x00About'
tRp4560
asbasbasbag67
(g83
g69
NtRp4561
(dp4562
g72
(dp4563
sg81
g4544
sg74
(lp4564
g67
(g88
g69
NtRp4565
(dp4566
g72
(dp4567
sg81
g4561
sg74
(lp4568
g67
(g68
g69
NtRp4569
(dp4570
g72
(dp4571
g80
I1
ssg81
g4565
sg74
(lp4572
I00
asbasbasbag67
(g83
g69
NtRp4573
(dp4574
g72
(dp4575
sg81
g4544
sg74
(lp4576
g67
(g88
g69
NtRp4577
(dp4578
g72
(dp4579
sg81
g4573
sg74
(lp4580
g67
(g68
g69
NtRp4581
(dp4582
g72
(dp4583
g80
I1
ssg81
g4577
sg74
(lp4584
S'/admin/default/about/places'
p4585
asbasbasbasbasbasbasbasbasbasbasbasbasbasbasbag67
(g83
g69
NtRp4586
(dp4587
g72
(dp4588
sg81
g3955
sg74
(lp4589
g67
(g88
g69
NtRp4590
(dp4591
g72
(dp4592
sg81
g4586
sg74
(lp4593
g67
(g68
g69
NtRp4594
(dp4595
g72
(dp4596
g80
I4
ssg81
g4590
sg74
(lp4597
g67
(g76
g69
NtRp4598
(dp4599
g72
(dp4600
g80
I3
ssg81
Nsg74
(lp4601
g67
(g83
g69
NtRp4602
(dp4603
g72
(dp4604
sg81
g4598
sg74
(lp4605
g67
(g88
g69
NtRp4606
(dp4607
g72
(dp4608
sg81
g4602
sg74
(lp4609
g67
(g68
g69
NtRp4610
(dp4611
g72
(dp4612
g80
I3
ssg81
g4606
sg74
(lp4613
g3987
(S't\t\x00\x00\x00Resources'
tRp4614
asbasbasbag67
(g83
g69
NtRp4615
(dp4616
g72
(dp4617
sg81
g4598
sg74
(lp4618
g67
(g88
g69
NtRp4619
(dp4620
g72
(dp4621
sg81
g4615
sg74
(lp4622
g67
(g68
g69
NtRp4623
(dp4624
g72
(dp4625
g80
I3
ssg81
g4619
sg74
(lp4626
g110
asbasbasbag67
(g83
g69
NtRp4627
(dp4628
g72
(dp4629
sg81
g4598
sg74
(lp4630
g67
(g88
g69
NtRp4631
(dp4632
g72
(dp4633
sg81
g4627
sg74
(lp4634
g67
(g68
g69
NtRp4635
(dp4636
g72
(dp4637
g80
I3
ssg81
g4631
sg74
(lp4638
S'None'
p4639
asbasbasbag67
(g83
g69
NtRp4640
(dp4641
g72
(dp4642
sg81
g4598
sg74
(lp4643
g67
(g88
g69
NtRp4644
(dp4645
g72
(dp4646
sg81
g4640
sg74
(lp4647
g67
(g68
g69
NtRp4648
(dp4649
g72
(dp4650
g80
I3
ssg81
g4644
sg74
(lp4651
g67
(g76
g69
NtRp4652
(dp4653
g72
(dp4654
g80
I2
ssg81
Nsg74
(lp4655
g67
(g83
g69
NtRp4656
(dp4657
g72
(dp4658
sg81
g4652
sg74
(lp4659
g67
(g88
g69
NtRp4660
(dp4661
g72
(dp4662
sg81
g4656
sg74
(lp4663
g67
(g68
g69
NtRp4664
(dp4665
g72
(dp4666
g80
I2
ssg81
g4660
sg74
(lp4667
g67
(g76
g69
NtRp4668
(dp4669
g72
(dp4670
g80
I1
ssg81
Nsg74
(lp4671
g67
(g83
g69
NtRp4672
(dp4673
g72
(dp4674
sg81
g4668
sg74
(lp4675
g67
(g88
g69
NtRp4676
(dp4677
g72
(dp4678
sg81
g4672
sg74
(lp4679
g67
(g68
g69
NtRp4680
(dp4681
g72
(dp4682
g80
I1
ssg81
g4676
sg74
(lp4683
g3987
(S't\r\x00\x00\x00Documentation'
tRp4684
asbasbasbag67
(g83
g69
NtRp4685
(dp4686
g72
(dp4687
sg81
g4668
sg74
(lp4688
g67
(g88
g69
NtRp4689
(dp4690
g72
(dp4691
sg81
g4685
sg74
(lp4692
g67
(g68
g69
NtRp4693
(dp4694
g72
(dp4695
g80
I1
ssg81
g4689
sg74
(lp4696
I00
asbasbasbag67
(g83
g69
NtRp4697
(dp4698
g72
(dp4699
sg81
g4668
sg74
(lp4700
g67
(g88
g69
NtRp4701
(dp4702
g72
(dp4703
sg81
g4697
sg74
(lp4704
g67
(g68
g69
NtRp4705
(dp4706
g72
(dp4707
g80
I1
ssg81
g4701
sg74
(lp4708
S'http://www.web2py.com/book'
p4709
asbasbasbag67
(g83
g69
NtRp4710
(dp4711
g72
(dp4712
sg81
g4668
sg74
(lp4713
g67
(g88
g69
NtRp4714
(dp4715
g72
(dp4716
sg81
g4710
sg74
(lp4717
g67
(g68
g69
NtRp4718
(dp4719
g72
(dp4720
g80
I1
ssg81
g4714
sg74
(lp4721
(lp4722
(g3987
(S't\x07\x00\x00\x00Preface'
tRp4723
I00
S'http://www.web2py.com/book/default/chapter/00'
p4724
tp4725
a(g3987
(S't\x0c\x00\x00\x00Introduction'
tRp4726
I00
S'http://www.web2py.com/book/default/chapter/01'
p4727
tp4728
a(g3987
(S't\x06\x00\x00\x00Python'
tRp4729
I00
S'http://www.web2py.com/book/default/chapter/02'
p4730
tp4731
a(g3987
(S't\x08\x00\x00\x00Overview'
tRp4732
I00
S'http://www.web2py.com/book/default/chapter/03'
p4733
tp4734
a(g3987
(S's\x08\x00\x00\x00The Core'
tRp4735
I00
S'http://www.web2py.com/book/default/chapter/04'
p4736
tp4737
a(g3987
(S's\t\x00\x00\x00The Views'
tRp4738
I00
S'http://www.web2py.com/book/default/chapter/05'
p4739
tp4740
a(g3987
(S't\x08\x00\x00\x00Database'
tRp4741
I00
S'http://www.web2py.com/book/default/chapter/06'
p4742
tp4743
a(g3987
(S's\x14\x00\x00\x00Forms and Validators'
tRp4744
I00
S'http://www.web2py.com/book/default/chapter/07'
p4745
tp4746
a(g3987
(S's\x0e\x00\x00\x00Access Control'
tRp4747
I00
S'http://www.web2py.com/book/default/chapter/08'
p4748
tp4749
a(g3987
(S't\x08\x00\x00\x00Services'
tRp4750
I00
S'http://www.web2py.com/book/default/chapter/09'
p4751
tp4752
a(g3987
(S's\x0c\x00\x00\x00Ajax Recipes'
tRp4753
I00
S'http://www.web2py.com/book/default/chapter/10'
p4754
tp4755
a(g3987
(S's\x12\x00\x00\x00Deployment Recipes'
tRp4756
I00
S'http://www.web2py.com/book/default/chapter/11'
p4757
tp4758
a(g3987
(S's\r\x00\x00\x00Other Recipes'
tRp4759
I00
S'http://www.web2py.com/book/default/chapter/12'
p4760
tp4761
a(g3987
(S's\r\x00\x00\x00Buy this book'
tRp4762
I00
S'http://stores.lulu.com/web2py'
p4763
tp4764
aasbasbasbasbasbasbasbag67
(g83
g69
NtRp4765
(dp4766
g72
(dp4767
sg81
g4652
sg74
(lp4768
g67
(g88
g69
NtRp4769
(dp4770
g72
(dp4771
sg81
g4765
sg74
(lp4772
g67
(g68
g69
NtRp4773
(dp4774
g72
(dp4775
g80
I2
ssg81
g4769
sg74
(lp4776
g67
(g76
g69
NtRp4777
(dp4778
g72
(dp4779
g80
I1
ssg81
Nsg74
(lp4780
g67
(g83
g69
NtRp4781
(dp4782
g72
(dp4783
sg81
g4777
sg74
(lp4784
g67
(g88
g69
NtRp4785
(dp4786
g72
(dp4787
sg81
g4781
sg74
(lp4788
g67
(g68
g69
NtRp4789
(dp4790
g72
(dp4791
g80
I1
ssg81
g4785
sg74
(lp4792
g3987
(S't\t\x00\x00\x00Community'
tRp4793
asbasbasbag67
(g83
g69
NtRp4794
(dp4795
g72
(dp4796
sg81
g4777
sg74
(lp4797
g67
(g88
g69
NtRp4798
(dp4799
g72
(dp4800
sg81
g4794
sg74
(lp4801
g67
(g68
g69
NtRp4802
(dp4803
g72
(dp4804
g80
I1
ssg81
g4798
sg74
(lp4805
I00
asbasbasbag67
(g83
g69
NtRp4806
(dp4807
g72
(dp4808
sg81
g4777
sg74
(lp4809
g67
(g88
g69
NtRp4810
(dp4811
g72
(dp4812
sg81
g4806
sg74
(lp4813
g67
(g68
g69
NtRp4814
(dp4815
g72
(dp4816
g80
I1
ssg81
g4810
sg74
(lp4817
Nasbasbasbag67
(g83
g69
NtRp4818
(dp4819
g72
(dp4820
sg81
g4777
sg74
(lp4821
g67
(g88
g69
NtRp4822
(dp4823
g72
(dp4824
sg81
g4818
sg74
(lp4825
g67
(g68
g69
NtRp4826
(dp4827
g72
(dp4828
g80
I1
ssg81
g4822
sg74
(lp4829
(lp4830
(g3987
(S't\x06\x00\x00\x00Groups'
tRp4831
I00
S'http://www.web2py.com/examples/default/usergroups'
p4832
tp4833
a(g3987
(S't\x07\x00\x00\x00Twitter'
tRp4834
I00
S'http://twitter.com/web2py'
p4835
tp4836
a(g3987
(S's\t\x00\x00\x00Live chat'
tRp4837
I00
S'http://mibbit.com/?channel=%23web2py&server=irc.mibbit.net'
p4838
tp4839
a(g3987
(S's\n\x00\x00\x00User Voice'
tRp4840
I00
S'http://web2py.uservoice.com/'
p4841
tp4842
aasbasbasbasbasbasbasbag67
(g83
g69
NtRp4843
(dp4844
g72
(dp4845
sg81
g4652
sg74
(lp4846
g67
(g88
g69
NtRp4847
(dp4848
g72
(dp4849
sg81
g4843
sg74
(lp4850
g67
(g68
g69
NtRp4851
(dp4852
g72
(dp4853
g80
I2
ssg81
g4847
sg74
(lp4854
g67
(g76
g69
NtRp4855
(dp4856
g72
(dp4857
g80
I1
ssg81
Nsg74
(lp4858
g67
(g83
g69
NtRp4859
(dp4860
g72
(dp4861
sg81
g4855
sg74
(lp4862
g67
(g88
g69
NtRp4863
(dp4864
g72
(dp4865
sg81
g4859
sg74
(lp4866
g67
(g68
g69
NtRp4867
(dp4868
g72
(dp4869
g80
I1
ssg81
g4863
sg74
(lp4870
g3987
(S't\x06\x00\x00\x00Web2py'
tRp4871
asbasbasbag67
(g83
g69
NtRp4872
(dp4873
g72
(dp4874
sg81
g4855
sg74
(lp4875
g67
(g88
g69
NtRp4876
(dp4877
g72
(dp4878
sg81
g4872
sg74
(lp4879
g67
(g68
g69
NtRp4880
(dp4881
g72
(dp4882
g80
I1
ssg81
g4876
sg74
(lp4883
I00
asbasbasbag67
(g83
g69
NtRp4884
(dp4885
g72
(dp4886
sg81
g4855
sg74
(lp4887
g67
(g88
g69
NtRp4888
(dp4889
g72
(dp4890
sg81
g4884
sg74
(lp4891
g67
(g68
g69
NtRp4892
(dp4893
g72
(dp4894
g80
I1
ssg81
g4888
sg74
(lp4895
S'http://www.web2py.com'
p4896
asbasbasbag67
(g83
g69
NtRp4897
(dp4898
g72
(dp4899
sg81
g4855
sg74
(lp4900
g67
(g88
g69
NtRp4901
(dp4902
g72
(dp4903
sg81
g4897
sg74
(lp4904
g67
(g68
g69
NtRp4905
(dp4906
g72
(dp4907
g80
I1
ssg81
g4901
sg74
(lp4908
(lp4909
(g3987
(S't\x08\x00\x00\x00Download'
tRp4910
I00
S'http://www.web2py.com/examples/default/download'
p4911
tp4912
a(g3987
(S't\x07\x00\x00\x00Support'
tRp4913
I00
S'http://www.web2py.com/examples/default/support'
p4914
tp4915
a(g3987
(S's\x0e\x00\x00\x00Quick Examples'
tRp4916
I00
S'http://web2py.com/examples/default/examples'
p4917
tp4918
a(g3987
(S't\x03\x00\x00\x00FAQ'
tRp4919
I00
S'http://web2py.com/AlterEgo'
p4920
tp4921
a(g3987
(S's\x11\x00\x00\x00Free Applications'
tRp4922
I00
S'http://web2py.com/appliances'
p4923
tp4924
a(g3987
(S't\x07\x00\x00\x00Plugins'
tRp4925
I00
S'http://web2py.com/plugins'
p4926
tp4927
a(g3987
(S't\x07\x00\x00\x00Recipes'
tRp4928
I00
S'http://web2pyslices.com/'
p4929
tp4930
a(g3987
(S't\x04\x00\x00\x00Demo'
tRp4931
I00
S'http://web2py.com/demo_admin'
p4932
tp4933
a(g3987
(S't\x08\x00\x00\x00Semantic'
tRp4934
I00
S'http://web2py.com/semantic'
p4935
tp4936
a(g3987
(S't\x07\x00\x00\x00Layouts'
tRp4937
I00
S'http://web2py.com/layouts'
p4938
tp4939
a(g3987
(S't\x06\x00\x00\x00Videos'
tRp4940
I00
S'http://www.web2py.com/examples/default/videos/'
p4941
tp4942
aasbasbasbasbasbasbasbasbasbasbasbasbasbasbasbasbasbasbasbag67
(g83
g69
NtRp4943
(dp4944
g72
(dp4945
sg81
g3482
sg74
(lp4946
g67
(g88
g69
NtRp4947
(dp4948
g72
(dp4949
g92
g93
ssg81
g4943
sg74
(lp4950
S'meta'
p4951
asbag67
(g88
g69
NtRp4952
(dp4953
g72
(dp4954
g99
g100
ssg81
g4943
sg74
(lp4955
S':'
asbag67
(g88
g69
NtRp4956
(dp4957
g72
(dp4958
sg81
g4943
sg74
(lp4959
g67
(g68
g69
NtRp4960
(dp4961
g72
(dp4962
g80
I5
ssg81
g4956
sg74
(lp4963
g67
(g76
g69
NtRp4964
(dp4965
g72
(dp4966
g80
I4
ssg81
Nsg74
(lp4967
g67
(g83
g69
NtRp4968
(dp4969
g72
(dp4970
sg81
g4964
sg74
(lp4971
g67
(g88
g69
NtRp4972
(dp4973
g72
(dp4974
g92
g93
ssg81
g4968
sg74
(lp4975
S'author'
p4976
asbag67
(g88
g69
NtRp4977
(dp4978
g72
(dp4979
g99
g100
ssg81
g4968
sg74
(lp4980
S':'
asbag67
(g88
g69
NtRp4981
(dp4982
g72
(dp4983
sg81
g4968
sg74
(lp4984
g67
(g68
g69
NtRp4985
(dp4986
g72
(dp4987
g80
I4
ssg81
g4981
sg74
(lp4988
S'Your Name <you@example.com>'
p4989
asbasbasbag67
(g83
g69
NtRp4990
(dp4991
g72
(dp4992
sg81
g4964
sg74
(lp4993
g67
(g88
g69
NtRp4994
(dp4995
g72
(dp4996
g92
g93
ssg81
g4990
sg74
(lp4997
S'copyright'
p4998
asbag67
(g88
g69
NtRp4999
(dp5000
g72
(dp5001
g99
g100
ssg81
g4990
sg74
(lp5002
S':'
asbag67
(g88
g69
NtRp5003
(dp5004
g72
(dp5005
sg81
g4990
sg74
(lp5006
g67
(g68
g69
NtRp5007
(dp5008
g72
(dp5009
g80
I4
ssg81
g5003
sg74
(lp5010
S'Copyright 2011'
p5011
asbasbasbag67
(g83
g69
NtRp5012
(dp5013
g72
(dp5014
sg81
g4964
sg74
(lp5015
g67
(g88
g69
NtRp5016
(dp5017
g72
(dp5018
g92
g93
ssg81
g5012
sg74
(lp5019
S'description'
p5020
asbag67
(g88
g69
NtRp5021
(dp5022
g72
(dp5023
g99
g100
ssg81
g5012
sg74
(lp5024
S':'
asbag67
(g88
g69
NtRp5025
(dp5026
g72
(dp5027
sg81
g5012
sg74
(lp5028
g67
(g68
g69
NtRp5029
(dp5030
g72
(dp5031
g80
I4
ssg81
g5025
sg74
(lp5032
S'a cool new app'
p5033
asbasbasbag67
(g83
g69
NtRp5034
(dp5035
g72
(dp5036
sg81
g4964
sg74
(lp5037
g67
(g88
g69
NtRp5038
(dp5039
g72
(dp5040
g92
g93
ssg81
g5034
sg74
(lp5041
S'generator'
p5042
asbag67
(g88
g69
NtRp5043
(dp5044
g72
(dp5045
g99
g100
ssg81
g5034
sg74
(lp5046
S':'
asbag67
(g88
g69
NtRp5047
(dp5048
g72
(dp5049
sg81
g5034
sg74
(lp5050
g67
(g68
g69
NtRp5051
(dp5052
g72
(dp5053
g80
I4
ssg81
g5047
sg74
(lp5054
S'Web2py Web Framework'
p5055
asbasbasbag67
(g83
g69
NtRp5056
(dp5057
g72
(dp5058
sg81
g4964
sg74
(lp5059
g67
(g88
g69
NtRp5060
(dp5061
g72
(dp5062
g92
g93
ssg81
g5056
sg74
(lp5063
S'keywords'
p5064
asbag67
(g88
g69
NtRp5065
(dp5066
g72
(dp5067
g99
g100
ssg81
g5056
sg74
(lp5068
S':'
asbag67
(g88
g69
NtRp5069
(dp5070
g72
(dp5071
sg81
g5056
sg74
(lp5072
g67
(g68
g69
NtRp5073
(dp5074
g72
(dp5075
g80
I4
ssg81
g5069
sg74
(lp5076
S'web2py, python, framework'
p5077
asbasbasbasbasbasbasbag67
(g83
g69
NtRp5078
(dp5079
g72
(dp5080
sg81
g3482
sg74
(lp5081
g67
(g88
g69
NtRp5082
(dp5083
g72
(dp5084
g92
g93
ssg81
g5078
sg74
(lp5085
S'postprocessing'
p5086
asbag67
(g88
g69
NtRp5087
(dp5088
g72
(dp5089
g99
g100
ssg81
g5078
sg74
(lp5090
S':'
asbag67
(g88
g69
NtRp5091
(dp5092
g72
(dp5093
sg81
g5078
sg74
(lp5094
g67
(g68
g69
NtRp5095
(dp5096
g72
(dp5097
g80
I5
ssg81
g5091
sg74
(lp5098
g67
(g76
g69
NtRp5099
(dp5100
g72
(dp5101
g80
I4
ssg81
Nsg74
(lp5102
sbasbasbasbag67
(g83
g69
NtRp5103
(dp5104
g72
(dp5105
sg81
g3482
sg74
(lp5106
g67
(g88
g69
NtRp5107
(dp5108
g72
(dp5109
g92
g93
ssg81
g5103
sg74
(lp5110
S'session_file'
p5111
asbag67
(g88
g69
NtRp5112
(dp5113
g72
(dp5114
g99
g100
ssg81
g5103
sg74
(lp5115
S':'
asbag67
(g88
g69
NtRp5116
(dp5117
g72
(dp5118
sg81
g5103
sg74
(lp5119
g67
(g68
g69
NtRp5120
(dp5121
g72
(dp5122
g80
I5
ssg81
g5116
sg74
(lp5123
S"<open file '/home/ian/Dropbox/Web_Pages/web2py-linux/applications/places/sessions/127.0.0.1-ae378f77-b944-4a55-be06-eed4ce913913', mode 'rb+' at 0x35bde40>"
p5124
asbasbasbag67
(g83
g69
NtRp5125
(dp5126
g72
(dp5127
sg81
g3482
sg74
(lp5128
g67
(g88
g69
NtRp5129
(dp5130
g72
(dp5131
g92
g93
ssg81
g5125
sg74
(lp5132
S'session_filename'
p5133
asbag67
(g88
g69
NtRp5134
(dp5135
g72
(dp5136
g99
g100
ssg81
g5125
sg74
(lp5137
S':'
asbag67
(g88
g69
NtRp5138
(dp5139
g72
(dp5140
sg81
g5125
sg74
(lp5141
g67
(g68
g69
NtRp5142
(dp5143
g72
(dp5144
g80
I5
ssg81
g5138
sg74
(lp5145
S'/home/ian/Dropbox/Web_Pages/web2py-linux/applications/places/sessions/127.0.0.1-ae378f77-b944-4a55-be06-eed4ce913913'
p5146
asbasbasbag67
(g83
g69
NtRp5147
(dp5148
g72
(dp5149
sg81
g3482
sg74
(lp5150
g67
(g88
g69
NtRp5151
(dp5152
g72
(dp5153
g92
g93
ssg81
g5147
sg74
(lp5154
S'session_id'
p5155
asbag67
(g88
g69
NtRp5156
(dp5157
g72
(dp5158
g99
g100
ssg81
g5147
sg74
(lp5159
S':'
asbag67
(g88
g69
NtRp5160
(dp5161
g72
(dp5162
sg81
g5147
sg74
(lp5163
g67
(g68
g69
NtRp5164
(dp5165
g72
(dp5166
g80
I5
ssg81
g5160
sg74
(lp5167
S'127.0.0.1-ae378f77-b944-4a55-be06-eed4ce913913'
p5168
asbasbasbag67
(g83
g69
NtRp5169
(dp5170
g72
(dp5171
sg81
g3482
sg74
(lp5172
g67
(g88
g69
NtRp5173
(dp5174
g72
(dp5175
g92
g93
ssg81
g5169
sg74
(lp5176
S'session_id_name'
p5177
asbag67
(g88
g69
NtRp5178
(dp5179
g72
(dp5180
g99
g100
ssg81
g5169
sg74
(lp5181
S':'
asbag67
(g88
g69
NtRp5182
(dp5183
g72
(dp5184
sg81
g5169
sg74
(lp5185
g67
(g68
g69
NtRp5186
(dp5187
g72
(dp5188
g80
I5
ssg81
g5182
sg74
(lp5189
g3539
asbasbasbag67
(g83
g69
NtRp5190
(dp5191
g72
(dp5192
sg81
g3482
sg74
(lp5193
g67
(g88
g69
NtRp5194
(dp5195
g72
(dp5196
g92
g93
ssg81
g5190
sg74
(lp5197
S'session_locked'
p5198
asbag67
(g88
g69
NtRp5199
(dp5200
g72
(dp5201
g99
g100
ssg81
g5190
sg74
(lp5202
S':'
asbag67
(g88
g69
NtRp5203
(dp5204
g72
(dp5205
sg81
g5190
sg74
(lp5206
g67
(g68
g69
NtRp5207
(dp5208
g72
(dp5209
g80
I5
ssg81
g5203
sg74
(lp5210
g2037
asbasbasbag67
(g83
g69
NtRp5211
(dp5212
g72
(dp5213
sg81
g3482
sg74
(lp5214
g67
(g88
g69
NtRp5215
(dp5216
g72
(dp5217
g92
g93
ssg81
g5211
sg74
(lp5218
S'session_new'
p5219
asbag67
(g88
g69
NtRp5220
(dp5221
g72
(dp5222
g99
g100
ssg81
g5211
sg74
(lp5223
S':'
asbag67
(g88
g69
NtRp5224
(dp5225
g72
(dp5226
sg81
g5211
sg74
(lp5227
g67
(g68
g69
NtRp5228
(dp5229
g72
(dp5230
g80
I5
ssg81
g5224
sg74
(lp5231
g110
asbasbasbag67
(g83
g69
NtRp5232
(dp5233
g72
(dp5234
sg81
g3482
sg74
(lp5235
g67
(g88
g69
NtRp5236
(dp5237
g72
(dp5238
g92
g93
ssg81
g5232
sg74
(lp5239
S'status'
p5240
asbag67
(g88
g69
NtRp5241
(dp5242
g72
(dp5243
g99
g100
ssg81
g5232
sg74
(lp5244
S':'
asbag67
(g88
g69
NtRp5245
(dp5246
g72
(dp5247
sg81
g5232
sg74
(lp5248
g67
(g68
g69
NtRp5249
(dp5250
g72
(dp5251
g80
I5
ssg81
g5245
sg74
(lp5252
S'200'
p5253
asbasbasbag67
(g83
g69
NtRp5254
(dp5255
g72
(dp5256
sg81
g3482
sg74
(lp5257
g67
(g88
g69
NtRp5258
(dp5259
g72
(dp5260
g92
g93
ssg81
g5254
sg74
(lp5261
S'subtitle'
p5262
asbag67
(g88
g69
NtRp5263
(dp5264
g72
(dp5265
g99
g100
ssg81
g5254
sg74
(lp5266
S':'
asbag67
(g88
g69
NtRp5267
(dp5268
g72
(dp5269
sg81
g5254
sg74
(lp5270
g67
(g68
g69
NtRp5271
(dp5272
g72
(dp5273
g80
I5
ssg81
g5267
sg74
(lp5274
g3987
(S's\r\x00\x00\x00customize me!'
tRp5275
asbasbasbag67
(g83
g69
NtRp5276
(dp5277
g72
(dp5278
sg81
g3482
sg74
(lp5279
g67
(g88
g69
NtRp5280
(dp5281
g72
(dp5282
g92
g93
ssg81
g5276
sg74
(lp5283
S'title'
p5284
asbag67
(g88
g69
NtRp5285
(dp5286
g72
(dp5287
g99
g100
ssg81
g5276
sg74
(lp5288
S':'
asbag67
(g88
g69
NtRp5289
(dp5290
g72
(dp5291
sg81
g5276
sg74
(lp5292
g67
(g68
g69
NtRp5293
(dp5294
g72
(dp5295
g80
I5
ssg81
g5289
sg74
(lp5296
g132
asbasbasbag67
(g83
g69
NtRp5297
(dp5298
g72
(dp5299
sg81
g3482
sg74
(lp5300
g67
(g88
g69
NtRp5301
(dp5302
g72
(dp5303
g92
g93
ssg81
g5297
sg74
(lp5304
g2681
asbag67
(g88
g69
NtRp5305
(dp5306
g72
(dp5307
g99
g100
ssg81
g5297
sg74
(lp5308
S':'
asbag67
(g88
g69
NtRp5309
(dp5310
g72
(dp5311
sg81
g5297
sg74
(lp5312
g67
(g68
g69
NtRp5313
(dp5314
g72
(dp5315
g80
I5
ssg81
g5309
sg74
(lp5316
g2694
asbasbasbag67
(g83
g69
NtRp5317
(dp5318
g72
(dp5319
sg81
g3482
sg74
(lp5320
g67
(g88
g69
NtRp5321
(dp5322
g72
(dp5323
g92
g93
ssg81
g5317
sg74
(lp5324
S'view'
p5325
asbag67
(g88
g69
NtRp5326
(dp5327
g72
(dp5328
g99
g100
ssg81
g5317
sg74
(lp5329
S':'
asbag67
(g88
g69
NtRp5330
(dp5331
g72
(dp5332
sg81
g5317
sg74
(lp5333
g67
(g68
g69
NtRp5334
(dp5335
g72
(dp5336
g80
I5
ssg81
g5330
sg74
(lp5337
S'default/index.html'
p5338
asbasbasbasbasbsS'locals'
p5339
(dp5340
g3
S"'/home/ian/Dropbox/Web_Pages/web2py-linux/applications/places/views/default/index.html'"
p5341
sg5
S'r"left_sidebar_enabled=right_sidebar_enabled=False...nse.write(\'\\n  </body>\\n</html>\\n\', escape=False)"'
p5342
sssS'traceback'
p5343
S'Traceback (most recent call last):\n  File "/home/ian/Dropbox/Web_Pages/web2py-linux/gluon/restricted.py", line 193, in restricted\n    ccode = compile2(code,layer)\n  File "/home/ian/Dropbox/Web_Pages/web2py-linux/gluon/restricted.py", line 179, in compile2\n    return compile(code.rstrip().replace(\'\\r\\n\',\'\\n\')+\'\\n\', layer, \'exec\')\n  File "/home/ian/Dropbox/Web_Pages/web2py-linux/applications/places/views/default/index.html", line 102\n    else:\n       ^\nSyntaxError: invalid syntax\n'
p5344
s.