(dp1
S'output'
p2
S''
sS'layer'
p3
S'/home/ian/web2py/applications/places/views/default/index.load'
p4
sS'code'
p5
S"for link in links:\n    response.write('\\n', escape=False)\n    response.write(LI(A(link.link_name, _href=link.link_url)))\n    response.write('\\n', escape=False)\n    pass\nresponse.write('\\n\\n', escape=False)\n#=BEAUTIFY(response._vars)\nresponse.write('\\n', escape=False)\nresponse.write(requesst.args)\nresponse.write('\\n', escape=False)"
p6
sS'snapshot'
p7
(dp8
S'exception'
p9
(dp10
S'__hash__'
p11
S"<method-wrapper '__hash__' of exceptions.NameError object>"
p12
sS'__setattr__'
p13
S"<method-wrapper '__setattr__' of exceptions.NameError object>"
p14
sS'__reduce_ex__'
p15
S'<built-in method __reduce_ex__ of exceptions.NameError object>'
p16
sS'__getslice__'
p17
S"<method-wrapper '__getslice__' of exceptions.NameError object>"
p18
sS'__getitem__'
p19
S"<method-wrapper '__getitem__' of exceptions.NameError object>"
p20
sS'__setstate__'
p21
S'<built-in method __setstate__ of exceptions.NameError object>'
p22
sS'args'
p23
S'("name \'requesst\' is not defined",)'
p24
sS'__reduce__'
p25
S'<built-in method __reduce__ of exceptions.NameError object>'
p26
sS'__str__'
p27
S"<method-wrapper '__str__' of exceptions.NameError object>"
p28
sS'__format__'
p29
S'<built-in method __format__ of exceptions.NameError object>'
p30
sS'__getattribute__'
p31
S"<method-wrapper '__getattribute__' of exceptions.NameError object>"
p32
sS'__class__'
p33
S"<type 'exceptions.NameError'>"
p34
sS'__unicode__'
p35
S'<built-in method __unicode__ of exceptions.NameError object>'
p36
sS'__delattr__'
p37
S"<method-wrapper '__delattr__' of exceptions.NameError object>"
p38
sS'__subclasshook__'
p39
S'<built-in method __subclasshook__ of type object>'
p40
sS'__repr__'
p41
S"<method-wrapper '__repr__' of exceptions.NameError object>"
p42
sS'__dict__'
p43
S'{}'
p44
sS'__sizeof__'
p45
S'<built-in method __sizeof__ of exceptions.NameError object>'
p46
sS'__doc__'
p47
S"'Name not found globally.'"
p48
sS'__init__'
p49
S"<method-wrapper '__init__' of exceptions.NameError object>"
p50
sS'__new__'
p51
S'<built-in method __new__ of type object>'
p52
ssS'evalue'
p53
S"name 'requesst' is not defined"
p54
sS'request'
p55
ccopy_reg
_reconstructor
p56
(cgluon.html
BEAUTIFY
p57
c__builtin__
object
p58
NtRp59
(dp60
S'attributes'
p61
(dp62
sS'components'
p63
(lp64
g56
(cgluon.html
TABLE
p65
g58
NtRp66
(dp67
g61
(dp68
S'level'
p69
I5
ssS'parent'
p70
Nsg63
(lp71
g56
(cgluon.html
TR
p72
g58
NtRp73
(dp74
g61
(dp75
sg70
g66
sg63
(lp76
g56
(cgluon.html
TD
p77
g58
NtRp78
(dp79
g61
(dp80
S'_style'
p81
S'font-weight:bold;'
p82
ssg70
g73
sg63
(lp83
S'ajax'
p84
asbag56
(g77
g58
NtRp85
(dp86
g61
(dp87
S'_valign'
p88
S'top'
p89
ssg70
g73
sg63
(lp90
S':'
asbag56
(g77
g58
NtRp91
(dp92
g61
(dp93
sg70
g73
sg63
(lp94
g56
(g57
g58
NtRp95
(dp96
g61
(dp97
g69
I5
ssg70
g91
sg63
(lp98
S'True'
p99
asbasbasbag56
(g72
g58
NtRp100
(dp101
g61
(dp102
sg70
g66
sg63
(lp103
g56
(g77
g58
NtRp104
(dp105
g61
(dp106
g81
g82
ssg70
g100
sg63
(lp107
S'application'
p108
asbag56
(g77
g58
NtRp109
(dp110
g61
(dp111
g88
g89
ssg70
g100
sg63
(lp112
S':'
asbag56
(g77
g58
NtRp113
(dp114
g61
(dp115
sg70
g100
sg63
(lp116
g56
(g57
g58
NtRp117
(dp118
g61
(dp119
g69
I5
ssg70
g113
sg63
(lp120
S'places'
p121
asbasbasbag56
(g72
g58
NtRp122
(dp123
g61
(dp124
sg70
g66
sg63
(lp125
g56
(g77
g58
NtRp126
(dp127
g61
(dp128
g81
g82
ssg70
g122
sg63
(lp129
g23
asbag56
(g77
g58
NtRp130
(dp131
g61
(dp132
g88
g89
ssg70
g122
sg63
(lp133
S':'
asbag56
(g77
g58
NtRp134
(dp135
g61
(dp136
sg70
g122
sg63
(lp137
g56
(g57
g58
NtRp138
(dp139
g61
(dp140
g69
I5
ssg70
g134
sg63
(lp141
g56
(g65
g58
NtRp142
(dp143
g61
(dp144
g69
I4
ssg70
Nsg63
(lp145
g56
(g72
g58
NtRp146
(dp147
g61
(dp148
sg70
g142
sg63
(lp149
g56
(g77
g58
NtRp150
(dp151
g61
(dp152
sg70
g146
sg63
(lp153
g56
(g57
g58
NtRp154
(dp155
g61
(dp156
g69
I4
ssg70
g150
sg63
(lp157
S'kitchen'
p158
asbasbasbasbasbasbasbag56
(g72
g58
NtRp159
(dp160
g61
(dp161
sg70
g66
sg63
(lp162
g56
(g77
g58
NtRp163
(dp164
g61
(dp165
g81
g82
ssg70
g159
sg63
(lp166
S'body'
p167
asbag56
(g77
g58
NtRp168
(dp169
g61
(dp170
g88
g89
ssg70
g159
sg63
(lp171
S':'
asbag56
(g77
g58
NtRp172
(dp173
g61
(dp174
sg70
g159
sg63
(lp175
g56
(g57
g58
NtRp176
(dp177
g61
(dp178
g69
I5
ssg70
g172
sg63
(lp179
S'<cStringIO.StringO object at 0x3191ea0>'
p180
asbasbasbag56
(g72
g58
NtRp181
(dp182
g61
(dp183
sg70
g66
sg63
(lp184
g56
(g77
g58
NtRp185
(dp186
g61
(dp187
g81
g82
ssg70
g181
sg63
(lp188
S'cid'
p189
asbag56
(g77
g58
NtRp190
(dp191
g61
(dp192
g88
g89
ssg70
g181
sg63
(lp193
S':'
asbag56
(g77
g58
NtRp194
(dp195
g61
(dp196
sg70
g181
sg63
(lp197
g56
(g57
g58
NtRp198
(dp199
g61
(dp200
g69
I5
ssg70
g194
sg63
(lp201
S'links'
p202
asbasbasbag56
(g72
g58
NtRp203
(dp204
g61
(dp205
sg70
g66
sg63
(lp206
g56
(g77
g58
NtRp207
(dp208
g61
(dp209
g81
g82
ssg70
g203
sg63
(lp210
S'client'
p211
asbag56
(g77
g58
NtRp212
(dp213
g61
(dp214
g88
g89
ssg70
g203
sg63
(lp215
S':'
asbag56
(g77
g58
NtRp216
(dp217
g61
(dp218
sg70
g203
sg63
(lp219
g56
(g57
g58
NtRp220
(dp221
g61
(dp222
g69
I5
ssg70
g216
sg63
(lp223
S'127.0.0.1'
p224
asbasbasbag56
(g72
g58
NtRp225
(dp226
g61
(dp227
sg70
g66
sg63
(lp228
g56
(g77
g58
NtRp229
(dp230
g61
(dp231
g81
g82
ssg70
g225
sg63
(lp232
S'controller'
p233
asbag56
(g77
g58
NtRp234
(dp235
g61
(dp236
g88
g89
ssg70
g225
sg63
(lp237
S':'
asbag56
(g77
g58
NtRp238
(dp239
g61
(dp240
sg70
g225
sg63
(lp241
g56
(g57
g58
NtRp242
(dp243
g61
(dp244
g69
I5
ssg70
g238
sg63
(lp245
S'default'
p246
asbasbasbag56
(g72
g58
NtRp247
(dp248
g61
(dp249
sg70
g66
sg63
(lp250
g56
(g77
g58
NtRp251
(dp252
g61
(dp253
g81
g82
ssg70
g247
sg63
(lp254
S'cookies'
p255
asbag56
(g77
g58
NtRp256
(dp257
g61
(dp258
g88
g89
ssg70
g247
sg63
(lp259
S':'
asbag56
(g77
g58
NtRp260
(dp261
g61
(dp262
sg70
g247
sg63
(lp263
g56
(g57
g58
NtRp264
(dp265
g61
(dp266
g69
I5
ssg70
g260
sg63
(lp267
g56
(g65
g58
NtRp268
(dp269
g61
(dp270
g69
I4
ssg70
Nsg63
(lp271
g56
(g72
g58
NtRp272
(dp273
g61
(dp274
sg70
g268
sg63
(lp275
g56
(g77
g58
NtRp276
(dp277
g61
(dp278
g81
g82
ssg70
g272
sg63
(lp279
S'session_id_admin'
p280
asbag56
(g77
g58
NtRp281
(dp282
g61
(dp283
g88
g89
ssg70
g272
sg63
(lp284
S':'
asbag56
(g77
g58
NtRp285
(dp286
g61
(dp287
sg70
g272
sg63
(lp288
g56
(g57
g58
NtRp289
(dp290
g61
(dp291
g69
I4
ssg70
g285
sg63
(lp292
g56
(g65
g58
NtRp293
(dp294
g61
(dp295
g69
I3
ssg70
Nsg63
(lp296
g56
(g72
g58
NtRp297
(dp298
g61
(dp299
sg70
g293
sg63
(lp300
g56
(g77
g58
NtRp301
(dp302
g61
(dp303
g81
g82
ssg70
g297
sg63
(lp304
S'comment'
p305
asbag56
(g77
g58
NtRp306
(dp307
g61
(dp308
g88
g89
ssg70
g297
sg63
(lp309
S':'
asbag56
(g77
g58
NtRp310
(dp311
g61
(dp312
sg70
g297
sg63
(lp313
g56
(g57
g58
NtRp314
(dp315
g61
(dp316
g69
I3
ssg70
g310
sg63
(lp317
S''
asbasbasbag56
(g72
g58
NtRp318
(dp319
g61
(dp320
sg70
g293
sg63
(lp321
g56
(g77
g58
NtRp322
(dp323
g61
(dp324
g81
g82
ssg70
g318
sg63
(lp325
S'domain'
p326
asbag56
(g77
g58
NtRp327
(dp328
g61
(dp329
g88
g89
ssg70
g318
sg63
(lp330
S':'
asbag56
(g77
g58
NtRp331
(dp332
g61
(dp333
sg70
g318
sg63
(lp334
g56
(g57
g58
NtRp335
(dp336
g61
(dp337
g69
I3
ssg70
g331
sg63
(lp338
S''
asbasbasbag56
(g72
g58
NtRp339
(dp340
g61
(dp341
sg70
g293
sg63
(lp342
g56
(g77
g58
NtRp343
(dp344
g61
(dp345
g81
g82
ssg70
g339
sg63
(lp346
S'expires'
p347
asbag56
(g77
g58
NtRp348
(dp349
g61
(dp350
g88
g89
ssg70
g339
sg63
(lp351
S':'
asbag56
(g77
g58
NtRp352
(dp353
g61
(dp354
sg70
g339
sg63
(lp355
g56
(g57
g58
NtRp356
(dp357
g61
(dp358
g69
I3
ssg70
g352
sg63
(lp359
S''
asbasbasbag56
(g72
g58
NtRp360
(dp361
g61
(dp362
sg70
g293
sg63
(lp363
g56
(g77
g58
NtRp364
(dp365
g61
(dp366
g81
g82
ssg70
g360
sg63
(lp367
S'httponly'
p368
asbag56
(g77
g58
NtRp369
(dp370
g61
(dp371
g88
g89
ssg70
g360
sg63
(lp372
S':'
asbag56
(g77
g58
NtRp373
(dp374
g61
(dp375
sg70
g360
sg63
(lp376
g56
(g57
g58
NtRp377
(dp378
g61
(dp379
g69
I3
ssg70
g373
sg63
(lp380
S''
asbasbasbag56
(g72
g58
NtRp381
(dp382
g61
(dp383
sg70
g293
sg63
(lp384
g56
(g77
g58
NtRp385
(dp386
g61
(dp387
g81
g82
ssg70
g381
sg63
(lp388
S'max-age'
p389
asbag56
(g77
g58
NtRp390
(dp391
g61
(dp392
g88
g89
ssg70
g381
sg63
(lp393
S':'
asbag56
(g77
g58
NtRp394
(dp395
g61
(dp396
sg70
g381
sg63
(lp397
g56
(g57
g58
NtRp398
(dp399
g61
(dp400
g69
I3
ssg70
g394
sg63
(lp401
S''
asbasbasbag56
(g72
g58
NtRp402
(dp403
g61
(dp404
sg70
g293
sg63
(lp405
g56
(g77
g58
NtRp406
(dp407
g61
(dp408
g81
g82
ssg70
g402
sg63
(lp409
S'path'
p410
asbag56
(g77
g58
NtRp411
(dp412
g61
(dp413
g88
g89
ssg70
g402
sg63
(lp414
S':'
asbag56
(g77
g58
NtRp415
(dp416
g61
(dp417
sg70
g402
sg63
(lp418
g56
(g57
g58
NtRp419
(dp420
g61
(dp421
g69
I3
ssg70
g415
sg63
(lp422
S''
asbasbasbag56
(g72
g58
NtRp423
(dp424
g61
(dp425
sg70
g293
sg63
(lp426
g56
(g77
g58
NtRp427
(dp428
g61
(dp429
g81
g82
ssg70
g423
sg63
(lp430
S'secure'
p431
asbag56
(g77
g58
NtRp432
(dp433
g61
(dp434
g88
g89
ssg70
g423
sg63
(lp435
S':'
asbag56
(g77
g58
NtRp436
(dp437
g61
(dp438
sg70
g423
sg63
(lp439
g56
(g57
g58
NtRp440
(dp441
g61
(dp442
g69
I3
ssg70
g436
sg63
(lp443
S''
asbasbasbag56
(g72
g58
NtRp444
(dp445
g61
(dp446
sg70
g293
sg63
(lp447
g56
(g77
g58
NtRp448
(dp449
g61
(dp450
g81
g82
ssg70
g444
sg63
(lp451
S'version'
p452
asbag56
(g77
g58
NtRp453
(dp454
g61
(dp455
g88
g89
ssg70
g444
sg63
(lp456
S':'
asbag56
(g77
g58
NtRp457
(dp458
g61
(dp459
sg70
g444
sg63
(lp460
g56
(g57
g58
NtRp461
(dp462
g61
(dp463
g69
I3
ssg70
g457
sg63
(lp464
S''
asbasbasbasbasbasbasbag56
(g72
g58
NtRp465
(dp466
g61
(dp467
sg70
g268
sg63
(lp468
g56
(g77
g58
NtRp469
(dp470
g61
(dp471
g81
g82
ssg70
g465
sg63
(lp472
S'session_id_places'
p473
asbag56
(g77
g58
NtRp474
(dp475
g61
(dp476
g88
g89
ssg70
g465
sg63
(lp477
S':'
asbag56
(g77
g58
NtRp478
(dp479
g61
(dp480
sg70
g465
sg63
(lp481
g56
(g57
g58
NtRp482
(dp483
g61
(dp484
g69
I4
ssg70
g478
sg63
(lp485
g56
(g65
g58
NtRp486
(dp487
g61
(dp488
g69
I3
ssg70
Nsg63
(lp489
g56
(g72
g58
NtRp490
(dp491
g61
(dp492
sg70
g486
sg63
(lp493
g56
(g77
g58
NtRp494
(dp495
g61
(dp496
g81
g82
ssg70
g490
sg63
(lp497
g305
asbag56
(g77
g58
NtRp498
(dp499
g61
(dp500
g88
g89
ssg70
g490
sg63
(lp501
S':'
asbag56
(g77
g58
NtRp502
(dp503
g61
(dp504
sg70
g490
sg63
(lp505
g56
(g57
g58
NtRp506
(dp507
g61
(dp508
g69
I3
ssg70
g502
sg63
(lp509
S''
asbasbasbag56
(g72
g58
NtRp510
(dp511
g61
(dp512
sg70
g486
sg63
(lp513
g56
(g77
g58
NtRp514
(dp515
g61
(dp516
g81
g82
ssg70
g510
sg63
(lp517
g326
asbag56
(g77
g58
NtRp518
(dp519
g61
(dp520
g88
g89
ssg70
g510
sg63
(lp521
S':'
asbag56
(g77
g58
NtRp522
(dp523
g61
(dp524
sg70
g510
sg63
(lp525
g56
(g57
g58
NtRp526
(dp527
g61
(dp528
g69
I3
ssg70
g522
sg63
(lp529
S''
asbasbasbag56
(g72
g58
NtRp530
(dp531
g61
(dp532
sg70
g486
sg63
(lp533
g56
(g77
g58
NtRp534
(dp535
g61
(dp536
g81
g82
ssg70
g530
sg63
(lp537
g347
asbag56
(g77
g58
NtRp538
(dp539
g61
(dp540
g88
g89
ssg70
g530
sg63
(lp541
S':'
asbag56
(g77
g58
NtRp542
(dp543
g61
(dp544
sg70
g530
sg63
(lp545
g56
(g57
g58
NtRp546
(dp547
g61
(dp548
g69
I3
ssg70
g542
sg63
(lp549
S''
asbasbasbag56
(g72
g58
NtRp550
(dp551
g61
(dp552
sg70
g486
sg63
(lp553
g56
(g77
g58
NtRp554
(dp555
g61
(dp556
g81
g82
ssg70
g550
sg63
(lp557
g368
asbag56
(g77
g58
NtRp558
(dp559
g61
(dp560
g88
g89
ssg70
g550
sg63
(lp561
S':'
asbag56
(g77
g58
NtRp562
(dp563
g61
(dp564
sg70
g550
sg63
(lp565
g56
(g57
g58
NtRp566
(dp567
g61
(dp568
g69
I3
ssg70
g562
sg63
(lp569
S''
asbasbasbag56
(g72
g58
NtRp570
(dp571
g61
(dp572
sg70
g486
sg63
(lp573
g56
(g77
g58
NtRp574
(dp575
g61
(dp576
g81
g82
ssg70
g570
sg63
(lp577
g389
asbag56
(g77
g58
NtRp578
(dp579
g61
(dp580
g88
g89
ssg70
g570
sg63
(lp581
S':'
asbag56
(g77
g58
NtRp582
(dp583
g61
(dp584
sg70
g570
sg63
(lp585
g56
(g57
g58
NtRp586
(dp587
g61
(dp588
g69
I3
ssg70
g582
sg63
(lp589
S''
asbasbasbag56
(g72
g58
NtRp590
(dp591
g61
(dp592
sg70
g486
sg63
(lp593
g56
(g77
g58
NtRp594
(dp595
g61
(dp596
g81
g82
ssg70
g590
sg63
(lp597
g410
asbag56
(g77
g58
NtRp598
(dp599
g61
(dp600
g88
g89
ssg70
g590
sg63
(lp601
S':'
asbag56
(g77
g58
NtRp602
(dp603
g61
(dp604
sg70
g590
sg63
(lp605
g56
(g57
g58
NtRp606
(dp607
g61
(dp608
g69
I3
ssg70
g602
sg63
(lp609
S''
asbasbasbag56
(g72
g58
NtRp610
(dp611
g61
(dp612
sg70
g486
sg63
(lp613
g56
(g77
g58
NtRp614
(dp615
g61
(dp616
g81
g82
ssg70
g610
sg63
(lp617
g431
asbag56
(g77
g58
NtRp618
(dp619
g61
(dp620
g88
g89
ssg70
g610
sg63
(lp621
S':'
asbag56
(g77
g58
NtRp622
(dp623
g61
(dp624
sg70
g610
sg63
(lp625
g56
(g57
g58
NtRp626
(dp627
g61
(dp628
g69
I3
ssg70
g622
sg63
(lp629
S''
asbasbasbag56
(g72
g58
NtRp630
(dp631
g61
(dp632
sg70
g486
sg63
(lp633
g56
(g77
g58
NtRp634
(dp635
g61
(dp636
g81
g82
ssg70
g630
sg63
(lp637
g452
asbag56
(g77
g58
NtRp638
(dp639
g61
(dp640
g88
g89
ssg70
g630
sg63
(lp641
S':'
asbag56
(g77
g58
NtRp642
(dp643
g61
(dp644
sg70
g630
sg63
(lp645
g56
(g57
g58
NtRp646
(dp647
g61
(dp648
g69
I3
ssg70
g642
sg63
(lp649
S''
asbasbasbasbasbasbasbag56
(g72
g58
NtRp650
(dp651
g61
(dp652
sg70
g268
sg63
(lp653
g56
(g77
g58
NtRp654
(dp655
g61
(dp656
g81
g82
ssg70
g650
sg63
(lp657
S'session_id_welcome'
p658
asbag56
(g77
g58
NtRp659
(dp660
g61
(dp661
g88
g89
ssg70
g650
sg63
(lp662
S':'
asbag56
(g77
g58
NtRp663
(dp664
g61
(dp665
sg70
g650
sg63
(lp666
g56
(g57
g58
NtRp667
(dp668
g61
(dp669
g69
I4
ssg70
g663
sg63
(lp670
g56
(g65
g58
NtRp671
(dp672
g61
(dp673
g69
I3
ssg70
Nsg63
(lp674
g56
(g72
g58
NtRp675
(dp676
g61
(dp677
sg70
g671
sg63
(lp678
g56
(g77
g58
NtRp679
(dp680
g61
(dp681
g81
g82
ssg70
g675
sg63
(lp682
g305
asbag56
(g77
g58
NtRp683
(dp684
g61
(dp685
g88
g89
ssg70
g675
sg63
(lp686
S':'
asbag56
(g77
g58
NtRp687
(dp688
g61
(dp689
sg70
g675
sg63
(lp690
g56
(g57
g58
NtRp691
(dp692
g61
(dp693
g69
I3
ssg70
g687
sg63
(lp694
S''
asbasbasbag56
(g72
g58
NtRp695
(dp696
g61
(dp697
sg70
g671
sg63
(lp698
g56
(g77
g58
NtRp699
(dp700
g61
(dp701
g81
g82
ssg70
g695
sg63
(lp702
g326
asbag56
(g77
g58
NtRp703
(dp704
g61
(dp705
g88
g89
ssg70
g695
sg63
(lp706
S':'
asbag56
(g77
g58
NtRp707
(dp708
g61
(dp709
sg70
g695
sg63
(lp710
g56
(g57
g58
NtRp711
(dp712
g61
(dp713
g69
I3
ssg70
g707
sg63
(lp714
S''
asbasbasbag56
(g72
g58
NtRp715
(dp716
g61
(dp717
sg70
g671
sg63
(lp718
g56
(g77
g58
NtRp719
(dp720
g61
(dp721
g81
g82
ssg70
g715
sg63
(lp722
g347
asbag56
(g77
g58
NtRp723
(dp724
g61
(dp725
g88
g89
ssg70
g715
sg63
(lp726
S':'
asbag56
(g77
g58
NtRp727
(dp728
g61
(dp729
sg70
g715
sg63
(lp730
g56
(g57
g58
NtRp731
(dp732
g61
(dp733
g69
I3
ssg70
g727
sg63
(lp734
S''
asbasbasbag56
(g72
g58
NtRp735
(dp736
g61
(dp737
sg70
g671
sg63
(lp738
g56
(g77
g58
NtRp739
(dp740
g61
(dp741
g81
g82
ssg70
g735
sg63
(lp742
g368
asbag56
(g77
g58
NtRp743
(dp744
g61
(dp745
g88
g89
ssg70
g735
sg63
(lp746
S':'
asbag56
(g77
g58
NtRp747
(dp748
g61
(dp749
sg70
g735
sg63
(lp750
g56
(g57
g58
NtRp751
(dp752
g61
(dp753
g69
I3
ssg70
g747
sg63
(lp754
S''
asbasbasbag56
(g72
g58
NtRp755
(dp756
g61
(dp757
sg70
g671
sg63
(lp758
g56
(g77
g58
NtRp759
(dp760
g61
(dp761
g81
g82
ssg70
g755
sg63
(lp762
g389
asbag56
(g77
g58
NtRp763
(dp764
g61
(dp765
g88
g89
ssg70
g755
sg63
(lp766
S':'
asbag56
(g77
g58
NtRp767
(dp768
g61
(dp769
sg70
g755
sg63
(lp770
g56
(g57
g58
NtRp771
(dp772
g61
(dp773
g69
I3
ssg70
g767
sg63
(lp774
S''
asbasbasbag56
(g72
g58
NtRp775
(dp776
g61
(dp777
sg70
g671
sg63
(lp778
g56
(g77
g58
NtRp779
(dp780
g61
(dp781
g81
g82
ssg70
g775
sg63
(lp782
g410
asbag56
(g77
g58
NtRp783
(dp784
g61
(dp785
g88
g89
ssg70
g775
sg63
(lp786
S':'
asbag56
(g77
g58
NtRp787
(dp788
g61
(dp789
sg70
g775
sg63
(lp790
g56
(g57
g58
NtRp791
(dp792
g61
(dp793
g69
I3
ssg70
g787
sg63
(lp794
S''
asbasbasbag56
(g72
g58
NtRp795
(dp796
g61
(dp797
sg70
g671
sg63
(lp798
g56
(g77
g58
NtRp799
(dp800
g61
(dp801
g81
g82
ssg70
g795
sg63
(lp802
g431
asbag56
(g77
g58
NtRp803
(dp804
g61
(dp805
g88
g89
ssg70
g795
sg63
(lp806
S':'
asbag56
(g77
g58
NtRp807
(dp808
g61
(dp809
sg70
g795
sg63
(lp810
g56
(g57
g58
NtRp811
(dp812
g61
(dp813
g69
I3
ssg70
g807
sg63
(lp814
S''
asbasbasbag56
(g72
g58
NtRp815
(dp816
g61
(dp817
sg70
g671
sg63
(lp818
g56
(g77
g58
NtRp819
(dp820
g61
(dp821
g81
g82
ssg70
g815
sg63
(lp822
g452
asbag56
(g77
g58
NtRp823
(dp824
g61
(dp825
g88
g89
ssg70
g815
sg63
(lp826
S':'
asbag56
(g77
g58
NtRp827
(dp828
g61
(dp829
sg70
g815
sg63
(lp830
g56
(g57
g58
NtRp831
(dp832
g61
(dp833
g69
I3
ssg70
g827
sg63
(lp834
S''
asbasbasbasbasbasbasbasbasbasbasbag56
(g72
g58
NtRp835
(dp836
g61
(dp837
sg70
g66
sg63
(lp838
g56
(g77
g58
NtRp839
(dp840
g61
(dp841
g81
g82
ssg70
g835
sg63
(lp842
S'env'
p843
asbag56
(g77
g58
NtRp844
(dp845
g61
(dp846
g88
g89
ssg70
g835
sg63
(lp847
S':'
asbag56
(g77
g58
NtRp848
(dp849
g61
(dp850
sg70
g835
sg63
(lp851
g56
(g57
g58
NtRp852
(dp853
g61
(dp854
g69
I5
ssg70
g848
sg63
(lp855
g56
(g65
g58
NtRp856
(dp857
g61
(dp858
g69
I4
ssg70
Nsg63
(lp859
g56
(g72
g58
NtRp860
(dp861
g61
(dp862
sg70
g856
sg63
(lp863
g56
(g77
g58
NtRp864
(dp865
g61
(dp866
g81
g82
ssg70
g860
sg63
(lp867
S'app_folders'
p868
asbag56
(g77
g58
NtRp869
(dp870
g61
(dp871
g88
g89
ssg70
g860
sg63
(lp872
S':'
asbag56
(g77
g58
NtRp873
(dp874
g61
(dp875
sg70
g860
sg63
(lp876
g56
(g57
g58
NtRp877
(dp878
g61
(dp879
g69
I4
ssg70
g873
sg63
(lp880
S"set(['/home/ian/web2py/applications/welcome/', '/home/ian/web2py/applications/places/', '/home/ian/web2py/applications/admin/'])"
p881
asbasbasbag56
(g72
g58
NtRp882
(dp883
g61
(dp884
sg70
g856
sg63
(lp885
g56
(g77
g58
NtRp886
(dp887
g61
(dp888
g81
g82
ssg70
g882
sg63
(lp889
S'applications_parent'
p890
asbag56
(g77
g58
NtRp891
(dp892
g61
(dp893
g88
g89
ssg70
g882
sg63
(lp894
S':'
asbag56
(g77
g58
NtRp895
(dp896
g61
(dp897
sg70
g882
sg63
(lp898
g56
(g57
g58
NtRp899
(dp900
g61
(dp901
g69
I4
ssg70
g895
sg63
(lp902
S'/home/ian/web2py'
p903
asbasbasbag56
(g72
g58
NtRp904
(dp905
g61
(dp906
sg70
g856
sg63
(lp907
g56
(g77
g58
NtRp908
(dp909
g61
(dp910
g81
g82
ssg70
g904
sg63
(lp911
S'cmd_args'
p912
asbag56
(g77
g58
NtRp913
(dp914
g61
(dp915
g88
g89
ssg70
g904
sg63
(lp916
S':'
asbag56
(g77
g58
NtRp917
(dp918
g61
(dp919
sg70
g904
sg63
(lp920
g56
(g57
g58
NtRp921
(dp922
g61
(dp923
g69
I4
ssg70
g917
sg63
(lp924
g56
(g65
g58
NtRp925
(dp926
g61
(dp927
g69
I3
ssg70
Nsg63
(lp928
sbasbasbasbag56
(g72
g58
NtRp929
(dp930
g61
(dp931
sg70
g856
sg63
(lp932
g56
(g77
g58
NtRp933
(dp934
g61
(dp935
g81
g82
ssg70
g929
sg63
(lp936
S'cmd_options'
p937
asbag56
(g77
g58
NtRp938
(dp939
g61
(dp940
g88
g89
ssg70
g929
sg63
(lp941
S':'
asbag56
(g77
g58
NtRp942
(dp943
g61
(dp944
sg70
g929
sg63
(lp945
g56
(g57
g58
NtRp946
(dp947
g61
(dp948
g69
I4
ssg70
g942
sg63
(lp949
S"<Values at 0x26ccbd8: {'verbose': False, 'ip': '127.0.0.1', 'shutdown_timeout': 5, 'taskbar': False, 'nocron': False, 'pid_filename': 'httpserver.pid', 'maxthreads': None, 'softcron': False, 'server_name': 'Ariel-ubuntu', 'bpython': False, 'nogui': False, 'port': 8000, 'extcron': False, 'debuglevel': 30, 'test': None, 'folder': '/home/ian/web2py', 'config': '', 'import_models': False, 'winservice': '', 'shell': None, 'run': '', 'log_filename': 'httpserver.log', 'args': [''], 'ssl_ca_certificate': None, 'scheduler': None, 'profiler_filename': None, 'ssl_private_key': '', 'password': '<ask>', 'request_queue_size': 5, 'ssl_certificate': '', 'cronjob': False, 'plain': False, 'quiet': False, 'interfaces': None, 'minthreads': None, 'timeout': 10, 'numthreads': None, 'nobanner': False}>"
p950
asbasbasbag56
(g72
g58
NtRp951
(dp952
g61
(dp953
sg70
g856
sg63
(lp954
g56
(g77
g58
NtRp955
(dp956
g61
(dp957
g81
g82
ssg70
g951
sg63
(lp958
S'db_sessions'
p959
asbag56
(g77
g58
NtRp960
(dp961
g61
(dp962
g88
g89
ssg70
g951
sg63
(lp963
S':'
asbag56
(g77
g58
NtRp964
(dp965
g61
(dp966
sg70
g951
sg63
(lp967
g56
(g57
g58
NtRp968
(dp969
g61
(dp970
g69
I4
ssg70
g964
sg63
(lp971
S'set([])'
p972
asbasbasbag56
(g72
g58
NtRp973
(dp974
g61
(dp975
sg70
g856
sg63
(lp976
g56
(g77
g58
NtRp977
(dp978
g61
(dp979
g81
g82
ssg70
g973
sg63
(lp980
S'debugging'
p981
asbag56
(g77
g58
NtRp982
(dp983
g61
(dp984
g88
g89
ssg70
g973
sg63
(lp985
S':'
asbag56
(g77
g58
NtRp986
(dp987
g61
(dp988
sg70
g973
sg63
(lp989
g56
(g57
g58
NtRp990
(dp991
g61
(dp992
g69
I4
ssg70
g986
sg63
(lp993
S'False'
p994
asbasbasbag56
(g72
g58
NtRp995
(dp996
g61
(dp997
sg70
g856
sg63
(lp998
g56
(g77
g58
NtRp999
(dp1000
g61
(dp1001
g81
g82
ssg70
g995
sg63
(lp1002
S'gluon_parent'
p1003
asbag56
(g77
g58
NtRp1004
(dp1005
g61
(dp1006
g88
g89
ssg70
g995
sg63
(lp1007
S':'
asbag56
(g77
g58
NtRp1008
(dp1009
g61
(dp1010
sg70
g995
sg63
(lp1011
g56
(g57
g58
NtRp1012
(dp1013
g61
(dp1014
g69
I4
ssg70
g1008
sg63
(lp1015
S'/home/ian/web2py'
p1016
asbasbasbag56
(g72
g58
NtRp1017
(dp1018
g61
(dp1019
sg70
g856
sg63
(lp1020
g56
(g77
g58
NtRp1021
(dp1022
g61
(dp1023
g81
g82
ssg70
g1017
sg63
(lp1024
S'http_accept'
p1025
asbag56
(g77
g58
NtRp1026
(dp1027
g61
(dp1028
g88
g89
ssg70
g1017
sg63
(lp1029
S':'
asbag56
(g77
g58
NtRp1030
(dp1031
g61
(dp1032
sg70
g1017
sg63
(lp1033
g56
(g57
g58
NtRp1034
(dp1035
g61
(dp1036
g69
I4
ssg70
g1030
sg63
(lp1037
S'*/*'
p1038
asbasbasbag56
(g72
g58
NtRp1039
(dp1040
g61
(dp1041
sg70
g856
sg63
(lp1042
g56
(g77
g58
NtRp1043
(dp1044
g61
(dp1045
g81
g82
ssg70
g1039
sg63
(lp1046
S'http_accept_charset'
p1047
asbag56
(g77
g58
NtRp1048
(dp1049
g61
(dp1050
g88
g89
ssg70
g1039
sg63
(lp1051
S':'
asbag56
(g77
g58
NtRp1052
(dp1053
g61
(dp1054
sg70
g1039
sg63
(lp1055
g56
(g57
g58
NtRp1056
(dp1057
g61
(dp1058
g69
I4
ssg70
g1052
sg63
(lp1059
S'ISO-8859-1,utf-8;q=0.7,*;q=0.7'
p1060
asbasbasbag56
(g72
g58
NtRp1061
(dp1062
g61
(dp1063
sg70
g856
sg63
(lp1064
g56
(g77
g58
NtRp1065
(dp1066
g61
(dp1067
g81
g82
ssg70
g1061
sg63
(lp1068
S'http_accept_encoding'
p1069
asbag56
(g77
g58
NtRp1070
(dp1071
g61
(dp1072
g88
g89
ssg70
g1061
sg63
(lp1073
S':'
asbag56
(g77
g58
NtRp1074
(dp1075
g61
(dp1076
sg70
g1061
sg63
(lp1077
g56
(g57
g58
NtRp1078
(dp1079
g61
(dp1080
g69
I4
ssg70
g1074
sg63
(lp1081
S'gzip, deflate'
p1082
asbasbasbag56
(g72
g58
NtRp1083
(dp1084
g61
(dp1085
sg70
g856
sg63
(lp1086
g56
(g77
g58
NtRp1087
(dp1088
g61
(dp1089
g81
g82
ssg70
g1083
sg63
(lp1090
S'http_accept_language'
p1091
asbag56
(g77
g58
NtRp1092
(dp1093
g61
(dp1094
g88
g89
ssg70
g1083
sg63
(lp1095
S':'
asbag56
(g77
g58
NtRp1096
(dp1097
g61
(dp1098
sg70
g1083
sg63
(lp1099
g56
(g57
g58
NtRp1100
(dp1101
g61
(dp1102
g69
I4
ssg70
g1096
sg63
(lp1103
S'en-us,en;q=0.5'
p1104
asbasbasbag56
(g72
g58
NtRp1105
(dp1106
g61
(dp1107
sg70
g856
sg63
(lp1108
g56
(g77
g58
NtRp1109
(dp1110
g61
(dp1111
g81
g82
ssg70
g1105
sg63
(lp1112
S'http_connection'
p1113
asbag56
(g77
g58
NtRp1114
(dp1115
g61
(dp1116
g88
g89
ssg70
g1105
sg63
(lp1117
S':'
asbag56
(g77
g58
NtRp1118
(dp1119
g61
(dp1120
sg70
g1105
sg63
(lp1121
g56
(g57
g58
NtRp1122
(dp1123
g61
(dp1124
g69
I4
ssg70
g1118
sg63
(lp1125
S'keep-alive'
p1126
asbasbasbag56
(g72
g58
NtRp1127
(dp1128
g61
(dp1129
sg70
g856
sg63
(lp1130
g56
(g77
g58
NtRp1131
(dp1132
g61
(dp1133
g81
g82
ssg70
g1127
sg63
(lp1134
S'http_cookie'
p1135
asbag56
(g77
g58
NtRp1136
(dp1137
g61
(dp1138
g88
g89
ssg70
g1127
sg63
(lp1139
S':'
asbag56
(g77
g58
NtRp1140
(dp1141
g61
(dp1142
sg70
g1127
sg63
(lp1143
g56
(g57
g58
NtRp1144
(dp1145
g61
(dp1146
g69
I4
ssg70
g1140
sg63
(lp1147
S'session_id_welcome=127.0.0.1-f0e6d08e-4585-488a-91e0-180c6c7f25a8; session_id_admin=127.0.0.1-dac11dfe-be99-4fb0-a78e-57512c9f5790; session_id_places=127.0.0.1-9bd70a00-d029-4b6e-8bcc-a423c3a61399'
p1148
asbasbasbag56
(g72
g58
NtRp1149
(dp1150
g61
(dp1151
sg70
g856
sg63
(lp1152
g56
(g77
g58
NtRp1153
(dp1154
g61
(dp1155
g81
g82
ssg70
g1149
sg63
(lp1156
S'http_host'
p1157
asbag56
(g77
g58
NtRp1158
(dp1159
g61
(dp1160
g88
g89
ssg70
g1149
sg63
(lp1161
S':'
asbag56
(g77
g58
NtRp1162
(dp1163
g61
(dp1164
sg70
g1149
sg63
(lp1165
g56
(g57
g58
NtRp1166
(dp1167
g61
(dp1168
g69
I4
ssg70
g1162
sg63
(lp1169
S'127.0.0.1:8000'
p1170
asbasbasbag56
(g72
g58
NtRp1171
(dp1172
g61
(dp1173
sg70
g856
sg63
(lp1174
g56
(g77
g58
NtRp1175
(dp1176
g61
(dp1177
g81
g82
ssg70
g1171
sg63
(lp1178
S'http_referer'
p1179
asbag56
(g77
g58
NtRp1180
(dp1181
g61
(dp1182
g88
g89
ssg70
g1171
sg63
(lp1183
S':'
asbag56
(g77
g58
NtRp1184
(dp1185
g61
(dp1186
sg70
g1171
sg63
(lp1187
g56
(g57
g58
NtRp1188
(dp1189
g61
(dp1190
g69
I4
ssg70
g1184
sg63
(lp1191
S'http://127.0.0.1:8000/places'
p1192
asbasbasbag56
(g72
g58
NtRp1193
(dp1194
g61
(dp1195
sg70
g856
sg63
(lp1196
g56
(g77
g58
NtRp1197
(dp1198
g61
(dp1199
g81
g82
ssg70
g1193
sg63
(lp1200
S'http_user_agent'
p1201
asbag56
(g77
g58
NtRp1202
(dp1203
g61
(dp1204
g88
g89
ssg70
g1193
sg63
(lp1205
S':'
asbag56
(g77
g58
NtRp1206
(dp1207
g61
(dp1208
sg70
g1193
sg63
(lp1209
g56
(g57
g58
NtRp1210
(dp1211
g61
(dp1212
g69
I4
ssg70
g1206
sg63
(lp1213
S'Mozilla/5.0 (X11; Linux x86_64; rv:7.0.1) Gecko/20100101 Firefox/7.0.1'
p1214
asbasbasbag56
(g72
g58
NtRp1215
(dp1216
g61
(dp1217
sg70
g856
sg63
(lp1218
g56
(g77
g58
NtRp1219
(dp1220
g61
(dp1221
g81
g82
ssg70
g1215
sg63
(lp1222
S'http_web2py_component_element'
p1223
asbag56
(g77
g58
NtRp1224
(dp1225
g61
(dp1226
g88
g89
ssg70
g1215
sg63
(lp1227
S':'
asbag56
(g77
g58
NtRp1228
(dp1229
g61
(dp1230
sg70
g1215
sg63
(lp1231
g56
(g57
g58
NtRp1232
(dp1233
g61
(dp1234
g69
I4
ssg70
g1228
sg63
(lp1235
g202
asbasbasbag56
(g72
g58
NtRp1236
(dp1237
g61
(dp1238
sg70
g856
sg63
(lp1239
g56
(g77
g58
NtRp1240
(dp1241
g61
(dp1242
g81
g82
ssg70
g1236
sg63
(lp1243
S'http_web2py_component_location'
p1244
asbag56
(g77
g58
NtRp1245
(dp1246
g61
(dp1247
g88
g89
ssg70
g1236
sg63
(lp1248
S':'
asbag56
(g77
g58
NtRp1249
(dp1250
g61
(dp1251
sg70
g1236
sg63
(lp1252
g56
(g57
g58
NtRp1253
(dp1254
g61
(dp1255
g69
I4
ssg70
g1249
sg63
(lp1256
S'http://127.0.0.1:8000/places'
p1257
asbasbasbag56
(g72
g58
NtRp1258
(dp1259
g61
(dp1260
sg70
g856
sg63
(lp1261
g56
(g77
g58
NtRp1262
(dp1263
g61
(dp1264
g81
g82
ssg70
g1258
sg63
(lp1265
S'http_x_requested_with'
p1266
asbag56
(g77
g58
NtRp1267
(dp1268
g61
(dp1269
g88
g89
ssg70
g1258
sg63
(lp1270
S':'
asbag56
(g77
g58
NtRp1271
(dp1272
g61
(dp1273
sg70
g1258
sg63
(lp1274
g56
(g57
g58
NtRp1275
(dp1276
g61
(dp1277
g69
I4
ssg70
g1271
sg63
(lp1278
S'XMLHttpRequest'
p1279
asbasbasbag56
(g72
g58
NtRp1280
(dp1281
g61
(dp1282
sg70
g856
sg63
(lp1283
g56
(g77
g58
NtRp1284
(dp1285
g61
(dp1286
g81
g82
ssg70
g1280
sg63
(lp1287
S'is_jython'
p1288
asbag56
(g77
g58
NtRp1289
(dp1290
g61
(dp1291
g88
g89
ssg70
g1280
sg63
(lp1292
S':'
asbag56
(g77
g58
NtRp1293
(dp1294
g61
(dp1295
sg70
g1280
sg63
(lp1296
g56
(g57
g58
NtRp1297
(dp1298
g61
(dp1299
g69
I4
ssg70
g1293
sg63
(lp1300
g994
asbasbasbag56
(g72
g58
NtRp1301
(dp1302
g61
(dp1303
sg70
g856
sg63
(lp1304
g56
(g77
g58
NtRp1305
(dp1306
g61
(dp1307
g81
g82
ssg70
g1301
sg63
(lp1308
S'path_info'
p1309
asbag56
(g77
g58
NtRp1310
(dp1311
g61
(dp1312
g88
g89
ssg70
g1301
sg63
(lp1313
S':'
asbag56
(g77
g58
NtRp1314
(dp1315
g61
(dp1316
sg70
g1301
sg63
(lp1317
g56
(g57
g58
NtRp1318
(dp1319
g61
(dp1320
g69
I4
ssg70
g1314
sg63
(lp1321
S'/places/default/index.load/kitchen'
p1322
asbasbasbag56
(g72
g58
NtRp1323
(dp1324
g61
(dp1325
sg70
g856
sg63
(lp1326
g56
(g77
g58
NtRp1327
(dp1328
g61
(dp1329
g81
g82
ssg70
g1323
sg63
(lp1330
S'query_string'
p1331
asbag56
(g77
g58
NtRp1332
(dp1333
g61
(dp1334
g88
g89
ssg70
g1323
sg63
(lp1335
S':'
asbag56
(g77
g58
NtRp1336
(dp1337
g61
(dp1338
sg70
g1323
sg63
(lp1339
g56
(g57
g58
NtRp1340
(dp1341
g61
(dp1342
g69
I4
ssg70
g1336
sg63
(lp1343
S''
asbasbasbag56
(g72
g58
NtRp1344
(dp1345
g61
(dp1346
sg70
g856
sg63
(lp1347
g56
(g77
g58
NtRp1348
(dp1349
g61
(dp1350
g81
g82
ssg70
g1344
sg63
(lp1351
S'remote_addr'
p1352
asbag56
(g77
g58
NtRp1353
(dp1354
g61
(dp1355
g88
g89
ssg70
g1344
sg63
(lp1356
S':'
asbag56
(g77
g58
NtRp1357
(dp1358
g61
(dp1359
sg70
g1344
sg63
(lp1360
g56
(g57
g58
NtRp1361
(dp1362
g61
(dp1363
g69
I4
ssg70
g1357
sg63
(lp1364
g224
asbasbasbag56
(g72
g58
NtRp1365
(dp1366
g61
(dp1367
sg70
g856
sg63
(lp1368
g56
(g77
g58
NtRp1369
(dp1370
g61
(dp1371
g81
g82
ssg70
g1365
sg63
(lp1372
S'remote_port'
p1373
asbag56
(g77
g58
NtRp1374
(dp1375
g61
(dp1376
g88
g89
ssg70
g1365
sg63
(lp1377
S':'
asbag56
(g77
g58
NtRp1378
(dp1379
g61
(dp1380
sg70
g1365
sg63
(lp1381
g56
(g57
g58
NtRp1382
(dp1383
g61
(dp1384
g69
I4
ssg70
g1378
sg63
(lp1385
S'52513'
p1386
asbasbasbag56
(g72
g58
NtRp1387
(dp1388
g61
(dp1389
sg70
g856
sg63
(lp1390
g56
(g77
g58
NtRp1391
(dp1392
g61
(dp1393
g81
g82
ssg70
g1387
sg63
(lp1394
S'request_method'
p1395
asbag56
(g77
g58
NtRp1396
(dp1397
g61
(dp1398
g88
g89
ssg70
g1387
sg63
(lp1399
S':'
asbag56
(g77
g58
NtRp1400
(dp1401
g61
(dp1402
sg70
g1387
sg63
(lp1403
g56
(g57
g58
NtRp1404
(dp1405
g61
(dp1406
g69
I4
ssg70
g1400
sg63
(lp1407
S'GET'
p1408
asbasbasbag56
(g72
g58
NtRp1409
(dp1410
g61
(dp1411
sg70
g856
sg63
(lp1412
g56
(g77
g58
NtRp1413
(dp1414
g61
(dp1415
g81
g82
ssg70
g1409
sg63
(lp1416
S'script_name'
p1417
asbag56
(g77
g58
NtRp1418
(dp1419
g61
(dp1420
g88
g89
ssg70
g1409
sg63
(lp1421
S':'
asbag56
(g77
g58
NtRp1422
(dp1423
g61
(dp1424
sg70
g1409
sg63
(lp1425
g56
(g57
g58
NtRp1426
(dp1427
g61
(dp1428
g69
I4
ssg70
g1422
sg63
(lp1429
S''
asbasbasbag56
(g72
g58
NtRp1430
(dp1431
g61
(dp1432
sg70
g856
sg63
(lp1433
g56
(g77
g58
NtRp1434
(dp1435
g61
(dp1436
g81
g82
ssg70
g1430
sg63
(lp1437
S'server_name'
p1438
asbag56
(g77
g58
NtRp1439
(dp1440
g61
(dp1441
g88
g89
ssg70
g1430
sg63
(lp1442
S':'
asbag56
(g77
g58
NtRp1443
(dp1444
g61
(dp1445
sg70
g1430
sg63
(lp1446
g56
(g57
g58
NtRp1447
(dp1448
g61
(dp1449
g69
I4
ssg70
g1443
sg63
(lp1450
S'Ariel-ubuntu'
p1451
asbasbasbag56
(g72
g58
NtRp1452
(dp1453
g61
(dp1454
sg70
g856
sg63
(lp1455
g56
(g77
g58
NtRp1456
(dp1457
g61
(dp1458
g81
g82
ssg70
g1452
sg63
(lp1459
S'server_port'
p1460
asbag56
(g77
g58
NtRp1461
(dp1462
g61
(dp1463
g88
g89
ssg70
g1452
sg63
(lp1464
S':'
asbag56
(g77
g58
NtRp1465
(dp1466
g61
(dp1467
sg70
g1452
sg63
(lp1468
g56
(g57
g58
NtRp1469
(dp1470
g61
(dp1471
g69
I4
ssg70
g1465
sg63
(lp1472
S'8000'
p1473
asbasbasbag56
(g72
g58
NtRp1474
(dp1475
g61
(dp1476
sg70
g856
sg63
(lp1477
g56
(g77
g58
NtRp1478
(dp1479
g61
(dp1480
g81
g82
ssg70
g1474
sg63
(lp1481
S'server_protocol'
p1482
asbag56
(g77
g58
NtRp1483
(dp1484
g61
(dp1485
g88
g89
ssg70
g1474
sg63
(lp1486
S':'
asbag56
(g77
g58
NtRp1487
(dp1488
g61
(dp1489
sg70
g1474
sg63
(lp1490
g56
(g57
g58
NtRp1491
(dp1492
g61
(dp1493
g69
I4
ssg70
g1487
sg63
(lp1494
S'HTTP/1.1'
p1495
asbasbasbag56
(g72
g58
NtRp1496
(dp1497
g61
(dp1498
sg70
g856
sg63
(lp1499
g56
(g77
g58
NtRp1500
(dp1501
g61
(dp1502
g81
g82
ssg70
g1496
sg63
(lp1503
S'server_software'
p1504
asbag56
(g77
g58
NtRp1505
(dp1506
g61
(dp1507
g88
g89
ssg70
g1496
sg63
(lp1508
S':'
asbag56
(g77
g58
NtRp1509
(dp1510
g61
(dp1511
sg70
g1496
sg63
(lp1512
g56
(g57
g58
NtRp1513
(dp1514
g61
(dp1515
g69
I4
ssg70
g1509
sg63
(lp1516
S'Rocket 1.2.4'
p1517
asbasbasbag56
(g72
g58
NtRp1518
(dp1519
g61
(dp1520
sg70
g856
sg63
(lp1521
g56
(g77
g58
NtRp1522
(dp1523
g61
(dp1524
g81
g82
ssg70
g1518
sg63
(lp1525
S'web2py_crontype'
p1526
asbag56
(g77
g58
NtRp1527
(dp1528
g61
(dp1529
g88
g89
ssg70
g1518
sg63
(lp1530
S':'
asbag56
(g77
g58
NtRp1531
(dp1532
g61
(dp1533
sg70
g1518
sg63
(lp1534
g56
(g57
g58
NtRp1535
(dp1536
g61
(dp1537
g69
I4
ssg70
g1531
sg63
(lp1538
S'hard'
p1539
asbasbasbag56
(g72
g58
NtRp1540
(dp1541
g61
(dp1542
sg70
g856
sg63
(lp1543
g56
(g77
g58
NtRp1544
(dp1545
g61
(dp1546
g81
g82
ssg70
g1540
sg63
(lp1547
S'web2py_path'
p1548
asbag56
(g77
g58
NtRp1549
(dp1550
g61
(dp1551
g88
g89
ssg70
g1540
sg63
(lp1552
S':'
asbag56
(g77
g58
NtRp1553
(dp1554
g61
(dp1555
sg70
g1540
sg63
(lp1556
g56
(g57
g58
NtRp1557
(dp1558
g61
(dp1559
g69
I4
ssg70
g1553
sg63
(lp1560
g903
asbasbasbag56
(g72
g58
NtRp1561
(dp1562
g61
(dp1563
sg70
g856
sg63
(lp1564
g56
(g77
g58
NtRp1565
(dp1566
g61
(dp1567
g81
g82
ssg70
g1561
sg63
(lp1568
S'web2py_version'
p1569
asbag56
(g77
g58
NtRp1570
(dp1571
g61
(dp1572
g88
g89
ssg70
g1561
sg63
(lp1573
S':'
asbag56
(g77
g58
NtRp1574
(dp1575
g61
(dp1576
sg70
g1561
sg63
(lp1577
g56
(g57
g58
NtRp1578
(dp1579
g61
(dp1580
g69
I4
ssg70
g1574
sg63
(lp1581
g56
(g65
g58
NtRp1582
(dp1583
g61
(dp1584
g69
I3
ssg70
Nsg63
(lp1585
g56
(g72
g58
NtRp1586
(dp1587
g61
(dp1588
sg70
g1582
sg63
(lp1589
g56
(g77
g58
NtRp1590
(dp1591
g61
(dp1592
sg70
g1586
sg63
(lp1593
g56
(g57
g58
NtRp1594
(dp1595
g61
(dp1596
g69
I3
ssg70
g1590
sg63
(lp1597
S'1'
asbasbasbag56
(g72
g58
NtRp1598
(dp1599
g61
(dp1600
sg70
g1582
sg63
(lp1601
g56
(g77
g58
NtRp1602
(dp1603
g61
(dp1604
sg70
g1598
sg63
(lp1605
g56
(g57
g58
NtRp1606
(dp1607
g61
(dp1608
g69
I3
ssg70
g1602
sg63
(lp1609
S'99'
p1610
asbasbasbag56
(g72
g58
NtRp1611
(dp1612
g61
(dp1613
sg70
g1582
sg63
(lp1614
g56
(g77
g58
NtRp1615
(dp1616
g61
(dp1617
sg70
g1611
sg63
(lp1618
g56
(g57
g58
NtRp1619
(dp1620
g61
(dp1621
g69
I3
ssg70
g1615
sg63
(lp1622
S'2'
asbasbasbag56
(g72
g58
NtRp1623
(dp1624
g61
(dp1625
sg70
g1582
sg63
(lp1626
g56
(g77
g58
NtRp1627
(dp1628
g61
(dp1629
sg70
g1623
sg63
(lp1630
g56
(g57
g58
NtRp1631
(dp1632
g61
(dp1633
g69
I3
ssg70
g1627
sg63
(lp1634
S'datetime.datetime(2011, 9, 26, 6, 55, 33)'
p1635
asbasbasbag56
(g72
g58
NtRp1636
(dp1637
g61
(dp1638
sg70
g1582
sg63
(lp1639
g56
(g77
g58
NtRp1640
(dp1641
g61
(dp1642
sg70
g1636
sg63
(lp1643
g56
(g57
g58
NtRp1644
(dp1645
g61
(dp1646
g69
I3
ssg70
g1640
sg63
(lp1647
S'stable'
p1648
asbasbasbasbasbasbasbag56
(g72
g58
NtRp1649
(dp1650
g61
(dp1651
sg70
g856
sg63
(lp1652
g56
(g77
g58
NtRp1653
(dp1654
g61
(dp1655
g81
g82
ssg70
g1649
sg63
(lp1656
S'wsgi_errors'
p1657
asbag56
(g77
g58
NtRp1658
(dp1659
g61
(dp1660
g88
g89
ssg70
g1649
sg63
(lp1661
S':'
asbag56
(g77
g58
NtRp1662
(dp1663
g61
(dp1664
sg70
g1649
sg63
(lp1665
g56
(g57
g58
NtRp1666
(dp1667
g61
(dp1668
g69
I4
ssg70
g1662
sg63
(lp1669
S"<open file '<stderr>', mode 'w' at 0x7f6d3a48b270>"
p1670
asbasbasbag56
(g72
g58
NtRp1671
(dp1672
g61
(dp1673
sg70
g856
sg63
(lp1674
g56
(g77
g58
NtRp1675
(dp1676
g61
(dp1677
g81
g82
ssg70
g1671
sg63
(lp1678
S'wsgi_file_wrapper'
p1679
asbag56
(g77
g58
NtRp1680
(dp1681
g61
(dp1682
g88
g89
ssg70
g1671
sg63
(lp1683
S':'
asbag56
(g77
g58
NtRp1684
(dp1685
g61
(dp1686
sg70
g1671
sg63
(lp1687
g56
(g57
g58
NtRp1688
(dp1689
g61
(dp1690
g69
I4
ssg70
g1684
sg63
(lp1691
S'<class wsgiref.util.FileWrapper at 0x25957a0>'
p1692
asbasbasbag56
(g72
g58
NtRp1693
(dp1694
g61
(dp1695
sg70
g856
sg63
(lp1696
g56
(g77
g58
NtRp1697
(dp1698
g61
(dp1699
g81
g82
ssg70
g1693
sg63
(lp1700
S'wsgi_input'
p1701
asbag56
(g77
g58
NtRp1702
(dp1703
g61
(dp1704
g88
g89
ssg70
g1693
sg63
(lp1705
S':'
asbag56
(g77
g58
NtRp1706
(dp1707
g61
(dp1708
sg70
g1693
sg63
(lp1709
g56
(g57
g58
NtRp1710
(dp1711
g61
(dp1712
g69
I4
ssg70
g1706
sg63
(lp1713
S'<socket._fileobject object at 0x2ed21d0>'
p1714
asbasbasbag56
(g72
g58
NtRp1715
(dp1716
g61
(dp1717
sg70
g856
sg63
(lp1718
g56
(g77
g58
NtRp1719
(dp1720
g61
(dp1721
g81
g82
ssg70
g1715
sg63
(lp1722
S'wsgi_multiprocess'
p1723
asbag56
(g77
g58
NtRp1724
(dp1725
g61
(dp1726
g88
g89
ssg70
g1715
sg63
(lp1727
S':'
asbag56
(g77
g58
NtRp1728
(dp1729
g61
(dp1730
sg70
g1715
sg63
(lp1731
g56
(g57
g58
NtRp1732
(dp1733
g61
(dp1734
g69
I4
ssg70
g1728
sg63
(lp1735
g994
asbasbasbag56
(g72
g58
NtRp1736
(dp1737
g61
(dp1738
sg70
g856
sg63
(lp1739
g56
(g77
g58
NtRp1740
(dp1741
g61
(dp1742
g81
g82
ssg70
g1736
sg63
(lp1743
S'wsgi_multithread'
p1744
asbag56
(g77
g58
NtRp1745
(dp1746
g61
(dp1747
g88
g89
ssg70
g1736
sg63
(lp1748
S':'
asbag56
(g77
g58
NtRp1749
(dp1750
g61
(dp1751
sg70
g1736
sg63
(lp1752
g56
(g57
g58
NtRp1753
(dp1754
g61
(dp1755
g69
I4
ssg70
g1749
sg63
(lp1756
g99
asbasbasbag56
(g72
g58
NtRp1757
(dp1758
g61
(dp1759
sg70
g856
sg63
(lp1760
g56
(g77
g58
NtRp1761
(dp1762
g61
(dp1763
g81
g82
ssg70
g1757
sg63
(lp1764
S'wsgi_run_once'
p1765
asbag56
(g77
g58
NtRp1766
(dp1767
g61
(dp1768
g88
g89
ssg70
g1757
sg63
(lp1769
S':'
asbag56
(g77
g58
NtRp1770
(dp1771
g61
(dp1772
sg70
g1757
sg63
(lp1773
g56
(g57
g58
NtRp1774
(dp1775
g61
(dp1776
g69
I4
ssg70
g1770
sg63
(lp1777
g994
asbasbasbag56
(g72
g58
NtRp1778
(dp1779
g61
(dp1780
sg70
g856
sg63
(lp1781
g56
(g77
g58
NtRp1782
(dp1783
g61
(dp1784
g81
g82
ssg70
g1778
sg63
(lp1785
S'wsgi_url_scheme'
p1786
asbag56
(g77
g58
NtRp1787
(dp1788
g61
(dp1789
g88
g89
ssg70
g1778
sg63
(lp1790
S':'
asbag56
(g77
g58
NtRp1791
(dp1792
g61
(dp1793
sg70
g1778
sg63
(lp1794
g56
(g57
g58
NtRp1795
(dp1796
g61
(dp1797
g69
I4
ssg70
g1791
sg63
(lp1798
S'http'
p1799
asbasbasbag56
(g72
g58
NtRp1800
(dp1801
g61
(dp1802
sg70
g856
sg63
(lp1803
g56
(g77
g58
NtRp1804
(dp1805
g61
(dp1806
g81
g82
ssg70
g1800
sg63
(lp1807
S'wsgi_version'
p1808
asbag56
(g77
g58
NtRp1809
(dp1810
g61
(dp1811
g88
g89
ssg70
g1800
sg63
(lp1812
S':'
asbag56
(g77
g58
NtRp1813
(dp1814
g61
(dp1815
sg70
g1800
sg63
(lp1816
g56
(g57
g58
NtRp1817
(dp1818
g61
(dp1819
g69
I4
ssg70
g1813
sg63
(lp1820
g56
(g65
g58
NtRp1821
(dp1822
g61
(dp1823
g69
I3
ssg70
Nsg63
(lp1824
g56
(g72
g58
NtRp1825
(dp1826
g61
(dp1827
sg70
g1821
sg63
(lp1828
g56
(g77
g58
NtRp1829
(dp1830
g61
(dp1831
sg70
g1825
sg63
(lp1832
g56
(g57
g58
NtRp1833
(dp1834
g61
(dp1835
g69
I3
ssg70
g1829
sg63
(lp1836
S'1'
asbasbasbag56
(g72
g58
NtRp1837
(dp1838
g61
(dp1839
sg70
g1821
sg63
(lp1840
g56
(g77
g58
NtRp1841
(dp1842
g61
(dp1843
sg70
g1837
sg63
(lp1844
g56
(g57
g58
NtRp1845
(dp1846
g61
(dp1847
g69
I3
ssg70
g1841
sg63
(lp1848
S'0'
asbasbasbasbasbasbasbasbasbasbasbag56
(g72
g58
NtRp1849
(dp1850
g61
(dp1851
sg70
g66
sg63
(lp1852
g56
(g77
g58
NtRp1853
(dp1854
g61
(dp1855
g81
g82
ssg70
g1849
sg63
(lp1856
S'extension'
p1857
asbag56
(g77
g58
NtRp1858
(dp1859
g61
(dp1860
g88
g89
ssg70
g1849
sg63
(lp1861
S':'
asbag56
(g77
g58
NtRp1862
(dp1863
g61
(dp1864
sg70
g1849
sg63
(lp1865
g56
(g57
g58
NtRp1866
(dp1867
g61
(dp1868
g69
I5
ssg70
g1862
sg63
(lp1869
S'load'
p1870
asbasbasbag56
(g72
g58
NtRp1871
(dp1872
g61
(dp1873
sg70
g66
sg63
(lp1874
g56
(g77
g58
NtRp1875
(dp1876
g61
(dp1877
g81
g82
ssg70
g1871
sg63
(lp1878
S'folder'
p1879
asbag56
(g77
g58
NtRp1880
(dp1881
g61
(dp1882
g88
g89
ssg70
g1871
sg63
(lp1883
S':'
asbag56
(g77
g58
NtRp1884
(dp1885
g61
(dp1886
sg70
g1871
sg63
(lp1887
g56
(g57
g58
NtRp1888
(dp1889
g61
(dp1890
g69
I5
ssg70
g1884
sg63
(lp1891
S'/home/ian/web2py/applications/places/'
p1892
asbasbasbag56
(g72
g58
NtRp1893
(dp1894
g61
(dp1895
sg70
g66
sg63
(lp1896
g56
(g77
g58
NtRp1897
(dp1898
g61
(dp1899
g81
g82
ssg70
g1893
sg63
(lp1900
S'function'
p1901
asbag56
(g77
g58
NtRp1902
(dp1903
g61
(dp1904
g88
g89
ssg70
g1893
sg63
(lp1905
S':'
asbag56
(g77
g58
NtRp1906
(dp1907
g61
(dp1908
sg70
g1893
sg63
(lp1909
g56
(g57
g58
NtRp1910
(dp1911
g61
(dp1912
g69
I5
ssg70
g1906
sg63
(lp1913
S'index'
p1914
asbasbasbag56
(g72
g58
NtRp1915
(dp1916
g61
(dp1917
sg70
g66
sg63
(lp1918
g56
(g77
g58
NtRp1919
(dp1920
g61
(dp1921
g81
g82
ssg70
g1915
sg63
(lp1922
S'get_vars'
p1923
asbag56
(g77
g58
NtRp1924
(dp1925
g61
(dp1926
g88
g89
ssg70
g1915
sg63
(lp1927
S':'
asbag56
(g77
g58
NtRp1928
(dp1929
g61
(dp1930
sg70
g1915
sg63
(lp1931
g56
(g57
g58
NtRp1932
(dp1933
g61
(dp1934
g69
I5
ssg70
g1928
sg63
(lp1935
g56
(g65
g58
NtRp1936
(dp1937
g61
(dp1938
g69
I4
ssg70
Nsg63
(lp1939
sbasbasbasbag56
(g72
g58
NtRp1940
(dp1941
g61
(dp1942
sg70
g66
sg63
(lp1943
g56
(g77
g58
NtRp1944
(dp1945
g61
(dp1946
g81
g82
ssg70
g1940
sg63
(lp1947
S'global_settings'
p1948
asbag56
(g77
g58
NtRp1949
(dp1950
g61
(dp1951
g88
g89
ssg70
g1940
sg63
(lp1952
S':'
asbag56
(g77
g58
NtRp1953
(dp1954
g61
(dp1955
sg70
g1940
sg63
(lp1956
g56
(g57
g58
NtRp1957
(dp1958
g61
(dp1959
g69
I5
ssg70
g1953
sg63
(lp1960
g56
(g65
g58
NtRp1961
(dp1962
g61
(dp1963
g69
I4
ssg70
Nsg63
(lp1964
g56
(g72
g58
NtRp1965
(dp1966
g61
(dp1967
sg70
g1961
sg63
(lp1968
g56
(g77
g58
NtRp1969
(dp1970
g61
(dp1971
g81
g82
ssg70
g1965
sg63
(lp1972
g868
asbag56
(g77
g58
NtRp1973
(dp1974
g61
(dp1975
g88
g89
ssg70
g1965
sg63
(lp1976
S':'
asbag56
(g77
g58
NtRp1977
(dp1978
g61
(dp1979
sg70
g1965
sg63
(lp1980
g56
(g57
g58
NtRp1981
(dp1982
g61
(dp1983
g69
I4
ssg70
g1977
sg63
(lp1984
S"set(['/home/ian/web2py/applications/welcome/', '/home/ian/web2py/applications/places/', '/home/ian/web2py/applications/admin/'])"
p1985
asbasbasbag56
(g72
g58
NtRp1986
(dp1987
g61
(dp1988
sg70
g1961
sg63
(lp1989
g56
(g77
g58
NtRp1990
(dp1991
g61
(dp1992
g81
g82
ssg70
g1986
sg63
(lp1993
g890
asbag56
(g77
g58
NtRp1994
(dp1995
g61
(dp1996
g88
g89
ssg70
g1986
sg63
(lp1997
S':'
asbag56
(g77
g58
NtRp1998
(dp1999
g61
(dp2000
sg70
g1986
sg63
(lp2001
g56
(g57
g58
NtRp2002
(dp2003
g61
(dp2004
g69
I4
ssg70
g1998
sg63
(lp2005
g903
asbasbasbag56
(g72
g58
NtRp2006
(dp2007
g61
(dp2008
sg70
g1961
sg63
(lp2009
g56
(g77
g58
NtRp2010
(dp2011
g61
(dp2012
g81
g82
ssg70
g2006
sg63
(lp2013
g912
asbag56
(g77
g58
NtRp2014
(dp2015
g61
(dp2016
g88
g89
ssg70
g2006
sg63
(lp2017
S':'
asbag56
(g77
g58
NtRp2018
(dp2019
g61
(dp2020
sg70
g2006
sg63
(lp2021
g56
(g57
g58
NtRp2022
(dp2023
g61
(dp2024
g69
I4
ssg70
g2018
sg63
(lp2025
g56
(g65
g58
NtRp2026
(dp2027
g61
(dp2028
g69
I3
ssg70
Nsg63
(lp2029
sbasbasbasbag56
(g72
g58
NtRp2030
(dp2031
g61
(dp2032
sg70
g1961
sg63
(lp2033
g56
(g77
g58
NtRp2034
(dp2035
g61
(dp2036
g81
g82
ssg70
g2030
sg63
(lp2037
g937
asbag56
(g77
g58
NtRp2038
(dp2039
g61
(dp2040
g88
g89
ssg70
g2030
sg63
(lp2041
S':'
asbag56
(g77
g58
NtRp2042
(dp2043
g61
(dp2044
sg70
g2030
sg63
(lp2045
g56
(g57
g58
NtRp2046
(dp2047
g61
(dp2048
g69
I4
ssg70
g2042
sg63
(lp2049
S"<Values at 0x26ccbd8: {'verbose': False, 'ip': '127.0.0.1', 'shutdown_timeout': 5, 'taskbar': False, 'nocron': False, 'pid_filename': 'httpserver.pid', 'maxthreads': None, 'softcron': False, 'server_name': 'Ariel-ubuntu', 'bpython': False, 'nogui': False, 'port': 8000, 'extcron': False, 'debuglevel': 30, 'test': None, 'folder': '/home/ian/web2py', 'config': '', 'import_models': False, 'winservice': '', 'shell': None, 'run': '', 'log_filename': 'httpserver.log', 'args': [''], 'ssl_ca_certificate': None, 'scheduler': None, 'profiler_filename': None, 'ssl_private_key': '', 'password': '<ask>', 'request_queue_size': 5, 'ssl_certificate': '', 'cronjob': False, 'plain': False, 'quiet': False, 'interfaces': None, 'minthreads': None, 'timeout': 10, 'numthreads': None, 'nobanner': False}>"
p2050
asbasbasbag56
(g72
g58
NtRp2051
(dp2052
g61
(dp2053
sg70
g1961
sg63
(lp2054
g56
(g77
g58
NtRp2055
(dp2056
g61
(dp2057
g81
g82
ssg70
g2051
sg63
(lp2058
g959
asbag56
(g77
g58
NtRp2059
(dp2060
g61
(dp2061
g88
g89
ssg70
g2051
sg63
(lp2062
S':'
asbag56
(g77
g58
NtRp2063
(dp2064
g61
(dp2065
sg70
g2051
sg63
(lp2066
g56
(g57
g58
NtRp2067
(dp2068
g61
(dp2069
g69
I4
ssg70
g2063
sg63
(lp2070
S'set([])'
p2071
asbasbasbag56
(g72
g58
NtRp2072
(dp2073
g61
(dp2074
sg70
g1961
sg63
(lp2075
g56
(g77
g58
NtRp2076
(dp2077
g61
(dp2078
g81
g82
ssg70
g2072
sg63
(lp2079
g981
asbag56
(g77
g58
NtRp2080
(dp2081
g61
(dp2082
g88
g89
ssg70
g2072
sg63
(lp2083
S':'
asbag56
(g77
g58
NtRp2084
(dp2085
g61
(dp2086
sg70
g2072
sg63
(lp2087
g56
(g57
g58
NtRp2088
(dp2089
g61
(dp2090
g69
I4
ssg70
g2084
sg63
(lp2091
g994
asbasbasbag56
(g72
g58
NtRp2092
(dp2093
g61
(dp2094
sg70
g1961
sg63
(lp2095
g56
(g77
g58
NtRp2096
(dp2097
g61
(dp2098
g81
g82
ssg70
g2092
sg63
(lp2099
g1003
asbag56
(g77
g58
NtRp2100
(dp2101
g61
(dp2102
g88
g89
ssg70
g2092
sg63
(lp2103
S':'
asbag56
(g77
g58
NtRp2104
(dp2105
g61
(dp2106
sg70
g2092
sg63
(lp2107
g56
(g57
g58
NtRp2108
(dp2109
g61
(dp2110
g69
I4
ssg70
g2104
sg63
(lp2111
g1016
asbasbasbag56
(g72
g58
NtRp2112
(dp2113
g61
(dp2114
sg70
g1961
sg63
(lp2115
g56
(g77
g58
NtRp2116
(dp2117
g61
(dp2118
g81
g82
ssg70
g2112
sg63
(lp2119
g1288
asbag56
(g77
g58
NtRp2120
(dp2121
g61
(dp2122
g88
g89
ssg70
g2112
sg63
(lp2123
S':'
asbag56
(g77
g58
NtRp2124
(dp2125
g61
(dp2126
sg70
g2112
sg63
(lp2127
g56
(g57
g58
NtRp2128
(dp2129
g61
(dp2130
g69
I4
ssg70
g2124
sg63
(lp2131
g994
asbasbasbag56
(g72
g58
NtRp2132
(dp2133
g61
(dp2134
sg70
g1961
sg63
(lp2135
g56
(g77
g58
NtRp2136
(dp2137
g61
(dp2138
g81
g82
ssg70
g2132
sg63
(lp2139
g1526
asbag56
(g77
g58
NtRp2140
(dp2141
g61
(dp2142
g88
g89
ssg70
g2132
sg63
(lp2143
S':'
asbag56
(g77
g58
NtRp2144
(dp2145
g61
(dp2146
sg70
g2132
sg63
(lp2147
g56
(g57
g58
NtRp2148
(dp2149
g61
(dp2150
g69
I4
ssg70
g2144
sg63
(lp2151
g1539
asbasbasbag56
(g72
g58
NtRp2152
(dp2153
g61
(dp2154
sg70
g1961
sg63
(lp2155
g56
(g77
g58
NtRp2156
(dp2157
g61
(dp2158
g81
g82
ssg70
g2152
sg63
(lp2159
g1569
asbag56
(g77
g58
NtRp2160
(dp2161
g61
(dp2162
g88
g89
ssg70
g2152
sg63
(lp2163
S':'
asbag56
(g77
g58
NtRp2164
(dp2165
g61
(dp2166
sg70
g2152
sg63
(lp2167
g56
(g57
g58
NtRp2168
(dp2169
g61
(dp2170
g69
I4
ssg70
g2164
sg63
(lp2171
g56
(g65
g58
NtRp2172
(dp2173
g61
(dp2174
g69
I3
ssg70
Nsg63
(lp2175
g56
(g72
g58
NtRp2176
(dp2177
g61
(dp2178
sg70
g2172
sg63
(lp2179
g56
(g77
g58
NtRp2180
(dp2181
g61
(dp2182
sg70
g2176
sg63
(lp2183
g56
(g57
g58
NtRp2184
(dp2185
g61
(dp2186
g69
I3
ssg70
g2180
sg63
(lp2187
S'1'
asbasbasbag56
(g72
g58
NtRp2188
(dp2189
g61
(dp2190
sg70
g2172
sg63
(lp2191
g56
(g77
g58
NtRp2192
(dp2193
g61
(dp2194
sg70
g2188
sg63
(lp2195
g56
(g57
g58
NtRp2196
(dp2197
g61
(dp2198
g69
I3
ssg70
g2192
sg63
(lp2199
S'99'
p2200
asbasbasbag56
(g72
g58
NtRp2201
(dp2202
g61
(dp2203
sg70
g2172
sg63
(lp2204
g56
(g77
g58
NtRp2205
(dp2206
g61
(dp2207
sg70
g2201
sg63
(lp2208
g56
(g57
g58
NtRp2209
(dp2210
g61
(dp2211
g69
I3
ssg70
g2205
sg63
(lp2212
S'2'
asbasbasbag56
(g72
g58
NtRp2213
(dp2214
g61
(dp2215
sg70
g2172
sg63
(lp2216
g56
(g77
g58
NtRp2217
(dp2218
g61
(dp2219
sg70
g2213
sg63
(lp2220
g56
(g57
g58
NtRp2221
(dp2222
g61
(dp2223
g69
I3
ssg70
g2217
sg63
(lp2224
S'datetime.datetime(2011, 9, 26, 6, 55, 33)'
p2225
asbasbasbag56
(g72
g58
NtRp2226
(dp2227
g61
(dp2228
sg70
g2172
sg63
(lp2229
g56
(g77
g58
NtRp2230
(dp2231
g61
(dp2232
sg70
g2226
sg63
(lp2233
g56
(g57
g58
NtRp2234
(dp2235
g61
(dp2236
g69
I3
ssg70
g2230
sg63
(lp2237
g1648
asbasbasbasbasbasbasbasbasbasbasbag56
(g72
g58
NtRp2238
(dp2239
g61
(dp2240
sg70
g66
sg63
(lp2241
g56
(g77
g58
NtRp2242
(dp2243
g61
(dp2244
g81
g82
ssg70
g2238
sg63
(lp2245
S'is_https'
p2246
asbag56
(g77
g58
NtRp2247
(dp2248
g61
(dp2249
g88
g89
ssg70
g2238
sg63
(lp2250
S':'
asbag56
(g77
g58
NtRp2251
(dp2252
g61
(dp2253
sg70
g2238
sg63
(lp2254
g56
(g57
g58
NtRp2255
(dp2256
g61
(dp2257
g69
I5
ssg70
g2251
sg63
(lp2258
g994
asbasbasbag56
(g72
g58
NtRp2259
(dp2260
g61
(dp2261
sg70
g66
sg63
(lp2262
g56
(g77
g58
NtRp2263
(dp2264
g61
(dp2265
g81
g82
ssg70
g2259
sg63
(lp2266
S'is_local'
p2267
asbag56
(g77
g58
NtRp2268
(dp2269
g61
(dp2270
g88
g89
ssg70
g2259
sg63
(lp2271
S':'
asbag56
(g77
g58
NtRp2272
(dp2273
g61
(dp2274
sg70
g2259
sg63
(lp2275
g56
(g57
g58
NtRp2276
(dp2277
g61
(dp2278
g69
I5
ssg70
g2272
sg63
(lp2279
g99
asbasbasbag56
(g72
g58
NtRp2280
(dp2281
g61
(dp2282
sg70
g66
sg63
(lp2283
g56
(g77
g58
NtRp2284
(dp2285
g61
(dp2286
g81
g82
ssg70
g2280
sg63
(lp2287
S'is_restful'
p2288
asbag56
(g77
g58
NtRp2289
(dp2290
g61
(dp2291
g88
g89
ssg70
g2280
sg63
(lp2292
S':'
asbag56
(g77
g58
NtRp2293
(dp2294
g61
(dp2295
sg70
g2280
sg63
(lp2296
g56
(g57
g58
NtRp2297
(dp2298
g61
(dp2299
g69
I5
ssg70
g2293
sg63
(lp2300
g994
asbasbasbag56
(g72
g58
NtRp2301
(dp2302
g61
(dp2303
sg70
g66
sg63
(lp2304
g56
(g77
g58
NtRp2305
(dp2306
g61
(dp2307
g81
g82
ssg70
g2301
sg63
(lp2308
S'now'
p2309
asbag56
(g77
g58
NtRp2310
(dp2311
g61
(dp2312
g88
g89
ssg70
g2301
sg63
(lp2313
S':'
asbag56
(g77
g58
NtRp2314
(dp2315
g61
(dp2316
sg70
g2301
sg63
(lp2317
g56
(g57
g58
NtRp2318
(dp2319
g61
(dp2320
g69
I5
ssg70
g2314
sg63
(lp2321
S'datetime.datetime(2011, 10, 2, 19, 25, 18, 755076)'
p2322
asbasbasbag56
(g72
g58
NtRp2323
(dp2324
g61
(dp2325
sg70
g66
sg63
(lp2326
g56
(g77
g58
NtRp2327
(dp2328
g61
(dp2329
g81
g82
ssg70
g2323
sg63
(lp2330
S'post_vars'
p2331
asbag56
(g77
g58
NtRp2332
(dp2333
g61
(dp2334
g88
g89
ssg70
g2323
sg63
(lp2335
S':'
asbag56
(g77
g58
NtRp2336
(dp2337
g61
(dp2338
sg70
g2323
sg63
(lp2339
g56
(g57
g58
NtRp2340
(dp2341
g61
(dp2342
g69
I5
ssg70
g2336
sg63
(lp2343
g56
(g65
g58
NtRp2344
(dp2345
g61
(dp2346
g69
I4
ssg70
Nsg63
(lp2347
sbasbasbasbag56
(g72
g58
NtRp2348
(dp2349
g61
(dp2350
sg70
g66
sg63
(lp2351
g56
(g77
g58
NtRp2352
(dp2353
g61
(dp2354
g81
g82
ssg70
g2348
sg63
(lp2355
S'raw_args'
p2356
asbag56
(g77
g58
NtRp2357
(dp2358
g61
(dp2359
g88
g89
ssg70
g2348
sg63
(lp2360
S':'
asbag56
(g77
g58
NtRp2361
(dp2362
g61
(dp2363
sg70
g2348
sg63
(lp2364
g56
(g57
g58
NtRp2365
(dp2366
g61
(dp2367
g69
I5
ssg70
g2361
sg63
(lp2368
g158
asbasbasbag56
(g72
g58
NtRp2369
(dp2370
g61
(dp2371
sg70
g66
sg63
(lp2372
g56
(g77
g58
NtRp2373
(dp2374
g61
(dp2375
g81
g82
ssg70
g2369
sg63
(lp2376
S'raw_extension'
p2377
asbag56
(g77
g58
NtRp2378
(dp2379
g61
(dp2380
g88
g89
ssg70
g2369
sg63
(lp2381
S':'
asbag56
(g77
g58
NtRp2382
(dp2383
g61
(dp2384
sg70
g2369
sg63
(lp2385
g56
(g57
g58
NtRp2386
(dp2387
g61
(dp2388
g69
I5
ssg70
g2382
sg63
(lp2389
g1870
asbasbasbag56
(g72
g58
NtRp2390
(dp2391
g61
(dp2392
sg70
g66
sg63
(lp2393
g56
(g77
g58
NtRp2394
(dp2395
g61
(dp2396
g81
g82
ssg70
g2390
sg63
(lp2397
S'url'
p2398
asbag56
(g77
g58
NtRp2399
(dp2400
g61
(dp2401
g88
g89
ssg70
g2390
sg63
(lp2402
S':'
asbag56
(g77
g58
NtRp2403
(dp2404
g61
(dp2405
sg70
g2390
sg63
(lp2406
g56
(g57
g58
NtRp2407
(dp2408
g61
(dp2409
g69
I5
ssg70
g2403
sg63
(lp2410
S'/places/default/index.load/kitchen'
p2411
asbasbasbag56
(g72
g58
NtRp2412
(dp2413
g61
(dp2414
sg70
g66
sg63
(lp2415
g56
(g77
g58
NtRp2416
(dp2417
g61
(dp2418
g81
g82
ssg70
g2412
sg63
(lp2419
S'utcnow'
p2420
asbag56
(g77
g58
NtRp2421
(dp2422
g61
(dp2423
g88
g89
ssg70
g2412
sg63
(lp2424
S':'
asbag56
(g77
g58
NtRp2425
(dp2426
g61
(dp2427
sg70
g2412
sg63
(lp2428
g56
(g57
g58
NtRp2429
(dp2430
g61
(dp2431
g69
I5
ssg70
g2425
sg63
(lp2432
S'datetime.datetime(2011, 10, 2, 23, 25, 18, 755118)'
p2433
asbasbasbag56
(g72
g58
NtRp2434
(dp2435
g61
(dp2436
sg70
g66
sg63
(lp2437
g56
(g77
g58
NtRp2438
(dp2439
g61
(dp2440
g81
g82
ssg70
g2434
sg63
(lp2441
S'uuid'
p2442
asbag56
(g77
g58
NtRp2443
(dp2444
g61
(dp2445
g88
g89
ssg70
g2434
sg63
(lp2446
S':'
asbag56
(g77
g58
NtRp2447
(dp2448
g61
(dp2449
sg70
g2434
sg63
(lp2450
g56
(g57
g58
NtRp2451
(dp2452
g61
(dp2453
g69
I5
ssg70
g2447
sg63
(lp2454
S'places/127.0.0.1.2011-10-02.19-25-18.8e7c3be8-b3a4-43ca-877b-7773f4d66e5d'
p2455
asbasbasbag56
(g72
g58
NtRp2456
(dp2457
g61
(dp2458
sg70
g66
sg63
(lp2459
g56
(g77
g58
NtRp2460
(dp2461
g61
(dp2462
g81
g82
ssg70
g2456
sg63
(lp2463
S'vars'
p2464
asbag56
(g77
g58
NtRp2465
(dp2466
g61
(dp2467
g88
g89
ssg70
g2456
sg63
(lp2468
S':'
asbag56
(g77
g58
NtRp2469
(dp2470
g61
(dp2471
sg70
g2456
sg63
(lp2472
g56
(g57
g58
NtRp2473
(dp2474
g61
(dp2475
g69
I5
ssg70
g2469
sg63
(lp2476
g56
(g65
g58
NtRp2477
(dp2478
g61
(dp2479
g69
I4
ssg70
Nsg63
(lp2480
sbasbasbasbag56
(g72
g58
NtRp2481
(dp2482
g61
(dp2483
sg70
g66
sg63
(lp2484
g56
(g77
g58
NtRp2485
(dp2486
g61
(dp2487
g81
g82
ssg70
g2481
sg63
(lp2488
S'wsgi'
p2489
asbag56
(g77
g58
NtRp2490
(dp2491
g61
(dp2492
g88
g89
ssg70
g2481
sg63
(lp2493
S':'
asbag56
(g77
g58
NtRp2494
(dp2495
g61
(dp2496
sg70
g2481
sg63
(lp2497
g56
(g57
g58
NtRp2498
(dp2499
g61
(dp2500
g69
I5
ssg70
g2494
sg63
(lp2501
g56
(g65
g58
NtRp2502
(dp2503
g61
(dp2504
g69
I4
ssg70
Nsg63
(lp2505
g56
(g72
g58
NtRp2506
(dp2507
g61
(dp2508
sg70
g2502
sg63
(lp2509
g56
(g77
g58
NtRp2510
(dp2511
g61
(dp2512
g81
g82
ssg70
g2506
sg63
(lp2513
S'environ'
p2514
asbag56
(g77
g58
NtRp2515
(dp2516
g61
(dp2517
g88
g89
ssg70
g2506
sg63
(lp2518
S':'
asbag56
(g77
g58
NtRp2519
(dp2520
g61
(dp2521
sg70
g2506
sg63
(lp2522
g56
(g57
g58
NtRp2523
(dp2524
g61
(dp2525
g69
I4
ssg70
g2519
sg63
(lp2526
g56
(g65
g58
NtRp2527
(dp2528
g61
(dp2529
g69
I3
ssg70
Nsg63
(lp2530
g56
(g72
g58
NtRp2531
(dp2532
g61
(dp2533
sg70
g2527
sg63
(lp2534
g56
(g77
g58
NtRp2535
(dp2536
g61
(dp2537
g81
g82
ssg70
g2531
sg63
(lp2538
S'HTTP_ACCEPT'
p2539
asbag56
(g77
g58
NtRp2540
(dp2541
g61
(dp2542
g88
g89
ssg70
g2531
sg63
(lp2543
S':'
asbag56
(g77
g58
NtRp2544
(dp2545
g61
(dp2546
sg70
g2531
sg63
(lp2547
g56
(g57
g58
NtRp2548
(dp2549
g61
(dp2550
g69
I3
ssg70
g2544
sg63
(lp2551
g1038
asbasbasbag56
(g72
g58
NtRp2552
(dp2553
g61
(dp2554
sg70
g2527
sg63
(lp2555
g56
(g77
g58
NtRp2556
(dp2557
g61
(dp2558
g81
g82
ssg70
g2552
sg63
(lp2559
S'HTTP_ACCEPT_CHARSET'
p2560
asbag56
(g77
g58
NtRp2561
(dp2562
g61
(dp2563
g88
g89
ssg70
g2552
sg63
(lp2564
S':'
asbag56
(g77
g58
NtRp2565
(dp2566
g61
(dp2567
sg70
g2552
sg63
(lp2568
g56
(g57
g58
NtRp2569
(dp2570
g61
(dp2571
g69
I3
ssg70
g2565
sg63
(lp2572
g1060
asbasbasbag56
(g72
g58
NtRp2573
(dp2574
g61
(dp2575
sg70
g2527
sg63
(lp2576
g56
(g77
g58
NtRp2577
(dp2578
g61
(dp2579
g81
g82
ssg70
g2573
sg63
(lp2580
S'HTTP_ACCEPT_ENCODING'
p2581
asbag56
(g77
g58
NtRp2582
(dp2583
g61
(dp2584
g88
g89
ssg70
g2573
sg63
(lp2585
S':'
asbag56
(g77
g58
NtRp2586
(dp2587
g61
(dp2588
sg70
g2573
sg63
(lp2589
g56
(g57
g58
NtRp2590
(dp2591
g61
(dp2592
g69
I3
ssg70
g2586
sg63
(lp2593
g1082
asbasbasbag56
(g72
g58
NtRp2594
(dp2595
g61
(dp2596
sg70
g2527
sg63
(lp2597
g56
(g77
g58
NtRp2598
(dp2599
g61
(dp2600
g81
g82
ssg70
g2594
sg63
(lp2601
S'HTTP_ACCEPT_LANGUAGE'
p2602
asbag56
(g77
g58
NtRp2603
(dp2604
g61
(dp2605
g88
g89
ssg70
g2594
sg63
(lp2606
S':'
asbag56
(g77
g58
NtRp2607
(dp2608
g61
(dp2609
sg70
g2594
sg63
(lp2610
g56
(g57
g58
NtRp2611
(dp2612
g61
(dp2613
g69
I3
ssg70
g2607
sg63
(lp2614
g1104
asbasbasbag56
(g72
g58
NtRp2615
(dp2616
g61
(dp2617
sg70
g2527
sg63
(lp2618
g56
(g77
g58
NtRp2619
(dp2620
g61
(dp2621
g81
g82
ssg70
g2615
sg63
(lp2622
S'HTTP_CONNECTION'
p2623
asbag56
(g77
g58
NtRp2624
(dp2625
g61
(dp2626
g88
g89
ssg70
g2615
sg63
(lp2627
S':'
asbag56
(g77
g58
NtRp2628
(dp2629
g61
(dp2630
sg70
g2615
sg63
(lp2631
g56
(g57
g58
NtRp2632
(dp2633
g61
(dp2634
g69
I3
ssg70
g2628
sg63
(lp2635
g1126
asbasbasbag56
(g72
g58
NtRp2636
(dp2637
g61
(dp2638
sg70
g2527
sg63
(lp2639
g56
(g77
g58
NtRp2640
(dp2641
g61
(dp2642
g81
g82
ssg70
g2636
sg63
(lp2643
S'HTTP_COOKIE'
p2644
asbag56
(g77
g58
NtRp2645
(dp2646
g61
(dp2647
g88
g89
ssg70
g2636
sg63
(lp2648
S':'
asbag56
(g77
g58
NtRp2649
(dp2650
g61
(dp2651
sg70
g2636
sg63
(lp2652
g56
(g57
g58
NtRp2653
(dp2654
g61
(dp2655
g69
I3
ssg70
g2649
sg63
(lp2656
g1148
asbasbasbag56
(g72
g58
NtRp2657
(dp2658
g61
(dp2659
sg70
g2527
sg63
(lp2660
g56
(g77
g58
NtRp2661
(dp2662
g61
(dp2663
g81
g82
ssg70
g2657
sg63
(lp2664
S'HTTP_HOST'
p2665
asbag56
(g77
g58
NtRp2666
(dp2667
g61
(dp2668
g88
g89
ssg70
g2657
sg63
(lp2669
S':'
asbag56
(g77
g58
NtRp2670
(dp2671
g61
(dp2672
sg70
g2657
sg63
(lp2673
g56
(g57
g58
NtRp2674
(dp2675
g61
(dp2676
g69
I3
ssg70
g2670
sg63
(lp2677
g1170
asbasbasbag56
(g72
g58
NtRp2678
(dp2679
g61
(dp2680
sg70
g2527
sg63
(lp2681
g56
(g77
g58
NtRp2682
(dp2683
g61
(dp2684
g81
g82
ssg70
g2678
sg63
(lp2685
S'HTTP_REFERER'
p2686
asbag56
(g77
g58
NtRp2687
(dp2688
g61
(dp2689
g88
g89
ssg70
g2678
sg63
(lp2690
S':'
asbag56
(g77
g58
NtRp2691
(dp2692
g61
(dp2693
sg70
g2678
sg63
(lp2694
g56
(g57
g58
NtRp2695
(dp2696
g61
(dp2697
g69
I3
ssg70
g2691
sg63
(lp2698
g1192
asbasbasbag56
(g72
g58
NtRp2699
(dp2700
g61
(dp2701
sg70
g2527
sg63
(lp2702
g56
(g77
g58
NtRp2703
(dp2704
g61
(dp2705
g81
g82
ssg70
g2699
sg63
(lp2706
S'HTTP_USER_AGENT'
p2707
asbag56
(g77
g58
NtRp2708
(dp2709
g61
(dp2710
g88
g89
ssg70
g2699
sg63
(lp2711
S':'
asbag56
(g77
g58
NtRp2712
(dp2713
g61
(dp2714
sg70
g2699
sg63
(lp2715
g56
(g57
g58
NtRp2716
(dp2717
g61
(dp2718
g69
I3
ssg70
g2712
sg63
(lp2719
g1214
asbasbasbag56
(g72
g58
NtRp2720
(dp2721
g61
(dp2722
sg70
g2527
sg63
(lp2723
g56
(g77
g58
NtRp2724
(dp2725
g61
(dp2726
g81
g82
ssg70
g2720
sg63
(lp2727
S'HTTP_WEB2PY_COMPONENT_ELEMENT'
p2728
asbag56
(g77
g58
NtRp2729
(dp2730
g61
(dp2731
g88
g89
ssg70
g2720
sg63
(lp2732
S':'
asbag56
(g77
g58
NtRp2733
(dp2734
g61
(dp2735
sg70
g2720
sg63
(lp2736
g56
(g57
g58
NtRp2737
(dp2738
g61
(dp2739
g69
I3
ssg70
g2733
sg63
(lp2740
g202
asbasbasbag56
(g72
g58
NtRp2741
(dp2742
g61
(dp2743
sg70
g2527
sg63
(lp2744
g56
(g77
g58
NtRp2745
(dp2746
g61
(dp2747
g81
g82
ssg70
g2741
sg63
(lp2748
S'HTTP_WEB2PY_COMPONENT_LOCATION'
p2749
asbag56
(g77
g58
NtRp2750
(dp2751
g61
(dp2752
g88
g89
ssg70
g2741
sg63
(lp2753
S':'
asbag56
(g77
g58
NtRp2754
(dp2755
g61
(dp2756
sg70
g2741
sg63
(lp2757
g56
(g57
g58
NtRp2758
(dp2759
g61
(dp2760
g69
I3
ssg70
g2754
sg63
(lp2761
g1257
asbasbasbag56
(g72
g58
NtRp2762
(dp2763
g61
(dp2764
sg70
g2527
sg63
(lp2765
g56
(g77
g58
NtRp2766
(dp2767
g61
(dp2768
g81
g82
ssg70
g2762
sg63
(lp2769
S'HTTP_X_REQUESTED_WITH'
p2770
asbag56
(g77
g58
NtRp2771
(dp2772
g61
(dp2773
g88
g89
ssg70
g2762
sg63
(lp2774
S':'
asbag56
(g77
g58
NtRp2775
(dp2776
g61
(dp2777
sg70
g2762
sg63
(lp2778
g56
(g57
g58
NtRp2779
(dp2780
g61
(dp2781
g69
I3
ssg70
g2775
sg63
(lp2782
g1279
asbasbasbag56
(g72
g58
NtRp2783
(dp2784
g61
(dp2785
sg70
g2527
sg63
(lp2786
g56
(g77
g58
NtRp2787
(dp2788
g61
(dp2789
g81
g82
ssg70
g2783
sg63
(lp2790
S'PATH_INFO'
p2791
asbag56
(g77
g58
NtRp2792
(dp2793
g61
(dp2794
g88
g89
ssg70
g2783
sg63
(lp2795
S':'
asbag56
(g77
g58
NtRp2796
(dp2797
g61
(dp2798
sg70
g2783
sg63
(lp2799
g56
(g57
g58
NtRp2800
(dp2801
g61
(dp2802
g69
I3
ssg70
g2796
sg63
(lp2803
g1322
asbasbasbag56
(g72
g58
NtRp2804
(dp2805
g61
(dp2806
sg70
g2527
sg63
(lp2807
g56
(g77
g58
NtRp2808
(dp2809
g61
(dp2810
g81
g82
ssg70
g2804
sg63
(lp2811
S'QUERY_STRING'
p2812
asbag56
(g77
g58
NtRp2813
(dp2814
g61
(dp2815
g88
g89
ssg70
g2804
sg63
(lp2816
S':'
asbag56
(g77
g58
NtRp2817
(dp2818
g61
(dp2819
sg70
g2804
sg63
(lp2820
g56
(g57
g58
NtRp2821
(dp2822
g61
(dp2823
g69
I3
ssg70
g2817
sg63
(lp2824
S''
asbasbasbag56
(g72
g58
NtRp2825
(dp2826
g61
(dp2827
sg70
g2527
sg63
(lp2828
g56
(g77
g58
NtRp2829
(dp2830
g61
(dp2831
g81
g82
ssg70
g2825
sg63
(lp2832
S'REMOTE_ADDR'
p2833
asbag56
(g77
g58
NtRp2834
(dp2835
g61
(dp2836
g88
g89
ssg70
g2825
sg63
(lp2837
S':'
asbag56
(g77
g58
NtRp2838
(dp2839
g61
(dp2840
sg70
g2825
sg63
(lp2841
g56
(g57
g58
NtRp2842
(dp2843
g61
(dp2844
g69
I3
ssg70
g2838
sg63
(lp2845
g224
asbasbasbag56
(g72
g58
NtRp2846
(dp2847
g61
(dp2848
sg70
g2527
sg63
(lp2849
g56
(g77
g58
NtRp2850
(dp2851
g61
(dp2852
g81
g82
ssg70
g2846
sg63
(lp2853
S'REMOTE_PORT'
p2854
asbag56
(g77
g58
NtRp2855
(dp2856
g61
(dp2857
g88
g89
ssg70
g2846
sg63
(lp2858
S':'
asbag56
(g77
g58
NtRp2859
(dp2860
g61
(dp2861
sg70
g2846
sg63
(lp2862
g56
(g57
g58
NtRp2863
(dp2864
g61
(dp2865
g69
I3
ssg70
g2859
sg63
(lp2866
g1386
asbasbasbag56
(g72
g58
NtRp2867
(dp2868
g61
(dp2869
sg70
g2527
sg63
(lp2870
g56
(g77
g58
NtRp2871
(dp2872
g61
(dp2873
g81
g82
ssg70
g2867
sg63
(lp2874
S'REQUEST_METHOD'
p2875
asbag56
(g77
g58
NtRp2876
(dp2877
g61
(dp2878
g88
g89
ssg70
g2867
sg63
(lp2879
S':'
asbag56
(g77
g58
NtRp2880
(dp2881
g61
(dp2882
sg70
g2867
sg63
(lp2883
g56
(g57
g58
NtRp2884
(dp2885
g61
(dp2886
g69
I3
ssg70
g2880
sg63
(lp2887
g1408
asbasbasbag56
(g72
g58
NtRp2888
(dp2889
g61
(dp2890
sg70
g2527
sg63
(lp2891
g56
(g77
g58
NtRp2892
(dp2893
g61
(dp2894
g81
g82
ssg70
g2888
sg63
(lp2895
S'SCRIPT_NAME'
p2896
asbag56
(g77
g58
NtRp2897
(dp2898
g61
(dp2899
g88
g89
ssg70
g2888
sg63
(lp2900
S':'
asbag56
(g77
g58
NtRp2901
(dp2902
g61
(dp2903
sg70
g2888
sg63
(lp2904
g56
(g57
g58
NtRp2905
(dp2906
g61
(dp2907
g69
I3
ssg70
g2901
sg63
(lp2908
S''
asbasbasbag56
(g72
g58
NtRp2909
(dp2910
g61
(dp2911
sg70
g2527
sg63
(lp2912
g56
(g77
g58
NtRp2913
(dp2914
g61
(dp2915
g81
g82
ssg70
g2909
sg63
(lp2916
S'SERVER_NAME'
p2917
asbag56
(g77
g58
NtRp2918
(dp2919
g61
(dp2920
g88
g89
ssg70
g2909
sg63
(lp2921
S':'
asbag56
(g77
g58
NtRp2922
(dp2923
g61
(dp2924
sg70
g2909
sg63
(lp2925
g56
(g57
g58
NtRp2926
(dp2927
g61
(dp2928
g69
I3
ssg70
g2922
sg63
(lp2929
g1451
asbasbasbag56
(g72
g58
NtRp2930
(dp2931
g61
(dp2932
sg70
g2527
sg63
(lp2933
g56
(g77
g58
NtRp2934
(dp2935
g61
(dp2936
g81
g82
ssg70
g2930
sg63
(lp2937
S'SERVER_PORT'
p2938
asbag56
(g77
g58
NtRp2939
(dp2940
g61
(dp2941
g88
g89
ssg70
g2930
sg63
(lp2942
S':'
asbag56
(g77
g58
NtRp2943
(dp2944
g61
(dp2945
sg70
g2930
sg63
(lp2946
g56
(g57
g58
NtRp2947
(dp2948
g61
(dp2949
g69
I3
ssg70
g2943
sg63
(lp2950
g1473
asbasbasbag56
(g72
g58
NtRp2951
(dp2952
g61
(dp2953
sg70
g2527
sg63
(lp2954
g56
(g77
g58
NtRp2955
(dp2956
g61
(dp2957
g81
g82
ssg70
g2951
sg63
(lp2958
S'SERVER_PROTOCOL'
p2959
asbag56
(g77
g58
NtRp2960
(dp2961
g61
(dp2962
g88
g89
ssg70
g2951
sg63
(lp2963
S':'
asbag56
(g77
g58
NtRp2964
(dp2965
g61
(dp2966
sg70
g2951
sg63
(lp2967
g56
(g57
g58
NtRp2968
(dp2969
g61
(dp2970
g69
I3
ssg70
g2964
sg63
(lp2971
g1495
asbasbasbag56
(g72
g58
NtRp2972
(dp2973
g61
(dp2974
sg70
g2527
sg63
(lp2975
g56
(g77
g58
NtRp2976
(dp2977
g61
(dp2978
g81
g82
ssg70
g2972
sg63
(lp2979
S'SERVER_SOFTWARE'
p2980
asbag56
(g77
g58
NtRp2981
(dp2982
g61
(dp2983
g88
g89
ssg70
g2972
sg63
(lp2984
S':'
asbag56
(g77
g58
NtRp2985
(dp2986
g61
(dp2987
sg70
g2972
sg63
(lp2988
g56
(g57
g58
NtRp2989
(dp2990
g61
(dp2991
g69
I3
ssg70
g2985
sg63
(lp2992
g1517
asbasbasbag56
(g72
g58
NtRp2993
(dp2994
g61
(dp2995
sg70
g2527
sg63
(lp2996
g56
(g77
g58
NtRp2997
(dp2998
g61
(dp2999
g81
g82
ssg70
g2993
sg63
(lp3000
S'wsgi.errors'
p3001
asbag56
(g77
g58
NtRp3002
(dp3003
g61
(dp3004
g88
g89
ssg70
g2993
sg63
(lp3005
S':'
asbag56
(g77
g58
NtRp3006
(dp3007
g61
(dp3008
sg70
g2993
sg63
(lp3009
g56
(g57
g58
NtRp3010
(dp3011
g61
(dp3012
g69
I3
ssg70
g3006
sg63
(lp3013
S"<open file '<stderr>', mode 'w' at 0x7f6d3a48b270>"
p3014
asbasbasbag56
(g72
g58
NtRp3015
(dp3016
g61
(dp3017
sg70
g2527
sg63
(lp3018
g56
(g77
g58
NtRp3019
(dp3020
g61
(dp3021
g81
g82
ssg70
g3015
sg63
(lp3022
S'wsgi.file_wrapper'
p3023
asbag56
(g77
g58
NtRp3024
(dp3025
g61
(dp3026
g88
g89
ssg70
g3015
sg63
(lp3027
S':'
asbag56
(g77
g58
NtRp3028
(dp3029
g61
(dp3030
sg70
g3015
sg63
(lp3031
g56
(g57
g58
NtRp3032
(dp3033
g61
(dp3034
g69
I3
ssg70
g3028
sg63
(lp3035
S'<class wsgiref.util.FileWrapper at 0x25957a0>'
p3036
asbasbasbag56
(g72
g58
NtRp3037
(dp3038
g61
(dp3039
sg70
g2527
sg63
(lp3040
g56
(g77
g58
NtRp3041
(dp3042
g61
(dp3043
g81
g82
ssg70
g3037
sg63
(lp3044
S'wsgi.input'
p3045
asbag56
(g77
g58
NtRp3046
(dp3047
g61
(dp3048
g88
g89
ssg70
g3037
sg63
(lp3049
S':'
asbag56
(g77
g58
NtRp3050
(dp3051
g61
(dp3052
sg70
g3037
sg63
(lp3053
g56
(g57
g58
NtRp3054
(dp3055
g61
(dp3056
g69
I3
ssg70
g3050
sg63
(lp3057
S'<cStringIO.StringO object at 0x3191ea0>'
p3058
asbasbasbag56
(g72
g58
NtRp3059
(dp3060
g61
(dp3061
sg70
g2527
sg63
(lp3062
g56
(g77
g58
NtRp3063
(dp3064
g61
(dp3065
g81
g82
ssg70
g3059
sg63
(lp3066
S'wsgi.multiprocess'
p3067
asbag56
(g77
g58
NtRp3068
(dp3069
g61
(dp3070
g88
g89
ssg70
g3059
sg63
(lp3071
S':'
asbag56
(g77
g58
NtRp3072
(dp3073
g61
(dp3074
sg70
g3059
sg63
(lp3075
g56
(g57
g58
NtRp3076
(dp3077
g61
(dp3078
g69
I3
ssg70
g3072
sg63
(lp3079
g994
asbasbasbag56
(g72
g58
NtRp3080
(dp3081
g61
(dp3082
sg70
g2527
sg63
(lp3083
g56
(g77
g58
NtRp3084
(dp3085
g61
(dp3086
g81
g82
ssg70
g3080
sg63
(lp3087
S'wsgi.multithread'
p3088
asbag56
(g77
g58
NtRp3089
(dp3090
g61
(dp3091
g88
g89
ssg70
g3080
sg63
(lp3092
S':'
asbag56
(g77
g58
NtRp3093
(dp3094
g61
(dp3095
sg70
g3080
sg63
(lp3096
g56
(g57
g58
NtRp3097
(dp3098
g61
(dp3099
g69
I3
ssg70
g3093
sg63
(lp3100
g99
asbasbasbag56
(g72
g58
NtRp3101
(dp3102
g61
(dp3103
sg70
g2527
sg63
(lp3104
g56
(g77
g58
NtRp3105
(dp3106
g61
(dp3107
g81
g82
ssg70
g3101
sg63
(lp3108
S'wsgi.run_once'
p3109
asbag56
(g77
g58
NtRp3110
(dp3111
g61
(dp3112
g88
g89
ssg70
g3101
sg63
(lp3113
S':'
asbag56
(g77
g58
NtRp3114
(dp3115
g61
(dp3116
sg70
g3101
sg63
(lp3117
g56
(g57
g58
NtRp3118
(dp3119
g61
(dp3120
g69
I3
ssg70
g3114
sg63
(lp3121
g994
asbasbasbag56
(g72
g58
NtRp3122
(dp3123
g61
(dp3124
sg70
g2527
sg63
(lp3125
g56
(g77
g58
NtRp3126
(dp3127
g61
(dp3128
g81
g82
ssg70
g3122
sg63
(lp3129
S'wsgi.url_scheme'
p3130
asbag56
(g77
g58
NtRp3131
(dp3132
g61
(dp3133
g88
g89
ssg70
g3122
sg63
(lp3134
S':'
asbag56
(g77
g58
NtRp3135
(dp3136
g61
(dp3137
sg70
g3122
sg63
(lp3138
g56
(g57
g58
NtRp3139
(dp3140
g61
(dp3141
g69
I3
ssg70
g3135
sg63
(lp3142
g1799
asbasbasbag56
(g72
g58
NtRp3143
(dp3144
g61
(dp3145
sg70
g2527
sg63
(lp3146
g56
(g77
g58
NtRp3147
(dp3148
g61
(dp3149
g81
g82
ssg70
g3143
sg63
(lp3150
S'wsgi.version'
p3151
asbag56
(g77
g58
NtRp3152
(dp3153
g61
(dp3154
g88
g89
ssg70
g3143
sg63
(lp3155
S':'
asbag56
(g77
g58
NtRp3156
(dp3157
g61
(dp3158
sg70
g3143
sg63
(lp3159
g56
(g57
g58
NtRp3160
(dp3161
g61
(dp3162
g69
I3
ssg70
g3156
sg63
(lp3163
S'1'
asbasbasbasbasbasbasbasbasbasbasbasbasbsS'frames'
p3164
(lp3165
(dp3166
S'file'
p3167
S'/home/ian/web2py/gluon/restricted.py'
p3168
sS'dump'
p3169
(dp3170
S'environment'
p3171
S"{'A': <class 'gluon.html.A'>, 'Auth': <class 'gluon.tools.Auth'>, 'B': <class 'gluon.html.B'>, 'BEAUTIFY': <class 'gluon.html.BEAUTIFY'>, 'BODY': <class 'gluon.html.BODY'>, 'BR': <class 'gluon.html.BR'>, 'BUTTON': <class 'gluon.html.BUTTON'>, 'CAT': <class 'gluon.html.CAT'>, 'CENTER': <class 'gluon.html.CENTER'>, 'CLEANUP': <class 'gluon.validators.CLEANUP'>, ...}"
p3172
sS'ccode'
p3173
S'<code object <module> at 0x2ed20b0, file "/home/...cations/places/views/default/index.load", line 1>'
p3174
ssS'lnum'
p3175
I194
sS'lines'
p3176
(dp3177
I192
S'        else:'
p3178
sI193
S'            ccode = compile2(code,layer)'
p3179
sI194
S'        exec ccode in environment'
p3180
sI195
S'    except HTTP:'
p3181
sI196
S'        raise'
p3182
sI197
S'    except Exception, error:'
p3183
sI198
S'        # XXX Show exception in Wing IDE if running in debugger'
p3184
sI189
S'    try:'
p3185
sI190
S'        if type(code) == types.CodeType:'
p3186
sI191
S'            ccode = code'
p3187
ssS'call'
p3188
S'(code="for link in links:\\n    response.write(\'\\\\n\', esca...requesst.args)\\nresponse.write(\'\\\\n\', escape=False)", environment={\'A\': <class \'gluon.html.A\'>, \'Auth\': <class \'gluon.tools.Auth\'>, \'B\': <class \'gluon.html.B\'>, \'BEAUTIFY\': <class \'gluon.html.BEAUTIFY\'>, \'BODY\': <class \'gluon.html.BODY\'>, \'BR\': <class \'gluon.html.BR\'>, \'BUTTON\': <class \'gluon.html.BUTTON\'>, \'CAT\': <class \'gluon.html.CAT\'>, \'CENTER\': <class \'gluon.html.CENTER\'>, \'CLEANUP\': <class \'gluon.validators.CLEANUP\'>, ...}, layer=\'/home/ian/web2py/applications/places/views/default/index.load\')'
p3189
sS'func'
p3190
S'restricted'
p3191
sa(dp3192
g3167
S'/home/ian/web2py/applications/places/views/default/index.load'
p3193
sg3169
(dp3194
sg3175
I9
sg3176
(dp3195
I1
S'{{for link in links:}}'
p3196
sI2
S'{{=LI(A(link.link_name, _href=link.link_url))}}'
p3197
sI3
S'{{pass}}'
p3198
sI4
S''
sI5
S'{{#=BEAUTIFY(response._vars)}}'
p3199
sI6
S'{{=requesst.args}}'
p3200
ssg3188
S'()'
p3201
sg3190
S'<module>'
p3202
sasS'pyver'
p3203
S'Python 2.7.1+: /usr/bin/python2.7'
p3204
sS'session'
p3205
g56
(g57
g58
NtRp3206
(dp3207
g61
(dp3208
sg63
(lp3209
g56
(g65
g58
NtRp3210
(dp3211
g61
(dp3212
g69
I5
ssg70
Nsg63
(lp3213
g56
(g72
g58
NtRp3214
(dp3215
g61
(dp3216
sg70
g3210
sg63
(lp3217
g56
(g77
g58
NtRp3218
(dp3219
g61
(dp3220
g81
g82
ssg70
g3214
sg63
(lp3221
S'current'
p3222
asbag56
(g77
g58
NtRp3223
(dp3224
g61
(dp3225
g88
g89
ssg70
g3214
sg63
(lp3226
S':'
asbag56
(g77
g58
NtRp3227
(dp3228
g61
(dp3229
sg70
g3214
sg63
(lp3230
g56
(g57
g58
NtRp3231
(dp3232
g61
(dp3233
g69
I5
ssg70
g3227
sg63
(lp3234
S'kitchen'
p3235
asbasbasbag56
(g72
g58
NtRp3236
(dp3237
g61
(dp3238
sg70
g3210
sg63
(lp3239
g56
(g77
g58
NtRp3240
(dp3241
g61
(dp3242
g81
g82
ssg70
g3236
sg63
(lp3243
S'current_view'
p3244
asbag56
(g77
g58
NtRp3245
(dp3246
g61
(dp3247
g88
g89
ssg70
g3236
sg63
(lp3248
S':'
asbag56
(g77
g58
NtRp3249
(dp3250
g61
(dp3251
sg70
g3236
sg63
(lp3252
g56
(g57
g58
NtRp3253
(dp3254
g61
(dp3255
g69
I5
ssg70
g3249
sg63
(lp3256
S'kitchen'
p3257
asbasbasbasbasbsS'etype'
p3258
S"<type 'exceptions.NameError'>"
p3259
sS'date'
p3260
S'Sun Oct  2 19:25:18 2011'
p3261
sS'response'
p3262
g56
(g57
g58
NtRp3263
(dp3264
g61
(dp3265
sg63
(lp3266
g56
(g65
g58
NtRp3267
(dp3268
g61
(dp3269
g69
I5
ssg70
Nsg63
(lp3270
g56
(g72
g58
NtRp3271
(dp3272
g61
(dp3273
sg70
g3267
sg63
(lp3274
g56
(g77
g58
NtRp3275
(dp3276
g61
(dp3277
g81
g82
ssg70
g3271
sg63
(lp3278
g167
asbag56
(g77
g58
NtRp3279
(dp3280
g61
(dp3281
g88
g89
ssg70
g3271
sg63
(lp3282
S':'
asbag56
(g77
g58
NtRp3283
(dp3284
g61
(dp3285
sg70
g3271
sg63
(lp3286
g56
(g57
g58
NtRp3287
(dp3288
g61
(dp3289
g69
I5
ssg70
g3283
sg63
(lp3290
S'<cStringIO.StringO object at 0x2f10298>'
p3291
asbasbasbag56
(g72
g58
NtRp3292
(dp3293
g61
(dp3294
sg70
g3267
sg63
(lp3295
g56
(g77
g58
NtRp3296
(dp3297
g61
(dp3298
g81
g82
ssg70
g3292
sg63
(lp3299
g255
asbag56
(g77
g58
NtRp3300
(dp3301
g61
(dp3302
g88
g89
ssg70
g3292
sg63
(lp3303
S':'
asbag56
(g77
g58
NtRp3304
(dp3305
g61
(dp3306
sg70
g3292
sg63
(lp3307
g56
(g57
g58
NtRp3308
(dp3309
g61
(dp3310
g69
I5
ssg70
g3304
sg63
(lp3311
g56
(g65
g58
NtRp3312
(dp3313
g61
(dp3314
g69
I4
ssg70
Nsg63
(lp3315
g56
(g72
g58
NtRp3316
(dp3317
g61
(dp3318
sg70
g3312
sg63
(lp3319
g56
(g77
g58
NtRp3320
(dp3321
g61
(dp3322
g81
g82
ssg70
g3316
sg63
(lp3323
S'session_id_places'
p3324
asbag56
(g77
g58
NtRp3325
(dp3326
g61
(dp3327
g88
g89
ssg70
g3316
sg63
(lp3328
S':'
asbag56
(g77
g58
NtRp3329
(dp3330
g61
(dp3331
sg70
g3316
sg63
(lp3332
g56
(g57
g58
NtRp3333
(dp3334
g61
(dp3335
g69
I4
ssg70
g3329
sg63
(lp3336
g56
(g65
g58
NtRp3337
(dp3338
g61
(dp3339
g69
I3
ssg70
Nsg63
(lp3340
g56
(g72
g58
NtRp3341
(dp3342
g61
(dp3343
sg70
g3337
sg63
(lp3344
g56
(g77
g58
NtRp3345
(dp3346
g61
(dp3347
g81
g82
ssg70
g3341
sg63
(lp3348
g305
asbag56
(g77
g58
NtRp3349
(dp3350
g61
(dp3351
g88
g89
ssg70
g3341
sg63
(lp3352
S':'
asbag56
(g77
g58
NtRp3353
(dp3354
g61
(dp3355
sg70
g3341
sg63
(lp3356
g56
(g57
g58
NtRp3357
(dp3358
g61
(dp3359
g69
I3
ssg70
g3353
sg63
(lp3360
S''
asbasbasbag56
(g72
g58
NtRp3361
(dp3362
g61
(dp3363
sg70
g3337
sg63
(lp3364
g56
(g77
g58
NtRp3365
(dp3366
g61
(dp3367
g81
g82
ssg70
g3361
sg63
(lp3368
g326
asbag56
(g77
g58
NtRp3369
(dp3370
g61
(dp3371
g88
g89
ssg70
g3361
sg63
(lp3372
S':'
asbag56
(g77
g58
NtRp3373
(dp3374
g61
(dp3375
sg70
g3361
sg63
(lp3376
g56
(g57
g58
NtRp3377
(dp3378
g61
(dp3379
g69
I3
ssg70
g3373
sg63
(lp3380
S''
asbasbasbag56
(g72
g58
NtRp3381
(dp3382
g61
(dp3383
sg70
g3337
sg63
(lp3384
g56
(g77
g58
NtRp3385
(dp3386
g61
(dp3387
g81
g82
ssg70
g3381
sg63
(lp3388
g347
asbag56
(g77
g58
NtRp3389
(dp3390
g61
(dp3391
g88
g89
ssg70
g3381
sg63
(lp3392
S':'
asbag56
(g77
g58
NtRp3393
(dp3394
g61
(dp3395
sg70
g3381
sg63
(lp3396
g56
(g57
g58
NtRp3397
(dp3398
g61
(dp3399
g69
I3
ssg70
g3393
sg63
(lp3400
S''
asbasbasbag56
(g72
g58
NtRp3401
(dp3402
g61
(dp3403
sg70
g3337
sg63
(lp3404
g56
(g77
g58
NtRp3405
(dp3406
g61
(dp3407
g81
g82
ssg70
g3401
sg63
(lp3408
g368
asbag56
(g77
g58
NtRp3409
(dp3410
g61
(dp3411
g88
g89
ssg70
g3401
sg63
(lp3412
S':'
asbag56
(g77
g58
NtRp3413
(dp3414
g61
(dp3415
sg70
g3401
sg63
(lp3416
g56
(g57
g58
NtRp3417
(dp3418
g61
(dp3419
g69
I3
ssg70
g3413
sg63
(lp3420
S''
asbasbasbag56
(g72
g58
NtRp3421
(dp3422
g61
(dp3423
sg70
g3337
sg63
(lp3424
g56
(g77
g58
NtRp3425
(dp3426
g61
(dp3427
g81
g82
ssg70
g3421
sg63
(lp3428
g389
asbag56
(g77
g58
NtRp3429
(dp3430
g61
(dp3431
g88
g89
ssg70
g3421
sg63
(lp3432
S':'
asbag56
(g77
g58
NtRp3433
(dp3434
g61
(dp3435
sg70
g3421
sg63
(lp3436
g56
(g57
g58
NtRp3437
(dp3438
g61
(dp3439
g69
I3
ssg70
g3433
sg63
(lp3440
S''
asbasbasbag56
(g72
g58
NtRp3441
(dp3442
g61
(dp3443
sg70
g3337
sg63
(lp3444
g56
(g77
g58
NtRp3445
(dp3446
g61
(dp3447
g81
g82
ssg70
g3441
sg63
(lp3448
g410
asbag56
(g77
g58
NtRp3449
(dp3450
g61
(dp3451
g88
g89
ssg70
g3441
sg63
(lp3452
S':'
asbag56
(g77
g58
NtRp3453
(dp3454
g61
(dp3455
sg70
g3441
sg63
(lp3456
g56
(g57
g58
NtRp3457
(dp3458
g61
(dp3459
g69
I3
ssg70
g3453
sg63
(lp3460
S'/'
asbasbasbag56
(g72
g58
NtRp3461
(dp3462
g61
(dp3463
sg70
g3337
sg63
(lp3464
g56
(g77
g58
NtRp3465
(dp3466
g61
(dp3467
g81
g82
ssg70
g3461
sg63
(lp3468
g431
asbag56
(g77
g58
NtRp3469
(dp3470
g61
(dp3471
g88
g89
ssg70
g3461
sg63
(lp3472
S':'
asbag56
(g77
g58
NtRp3473
(dp3474
g61
(dp3475
sg70
g3461
sg63
(lp3476
g56
(g57
g58
NtRp3477
(dp3478
g61
(dp3479
g69
I3
ssg70
g3473
sg63
(lp3480
S''
asbasbasbag56
(g72
g58
NtRp3481
(dp3482
g61
(dp3483
sg70
g3337
sg63
(lp3484
g56
(g77
g58
NtRp3485
(dp3486
g61
(dp3487
g81
g82
ssg70
g3481
sg63
(lp3488
g452
asbag56
(g77
g58
NtRp3489
(dp3490
g61
(dp3491
g88
g89
ssg70
g3481
sg63
(lp3492
S':'
asbag56
(g77
g58
NtRp3493
(dp3494
g61
(dp3495
sg70
g3481
sg63
(lp3496
g56
(g57
g58
NtRp3497
(dp3498
g61
(dp3499
g69
I3
ssg70
g3493
sg63
(lp3500
S''
asbasbasbasbasbasbasbasbasbasbasbag56
(g72
g58
NtRp3501
(dp3502
g61
(dp3503
sg70
g3267
sg63
(lp3504
g56
(g77
g58
NtRp3505
(dp3506
g61
(dp3507
g81
g82
ssg70
g3501
sg63
(lp3508
S'files'
p3509
asbag56
(g77
g58
NtRp3510
(dp3511
g61
(dp3512
g88
g89
ssg70
g3501
sg63
(lp3513
S':'
asbag56
(g77
g58
NtRp3514
(dp3515
g61
(dp3516
sg70
g3501
sg63
(lp3517
g56
(g57
g58
NtRp3518
(dp3519
g61
(dp3520
g69
I5
ssg70
g3514
sg63
(lp3521
g56
(g65
g58
NtRp3522
(dp3523
g61
(dp3524
g69
I4
ssg70
Nsg63
(lp3525
sbasbasbasbag56
(g72
g58
NtRp3526
(dp3527
g61
(dp3528
sg70
g3267
sg63
(lp3529
g56
(g77
g58
NtRp3530
(dp3531
g61
(dp3532
g81
g82
ssg70
g3526
sg63
(lp3533
S'flash'
p3534
asbag56
(g77
g58
NtRp3535
(dp3536
g61
(dp3537
g88
g89
ssg70
g3526
sg63
(lp3538
S':'
asbag56
(g77
g58
NtRp3539
(dp3540
g61
(dp3541
sg70
g3526
sg63
(lp3542
g56
(g57
g58
NtRp3543
(dp3544
g61
(dp3545
g69
I5
ssg70
g3539
sg63
(lp3546
S''
asbasbasbag56
(g72
g58
NtRp3547
(dp3548
g61
(dp3549
sg70
g3267
sg63
(lp3550
g56
(g77
g58
NtRp3551
(dp3552
g61
(dp3553
g81
g82
ssg70
g3547
sg63
(lp3554
S'generic_patterns'
p3555
asbag56
(g77
g58
NtRp3556
(dp3557
g61
(dp3558
g88
g89
ssg70
g3547
sg63
(lp3559
S':'
asbag56
(g77
g58
NtRp3560
(dp3561
g61
(dp3562
sg70
g3547
sg63
(lp3563
g56
(g57
g58
NtRp3564
(dp3565
g61
(dp3566
g69
I5
ssg70
g3560
sg63
(lp3567
g56
(g65
g58
NtRp3568
(dp3569
g61
(dp3570
g69
I4
ssg70
Nsg63
(lp3571
g56
(g72
g58
NtRp3572
(dp3573
g61
(dp3574
sg70
g3568
sg63
(lp3575
g56
(g77
g58
NtRp3576
(dp3577
g61
(dp3578
sg70
g3572
sg63
(lp3579
g56
(g57
g58
NtRp3580
(dp3581
g61
(dp3582
g69
I4
ssg70
g3576
sg63
(lp3583
S'*'
asbasbasbasbasbasbasbag56
(g72
g58
NtRp3584
(dp3585
g61
(dp3586
sg70
g3267
sg63
(lp3587
g56
(g77
g58
NtRp3588
(dp3589
g61
(dp3590
g81
g82
ssg70
g3584
sg63
(lp3591
S'headers'
p3592
asbag56
(g77
g58
NtRp3593
(dp3594
g61
(dp3595
g88
g89
ssg70
g3584
sg63
(lp3596
S':'
asbag56
(g77
g58
NtRp3597
(dp3598
g61
(dp3599
sg70
g3584
sg63
(lp3600
g56
(g57
g58
NtRp3601
(dp3602
g61
(dp3603
g69
I5
ssg70
g3597
sg63
(lp3604
g56
(g65
g58
NtRp3605
(dp3606
g61
(dp3607
g69
I4
ssg70
Nsg63
(lp3608
g56
(g72
g58
NtRp3609
(dp3610
g61
(dp3611
sg70
g3605
sg63
(lp3612
g56
(g77
g58
NtRp3613
(dp3614
g61
(dp3615
g81
g82
ssg70
g3609
sg63
(lp3616
S'Cache-Control'
p3617
asbag56
(g77
g58
NtRp3618
(dp3619
g61
(dp3620
g88
g89
ssg70
g3609
sg63
(lp3621
S':'
asbag56
(g77
g58
NtRp3622
(dp3623
g61
(dp3624
sg70
g3609
sg63
(lp3625
g56
(g57
g58
NtRp3626
(dp3627
g61
(dp3628
g69
I4
ssg70
g3622
sg63
(lp3629
S'no-store, no-cache, must-revalidate, post-check=0, pre-check=0'
p3630
asbasbasbag56
(g72
g58
NtRp3631
(dp3632
g61
(dp3633
sg70
g3605
sg63
(lp3634
g56
(g77
g58
NtRp3635
(dp3636
g61
(dp3637
g81
g82
ssg70
g3631
sg63
(lp3638
S'Content-Type'
p3639
asbag56
(g77
g58
NtRp3640
(dp3641
g61
(dp3642
g88
g89
ssg70
g3631
sg63
(lp3643
S':'
asbag56
(g77
g58
NtRp3644
(dp3645
g61
(dp3646
sg70
g3631
sg63
(lp3647
g56
(g57
g58
NtRp3648
(dp3649
g61
(dp3650
g69
I4
ssg70
g3644
sg63
(lp3651
S'text/html; charset=utf-8'
p3652
asbasbasbag56
(g72
g58
NtRp3653
(dp3654
g61
(dp3655
sg70
g3605
sg63
(lp3656
g56
(g77
g58
NtRp3657
(dp3658
g61
(dp3659
g81
g82
ssg70
g3653
sg63
(lp3660
S'Expires'
p3661
asbag56
(g77
g58
NtRp3662
(dp3663
g61
(dp3664
g88
g89
ssg70
g3653
sg63
(lp3665
S':'
asbag56
(g77
g58
NtRp3666
(dp3667
g61
(dp3668
sg70
g3653
sg63
(lp3669
g56
(g57
g58
NtRp3670
(dp3671
g61
(dp3672
g69
I4
ssg70
g3666
sg63
(lp3673
S'Sun, 02 Oct 2011 23:25:18 GMT'
p3674
asbasbasbag56
(g72
g58
NtRp3675
(dp3676
g61
(dp3677
sg70
g3605
sg63
(lp3678
g56
(g77
g58
NtRp3679
(dp3680
g61
(dp3681
g81
g82
ssg70
g3675
sg63
(lp3682
S'Pragma'
p3683
asbag56
(g77
g58
NtRp3684
(dp3685
g61
(dp3686
g88
g89
ssg70
g3675
sg63
(lp3687
S':'
asbag56
(g77
g58
NtRp3688
(dp3689
g61
(dp3690
sg70
g3675
sg63
(lp3691
g56
(g57
g58
NtRp3692
(dp3693
g61
(dp3694
g69
I4
ssg70
g3688
sg63
(lp3695
S'no-cache'
p3696
asbasbasbag56
(g72
g58
NtRp3697
(dp3698
g61
(dp3699
sg70
g3605
sg63
(lp3700
g56
(g77
g58
NtRp3701
(dp3702
g61
(dp3703
g81
g82
ssg70
g3697
sg63
(lp3704
S'X-Powered-By'
p3705
asbag56
(g77
g58
NtRp3706
(dp3707
g61
(dp3708
g88
g89
ssg70
g3697
sg63
(lp3709
S':'
asbag56
(g77
g58
NtRp3710
(dp3711
g61
(dp3712
sg70
g3697
sg63
(lp3713
g56
(g57
g58
NtRp3714
(dp3715
g61
(dp3716
g69
I4
ssg70
g3710
sg63
(lp3717
S'web2py'
p3718
asbasbasbasbasbasbasbag56
(g72
g58
NtRp3719
(dp3720
g61
(dp3721
sg70
g3267
sg63
(lp3722
g56
(g77
g58
NtRp3723
(dp3724
g61
(dp3725
g81
g82
ssg70
g3719
sg63
(lp3726
S'menu'
p3727
asbag56
(g77
g58
NtRp3728
(dp3729
g61
(dp3730
g88
g89
ssg70
g3719
sg63
(lp3731
S':'
asbag56
(g77
g58
NtRp3732
(dp3733
g61
(dp3734
sg70
g3719
sg63
(lp3735
g56
(g57
g58
NtRp3736
(dp3737
g61
(dp3738
g69
I5
ssg70
g3732
sg63
(lp3739
g56
(g65
g58
NtRp3740
(dp3741
g61
(dp3742
g69
I4
ssg70
Nsg63
(lp3743
g56
(g72
g58
NtRp3744
(dp3745
g61
(dp3746
sg70
g3740
sg63
(lp3747
g56
(g77
g58
NtRp3748
(dp3749
g61
(dp3750
sg70
g3744
sg63
(lp3751
g56
(g57
g58
NtRp3752
(dp3753
g61
(dp3754
g69
I4
ssg70
g3748
sg63
(lp3755
g56
(g65
g58
NtRp3756
(dp3757
g61
(dp3758
g69
I3
ssg70
Nsg63
(lp3759
g56
(g72
g58
NtRp3760
(dp3761
g61
(dp3762
sg70
g3756
sg63
(lp3763
g56
(g77
g58
NtRp3764
(dp3765
g61
(dp3766
sg70
g3760
sg63
(lp3767
g56
(g57
g58
NtRp3768
(dp3769
g61
(dp3770
g69
I3
ssg70
g3764
sg63
(lp3771
cgluon.languages
lazyT_unpickle
p3772
(S't\x04\x00\x00\x00Home'
tRp3773
asbasbasbag56
(g72
g58
NtRp3774
(dp3775
g61
(dp3776
sg70
g3756
sg63
(lp3777
g56
(g77
g58
NtRp3778
(dp3779
g61
(dp3780
sg70
g3774
sg63
(lp3781
g56
(g57
g58
NtRp3782
(dp3783
g61
(dp3784
g69
I3
ssg70
g3778
sg63
(lp3785
g994
asbasbasbag56
(g72
g58
NtRp3786
(dp3787
g61
(dp3788
sg70
g3756
sg63
(lp3789
g56
(g77
g58
NtRp3790
(dp3791
g61
(dp3792
sg70
g3786
sg63
(lp3793
g56
(g57
g58
NtRp3794
(dp3795
g61
(dp3796
g69
I3
ssg70
g3790
sg63
(lp3797
S'/places/default/index.load'
p3798
asbasbasbag56
(g72
g58
NtRp3799
(dp3800
g61
(dp3801
sg70
g3756
sg63
(lp3802
g56
(g77
g58
NtRp3803
(dp3804
g61
(dp3805
sg70
g3799
sg63
(lp3806
g56
(g57
g58
NtRp3807
(dp3808
g61
(dp3809
g69
I3
ssg70
g3803
sg63
(lp3810
g56
(g65
g58
NtRp3811
(dp3812
g61
(dp3813
g69
I2
ssg70
Nsg63
(lp3814
sbasbasbasbasbasbasbasbag56
(g72
g58
NtRp3815
(dp3816
g61
(dp3817
sg70
g3740
sg63
(lp3818
g56
(g77
g58
NtRp3819
(dp3820
g61
(dp3821
sg70
g3815
sg63
(lp3822
g56
(g57
g58
NtRp3823
(dp3824
g61
(dp3825
g69
I4
ssg70
g3819
sg63
(lp3826
g56
(g65
g58
NtRp3827
(dp3828
g61
(dp3829
g69
I3
ssg70
Nsg63
(lp3830
g56
(g72
g58
NtRp3831
(dp3832
g61
(dp3833
sg70
g3827
sg63
(lp3834
g56
(g77
g58
NtRp3835
(dp3836
g61
(dp3837
sg70
g3831
sg63
(lp3838
g56
(g57
g58
NtRp3839
(dp3840
g61
(dp3841
g69
I3
ssg70
g3835
sg63
(lp3842
g3772
(S's\x08\x00\x00\x00This App'
tRp3843
asbasbasbag56
(g72
g58
NtRp3844
(dp3845
g61
(dp3846
sg70
g3827
sg63
(lp3847
g56
(g77
g58
NtRp3848
(dp3849
g61
(dp3850
sg70
g3844
sg63
(lp3851
g56
(g57
g58
NtRp3852
(dp3853
g61
(dp3854
g69
I3
ssg70
g3848
sg63
(lp3855
g994
asbasbasbag56
(g72
g58
NtRp3856
(dp3857
g61
(dp3858
sg70
g3827
sg63
(lp3859
g56
(g77
g58
NtRp3860
(dp3861
g61
(dp3862
sg70
g3856
sg63
(lp3863
g56
(g57
g58
NtRp3864
(dp3865
g61
(dp3866
g69
I3
ssg70
g3860
sg63
(lp3867
S'/admin/default/design/places.load'
p3868
asbasbasbag56
(g72
g58
NtRp3869
(dp3870
g61
(dp3871
sg70
g3827
sg63
(lp3872
g56
(g77
g58
NtRp3873
(dp3874
g61
(dp3875
sg70
g3869
sg63
(lp3876
g56
(g57
g58
NtRp3877
(dp3878
g61
(dp3879
g69
I3
ssg70
g3873
sg63
(lp3880
g56
(g65
g58
NtRp3881
(dp3882
g61
(dp3883
g69
I2
ssg70
Nsg63
(lp3884
g56
(g72
g58
NtRp3885
(dp3886
g61
(dp3887
sg70
g3881
sg63
(lp3888
g56
(g77
g58
NtRp3889
(dp3890
g61
(dp3891
sg70
g3885
sg63
(lp3892
g56
(g57
g58
NtRp3893
(dp3894
g61
(dp3895
g69
I2
ssg70
g3889
sg63
(lp3896
g56
(g65
g58
NtRp3897
(dp3898
g61
(dp3899
g69
I1
ssg70
Nsg63
(lp3900
g56
(g72
g58
NtRp3901
(dp3902
g61
(dp3903
sg70
g3897
sg63
(lp3904
g56
(g77
g58
NtRp3905
(dp3906
g61
(dp3907
sg70
g3901
sg63
(lp3908
g56
(g57
g58
NtRp3909
(dp3910
g61
(dp3911
g69
I1
ssg70
g3905
sg63
(lp3912
g3772
(S't\n\x00\x00\x00Controller'
tRp3913
asbasbasbag56
(g72
g58
NtRp3914
(dp3915
g61
(dp3916
sg70
g3897
sg63
(lp3917
g56
(g77
g58
NtRp3918
(dp3919
g61
(dp3920
sg70
g3914
sg63
(lp3921
g56
(g57
g58
NtRp3922
(dp3923
g61
(dp3924
g69
I1
ssg70
g3918
sg63
(lp3925
I00
asbasbasbag56
(g72
g58
NtRp3926
(dp3927
g61
(dp3928
sg70
g3897
sg63
(lp3929
g56
(g77
g58
NtRp3930
(dp3931
g61
(dp3932
sg70
g3926
sg63
(lp3933
g56
(g57
g58
NtRp3934
(dp3935
g61
(dp3936
g69
I1
ssg70
g3930
sg63
(lp3937
S'/admin/default/edit/places/controllers/default.py'
p3938
asbasbasbasbasbasbasbag56
(g72
g58
NtRp3939
(dp3940
g61
(dp3941
sg70
g3881
sg63
(lp3942
g56
(g77
g58
NtRp3943
(dp3944
g61
(dp3945
sg70
g3939
sg63
(lp3946
g56
(g57
g58
NtRp3947
(dp3948
g61
(dp3949
g69
I2
ssg70
g3943
sg63
(lp3950
g56
(g65
g58
NtRp3951
(dp3952
g61
(dp3953
g69
I1
ssg70
Nsg63
(lp3954
g56
(g72
g58
NtRp3955
(dp3956
g61
(dp3957
sg70
g3951
sg63
(lp3958
g56
(g77
g58
NtRp3959
(dp3960
g61
(dp3961
sg70
g3955
sg63
(lp3962
g56
(g57
g58
NtRp3963
(dp3964
g61
(dp3965
g69
I1
ssg70
g3959
sg63
(lp3966
g3772
(S't\x04\x00\x00\x00View'
tRp3967
asbasbasbag56
(g72
g58
NtRp3968
(dp3969
g61
(dp3970
sg70
g3951
sg63
(lp3971
g56
(g77
g58
NtRp3972
(dp3973
g61
(dp3974
sg70
g3968
sg63
(lp3975
g56
(g57
g58
NtRp3976
(dp3977
g61
(dp3978
g69
I1
ssg70
g3972
sg63
(lp3979
I00
asbasbasbag56
(g72
g58
NtRp3980
(dp3981
g61
(dp3982
sg70
g3951
sg63
(lp3983
g56
(g77
g58
NtRp3984
(dp3985
g61
(dp3986
sg70
g3980
sg63
(lp3987
g56
(g57
g58
NtRp3988
(dp3989
g61
(dp3990
g69
I1
ssg70
g3984
sg63
(lp3991
S'/admin/default/edit/places/views/default/index.load'
p3992
asbasbasbasbasbasbasbag56
(g72
g58
NtRp3993
(dp3994
g61
(dp3995
sg70
g3881
sg63
(lp3996
g56
(g77
g58
NtRp3997
(dp3998
g61
(dp3999
sg70
g3993
sg63
(lp4000
g56
(g57
g58
NtRp4001
(dp4002
g61
(dp4003
g69
I2
ssg70
g3997
sg63
(lp4004
g56
(g65
g58
NtRp4005
(dp4006
g61
(dp4007
g69
I1
ssg70
Nsg63
(lp4008
g56
(g72
g58
NtRp4009
(dp4010
g61
(dp4011
sg70
g4005
sg63
(lp4012
g56
(g77
g58
NtRp4013
(dp4014
g61
(dp4015
sg70
g4009
sg63
(lp4016
g56
(g57
g58
NtRp4017
(dp4018
g61
(dp4019
g69
I1
ssg70
g4013
sg63
(lp4020
g3772
(S't\x06\x00\x00\x00Layout'
tRp4021
asbasbasbag56
(g72
g58
NtRp4022
(dp4023
g61
(dp4024
sg70
g4005
sg63
(lp4025
g56
(g77
g58
NtRp4026
(dp4027
g61
(dp4028
sg70
g4022
sg63
(lp4029
g56
(g57
g58
NtRp4030
(dp4031
g61
(dp4032
g69
I1
ssg70
g4026
sg63
(lp4033
I00
asbasbasbag56
(g72
g58
NtRp4034
(dp4035
g61
(dp4036
sg70
g4005
sg63
(lp4037
g56
(g77
g58
NtRp4038
(dp4039
g61
(dp4040
sg70
g4034
sg63
(lp4041
g56
(g57
g58
NtRp4042
(dp4043
g61
(dp4044
g69
I1
ssg70
g4038
sg63
(lp4045
S'/admin/default/edit/places/views/layout.html'
p4046
asbasbasbasbasbasbasbag56
(g72
g58
NtRp4047
(dp4048
g61
(dp4049
sg70
g3881
sg63
(lp4050
g56
(g77
g58
NtRp4051
(dp4052
g61
(dp4053
sg70
g4047
sg63
(lp4054
g56
(g57
g58
NtRp4055
(dp4056
g61
(dp4057
g69
I2
ssg70
g4051
sg63
(lp4058
g56
(g65
g58
NtRp4059
(dp4060
g61
(dp4061
g69
I1
ssg70
Nsg63
(lp4062
g56
(g72
g58
NtRp4063
(dp4064
g61
(dp4065
sg70
g4059
sg63
(lp4066
g56
(g77
g58
NtRp4067
(dp4068
g61
(dp4069
sg70
g4063
sg63
(lp4070
g56
(g57
g58
NtRp4071
(dp4072
g61
(dp4073
g69
I1
ssg70
g4067
sg63
(lp4074
g3772
(S't\n\x00\x00\x00Stylesheet'
tRp4075
asbasbasbag56
(g72
g58
NtRp4076
(dp4077
g61
(dp4078
sg70
g4059
sg63
(lp4079
g56
(g77
g58
NtRp4080
(dp4081
g61
(dp4082
sg70
g4076
sg63
(lp4083
g56
(g57
g58
NtRp4084
(dp4085
g61
(dp4086
g69
I1
ssg70
g4080
sg63
(lp4087
I00
asbasbasbag56
(g72
g58
NtRp4088
(dp4089
g61
(dp4090
sg70
g4059
sg63
(lp4091
g56
(g77
g58
NtRp4092
(dp4093
g61
(dp4094
sg70
g4088
sg63
(lp4095
g56
(g57
g58
NtRp4096
(dp4097
g61
(dp4098
g69
I1
ssg70
g4092
sg63
(lp4099
S'/admin/default/edit/places/static/base.css'
p4100
asbasbasbasbasbasbasbag56
(g72
g58
NtRp4101
(dp4102
g61
(dp4103
sg70
g3881
sg63
(lp4104
g56
(g77
g58
NtRp4105
(dp4106
g61
(dp4107
sg70
g4101
sg63
(lp4108
g56
(g57
g58
NtRp4109
(dp4110
g61
(dp4111
g69
I2
ssg70
g4105
sg63
(lp4112
g56
(g65
g58
NtRp4113
(dp4114
g61
(dp4115
g69
I1
ssg70
Nsg63
(lp4116
g56
(g72
g58
NtRp4117
(dp4118
g61
(dp4119
sg70
g4113
sg63
(lp4120
g56
(g77
g58
NtRp4121
(dp4122
g61
(dp4123
sg70
g4117
sg63
(lp4124
g56
(g57
g58
NtRp4125
(dp4126
g61
(dp4127
g69
I1
ssg70
g4121
sg63
(lp4128
g3772
(S's\x08\x00\x00\x00DB Model'
tRp4129
asbasbasbag56
(g72
g58
NtRp4130
(dp4131
g61
(dp4132
sg70
g4113
sg63
(lp4133
g56
(g77
g58
NtRp4134
(dp4135
g61
(dp4136
sg70
g4130
sg63
(lp4137
g56
(g57
g58
NtRp4138
(dp4139
g61
(dp4140
g69
I1
ssg70
g4134
sg63
(lp4141
I00
asbasbasbag56
(g72
g58
NtRp4142
(dp4143
g61
(dp4144
sg70
g4113
sg63
(lp4145
g56
(g77
g58
NtRp4146
(dp4147
g61
(dp4148
sg70
g4142
sg63
(lp4149
g56
(g57
g58
NtRp4150
(dp4151
g61
(dp4152
g69
I1
ssg70
g4146
sg63
(lp4153
S'/admin/default/edit/places/models/db.py'
p4154
asbasbasbasbasbasbasbag56
(g72
g58
NtRp4155
(dp4156
g61
(dp4157
sg70
g3881
sg63
(lp4158
g56
(g77
g58
NtRp4159
(dp4160
g61
(dp4161
sg70
g4155
sg63
(lp4162
g56
(g57
g58
NtRp4163
(dp4164
g61
(dp4165
g69
I2
ssg70
g4159
sg63
(lp4166
g56
(g65
g58
NtRp4167
(dp4168
g61
(dp4169
g69
I1
ssg70
Nsg63
(lp4170
g56
(g72
g58
NtRp4171
(dp4172
g61
(dp4173
sg70
g4167
sg63
(lp4174
g56
(g77
g58
NtRp4175
(dp4176
g61
(dp4177
sg70
g4171
sg63
(lp4178
g56
(g57
g58
NtRp4179
(dp4180
g61
(dp4181
g69
I1
ssg70
g4175
sg63
(lp4182
g3772
(S's\n\x00\x00\x00Menu Model'
tRp4183
asbasbasbag56
(g72
g58
NtRp4184
(dp4185
g61
(dp4186
sg70
g4167
sg63
(lp4187
g56
(g77
g58
NtRp4188
(dp4189
g61
(dp4190
sg70
g4184
sg63
(lp4191
g56
(g57
g58
NtRp4192
(dp4193
g61
(dp4194
g69
I1
ssg70
g4188
sg63
(lp4195
I00
asbasbasbag56
(g72
g58
NtRp4196
(dp4197
g61
(dp4198
sg70
g4167
sg63
(lp4199
g56
(g77
g58
NtRp4200
(dp4201
g61
(dp4202
sg70
g4196
sg63
(lp4203
g56
(g57
g58
NtRp4204
(dp4205
g61
(dp4206
g69
I1
ssg70
g4200
sg63
(lp4207
S'/admin/default/edit/places/models/menu.py'
p4208
asbasbasbasbasbasbasbag56
(g72
g58
NtRp4209
(dp4210
g61
(dp4211
sg70
g3881
sg63
(lp4212
g56
(g77
g58
NtRp4213
(dp4214
g61
(dp4215
sg70
g4209
sg63
(lp4216
g56
(g57
g58
NtRp4217
(dp4218
g61
(dp4219
g69
I2
ssg70
g4213
sg63
(lp4220
g56
(g65
g58
NtRp4221
(dp4222
g61
(dp4223
g69
I1
ssg70
Nsg63
(lp4224
g56
(g72
g58
NtRp4225
(dp4226
g61
(dp4227
sg70
g4221
sg63
(lp4228
g56
(g77
g58
NtRp4229
(dp4230
g61
(dp4231
sg70
g4225
sg63
(lp4232
g56
(g57
g58
NtRp4233
(dp4234
g61
(dp4235
g69
I1
ssg70
g4229
sg63
(lp4236
g3772
(S't\x08\x00\x00\x00Database'
tRp4237
asbasbasbag56
(g72
g58
NtRp4238
(dp4239
g61
(dp4240
sg70
g4221
sg63
(lp4241
g56
(g77
g58
NtRp4242
(dp4243
g61
(dp4244
sg70
g4238
sg63
(lp4245
g56
(g57
g58
NtRp4246
(dp4247
g61
(dp4248
g69
I1
ssg70
g4242
sg63
(lp4249
I00
asbasbasbag56
(g72
g58
NtRp4250
(dp4251
g61
(dp4252
sg70
g4221
sg63
(lp4253
g56
(g77
g58
NtRp4254
(dp4255
g61
(dp4256
sg70
g4250
sg63
(lp4257
g56
(g57
g58
NtRp4258
(dp4259
g61
(dp4260
g69
I1
ssg70
g4254
sg63
(lp4261
S'/places/appadmin/index.load'
p4262
asbasbasbasbasbasbasbag56
(g72
g58
NtRp4263
(dp4264
g61
(dp4265
sg70
g3881
sg63
(lp4266
g56
(g77
g58
NtRp4267
(dp4268
g61
(dp4269
sg70
g4263
sg63
(lp4270
g56
(g57
g58
NtRp4271
(dp4272
g61
(dp4273
g69
I2
ssg70
g4267
sg63
(lp4274
g56
(g65
g58
NtRp4275
(dp4276
g61
(dp4277
g69
I1
ssg70
Nsg63
(lp4278
g56
(g72
g58
NtRp4279
(dp4280
g61
(dp4281
sg70
g4275
sg63
(lp4282
g56
(g77
g58
NtRp4283
(dp4284
g61
(dp4285
sg70
g4279
sg63
(lp4286
g56
(g57
g58
NtRp4287
(dp4288
g61
(dp4289
g69
I1
ssg70
g4283
sg63
(lp4290
g3772
(S't\x06\x00\x00\x00Errors'
tRp4291
asbasbasbag56
(g72
g58
NtRp4292
(dp4293
g61
(dp4294
sg70
g4275
sg63
(lp4295
g56
(g77
g58
NtRp4296
(dp4297
g61
(dp4298
sg70
g4292
sg63
(lp4299
g56
(g57
g58
NtRp4300
(dp4301
g61
(dp4302
g69
I1
ssg70
g4296
sg63
(lp4303
I00
asbasbasbag56
(g72
g58
NtRp4304
(dp4305
g61
(dp4306
sg70
g4275
sg63
(lp4307
g56
(g77
g58
NtRp4308
(dp4309
g61
(dp4310
sg70
g4304
sg63
(lp4311
g56
(g57
g58
NtRp4312
(dp4313
g61
(dp4314
g69
I1
ssg70
g4308
sg63
(lp4315
S'/admin/default/errors/places.load'
p4316
asbasbasbasbasbasbasbag56
(g72
g58
NtRp4317
(dp4318
g61
(dp4319
sg70
g3881
sg63
(lp4320
g56
(g77
g58
NtRp4321
(dp4322
g61
(dp4323
sg70
g4317
sg63
(lp4324
g56
(g57
g58
NtRp4325
(dp4326
g61
(dp4327
g69
I2
ssg70
g4321
sg63
(lp4328
g56
(g65
g58
NtRp4329
(dp4330
g61
(dp4331
g69
I1
ssg70
Nsg63
(lp4332
g56
(g72
g58
NtRp4333
(dp4334
g61
(dp4335
sg70
g4329
sg63
(lp4336
g56
(g77
g58
NtRp4337
(dp4338
g61
(dp4339
sg70
g4333
sg63
(lp4340
g56
(g57
g58
NtRp4341
(dp4342
g61
(dp4343
g69
I1
ssg70
g4337
sg63
(lp4344
g3772
(S't\x05\x00\x00\x00About'
tRp4345
asbasbasbag56
(g72
g58
NtRp4346
(dp4347
g61
(dp4348
sg70
g4329
sg63
(lp4349
g56
(g77
g58
NtRp4350
(dp4351
g61
(dp4352
sg70
g4346
sg63
(lp4353
g56
(g57
g58
NtRp4354
(dp4355
g61
(dp4356
g69
I1
ssg70
g4350
sg63
(lp4357
I00
asbasbasbag56
(g72
g58
NtRp4358
(dp4359
g61
(dp4360
sg70
g4329
sg63
(lp4361
g56
(g77
g58
NtRp4362
(dp4363
g61
(dp4364
sg70
g4358
sg63
(lp4365
g56
(g57
g58
NtRp4366
(dp4367
g61
(dp4368
g69
I1
ssg70
g4362
sg63
(lp4369
S'/admin/default/about/places.load'
p4370
asbasbasbasbasbasbasbasbasbasbasbasbasbasbasbag56
(g72
g58
NtRp4371
(dp4372
g61
(dp4373
sg70
g3740
sg63
(lp4374
g56
(g77
g58
NtRp4375
(dp4376
g61
(dp4377
sg70
g4371
sg63
(lp4378
g56
(g57
g58
NtRp4379
(dp4380
g61
(dp4381
g69
I4
ssg70
g4375
sg63
(lp4382
g56
(g65
g58
NtRp4383
(dp4384
g61
(dp4385
g69
I3
ssg70
Nsg63
(lp4386
g56
(g72
g58
NtRp4387
(dp4388
g61
(dp4389
sg70
g4383
sg63
(lp4390
g56
(g77
g58
NtRp4391
(dp4392
g61
(dp4393
sg70
g4387
sg63
(lp4394
g56
(g57
g58
NtRp4395
(dp4396
g61
(dp4397
g69
I3
ssg70
g4391
sg63
(lp4398
g3772
(S't\t\x00\x00\x00Resources'
tRp4399
asbasbasbag56
(g72
g58
NtRp4400
(dp4401
g61
(dp4402
sg70
g4383
sg63
(lp4403
g56
(g77
g58
NtRp4404
(dp4405
g61
(dp4406
sg70
g4400
sg63
(lp4407
g56
(g57
g58
NtRp4408
(dp4409
g61
(dp4410
g69
I3
ssg70
g4404
sg63
(lp4411
g994
asbasbasbag56
(g72
g58
NtRp4412
(dp4413
g61
(dp4414
sg70
g4383
sg63
(lp4415
g56
(g77
g58
NtRp4416
(dp4417
g61
(dp4418
sg70
g4412
sg63
(lp4419
g56
(g57
g58
NtRp4420
(dp4421
g61
(dp4422
g69
I3
ssg70
g4416
sg63
(lp4423
S'None'
p4424
asbasbasbag56
(g72
g58
NtRp4425
(dp4426
g61
(dp4427
sg70
g4383
sg63
(lp4428
g56
(g77
g58
NtRp4429
(dp4430
g61
(dp4431
sg70
g4425
sg63
(lp4432
g56
(g57
g58
NtRp4433
(dp4434
g61
(dp4435
g69
I3
ssg70
g4429
sg63
(lp4436
g56
(g65
g58
NtRp4437
(dp4438
g61
(dp4439
g69
I2
ssg70
Nsg63
(lp4440
g56
(g72
g58
NtRp4441
(dp4442
g61
(dp4443
sg70
g4437
sg63
(lp4444
g56
(g77
g58
NtRp4445
(dp4446
g61
(dp4447
sg70
g4441
sg63
(lp4448
g56
(g57
g58
NtRp4449
(dp4450
g61
(dp4451
g69
I2
ssg70
g4445
sg63
(lp4452
g56
(g65
g58
NtRp4453
(dp4454
g61
(dp4455
g69
I1
ssg70
Nsg63
(lp4456
g56
(g72
g58
NtRp4457
(dp4458
g61
(dp4459
sg70
g4453
sg63
(lp4460
g56
(g77
g58
NtRp4461
(dp4462
g61
(dp4463
sg70
g4457
sg63
(lp4464
g56
(g57
g58
NtRp4465
(dp4466
g61
(dp4467
g69
I1
ssg70
g4461
sg63
(lp4468
g3772
(S't\r\x00\x00\x00Documentation'
tRp4469
asbasbasbag56
(g72
g58
NtRp4470
(dp4471
g61
(dp4472
sg70
g4453
sg63
(lp4473
g56
(g77
g58
NtRp4474
(dp4475
g61
(dp4476
sg70
g4470
sg63
(lp4477
g56
(g57
g58
NtRp4478
(dp4479
g61
(dp4480
g69
I1
ssg70
g4474
sg63
(lp4481
I00
asbasbasbag56
(g72
g58
NtRp4482
(dp4483
g61
(dp4484
sg70
g4453
sg63
(lp4485
g56
(g77
g58
NtRp4486
(dp4487
g61
(dp4488
sg70
g4482
sg63
(lp4489
g56
(g57
g58
NtRp4490
(dp4491
g61
(dp4492
g69
I1
ssg70
g4486
sg63
(lp4493
S'http://www.web2py.com/book'
p4494
asbasbasbag56
(g72
g58
NtRp4495
(dp4496
g61
(dp4497
sg70
g4453
sg63
(lp4498
g56
(g77
g58
NtRp4499
(dp4500
g61
(dp4501
sg70
g4495
sg63
(lp4502
g56
(g57
g58
NtRp4503
(dp4504
g61
(dp4505
g69
I1
ssg70
g4499
sg63
(lp4506
(lp4507
(g3772
(S't\x07\x00\x00\x00Preface'
tRp4508
I00
S'http://www.web2py.com/book/default/chapter/00'
p4509
tp4510
a(g3772
(S't\x0c\x00\x00\x00Introduction'
tRp4511
I00
S'http://www.web2py.com/book/default/chapter/01'
p4512
tp4513
a(g3772
(S't\x06\x00\x00\x00Python'
tRp4514
I00
S'http://www.web2py.com/book/default/chapter/02'
p4515
tp4516
a(g3772
(S't\x08\x00\x00\x00Overview'
tRp4517
I00
S'http://www.web2py.com/book/default/chapter/03'
p4518
tp4519
a(g3772
(S's\x08\x00\x00\x00The Core'
tRp4520
I00
S'http://www.web2py.com/book/default/chapter/04'
p4521
tp4522
a(g3772
(S's\t\x00\x00\x00The Views'
tRp4523
I00
S'http://www.web2py.com/book/default/chapter/05'
p4524
tp4525
a(g3772
(S't\x08\x00\x00\x00Database'
tRp4526
I00
S'http://www.web2py.com/book/default/chapter/06'
p4527
tp4528
a(g3772
(S's\x14\x00\x00\x00Forms and Validators'
tRp4529
I00
S'http://www.web2py.com/book/default/chapter/07'
p4530
tp4531
a(g3772
(S's\x0e\x00\x00\x00Access Control'
tRp4532
I00
S'http://www.web2py.com/book/default/chapter/08'
p4533
tp4534
a(g3772
(S't\x08\x00\x00\x00Services'
tRp4535
I00
S'http://www.web2py.com/book/default/chapter/09'
p4536
tp4537
a(g3772
(S's\x0c\x00\x00\x00Ajax Recipes'
tRp4538
I00
S'http://www.web2py.com/book/default/chapter/10'
p4539
tp4540
a(g3772
(S's\x12\x00\x00\x00Deployment Recipes'
tRp4541
I00
S'http://www.web2py.com/book/default/chapter/11'
p4542
tp4543
a(g3772
(S's\r\x00\x00\x00Other Recipes'
tRp4544
I00
S'http://www.web2py.com/book/default/chapter/12'
p4545
tp4546
a(g3772
(S's\r\x00\x00\x00Buy this book'
tRp4547
I00
S'http://stores.lulu.com/web2py'
p4548
tp4549
aasbasbasbasbasbasbasbag56
(g72
g58
NtRp4550
(dp4551
g61
(dp4552
sg70
g4437
sg63
(lp4553
g56
(g77
g58
NtRp4554
(dp4555
g61
(dp4556
sg70
g4550
sg63
(lp4557
g56
(g57
g58
NtRp4558
(dp4559
g61
(dp4560
g69
I2
ssg70
g4554
sg63
(lp4561
g56
(g65
g58
NtRp4562
(dp4563
g61
(dp4564
g69
I1
ssg70
Nsg63
(lp4565
g56
(g72
g58
NtRp4566
(dp4567
g61
(dp4568
sg70
g4562
sg63
(lp4569
g56
(g77
g58
NtRp4570
(dp4571
g61
(dp4572
sg70
g4566
sg63
(lp4573
g56
(g57
g58
NtRp4574
(dp4575
g61
(dp4576
g69
I1
ssg70
g4570
sg63
(lp4577
g3772
(S't\t\x00\x00\x00Community'
tRp4578
asbasbasbag56
(g72
g58
NtRp4579
(dp4580
g61
(dp4581
sg70
g4562
sg63
(lp4582
g56
(g77
g58
NtRp4583
(dp4584
g61
(dp4585
sg70
g4579
sg63
(lp4586
g56
(g57
g58
NtRp4587
(dp4588
g61
(dp4589
g69
I1
ssg70
g4583
sg63
(lp4590
I00
asbasbasbag56
(g72
g58
NtRp4591
(dp4592
g61
(dp4593
sg70
g4562
sg63
(lp4594
g56
(g77
g58
NtRp4595
(dp4596
g61
(dp4597
sg70
g4591
sg63
(lp4598
g56
(g57
g58
NtRp4599
(dp4600
g61
(dp4601
g69
I1
ssg70
g4595
sg63
(lp4602
Nasbasbasbag56
(g72
g58
NtRp4603
(dp4604
g61
(dp4605
sg70
g4562
sg63
(lp4606
g56
(g77
g58
NtRp4607
(dp4608
g61
(dp4609
sg70
g4603
sg63
(lp4610
g56
(g57
g58
NtRp4611
(dp4612
g61
(dp4613
g69
I1
ssg70
g4607
sg63
(lp4614
(lp4615
(g3772
(S't\x06\x00\x00\x00Groups'
tRp4616
I00
S'http://www.web2py.com/examples/default/usergroups'
p4617
tp4618
a(g3772
(S't\x07\x00\x00\x00Twitter'
tRp4619
I00
S'http://twitter.com/web2py'
p4620
tp4621
a(g3772
(S's\t\x00\x00\x00Live chat'
tRp4622
I00
S'http://mibbit.com/?channel=%23web2py&server=irc.mibbit.net'
p4623
tp4624
a(g3772
(S's\n\x00\x00\x00User Voice'
tRp4625
I00
S'http://web2py.uservoice.com/'
p4626
tp4627
aasbasbasbasbasbasbasbag56
(g72
g58
NtRp4628
(dp4629
g61
(dp4630
sg70
g4437
sg63
(lp4631
g56
(g77
g58
NtRp4632
(dp4633
g61
(dp4634
sg70
g4628
sg63
(lp4635
g56
(g57
g58
NtRp4636
(dp4637
g61
(dp4638
g69
I2
ssg70
g4632
sg63
(lp4639
g56
(g65
g58
NtRp4640
(dp4641
g61
(dp4642
g69
I1
ssg70
Nsg63
(lp4643
g56
(g72
g58
NtRp4644
(dp4645
g61
(dp4646
sg70
g4640
sg63
(lp4647
g56
(g77
g58
NtRp4648
(dp4649
g61
(dp4650
sg70
g4644
sg63
(lp4651
g56
(g57
g58
NtRp4652
(dp4653
g61
(dp4654
g69
I1
ssg70
g4648
sg63
(lp4655
g3772
(S't\x06\x00\x00\x00Web2py'
tRp4656
asbasbasbag56
(g72
g58
NtRp4657
(dp4658
g61
(dp4659
sg70
g4640
sg63
(lp4660
g56
(g77
g58
NtRp4661
(dp4662
g61
(dp4663
sg70
g4657
sg63
(lp4664
g56
(g57
g58
NtRp4665
(dp4666
g61
(dp4667
g69
I1
ssg70
g4661
sg63
(lp4668
I00
asbasbasbag56
(g72
g58
NtRp4669
(dp4670
g61
(dp4671
sg70
g4640
sg63
(lp4672
g56
(g77
g58
NtRp4673
(dp4674
g61
(dp4675
sg70
g4669
sg63
(lp4676
g56
(g57
g58
NtRp4677
(dp4678
g61
(dp4679
g69
I1
ssg70
g4673
sg63
(lp4680
S'http://www.web2py.com'
p4681
asbasbasbag56
(g72
g58
NtRp4682
(dp4683
g61
(dp4684
sg70
g4640
sg63
(lp4685
g56
(g77
g58
NtRp4686
(dp4687
g61
(dp4688
sg70
g4682
sg63
(lp4689
g56
(g57
g58
NtRp4690
(dp4691
g61
(dp4692
g69
I1
ssg70
g4686
sg63
(lp4693
(lp4694
(g3772
(S't\x08\x00\x00\x00Download'
tRp4695
I00
S'http://www.web2py.com/examples/default/download'
p4696
tp4697
a(g3772
(S't\x07\x00\x00\x00Support'
tRp4698
I00
S'http://www.web2py.com/examples/default/support'
p4699
tp4700
a(g3772
(S's\x0e\x00\x00\x00Quick Examples'
tRp4701
I00
S'http://web2py.com/examples/default/examples'
p4702
tp4703
a(g3772
(S't\x03\x00\x00\x00FAQ'
tRp4704
I00
S'http://web2py.com/AlterEgo'
p4705
tp4706
a(g3772
(S's\x11\x00\x00\x00Free Applications'
tRp4707
I00
S'http://web2py.com/appliances'
p4708
tp4709
a(g3772
(S't\x07\x00\x00\x00Plugins'
tRp4710
I00
S'http://web2py.com/plugins'
p4711
tp4712
a(g3772
(S't\x07\x00\x00\x00Recipes'
tRp4713
I00
S'http://web2pyslices.com/'
p4714
tp4715
a(g3772
(S't\x04\x00\x00\x00Demo'
tRp4716
I00
S'http://web2py.com/demo_admin'
p4717
tp4718
a(g3772
(S't\x08\x00\x00\x00Semantic'
tRp4719
I00
S'http://web2py.com/semantic'
p4720
tp4721
a(g3772
(S't\x07\x00\x00\x00Layouts'
tRp4722
I00
S'http://web2py.com/layouts'
p4723
tp4724
a(g3772
(S't\x06\x00\x00\x00Videos'
tRp4725
I00
S'http://www.web2py.com/examples/default/videos/'
p4726
tp4727
aasbasbasbasbasbasbasbasbasbasbasbasbasbasbasbasbasbasbasbag56
(g72
g58
NtRp4728
(dp4729
g61
(dp4730
sg70
g3267
sg63
(lp4731
g56
(g77
g58
NtRp4732
(dp4733
g61
(dp4734
g81
g82
ssg70
g4728
sg63
(lp4735
S'meta'
p4736
asbag56
(g77
g58
NtRp4737
(dp4738
g61
(dp4739
g88
g89
ssg70
g4728
sg63
(lp4740
S':'
asbag56
(g77
g58
NtRp4741
(dp4742
g61
(dp4743
sg70
g4728
sg63
(lp4744
g56
(g57
g58
NtRp4745
(dp4746
g61
(dp4747
g69
I5
ssg70
g4741
sg63
(lp4748
g56
(g65
g58
NtRp4749
(dp4750
g61
(dp4751
g69
I4
ssg70
Nsg63
(lp4752
g56
(g72
g58
NtRp4753
(dp4754
g61
(dp4755
sg70
g4749
sg63
(lp4756
g56
(g77
g58
NtRp4757
(dp4758
g61
(dp4759
g81
g82
ssg70
g4753
sg63
(lp4760
S'author'
p4761
asbag56
(g77
g58
NtRp4762
(dp4763
g61
(dp4764
g88
g89
ssg70
g4753
sg63
(lp4765
S':'
asbag56
(g77
g58
NtRp4766
(dp4767
g61
(dp4768
sg70
g4753
sg63
(lp4769
g56
(g57
g58
NtRp4770
(dp4771
g61
(dp4772
g69
I4
ssg70
g4766
sg63
(lp4773
S'Your Name <you@example.com>'
p4774
asbasbasbag56
(g72
g58
NtRp4775
(dp4776
g61
(dp4777
sg70
g4749
sg63
(lp4778
g56
(g77
g58
NtRp4779
(dp4780
g61
(dp4781
g81
g82
ssg70
g4775
sg63
(lp4782
S'copyright'
p4783
asbag56
(g77
g58
NtRp4784
(dp4785
g61
(dp4786
g88
g89
ssg70
g4775
sg63
(lp4787
S':'
asbag56
(g77
g58
NtRp4788
(dp4789
g61
(dp4790
sg70
g4775
sg63
(lp4791
g56
(g57
g58
NtRp4792
(dp4793
g61
(dp4794
g69
I4
ssg70
g4788
sg63
(lp4795
S'Copyright 2011'
p4796
asbasbasbag56
(g72
g58
NtRp4797
(dp4798
g61
(dp4799
sg70
g4749
sg63
(lp4800
g56
(g77
g58
NtRp4801
(dp4802
g61
(dp4803
g81
g82
ssg70
g4797
sg63
(lp4804
S'description'
p4805
asbag56
(g77
g58
NtRp4806
(dp4807
g61
(dp4808
g88
g89
ssg70
g4797
sg63
(lp4809
S':'
asbag56
(g77
g58
NtRp4810
(dp4811
g61
(dp4812
sg70
g4797
sg63
(lp4813
g56
(g57
g58
NtRp4814
(dp4815
g61
(dp4816
g69
I4
ssg70
g4810
sg63
(lp4817
S'a cool new app'
p4818
asbasbasbag56
(g72
g58
NtRp4819
(dp4820
g61
(dp4821
sg70
g4749
sg63
(lp4822
g56
(g77
g58
NtRp4823
(dp4824
g61
(dp4825
g81
g82
ssg70
g4819
sg63
(lp4826
S'generator'
p4827
asbag56
(g77
g58
NtRp4828
(dp4829
g61
(dp4830
g88
g89
ssg70
g4819
sg63
(lp4831
S':'
asbag56
(g77
g58
NtRp4832
(dp4833
g61
(dp4834
sg70
g4819
sg63
(lp4835
g56
(g57
g58
NtRp4836
(dp4837
g61
(dp4838
g69
I4
ssg70
g4832
sg63
(lp4839
S'Web2py Web Framework'
p4840
asbasbasbag56
(g72
g58
NtRp4841
(dp4842
g61
(dp4843
sg70
g4749
sg63
(lp4844
g56
(g77
g58
NtRp4845
(dp4846
g61
(dp4847
g81
g82
ssg70
g4841
sg63
(lp4848
S'keywords'
p4849
asbag56
(g77
g58
NtRp4850
(dp4851
g61
(dp4852
g88
g89
ssg70
g4841
sg63
(lp4853
S':'
asbag56
(g77
g58
NtRp4854
(dp4855
g61
(dp4856
sg70
g4841
sg63
(lp4857
g56
(g57
g58
NtRp4858
(dp4859
g61
(dp4860
g69
I4
ssg70
g4854
sg63
(lp4861
S'web2py, python, framework'
p4862
asbasbasbasbasbasbasbag56
(g72
g58
NtRp4863
(dp4864
g61
(dp4865
sg70
g3267
sg63
(lp4866
g56
(g77
g58
NtRp4867
(dp4868
g61
(dp4869
g81
g82
ssg70
g4863
sg63
(lp4870
S'postprocessing'
p4871
asbag56
(g77
g58
NtRp4872
(dp4873
g61
(dp4874
g88
g89
ssg70
g4863
sg63
(lp4875
S':'
asbag56
(g77
g58
NtRp4876
(dp4877
g61
(dp4878
sg70
g4863
sg63
(lp4879
g56
(g57
g58
NtRp4880
(dp4881
g61
(dp4882
g69
I5
ssg70
g4876
sg63
(lp4883
g56
(g65
g58
NtRp4884
(dp4885
g61
(dp4886
g69
I4
ssg70
Nsg63
(lp4887
sbasbasbasbag56
(g72
g58
NtRp4888
(dp4889
g61
(dp4890
sg70
g3267
sg63
(lp4891
g56
(g77
g58
NtRp4892
(dp4893
g61
(dp4894
g81
g82
ssg70
g4888
sg63
(lp4895
S'session_file'
p4896
asbag56
(g77
g58
NtRp4897
(dp4898
g61
(dp4899
g88
g89
ssg70
g4888
sg63
(lp4900
S':'
asbag56
(g77
g58
NtRp4901
(dp4902
g61
(dp4903
sg70
g4888
sg63
(lp4904
g56
(g57
g58
NtRp4905
(dp4906
g61
(dp4907
g69
I5
ssg70
g4901
sg63
(lp4908
S"<open file '/home/ian/web2py/applications/places/sessions/127.0.0.1-9bd70a00-d029-4b6e-8bcc-a423c3a61399', mode 'rb+' at 0x324fc90>"
p4909
asbasbasbag56
(g72
g58
NtRp4910
(dp4911
g61
(dp4912
sg70
g3267
sg63
(lp4913
g56
(g77
g58
NtRp4914
(dp4915
g61
(dp4916
g81
g82
ssg70
g4910
sg63
(lp4917
S'session_filename'
p4918
asbag56
(g77
g58
NtRp4919
(dp4920
g61
(dp4921
g88
g89
ssg70
g4910
sg63
(lp4922
S':'
asbag56
(g77
g58
NtRp4923
(dp4924
g61
(dp4925
sg70
g4910
sg63
(lp4926
g56
(g57
g58
NtRp4927
(dp4928
g61
(dp4929
g69
I5
ssg70
g4923
sg63
(lp4930
S'/home/ian/web2py/applications/places/sessions/127.0.0.1-9bd70a00-d029-4b6e-8bcc-a423c3a61399'
p4931
asbasbasbag56
(g72
g58
NtRp4932
(dp4933
g61
(dp4934
sg70
g3267
sg63
(lp4935
g56
(g77
g58
NtRp4936
(dp4937
g61
(dp4938
g81
g82
ssg70
g4932
sg63
(lp4939
S'session_id'
p4940
asbag56
(g77
g58
NtRp4941
(dp4942
g61
(dp4943
g88
g89
ssg70
g4932
sg63
(lp4944
S':'
asbag56
(g77
g58
NtRp4945
(dp4946
g61
(dp4947
sg70
g4932
sg63
(lp4948
g56
(g57
g58
NtRp4949
(dp4950
g61
(dp4951
g69
I5
ssg70
g4945
sg63
(lp4952
S'127.0.0.1-9bd70a00-d029-4b6e-8bcc-a423c3a61399'
p4953
asbasbasbag56
(g72
g58
NtRp4954
(dp4955
g61
(dp4956
sg70
g3267
sg63
(lp4957
g56
(g77
g58
NtRp4958
(dp4959
g61
(dp4960
g81
g82
ssg70
g4954
sg63
(lp4961
S'session_id_name'
p4962
asbag56
(g77
g58
NtRp4963
(dp4964
g61
(dp4965
g88
g89
ssg70
g4954
sg63
(lp4966
S':'
asbag56
(g77
g58
NtRp4967
(dp4968
g61
(dp4969
sg70
g4954
sg63
(lp4970
g56
(g57
g58
NtRp4971
(dp4972
g61
(dp4973
g69
I5
ssg70
g4967
sg63
(lp4974
g3324
asbasbasbag56
(g72
g58
NtRp4975
(dp4976
g61
(dp4977
sg70
g3267
sg63
(lp4978
g56
(g77
g58
NtRp4979
(dp4980
g61
(dp4981
g81
g82
ssg70
g4975
sg63
(lp4982
S'session_locked'
p4983
asbag56
(g77
g58
NtRp4984
(dp4985
g61
(dp4986
g88
g89
ssg70
g4975
sg63
(lp4987
S':'
asbag56
(g77
g58
NtRp4988
(dp4989
g61
(dp4990
sg70
g4975
sg63
(lp4991
g56
(g57
g58
NtRp4992
(dp4993
g61
(dp4994
g69
I5
ssg70
g4988
sg63
(lp4995
g99
asbasbasbag56
(g72
g58
NtRp4996
(dp4997
g61
(dp4998
sg70
g3267
sg63
(lp4999
g56
(g77
g58
NtRp5000
(dp5001
g61
(dp5002
g81
g82
ssg70
g4996
sg63
(lp5003
S'session_new'
p5004
asbag56
(g77
g58
NtRp5005
(dp5006
g61
(dp5007
g88
g89
ssg70
g4996
sg63
(lp5008
S':'
asbag56
(g77
g58
NtRp5009
(dp5010
g61
(dp5011
sg70
g4996
sg63
(lp5012
g56
(g57
g58
NtRp5013
(dp5014
g61
(dp5015
g69
I5
ssg70
g5009
sg63
(lp5016
g994
asbasbasbag56
(g72
g58
NtRp5017
(dp5018
g61
(dp5019
sg70
g3267
sg63
(lp5020
g56
(g77
g58
NtRp5021
(dp5022
g61
(dp5023
g81
g82
ssg70
g5017
sg63
(lp5024
S'status'
p5025
asbag56
(g77
g58
NtRp5026
(dp5027
g61
(dp5028
g88
g89
ssg70
g5017
sg63
(lp5029
S':'
asbag56
(g77
g58
NtRp5030
(dp5031
g61
(dp5032
sg70
g5017
sg63
(lp5033
g56
(g57
g58
NtRp5034
(dp5035
g61
(dp5036
g69
I5
ssg70
g5030
sg63
(lp5037
S'200'
p5038
asbasbasbag56
(g72
g58
NtRp5039
(dp5040
g61
(dp5041
sg70
g3267
sg63
(lp5042
g56
(g77
g58
NtRp5043
(dp5044
g61
(dp5045
g81
g82
ssg70
g5039
sg63
(lp5046
S'subtitle'
p5047
asbag56
(g77
g58
NtRp5048
(dp5049
g61
(dp5050
g88
g89
ssg70
g5039
sg63
(lp5051
S':'
asbag56
(g77
g58
NtRp5052
(dp5053
g61
(dp5054
sg70
g5039
sg63
(lp5055
g56
(g57
g58
NtRp5056
(dp5057
g61
(dp5058
g69
I5
ssg70
g5052
sg63
(lp5059
g3772
(S's\r\x00\x00\x00customize me!'
tRp5060
asbasbasbag56
(g72
g58
NtRp5061
(dp5062
g61
(dp5063
sg70
g3267
sg63
(lp5064
g56
(g77
g58
NtRp5065
(dp5066
g61
(dp5067
g81
g82
ssg70
g5061
sg63
(lp5068
S'title'
p5069
asbag56
(g77
g58
NtRp5070
(dp5071
g61
(dp5072
g88
g89
ssg70
g5061
sg63
(lp5073
S':'
asbag56
(g77
g58
NtRp5074
(dp5075
g61
(dp5076
sg70
g5061
sg63
(lp5077
g56
(g57
g58
NtRp5078
(dp5079
g61
(dp5080
g69
I5
ssg70
g5074
sg63
(lp5081
g121
asbasbasbag56
(g72
g58
NtRp5082
(dp5083
g61
(dp5084
sg70
g3267
sg63
(lp5085
g56
(g77
g58
NtRp5086
(dp5087
g61
(dp5088
g81
g82
ssg70
g5082
sg63
(lp5089
g2442
asbag56
(g77
g58
NtRp5090
(dp5091
g61
(dp5092
g88
g89
ssg70
g5082
sg63
(lp5093
S':'
asbag56
(g77
g58
NtRp5094
(dp5095
g61
(dp5096
sg70
g5082
sg63
(lp5097
g56
(g57
g58
NtRp5098
(dp5099
g61
(dp5100
g69
I5
ssg70
g5094
sg63
(lp5101
g2455
asbasbasbag56
(g72
g58
NtRp5102
(dp5103
g61
(dp5104
sg70
g3267
sg63
(lp5105
g56
(g77
g58
NtRp5106
(dp5107
g61
(dp5108
g81
g82
ssg70
g5102
sg63
(lp5109
S'view'
p5110
asbag56
(g77
g58
NtRp5111
(dp5112
g61
(dp5113
g88
g89
ssg70
g5102
sg63
(lp5114
S':'
asbag56
(g77
g58
NtRp5115
(dp5116
g61
(dp5117
sg70
g5102
sg63
(lp5118
g56
(g57
g58
NtRp5119
(dp5120
g61
(dp5121
g69
I5
ssg70
g5115
sg63
(lp5122
S'default/index.load'
p5123
asbasbasbasbasbsS'locals'
p5124
(dp5125
S'Service'
p5126
S"<class 'gluon.tools.Service'>"
p5127
sS'OBJECT'
p5128
S"<class 'gluon.html.OBJECT'>"
p5129
sS'SQLDB'
p5130
S"<class 'gluon.dal.DAL'>"
p5131
sg3205
S"<Storage {'current': 'kitchen', 'current_view': ...n__hash': ':\\xc8\\xac`-\\n#?\\x8aVA\\xffIm\\xda\\x92'}>"
p5132
sS'LINK'
p5133
S"<class 'gluon.html.LINK'>"
p5134
sS'BR'
p5135
S"<class 'gluon.html.BR'>"
p5136
sS'local_import'
p5137
S'<function <lambda>>'
p5138
sS'OPTGROUP'
p5139
S"<class 'gluon.html.OPTGROUP'>"
p5140
sS'PRE'
p5141
S"<class 'gluon.html.PRE'>"
p5142
sS'IS_INT_IN_RANGE'
p5143
S"<class 'gluon.validators.IS_INT_IN_RANGE'>"
p5144
sS'IS_LOWER'
p5145
S"<class 'gluon.validators.IS_LOWER'>"
p5146
sS'IS_STRONG'
p5147
S"<class 'gluon.validators.IS_STRONG'>"
p5148
sS'cache'
p5149
S'<gluon.cache.Cache object>'
p5150
sS'IS_IN_DB'
p5151
S"<class 'gluon.validators.IS_IN_DB'>"
p5152
sS'TAG'
p5153
S'<gluon.html.__TAG__ object>'
p5154
sS'SQLField'
p5155
S"<class 'gluon.dal.Field'>"
p5156
sS'mail'
p5157
S'<gluon.tools.Mail object>'
p5158
sS'BODY'
p5159
S"<class 'gluon.html.BODY'>"
p5160
sS'IS_DATE_IN_RANGE'
p5161
S"<class 'gluon.validators.IS_DATE_IN_RANGE'>"
p5162
sS'TH'
p5163
S"<class 'gluon.html.TH'>"
p5164
sS'URL'
p5165
S'<function URL>'
p5166
sS'__file__'
p5167
S"'/home/ian/web2py/applications/places/views/default/index.load'"
p5168
sS'db'
p5169
S"<DAL {'auth_event': <Table {'origin': <gluon.dal..., 'id': <gluon.dal.Field object at 0x2c2edd0>}>}>"
p5170
sS'auth'
p5171
S'<gluon.tools.Auth object>'
p5172
sS'P'
S"<class 'gluon.html.P'>"
p5173
sS'TFOOT'
p5174
S"<class 'gluon.html.TFOOT'>"
p5175
sS'XHTML'
p5176
S"<class 'gluon.html.XHTML'>"
p5177
sS'ON'
p5178
g99
sS'OL'
p5179
S"<class 'gluon.html.OL'>"
p5180
sS'TEXTAREA'
p5181
S"<class 'gluon.html.TEXTAREA'>"
p5182
sS'MENU'
p5183
S"<class 'gluon.html.MENU'>"
p5184
sS'current_view'
p5185
S"'kitchen'"
p5186
sS'LOAD'
p5187
S'<gluon.compileapp.LoadFactory object>'
p5188
sS'CODE'
p5189
S"<class 'gluon.html.CODE'>"
p5190
sS'HTTP'
p5191
S"<class 'gluon.http.HTTP'>"
p5192
sS'HR'
p5193
S"<class 'gluon.html.HR'>"
p5194
sS'IS_DATETIME'
p5195
S"<class 'gluon.validators.IS_DATETIME'>"
p5196
sS'HEAD'
p5197
S"<class 'gluon.html.HEAD'>"
p5198
sS'LABEL'
p5199
S"<class 'gluon.html.LABEL'>"
p5200
sS'CLEANUP'
p5201
S"<class 'gluon.validators.CLEANUP'>"
p5202
sS'plugins'
p5203
S'<gluon.tools.PluginManager object>'
p5204
sS'SELECT'
p5205
S"<class 'gluon.html.SELECT'>"
p5206
sS'use_janrain'
p5207
S'<function use_janrain>'
p5208
sS'CENTER'
p5209
S"<class 'gluon.html.CENTER'>"
p5210
sS'prettydate'
p5211
S'<function prettydate>'
p5212
sS'Crud'
p5213
S"<class 'gluon.tools.Crud'>"
p5214
sS'Auth'
p5215
S"<class 'gluon.tools.Auth'>"
p5216
sS'__builtins__'
p5217
S"{'ArithmeticError': <type 'exceptions.ArithmeticError'>, 'AssertionError': <type 'exceptions.AssertionError'>, 'AttributeError': <type 'exceptions.AttributeError'>, 'BaseException': <type 'exceptions.BaseException'>, 'BufferError': <type 'exceptions.BufferError'>, 'BytesWarning': <type 'exceptions.BytesWarning'>, 'DeprecationWarning': <type 'exceptions.DeprecationWarning'>, 'EOFError': <type 'exceptions.EOFError'>, 'Ellipsis': Ellipsis, 'EnvironmentError': <type 'exceptions.EnvironmentError'>, ...}"
p5218
sS'HTML'
p5219
S"<class 'gluon.html.HTML'>"
p5220
sS'SQLFORM'
p5221
S"<class 'gluon.sqlhtml.SQLFORM'>"
p5222
sS'EM'
p5223
S"<class 'gluon.html.EM'>"
p5224
sS'redirect'
p5225
S'<function redirect>'
p5226
sS'FIELDSET'
p5227
S"<class 'gluon.html.FIELDSET'>"
p5228
sS'IS_EQUAL_TO'
p5229
S"<class 'gluon.validators.IS_EQUAL_TO'>"
p5230
sS'embed64'
p5231
S'<function embed64>'
p5232
sS'IS_LIST_OF'
p5233
S"<class 'gluon.validators.IS_LIST_OF'>"
p5234
sS'INPUT'
p5235
S"<class 'gluon.html.INPUT'>"
p5236
sS'EMBED'
p5237
S"<class 'gluon.html.EMBED'>"
p5238
sS'_'
S'<function _>'
p5239
sS'FORM'
p5240
S"<class 'gluon.html.FORM'>"
p5241
sS'H2'
p5242
S"<class 'gluon.html.H2'>"
p5243
sS'H3'
p5244
S"<class 'gluon.html.H3'>"
p5245
sS'BUTTON'
p5246
S"<class 'gluon.html.BUTTON'>"
p5247
sS'H1'
p5248
S"<class 'gluon.html.H1'>"
p5249
sS'H6'
p5250
S"<class 'gluon.html.H6'>"
p5251
sS'H4'
p5252
S"<class 'gluon.html.H4'>"
p5253
sS'H5'
p5254
S"<class 'gluon.html.H5'>"
p5255
sS'UL'
p5256
S"<class 'gluon.html.UL'>"
p5257
sS'IS_UPPER'
p5258
S"<class 'gluon.validators.IS_UPPER'>"
p5259
sS'xmlescape'
p5260
S'<function xmlescape>'
p5261
sS'IS_TIME'
p5262
S"<class 'gluon.validators.IS_TIME'>"
p5263
sS'OPTION'
p5264
S"<class 'gluon.html.OPTION'>"
p5265
sS'TITLE'
p5266
S"<class 'gluon.html.TITLE'>"
p5267
sS'CRYPT'
p5268
S"<class 'gluon.validators.CRYPT'>"
p5269
sS'IS_EMPTY_OR'
p5270
S"<class 'gluon.validators.IS_EMPTY_OR'>"
p5271
sS'MARKMIN'
p5272
S"<class 'gluon.html.MARKMIN'>"
p5273
sS'COL'
p5274
S"<class 'gluon.html.COL'>"
p5275
sS'service'
p5276
S'<gluon.tools.Service object>'
p5277
sS'SCRIPT'
p5278
S"<class 'gluon.html.SCRIPT'>"
p5279
sS'TABLE'
p5280
S"<class 'gluon.html.TABLE'>"
p5281
sS'IS_IPV4'
p5282
S"<class 'gluon.validators.IS_IPV4'>"
p5283
sS'IS_LENGTH'
p5284
S"<class 'gluon.validators.IS_LENGTH'>"
p5285
sS'XML'
p5286
S"<class 'gluon.html.XML'>"
p5287
sS'B'
S"<class 'gluon.html.B'>"
p5288
sS'IMG'
p5289
S"<class 'gluon.html.IMG'>"
p5290
sS'SQLTABLE'
p5291
S"<class 'gluon.sqlhtml.SQLTABLE'>"
p5292
sS'IS_MATCH'
p5293
S"<class 'gluon.validators.IS_MATCH'>"
p5294
sS'IS_ALPHANUMERIC'
p5295
S"<class 'gluon.validators.IS_ALPHANUMERIC'>"
p5296
sS'link'
p5297
S"<Row {'tags': [1], 'update_record': <function <l...elete_record': <function <lambda> at 0x2ecaf50>}>"
p5298
sS'SPAN'
p5299
S"<class 'gluon.html.SPAN'>"
p5300
sS'IS_SLUG'
p5301
S"<class 'gluon.validators.IS_SLUG'>"
p5302
sS'BEAUTIFY'
p5303
S"<class 'gluon.html.BEAUTIFY'>"
p5304
sS'META'
p5305
S"<class 'gluon.html.META'>"
p5306
sS'IS_DATE'
p5307
S"<class 'gluon.validators.IS_DATE'>"
p5308
sS'IS_EMAIL'
p5309
S"<class 'gluon.validators.IS_EMAIL'>"
p5310
sS'links'
p5311
S'<gluon.dal.Rows object>'
p5312
sS'IS_NOT_EMPTY'
p5313
S"<class 'gluon.validators.IS_NOT_EMPTY'>"
p5314
sS'IS_FLOAT_IN_RANGE'
p5315
S"<class 'gluon.validators.IS_FLOAT_IN_RANGE'>"
p5316
sS'TBODY'
p5317
S"<class 'gluon.html.TBODY'>"
p5318
sS'CAT'
p5319
S"<class 'gluon.html.CAT'>"
p5320
sS'Field'
p5321
S"<class 'gluon.dal.Field'>"
p5322
sS'DIV'
p5323
S"<class 'gluon.html.DIV'>"
p5324
sS'LEGEND'
p5325
S"<class 'gluon.html.LEGEND'>"
p5326
sS'COLGROUP'
p5327
S"<class 'gluon.html.COLGROUP'>"
p5328
sS'DAL'
p5329
S"<class 'gluon.dal.DAL'>"
p5330
sS'TT'
p5331
S"<class 'gluon.html.TT'>"
p5332
sS'TR'
p5333
S"<class 'gluon.html.TR'>"
p5334
sS'LI'
p5335
S"<class 'gluon.html.LI'>"
p5336
sS'IFRAME'
p5337
S"<class 'gluon.html.IFRAME'>"
p5338
sS'TD'
p5339
S"<class 'gluon.html.TD'>"
p5340
sS'PluginManager'
p5341
S"<class 'gluon.tools.PluginManager'>"
p5342
sS'IS_URL'
p5343
S"<class 'gluon.validators.IS_URL'>"
p5344
sS'A'
S"<class 'gluon.html.A'>"
p5345
sS'STYLE'
p5346
S"<class 'gluon.html.STYLE'>"
p5347
sS'IS_DATETIME_IN_RANGE'
p5348
S"<class 'gluon.validators.IS_DATETIME_IN_RANGE'>"
p5349
sS'IS_IMAGE'
p5350
S"<class 'gluon.validators.IS_IMAGE'>"
p5351
sS'I'
S"<class 'gluon.html.I'>"
p5352
sS'crud'
p5353
S'<gluon.tools.Crud object>'
p5354
sS'IS_NOT_IN_DB'
p5355
S"<class 'gluon.validators.IS_NOT_IN_DB'>"
p5356
sg3262
S"<Storage {'body': <cStringIO.StringO object at 0...da> at 0x2f13c80>, 'view': 'default/index.load'}>"
p5357
sS'THEAD'
p5358
S"<class 'gluon.html.THEAD'>"
p5359
sS'IS_NULL_OR'
p5360
S"<class 'gluon.validators.IS_EMPTY_OR'>"
p5361
sg55
S"<Storage {'body': <cStringIO.StringO object at 0..._vars': <Storage {}>, 'post_vars': <Storage {}>}>"
p5362
sS'IS_EXPR'
p5363
S"<class 'gluon.validators.IS_EXPR'>"
p5364
sS'T'
S'<gluon.languages.translator object>'
p5365
sS'IS_IN_SET'
p5366
S"<class 'gluon.validators.IS_IN_SET'>"
p5367
sS'IS_UPLOAD_FILENAME'
p5368
S"<class 'gluon.validators.IS_UPLOAD_FILENAME'>"
p5369
sS'IS_DECIMAL_IN_RANGE'
p5370
S"<class 'gluon.validators.IS_DECIMAL_IN_RANGE'>"
p5371
sssS'traceback'
p5372
S'Traceback (most recent call last):\n  File "/home/ian/web2py/gluon/restricted.py", line 194, in restricted\n    exec ccode in environment\n  File "/home/ian/web2py/applications/places/views/default/index.load", line 9, in <module>\nNameError: name \'requesst\' is not defined\n'
p5373
s.