(dp1
S'output'
p2
S''
sS'layer'
p3
S'/home/ian/web2py/applications/places/views/default/index.load'
p4
sS'code'
p5
S"for link in links:\n    response.write('\\n<li>\\n', escape=False)\n    response.write(A(link.link_name, _href=link.link_url, _title=link.link_name, _alt=link.link_name))\n    response.write('\\n', escape=False)\n    response.write(IMG(_src=URL('download', args=links.link_image)))\n    response.write('\\n', escape=False)\n    response.write(A('edit', _href=URL('default', 'edit.load', args=[link.id]), cid='modal_frame', _class='edit_link'))\n    response.write('\\n</li>\\n', escape=False)\n    pass\nresponse.write('\\n\\n', escape=False)\n#=BEAUTIFY(response._vars)\nresponse.write('\\n', escape=False)"
p6
sS'snapshot'
p7
(dp8
S'exception'
p9
(dp10
S'__hash__'
p11
S"<method-wrapper '__hash__' of exceptions.AttributeError object>"
p12
sS'__setattr__'
p13
S"<method-wrapper '__setattr__' of exceptions.AttributeError object>"
p14
sS'__reduce_ex__'
p15
S'<built-in method __reduce_ex__ of exceptions.AttributeError object>'
p16
sS'__getslice__'
p17
S"<method-wrapper '__getslice__' of exceptions.AttributeError object>"
p18
sS'__getitem__'
p19
S"<method-wrapper '__getitem__' of exceptions.AttributeError object>"
p20
sS'__setstate__'
p21
S'<built-in method __setstate__ of exceptions.AttributeError object>'
p22
sS'args'
p23
S'("\'Rows\' object has no attribute \'link_image\'",)'
p24
sS'__reduce__'
p25
S'<built-in method __reduce__ of exceptions.AttributeError object>'
p26
sS'__str__'
p27
S"<method-wrapper '__str__' of exceptions.AttributeError object>"
p28
sS'__format__'
p29
S'<built-in method __format__ of exceptions.AttributeError object>'
p30
sS'__getattribute__'
p31
S"<method-wrapper '__getattribute__' of exceptions.AttributeError object>"
p32
sS'__class__'
p33
S"<type 'exceptions.AttributeError'>"
p34
sS'__unicode__'
p35
S'<built-in method __unicode__ of exceptions.AttributeError object>'
p36
sS'__delattr__'
p37
S"<method-wrapper '__delattr__' of exceptions.AttributeError object>"
p38
sS'__subclasshook__'
p39
S'<built-in method __subclasshook__ of type object>'
p40
sS'__repr__'
p41
S"<method-wrapper '__repr__' of exceptions.AttributeError object>"
p42
sS'__dict__'
p43
S'{}'
p44
sS'__sizeof__'
p45
S'<built-in method __sizeof__ of exceptions.AttributeError object>'
p46
sS'__doc__'
p47
S"'Attribute not found.'"
p48
sS'__init__'
p49
S"<method-wrapper '__init__' of exceptions.AttributeError object>"
p50
sS'__new__'
p51
S'<built-in method __new__ of type object>'
p52
ssS'evalue'
p53
S"'Rows' object has no attribute 'link_image'"
p54
sS'request'
p55
ccopy_reg
_reconstructor
p56
(cgluon.html
BEAUTIFY
p57
c__builtin__
object
p58
NtRp59
(dp60
S'attributes'
p61
(dp62
sS'components'
p63
(lp64
g56
(cgluon.html
TABLE
p65
g58
NtRp66
(dp67
g61
(dp68
S'level'
p69
I5
ssS'parent'
p70
Nsg63
(lp71
g56
(cgluon.html
TR
p72
g58
NtRp73
(dp74
g61
(dp75
sg70
g66
sg63
(lp76
g56
(cgluon.html
TD
p77
g58
NtRp78
(dp79
g61
(dp80
S'_style'
p81
S'font-weight:bold;'
p82
ssg70
g73
sg63
(lp83
S'ajax'
p84
asbag56
(g77
g58
NtRp85
(dp86
g61
(dp87
S'_valign'
p88
S'top'
p89
ssg70
g73
sg63
(lp90
S':'
asbag56
(g77
g58
NtRp91
(dp92
g61
(dp93
sg70
g73
sg63
(lp94
g56
(g57
g58
NtRp95
(dp96
g61
(dp97
g69
I5
ssg70
g91
sg63
(lp98
S'True'
p99
asbasbasbag56
(g72
g58
NtRp100
(dp101
g61
(dp102
sg70
g66
sg63
(lp103
g56
(g77
g58
NtRp104
(dp105
g61
(dp106
g81
g82
ssg70
g100
sg63
(lp107
S'application'
p108
asbag56
(g77
g58
NtRp109
(dp110
g61
(dp111
g88
g89
ssg70
g100
sg63
(lp112
S':'
asbag56
(g77
g58
NtRp113
(dp114
g61
(dp115
sg70
g100
sg63
(lp116
g56
(g57
g58
NtRp117
(dp118
g61
(dp119
g69
I5
ssg70
g113
sg63
(lp120
S'places'
p121
asbasbasbag56
(g72
g58
NtRp122
(dp123
g61
(dp124
sg70
g66
sg63
(lp125
g56
(g77
g58
NtRp126
(dp127
g61
(dp128
g81
g82
ssg70
g122
sg63
(lp129
g23
asbag56
(g77
g58
NtRp130
(dp131
g61
(dp132
g88
g89
ssg70
g122
sg63
(lp133
S':'
asbag56
(g77
g58
NtRp134
(dp135
g61
(dp136
sg70
g122
sg63
(lp137
g56
(g57
g58
NtRp138
(dp139
g61
(dp140
g69
I5
ssg70
g134
sg63
(lp141
g56
(g65
g58
NtRp142
(dp143
g61
(dp144
g69
I4
ssg70
Nsg63
(lp145
sbasbasbasbag56
(g72
g58
NtRp146
(dp147
g61
(dp148
sg70
g66
sg63
(lp149
g56
(g77
g58
NtRp150
(dp151
g61
(dp152
g81
g82
ssg70
g146
sg63
(lp153
S'body'
p154
asbag56
(g77
g58
NtRp155
(dp156
g61
(dp157
g88
g89
ssg70
g146
sg63
(lp158
S':'
asbag56
(g77
g58
NtRp159
(dp160
g61
(dp161
sg70
g146
sg63
(lp162
g56
(g57
g58
NtRp163
(dp164
g61
(dp165
g69
I5
ssg70
g159
sg63
(lp166
S'<cStringIO.StringO object at 0x3c7e9d0>'
p167
asbasbasbag56
(g72
g58
NtRp168
(dp169
g61
(dp170
sg70
g66
sg63
(lp171
g56
(g77
g58
NtRp172
(dp173
g61
(dp174
g81
g82
ssg70
g168
sg63
(lp175
S'cid'
p176
asbag56
(g77
g58
NtRp177
(dp178
g61
(dp179
g88
g89
ssg70
g168
sg63
(lp180
S':'
asbag56
(g77
g58
NtRp181
(dp182
g61
(dp183
sg70
g168
sg63
(lp184
g56
(g57
g58
NtRp185
(dp186
g61
(dp187
g69
I5
ssg70
g181
sg63
(lp188
S'c305585682771'
p189
asbasbasbag56
(g72
g58
NtRp190
(dp191
g61
(dp192
sg70
g66
sg63
(lp193
g56
(g77
g58
NtRp194
(dp195
g61
(dp196
g81
g82
ssg70
g190
sg63
(lp197
S'client'
p198
asbag56
(g77
g58
NtRp199
(dp200
g61
(dp201
g88
g89
ssg70
g190
sg63
(lp202
S':'
asbag56
(g77
g58
NtRp203
(dp204
g61
(dp205
sg70
g190
sg63
(lp206
g56
(g57
g58
NtRp207
(dp208
g61
(dp209
g69
I5
ssg70
g203
sg63
(lp210
S'127.0.0.1'
p211
asbasbasbag56
(g72
g58
NtRp212
(dp213
g61
(dp214
sg70
g66
sg63
(lp215
g56
(g77
g58
NtRp216
(dp217
g61
(dp218
g81
g82
ssg70
g212
sg63
(lp219
S'controller'
p220
asbag56
(g77
g58
NtRp221
(dp222
g61
(dp223
g88
g89
ssg70
g212
sg63
(lp224
S':'
asbag56
(g77
g58
NtRp225
(dp226
g61
(dp227
sg70
g212
sg63
(lp228
g56
(g57
g58
NtRp229
(dp230
g61
(dp231
g69
I5
ssg70
g225
sg63
(lp232
S'default'
p233
asbasbasbag56
(g72
g58
NtRp234
(dp235
g61
(dp236
sg70
g66
sg63
(lp237
g56
(g77
g58
NtRp238
(dp239
g61
(dp240
g81
g82
ssg70
g234
sg63
(lp241
S'cookies'
p242
asbag56
(g77
g58
NtRp243
(dp244
g61
(dp245
g88
g89
ssg70
g234
sg63
(lp246
S':'
asbag56
(g77
g58
NtRp247
(dp248
g61
(dp249
sg70
g234
sg63
(lp250
g56
(g57
g58
NtRp251
(dp252
g61
(dp253
g69
I5
ssg70
g247
sg63
(lp254
g56
(g65
g58
NtRp255
(dp256
g61
(dp257
g69
I4
ssg70
Nsg63
(lp258
g56
(g72
g58
NtRp259
(dp260
g61
(dp261
sg70
g255
sg63
(lp262
g56
(g77
g58
NtRp263
(dp264
g61
(dp265
g81
g82
ssg70
g259
sg63
(lp266
S'session_id_places'
p267
asbag56
(g77
g58
NtRp268
(dp269
g61
(dp270
g88
g89
ssg70
g259
sg63
(lp271
S':'
asbag56
(g77
g58
NtRp272
(dp273
g61
(dp274
sg70
g259
sg63
(lp275
g56
(g57
g58
NtRp276
(dp277
g61
(dp278
g69
I4
ssg70
g272
sg63
(lp279
g56
(g65
g58
NtRp280
(dp281
g61
(dp282
g69
I3
ssg70
Nsg63
(lp283
g56
(g72
g58
NtRp284
(dp285
g61
(dp286
sg70
g280
sg63
(lp287
g56
(g77
g58
NtRp288
(dp289
g61
(dp290
g81
g82
ssg70
g284
sg63
(lp291
S'comment'
p292
asbag56
(g77
g58
NtRp293
(dp294
g61
(dp295
g88
g89
ssg70
g284
sg63
(lp296
S':'
asbag56
(g77
g58
NtRp297
(dp298
g61
(dp299
sg70
g284
sg63
(lp300
g56
(g57
g58
NtRp301
(dp302
g61
(dp303
g69
I3
ssg70
g297
sg63
(lp304
S''
asbasbasbag56
(g72
g58
NtRp305
(dp306
g61
(dp307
sg70
g280
sg63
(lp308
g56
(g77
g58
NtRp309
(dp310
g61
(dp311
g81
g82
ssg70
g305
sg63
(lp312
S'domain'
p313
asbag56
(g77
g58
NtRp314
(dp315
g61
(dp316
g88
g89
ssg70
g305
sg63
(lp317
S':'
asbag56
(g77
g58
NtRp318
(dp319
g61
(dp320
sg70
g305
sg63
(lp321
g56
(g57
g58
NtRp322
(dp323
g61
(dp324
g69
I3
ssg70
g318
sg63
(lp325
S''
asbasbasbag56
(g72
g58
NtRp326
(dp327
g61
(dp328
sg70
g280
sg63
(lp329
g56
(g77
g58
NtRp330
(dp331
g61
(dp332
g81
g82
ssg70
g326
sg63
(lp333
S'expires'
p334
asbag56
(g77
g58
NtRp335
(dp336
g61
(dp337
g88
g89
ssg70
g326
sg63
(lp338
S':'
asbag56
(g77
g58
NtRp339
(dp340
g61
(dp341
sg70
g326
sg63
(lp342
g56
(g57
g58
NtRp343
(dp344
g61
(dp345
g69
I3
ssg70
g339
sg63
(lp346
S''
asbasbasbag56
(g72
g58
NtRp347
(dp348
g61
(dp349
sg70
g280
sg63
(lp350
g56
(g77
g58
NtRp351
(dp352
g61
(dp353
g81
g82
ssg70
g347
sg63
(lp354
S'httponly'
p355
asbag56
(g77
g58
NtRp356
(dp357
g61
(dp358
g88
g89
ssg70
g347
sg63
(lp359
S':'
asbag56
(g77
g58
NtRp360
(dp361
g61
(dp362
sg70
g347
sg63
(lp363
g56
(g57
g58
NtRp364
(dp365
g61
(dp366
g69
I3
ssg70
g360
sg63
(lp367
S''
asbasbasbag56
(g72
g58
NtRp368
(dp369
g61
(dp370
sg70
g280
sg63
(lp371
g56
(g77
g58
NtRp372
(dp373
g61
(dp374
g81
g82
ssg70
g368
sg63
(lp375
S'max-age'
p376
asbag56
(g77
g58
NtRp377
(dp378
g61
(dp379
g88
g89
ssg70
g368
sg63
(lp380
S':'
asbag56
(g77
g58
NtRp381
(dp382
g61
(dp383
sg70
g368
sg63
(lp384
g56
(g57
g58
NtRp385
(dp386
g61
(dp387
g69
I3
ssg70
g381
sg63
(lp388
S''
asbasbasbag56
(g72
g58
NtRp389
(dp390
g61
(dp391
sg70
g280
sg63
(lp392
g56
(g77
g58
NtRp393
(dp394
g61
(dp395
g81
g82
ssg70
g389
sg63
(lp396
S'path'
p397
asbag56
(g77
g58
NtRp398
(dp399
g61
(dp400
g88
g89
ssg70
g389
sg63
(lp401
S':'
asbag56
(g77
g58
NtRp402
(dp403
g61
(dp404
sg70
g389
sg63
(lp405
g56
(g57
g58
NtRp406
(dp407
g61
(dp408
g69
I3
ssg70
g402
sg63
(lp409
S''
asbasbasbag56
(g72
g58
NtRp410
(dp411
g61
(dp412
sg70
g280
sg63
(lp413
g56
(g77
g58
NtRp414
(dp415
g61
(dp416
g81
g82
ssg70
g410
sg63
(lp417
S'secure'
p418
asbag56
(g77
g58
NtRp419
(dp420
g61
(dp421
g88
g89
ssg70
g410
sg63
(lp422
S':'
asbag56
(g77
g58
NtRp423
(dp424
g61
(dp425
sg70
g410
sg63
(lp426
g56
(g57
g58
NtRp427
(dp428
g61
(dp429
g69
I3
ssg70
g423
sg63
(lp430
S''
asbasbasbag56
(g72
g58
NtRp431
(dp432
g61
(dp433
sg70
g280
sg63
(lp434
g56
(g77
g58
NtRp435
(dp436
g61
(dp437
g81
g82
ssg70
g431
sg63
(lp438
S'version'
p439
asbag56
(g77
g58
NtRp440
(dp441
g61
(dp442
g88
g89
ssg70
g431
sg63
(lp443
S':'
asbag56
(g77
g58
NtRp444
(dp445
g61
(dp446
sg70
g431
sg63
(lp447
g56
(g57
g58
NtRp448
(dp449
g61
(dp450
g69
I3
ssg70
g444
sg63
(lp451
S''
asbasbasbasbasbasbasbasbasbasbasbag56
(g72
g58
NtRp452
(dp453
g61
(dp454
sg70
g66
sg63
(lp455
g56
(g77
g58
NtRp456
(dp457
g61
(dp458
g81
g82
ssg70
g452
sg63
(lp459
S'env'
p460
asbag56
(g77
g58
NtRp461
(dp462
g61
(dp463
g88
g89
ssg70
g452
sg63
(lp464
S':'
asbag56
(g77
g58
NtRp465
(dp466
g61
(dp467
sg70
g452
sg63
(lp468
g56
(g57
g58
NtRp469
(dp470
g61
(dp471
g69
I5
ssg70
g465
sg63
(lp472
g56
(g65
g58
NtRp473
(dp474
g61
(dp475
g69
I4
ssg70
Nsg63
(lp476
g56
(g72
g58
NtRp477
(dp478
g61
(dp479
sg70
g473
sg63
(lp480
g56
(g77
g58
NtRp481
(dp482
g61
(dp483
g81
g82
ssg70
g477
sg63
(lp484
S'app_folders'
p485
asbag56
(g77
g58
NtRp486
(dp487
g61
(dp488
g88
g89
ssg70
g477
sg63
(lp489
S':'
asbag56
(g77
g58
NtRp490
(dp491
g61
(dp492
sg70
g477
sg63
(lp493
g56
(g57
g58
NtRp494
(dp495
g61
(dp496
g69
I4
ssg70
g490
sg63
(lp497
S"set(['/home/ian/web2py/applications/welcome/', '/home/ian/web2py/applications/places/', '/home/ian/web2py/applications/admin/'])"
p498
asbasbasbag56
(g72
g58
NtRp499
(dp500
g61
(dp501
sg70
g473
sg63
(lp502
g56
(g77
g58
NtRp503
(dp504
g61
(dp505
g81
g82
ssg70
g499
sg63
(lp506
S'applications_parent'
p507
asbag56
(g77
g58
NtRp508
(dp509
g61
(dp510
g88
g89
ssg70
g499
sg63
(lp511
S':'
asbag56
(g77
g58
NtRp512
(dp513
g61
(dp514
sg70
g499
sg63
(lp515
g56
(g57
g58
NtRp516
(dp517
g61
(dp518
g69
I4
ssg70
g512
sg63
(lp519
S'/home/ian/web2py'
p520
asbasbasbag56
(g72
g58
NtRp521
(dp522
g61
(dp523
sg70
g473
sg63
(lp524
g56
(g77
g58
NtRp525
(dp526
g61
(dp527
g81
g82
ssg70
g521
sg63
(lp528
S'cmd_args'
p529
asbag56
(g77
g58
NtRp530
(dp531
g61
(dp532
g88
g89
ssg70
g521
sg63
(lp533
S':'
asbag56
(g77
g58
NtRp534
(dp535
g61
(dp536
sg70
g521
sg63
(lp537
g56
(g57
g58
NtRp538
(dp539
g61
(dp540
g69
I4
ssg70
g534
sg63
(lp541
g56
(g65
g58
NtRp542
(dp543
g61
(dp544
g69
I3
ssg70
Nsg63
(lp545
sbasbasbasbag56
(g72
g58
NtRp546
(dp547
g61
(dp548
sg70
g473
sg63
(lp549
g56
(g77
g58
NtRp550
(dp551
g61
(dp552
g81
g82
ssg70
g546
sg63
(lp553
S'cmd_options'
p554
asbag56
(g77
g58
NtRp555
(dp556
g61
(dp557
g88
g89
ssg70
g546
sg63
(lp558
S':'
asbag56
(g77
g58
NtRp559
(dp560
g61
(dp561
sg70
g546
sg63
(lp562
g56
(g57
g58
NtRp563
(dp564
g61
(dp565
g69
I4
ssg70
g559
sg63
(lp566
S"<Values at 0x2be17e8: {'verbose': False, 'ip': '127.0.0.1', 'shutdown_timeout': 5, 'taskbar': False, 'nocron': False, 'pid_filename': 'httpserver.pid', 'maxthreads': None, 'softcron': False, 'server_name': 'Ariel-ubuntu', 'bpython': False, 'nogui': False, 'port': 8000, 'extcron': False, 'debuglevel': 30, 'test': None, 'folder': '/home/ian/web2py', 'config': '', 'import_models': False, 'winservice': '', 'shell': None, 'run': '', 'log_filename': 'httpserver.log', 'args': [''], 'ssl_ca_certificate': None, 'scheduler': None, 'profiler_filename': None, 'ssl_private_key': '', 'password': '<ask>', 'request_queue_size': 5, 'ssl_certificate': '', 'cronjob': False, 'plain': False, 'quiet': False, 'interfaces': None, 'minthreads': None, 'timeout': 10, 'numthreads': None, 'nobanner': False}>"
p567
asbasbasbag56
(g72
g58
NtRp568
(dp569
g61
(dp570
sg70
g473
sg63
(lp571
g56
(g77
g58
NtRp572
(dp573
g61
(dp574
g81
g82
ssg70
g568
sg63
(lp575
S'db_sessions'
p576
asbag56
(g77
g58
NtRp577
(dp578
g61
(dp579
g88
g89
ssg70
g568
sg63
(lp580
S':'
asbag56
(g77
g58
NtRp581
(dp582
g61
(dp583
sg70
g568
sg63
(lp584
g56
(g57
g58
NtRp585
(dp586
g61
(dp587
g69
I4
ssg70
g581
sg63
(lp588
S'set([])'
p589
asbasbasbag56
(g72
g58
NtRp590
(dp591
g61
(dp592
sg70
g473
sg63
(lp593
g56
(g77
g58
NtRp594
(dp595
g61
(dp596
g81
g82
ssg70
g590
sg63
(lp597
S'debugging'
p598
asbag56
(g77
g58
NtRp599
(dp600
g61
(dp601
g88
g89
ssg70
g590
sg63
(lp602
S':'
asbag56
(g77
g58
NtRp603
(dp604
g61
(dp605
sg70
g590
sg63
(lp606
g56
(g57
g58
NtRp607
(dp608
g61
(dp609
g69
I4
ssg70
g603
sg63
(lp610
S'False'
p611
asbasbasbag56
(g72
g58
NtRp612
(dp613
g61
(dp614
sg70
g473
sg63
(lp615
g56
(g77
g58
NtRp616
(dp617
g61
(dp618
g81
g82
ssg70
g612
sg63
(lp619
S'gluon_parent'
p620
asbag56
(g77
g58
NtRp621
(dp622
g61
(dp623
g88
g89
ssg70
g612
sg63
(lp624
S':'
asbag56
(g77
g58
NtRp625
(dp626
g61
(dp627
sg70
g612
sg63
(lp628
g56
(g57
g58
NtRp629
(dp630
g61
(dp631
g69
I4
ssg70
g625
sg63
(lp632
S'/home/ian/web2py'
p633
asbasbasbag56
(g72
g58
NtRp634
(dp635
g61
(dp636
sg70
g473
sg63
(lp637
g56
(g77
g58
NtRp638
(dp639
g61
(dp640
g81
g82
ssg70
g634
sg63
(lp641
S'http_accept'
p642
asbag56
(g77
g58
NtRp643
(dp644
g61
(dp645
g88
g89
ssg70
g634
sg63
(lp646
S':'
asbag56
(g77
g58
NtRp647
(dp648
g61
(dp649
sg70
g634
sg63
(lp650
g56
(g57
g58
NtRp651
(dp652
g61
(dp653
g69
I4
ssg70
g647
sg63
(lp654
S'*/*'
p655
asbasbasbag56
(g72
g58
NtRp656
(dp657
g61
(dp658
sg70
g473
sg63
(lp659
g56
(g77
g58
NtRp660
(dp661
g61
(dp662
g81
g82
ssg70
g656
sg63
(lp663
S'http_accept_encoding'
p664
asbag56
(g77
g58
NtRp665
(dp666
g61
(dp667
g88
g89
ssg70
g656
sg63
(lp668
S':'
asbag56
(g77
g58
NtRp669
(dp670
g61
(dp671
sg70
g656
sg63
(lp672
g56
(g57
g58
NtRp673
(dp674
g61
(dp675
g69
I4
ssg70
g669
sg63
(lp676
S'gzip, deflate'
p677
asbasbasbag56
(g72
g58
NtRp678
(dp679
g61
(dp680
sg70
g473
sg63
(lp681
g56
(g77
g58
NtRp682
(dp683
g61
(dp684
g81
g82
ssg70
g678
sg63
(lp685
S'http_accept_language'
p686
asbag56
(g77
g58
NtRp687
(dp688
g61
(dp689
g88
g89
ssg70
g678
sg63
(lp690
S':'
asbag56
(g77
g58
NtRp691
(dp692
g61
(dp693
sg70
g678
sg63
(lp694
g56
(g57
g58
NtRp695
(dp696
g61
(dp697
g69
I4
ssg70
g691
sg63
(lp698
S'en-us,en;q=0.5'
p699
asbasbasbag56
(g72
g58
NtRp700
(dp701
g61
(dp702
sg70
g473
sg63
(lp703
g56
(g77
g58
NtRp704
(dp705
g61
(dp706
g81
g82
ssg70
g700
sg63
(lp707
S'http_cache_control'
p708
asbag56
(g77
g58
NtRp709
(dp710
g61
(dp711
g88
g89
ssg70
g700
sg63
(lp712
S':'
asbag56
(g77
g58
NtRp713
(dp714
g61
(dp715
sg70
g700
sg63
(lp716
g56
(g57
g58
NtRp717
(dp718
g61
(dp719
g69
I4
ssg70
g713
sg63
(lp720
S'max-age=0'
p721
asbasbasbag56
(g72
g58
NtRp722
(dp723
g61
(dp724
sg70
g473
sg63
(lp725
g56
(g77
g58
NtRp726
(dp727
g61
(dp728
g81
g82
ssg70
g722
sg63
(lp729
S'http_connection'
p730
asbag56
(g77
g58
NtRp731
(dp732
g61
(dp733
g88
g89
ssg70
g722
sg63
(lp734
S':'
asbag56
(g77
g58
NtRp735
(dp736
g61
(dp737
sg70
g722
sg63
(lp738
g56
(g57
g58
NtRp739
(dp740
g61
(dp741
g69
I4
ssg70
g735
sg63
(lp742
S'keep-alive'
p743
asbasbasbag56
(g72
g58
NtRp744
(dp745
g61
(dp746
sg70
g473
sg63
(lp747
g56
(g77
g58
NtRp748
(dp749
g61
(dp750
g81
g82
ssg70
g744
sg63
(lp751
S'http_cookie'
p752
asbag56
(g77
g58
NtRp753
(dp754
g61
(dp755
g88
g89
ssg70
g744
sg63
(lp756
S':'
asbag56
(g77
g58
NtRp757
(dp758
g61
(dp759
sg70
g744
sg63
(lp760
g56
(g57
g58
NtRp761
(dp762
g61
(dp763
g69
I4
ssg70
g757
sg63
(lp764
S'session_id_places=127.0.0.1-4360be36-8b97-4cc9-b03c-0a430ecf4db1'
p765
asbasbasbag56
(g72
g58
NtRp766
(dp767
g61
(dp768
sg70
g473
sg63
(lp769
g56
(g77
g58
NtRp770
(dp771
g61
(dp772
g81
g82
ssg70
g766
sg63
(lp773
S'http_host'
p774
asbag56
(g77
g58
NtRp775
(dp776
g61
(dp777
g88
g89
ssg70
g766
sg63
(lp778
S':'
asbag56
(g77
g58
NtRp779
(dp780
g61
(dp781
sg70
g766
sg63
(lp782
g56
(g57
g58
NtRp783
(dp784
g61
(dp785
g69
I4
ssg70
g779
sg63
(lp786
S'127.0.0.1:8000'
p787
asbasbasbag56
(g72
g58
NtRp788
(dp789
g61
(dp790
sg70
g473
sg63
(lp791
g56
(g77
g58
NtRp792
(dp793
g61
(dp794
g81
g82
ssg70
g788
sg63
(lp795
S'http_referer'
p796
asbag56
(g77
g58
NtRp797
(dp798
g61
(dp799
g88
g89
ssg70
g788
sg63
(lp800
S':'
asbag56
(g77
g58
NtRp801
(dp802
g61
(dp803
sg70
g788
sg63
(lp804
g56
(g57
g58
NtRp805
(dp806
g61
(dp807
g69
I4
ssg70
g801
sg63
(lp808
S'http://127.0.0.1:8000/places/default/index'
p809
asbasbasbag56
(g72
g58
NtRp810
(dp811
g61
(dp812
sg70
g473
sg63
(lp813
g56
(g77
g58
NtRp814
(dp815
g61
(dp816
g81
g82
ssg70
g810
sg63
(lp817
S'http_user_agent'
p818
asbag56
(g77
g58
NtRp819
(dp820
g61
(dp821
g88
g89
ssg70
g810
sg63
(lp822
S':'
asbag56
(g77
g58
NtRp823
(dp824
g61
(dp825
sg70
g810
sg63
(lp826
g56
(g57
g58
NtRp827
(dp828
g61
(dp829
g69
I4
ssg70
g823
sg63
(lp830
S'Mozilla/5.0 (Ubuntu; X11; Linux x86_64; rv:9.0a2) Gecko/20111020 Firefox/9.0a2'
p831
asbasbasbag56
(g72
g58
NtRp832
(dp833
g61
(dp834
sg70
g473
sg63
(lp835
g56
(g77
g58
NtRp836
(dp837
g61
(dp838
g81
g82
ssg70
g832
sg63
(lp839
S'http_web2py_component_element'
p840
asbag56
(g77
g58
NtRp841
(dp842
g61
(dp843
g88
g89
ssg70
g832
sg63
(lp844
S':'
asbag56
(g77
g58
NtRp845
(dp846
g61
(dp847
sg70
g832
sg63
(lp848
g56
(g57
g58
NtRp849
(dp850
g61
(dp851
g69
I4
ssg70
g845
sg63
(lp852
g189
asbasbasbag56
(g72
g58
NtRp853
(dp854
g61
(dp855
sg70
g473
sg63
(lp856
g56
(g77
g58
NtRp857
(dp858
g61
(dp859
g81
g82
ssg70
g853
sg63
(lp860
S'http_web2py_component_location'
p861
asbag56
(g77
g58
NtRp862
(dp863
g61
(dp864
g88
g89
ssg70
g853
sg63
(lp865
S':'
asbag56
(g77
g58
NtRp866
(dp867
g61
(dp868
sg70
g853
sg63
(lp869
g56
(g57
g58
NtRp870
(dp871
g61
(dp872
g69
I4
ssg70
g866
sg63
(lp873
S'http://127.0.0.1:8000/places/default/index'
p874
asbasbasbag56
(g72
g58
NtRp875
(dp876
g61
(dp877
sg70
g473
sg63
(lp878
g56
(g77
g58
NtRp879
(dp880
g61
(dp881
g81
g82
ssg70
g875
sg63
(lp882
S'http_x_requested_with'
p883
asbag56
(g77
g58
NtRp884
(dp885
g61
(dp886
g88
g89
ssg70
g875
sg63
(lp887
S':'
asbag56
(g77
g58
NtRp888
(dp889
g61
(dp890
sg70
g875
sg63
(lp891
g56
(g57
g58
NtRp892
(dp893
g61
(dp894
g69
I4
ssg70
g888
sg63
(lp895
S'XMLHttpRequest'
p896
asbasbasbag56
(g72
g58
NtRp897
(dp898
g61
(dp899
sg70
g473
sg63
(lp900
g56
(g77
g58
NtRp901
(dp902
g61
(dp903
g81
g82
ssg70
g897
sg63
(lp904
S'is_jython'
p905
asbag56
(g77
g58
NtRp906
(dp907
g61
(dp908
g88
g89
ssg70
g897
sg63
(lp909
S':'
asbag56
(g77
g58
NtRp910
(dp911
g61
(dp912
sg70
g897
sg63
(lp913
g56
(g57
g58
NtRp914
(dp915
g61
(dp916
g69
I4
ssg70
g910
sg63
(lp917
g611
asbasbasbag56
(g72
g58
NtRp918
(dp919
g61
(dp920
sg70
g473
sg63
(lp921
g56
(g77
g58
NtRp922
(dp923
g61
(dp924
g81
g82
ssg70
g918
sg63
(lp925
S'path_info'
p926
asbag56
(g77
g58
NtRp927
(dp928
g61
(dp929
g88
g89
ssg70
g918
sg63
(lp930
S':'
asbag56
(g77
g58
NtRp931
(dp932
g61
(dp933
sg70
g918
sg63
(lp934
g56
(g57
g58
NtRp935
(dp936
g61
(dp937
g69
I4
ssg70
g931
sg63
(lp938
S'/places/default/index.load'
p939
asbasbasbag56
(g72
g58
NtRp940
(dp941
g61
(dp942
sg70
g473
sg63
(lp943
g56
(g77
g58
NtRp944
(dp945
g61
(dp946
g81
g82
ssg70
g940
sg63
(lp947
S'query_string'
p948
asbag56
(g77
g58
NtRp949
(dp950
g61
(dp951
g88
g89
ssg70
g940
sg63
(lp952
S':'
asbag56
(g77
g58
NtRp953
(dp954
g61
(dp955
sg70
g940
sg63
(lp956
g56
(g57
g58
NtRp957
(dp958
g61
(dp959
g69
I4
ssg70
g953
sg63
(lp960
S''
asbasbasbag56
(g72
g58
NtRp961
(dp962
g61
(dp963
sg70
g473
sg63
(lp964
g56
(g77
g58
NtRp965
(dp966
g61
(dp967
g81
g82
ssg70
g961
sg63
(lp968
S'remote_addr'
p969
asbag56
(g77
g58
NtRp970
(dp971
g61
(dp972
g88
g89
ssg70
g961
sg63
(lp973
S':'
asbag56
(g77
g58
NtRp974
(dp975
g61
(dp976
sg70
g961
sg63
(lp977
g56
(g57
g58
NtRp978
(dp979
g61
(dp980
g69
I4
ssg70
g974
sg63
(lp981
g211
asbasbasbag56
(g72
g58
NtRp982
(dp983
g61
(dp984
sg70
g473
sg63
(lp985
g56
(g77
g58
NtRp986
(dp987
g61
(dp988
g81
g82
ssg70
g982
sg63
(lp989
S'remote_port'
p990
asbag56
(g77
g58
NtRp991
(dp992
g61
(dp993
g88
g89
ssg70
g982
sg63
(lp994
S':'
asbag56
(g77
g58
NtRp995
(dp996
g61
(dp997
sg70
g982
sg63
(lp998
g56
(g57
g58
NtRp999
(dp1000
g61
(dp1001
g69
I4
ssg70
g995
sg63
(lp1002
S'44466'
p1003
asbasbasbag56
(g72
g58
NtRp1004
(dp1005
g61
(dp1006
sg70
g473
sg63
(lp1007
g56
(g77
g58
NtRp1008
(dp1009
g61
(dp1010
g81
g82
ssg70
g1004
sg63
(lp1011
S'request_method'
p1012
asbag56
(g77
g58
NtRp1013
(dp1014
g61
(dp1015
g88
g89
ssg70
g1004
sg63
(lp1016
S':'
asbag56
(g77
g58
NtRp1017
(dp1018
g61
(dp1019
sg70
g1004
sg63
(lp1020
g56
(g57
g58
NtRp1021
(dp1022
g61
(dp1023
g69
I4
ssg70
g1017
sg63
(lp1024
S'GET'
p1025
asbasbasbag56
(g72
g58
NtRp1026
(dp1027
g61
(dp1028
sg70
g473
sg63
(lp1029
g56
(g77
g58
NtRp1030
(dp1031
g61
(dp1032
g81
g82
ssg70
g1026
sg63
(lp1033
S'script_name'
p1034
asbag56
(g77
g58
NtRp1035
(dp1036
g61
(dp1037
g88
g89
ssg70
g1026
sg63
(lp1038
S':'
asbag56
(g77
g58
NtRp1039
(dp1040
g61
(dp1041
sg70
g1026
sg63
(lp1042
g56
(g57
g58
NtRp1043
(dp1044
g61
(dp1045
g69
I4
ssg70
g1039
sg63
(lp1046
S''
asbasbasbag56
(g72
g58
NtRp1047
(dp1048
g61
(dp1049
sg70
g473
sg63
(lp1050
g56
(g77
g58
NtRp1051
(dp1052
g61
(dp1053
g81
g82
ssg70
g1047
sg63
(lp1054
S'server_name'
p1055
asbag56
(g77
g58
NtRp1056
(dp1057
g61
(dp1058
g88
g89
ssg70
g1047
sg63
(lp1059
S':'
asbag56
(g77
g58
NtRp1060
(dp1061
g61
(dp1062
sg70
g1047
sg63
(lp1063
g56
(g57
g58
NtRp1064
(dp1065
g61
(dp1066
g69
I4
ssg70
g1060
sg63
(lp1067
S'Ariel-ubuntu'
p1068
asbasbasbag56
(g72
g58
NtRp1069
(dp1070
g61
(dp1071
sg70
g473
sg63
(lp1072
g56
(g77
g58
NtRp1073
(dp1074
g61
(dp1075
g81
g82
ssg70
g1069
sg63
(lp1076
S'server_port'
p1077
asbag56
(g77
g58
NtRp1078
(dp1079
g61
(dp1080
g88
g89
ssg70
g1069
sg63
(lp1081
S':'
asbag56
(g77
g58
NtRp1082
(dp1083
g61
(dp1084
sg70
g1069
sg63
(lp1085
g56
(g57
g58
NtRp1086
(dp1087
g61
(dp1088
g69
I4
ssg70
g1082
sg63
(lp1089
S'8000'
p1090
asbasbasbag56
(g72
g58
NtRp1091
(dp1092
g61
(dp1093
sg70
g473
sg63
(lp1094
g56
(g77
g58
NtRp1095
(dp1096
g61
(dp1097
g81
g82
ssg70
g1091
sg63
(lp1098
S'server_protocol'
p1099
asbag56
(g77
g58
NtRp1100
(dp1101
g61
(dp1102
g88
g89
ssg70
g1091
sg63
(lp1103
S':'
asbag56
(g77
g58
NtRp1104
(dp1105
g61
(dp1106
sg70
g1091
sg63
(lp1107
g56
(g57
g58
NtRp1108
(dp1109
g61
(dp1110
g69
I4
ssg70
g1104
sg63
(lp1111
S'HTTP/1.1'
p1112
asbasbasbag56
(g72
g58
NtRp1113
(dp1114
g61
(dp1115
sg70
g473
sg63
(lp1116
g56
(g77
g58
NtRp1117
(dp1118
g61
(dp1119
g81
g82
ssg70
g1113
sg63
(lp1120
S'server_software'
p1121
asbag56
(g77
g58
NtRp1122
(dp1123
g61
(dp1124
g88
g89
ssg70
g1113
sg63
(lp1125
S':'
asbag56
(g77
g58
NtRp1126
(dp1127
g61
(dp1128
sg70
g1113
sg63
(lp1129
g56
(g57
g58
NtRp1130
(dp1131
g61
(dp1132
g69
I4
ssg70
g1126
sg63
(lp1133
S'Rocket 1.2.4'
p1134
asbasbasbag56
(g72
g58
NtRp1135
(dp1136
g61
(dp1137
sg70
g473
sg63
(lp1138
g56
(g77
g58
NtRp1139
(dp1140
g61
(dp1141
g81
g82
ssg70
g1135
sg63
(lp1142
S'web2py_crontype'
p1143
asbag56
(g77
g58
NtRp1144
(dp1145
g61
(dp1146
g88
g89
ssg70
g1135
sg63
(lp1147
S':'
asbag56
(g77
g58
NtRp1148
(dp1149
g61
(dp1150
sg70
g1135
sg63
(lp1151
g56
(g57
g58
NtRp1152
(dp1153
g61
(dp1154
g69
I4
ssg70
g1148
sg63
(lp1155
S'hard'
p1156
asbasbasbag56
(g72
g58
NtRp1157
(dp1158
g61
(dp1159
sg70
g473
sg63
(lp1160
g56
(g77
g58
NtRp1161
(dp1162
g61
(dp1163
g81
g82
ssg70
g1157
sg63
(lp1164
S'web2py_path'
p1165
asbag56
(g77
g58
NtRp1166
(dp1167
g61
(dp1168
g88
g89
ssg70
g1157
sg63
(lp1169
S':'
asbag56
(g77
g58
NtRp1170
(dp1171
g61
(dp1172
sg70
g1157
sg63
(lp1173
g56
(g57
g58
NtRp1174
(dp1175
g61
(dp1176
g69
I4
ssg70
g1170
sg63
(lp1177
g520
asbasbasbag56
(g72
g58
NtRp1178
(dp1179
g61
(dp1180
sg70
g473
sg63
(lp1181
g56
(g77
g58
NtRp1182
(dp1183
g61
(dp1184
g81
g82
ssg70
g1178
sg63
(lp1185
S'web2py_version'
p1186
asbag56
(g77
g58
NtRp1187
(dp1188
g61
(dp1189
g88
g89
ssg70
g1178
sg63
(lp1190
S':'
asbag56
(g77
g58
NtRp1191
(dp1192
g61
(dp1193
sg70
g1178
sg63
(lp1194
g56
(g57
g58
NtRp1195
(dp1196
g61
(dp1197
g69
I4
ssg70
g1191
sg63
(lp1198
g56
(g65
g58
NtRp1199
(dp1200
g61
(dp1201
g69
I3
ssg70
Nsg63
(lp1202
g56
(g72
g58
NtRp1203
(dp1204
g61
(dp1205
sg70
g1199
sg63
(lp1206
g56
(g77
g58
NtRp1207
(dp1208
g61
(dp1209
sg70
g1203
sg63
(lp1210
g56
(g57
g58
NtRp1211
(dp1212
g61
(dp1213
g69
I3
ssg70
g1207
sg63
(lp1214
S'1'
asbasbasbag56
(g72
g58
NtRp1215
(dp1216
g61
(dp1217
sg70
g1199
sg63
(lp1218
g56
(g77
g58
NtRp1219
(dp1220
g61
(dp1221
sg70
g1215
sg63
(lp1222
g56
(g57
g58
NtRp1223
(dp1224
g61
(dp1225
g69
I3
ssg70
g1219
sg63
(lp1226
S'99'
p1227
asbasbasbag56
(g72
g58
NtRp1228
(dp1229
g61
(dp1230
sg70
g1199
sg63
(lp1231
g56
(g77
g58
NtRp1232
(dp1233
g61
(dp1234
sg70
g1228
sg63
(lp1235
g56
(g57
g58
NtRp1236
(dp1237
g61
(dp1238
g69
I3
ssg70
g1232
sg63
(lp1239
S'2'
asbasbasbag56
(g72
g58
NtRp1240
(dp1241
g61
(dp1242
sg70
g1199
sg63
(lp1243
g56
(g77
g58
NtRp1244
(dp1245
g61
(dp1246
sg70
g1240
sg63
(lp1247
g56
(g57
g58
NtRp1248
(dp1249
g61
(dp1250
g69
I3
ssg70
g1244
sg63
(lp1251
S'datetime.datetime(2011, 9, 26, 6, 55, 33)'
p1252
asbasbasbag56
(g72
g58
NtRp1253
(dp1254
g61
(dp1255
sg70
g1199
sg63
(lp1256
g56
(g77
g58
NtRp1257
(dp1258
g61
(dp1259
sg70
g1253
sg63
(lp1260
g56
(g57
g58
NtRp1261
(dp1262
g61
(dp1263
g69
I3
ssg70
g1257
sg63
(lp1264
S'stable'
p1265
asbasbasbasbasbasbasbag56
(g72
g58
NtRp1266
(dp1267
g61
(dp1268
sg70
g473
sg63
(lp1269
g56
(g77
g58
NtRp1270
(dp1271
g61
(dp1272
g81
g82
ssg70
g1266
sg63
(lp1273
S'wsgi_errors'
p1274
asbag56
(g77
g58
NtRp1275
(dp1276
g61
(dp1277
g88
g89
ssg70
g1266
sg63
(lp1278
S':'
asbag56
(g77
g58
NtRp1279
(dp1280
g61
(dp1281
sg70
g1266
sg63
(lp1282
g56
(g57
g58
NtRp1283
(dp1284
g61
(dp1285
g69
I4
ssg70
g1279
sg63
(lp1286
S"<open file '<stderr>', mode 'w' at 0x7f7d1bc23270>"
p1287
asbasbasbag56
(g72
g58
NtRp1288
(dp1289
g61
(dp1290
sg70
g473
sg63
(lp1291
g56
(g77
g58
NtRp1292
(dp1293
g61
(dp1294
g81
g82
ssg70
g1288
sg63
(lp1295
S'wsgi_file_wrapper'
p1296
asbag56
(g77
g58
NtRp1297
(dp1298
g61
(dp1299
g88
g89
ssg70
g1288
sg63
(lp1300
S':'
asbag56
(g77
g58
NtRp1301
(dp1302
g61
(dp1303
sg70
g1288
sg63
(lp1304
g56
(g57
g58
NtRp1305
(dp1306
g61
(dp1307
g69
I4
ssg70
g1301
sg63
(lp1308
S'<class wsgiref.util.FileWrapper at 0x2aaa808>'
p1309
asbasbasbag56
(g72
g58
NtRp1310
(dp1311
g61
(dp1312
sg70
g473
sg63
(lp1313
g56
(g77
g58
NtRp1314
(dp1315
g61
(dp1316
g81
g82
ssg70
g1310
sg63
(lp1317
S'wsgi_input'
p1318
asbag56
(g77
g58
NtRp1319
(dp1320
g61
(dp1321
g88
g89
ssg70
g1310
sg63
(lp1322
S':'
asbag56
(g77
g58
NtRp1323
(dp1324
g61
(dp1325
sg70
g1310
sg63
(lp1326
g56
(g57
g58
NtRp1327
(dp1328
g61
(dp1329
g69
I4
ssg70
g1323
sg63
(lp1330
S'<socket._fileobject object at 0x3c67cd0>'
p1331
asbasbasbag56
(g72
g58
NtRp1332
(dp1333
g61
(dp1334
sg70
g473
sg63
(lp1335
g56
(g77
g58
NtRp1336
(dp1337
g61
(dp1338
g81
g82
ssg70
g1332
sg63
(lp1339
S'wsgi_multiprocess'
p1340
asbag56
(g77
g58
NtRp1341
(dp1342
g61
(dp1343
g88
g89
ssg70
g1332
sg63
(lp1344
S':'
asbag56
(g77
g58
NtRp1345
(dp1346
g61
(dp1347
sg70
g1332
sg63
(lp1348
g56
(g57
g58
NtRp1349
(dp1350
g61
(dp1351
g69
I4
ssg70
g1345
sg63
(lp1352
g611
asbasbasbag56
(g72
g58
NtRp1353
(dp1354
g61
(dp1355
sg70
g473
sg63
(lp1356
g56
(g77
g58
NtRp1357
(dp1358
g61
(dp1359
g81
g82
ssg70
g1353
sg63
(lp1360
S'wsgi_multithread'
p1361
asbag56
(g77
g58
NtRp1362
(dp1363
g61
(dp1364
g88
g89
ssg70
g1353
sg63
(lp1365
S':'
asbag56
(g77
g58
NtRp1366
(dp1367
g61
(dp1368
sg70
g1353
sg63
(lp1369
g56
(g57
g58
NtRp1370
(dp1371
g61
(dp1372
g69
I4
ssg70
g1366
sg63
(lp1373
g99
asbasbasbag56
(g72
g58
NtRp1374
(dp1375
g61
(dp1376
sg70
g473
sg63
(lp1377
g56
(g77
g58
NtRp1378
(dp1379
g61
(dp1380
g81
g82
ssg70
g1374
sg63
(lp1381
S'wsgi_run_once'
p1382
asbag56
(g77
g58
NtRp1383
(dp1384
g61
(dp1385
g88
g89
ssg70
g1374
sg63
(lp1386
S':'
asbag56
(g77
g58
NtRp1387
(dp1388
g61
(dp1389
sg70
g1374
sg63
(lp1390
g56
(g57
g58
NtRp1391
(dp1392
g61
(dp1393
g69
I4
ssg70
g1387
sg63
(lp1394
g611
asbasbasbag56
(g72
g58
NtRp1395
(dp1396
g61
(dp1397
sg70
g473
sg63
(lp1398
g56
(g77
g58
NtRp1399
(dp1400
g61
(dp1401
g81
g82
ssg70
g1395
sg63
(lp1402
S'wsgi_url_scheme'
p1403
asbag56
(g77
g58
NtRp1404
(dp1405
g61
(dp1406
g88
g89
ssg70
g1395
sg63
(lp1407
S':'
asbag56
(g77
g58
NtRp1408
(dp1409
g61
(dp1410
sg70
g1395
sg63
(lp1411
g56
(g57
g58
NtRp1412
(dp1413
g61
(dp1414
g69
I4
ssg70
g1408
sg63
(lp1415
S'http'
p1416
asbasbasbag56
(g72
g58
NtRp1417
(dp1418
g61
(dp1419
sg70
g473
sg63
(lp1420
g56
(g77
g58
NtRp1421
(dp1422
g61
(dp1423
g81
g82
ssg70
g1417
sg63
(lp1424
S'wsgi_version'
p1425
asbag56
(g77
g58
NtRp1426
(dp1427
g61
(dp1428
g88
g89
ssg70
g1417
sg63
(lp1429
S':'
asbag56
(g77
g58
NtRp1430
(dp1431
g61
(dp1432
sg70
g1417
sg63
(lp1433
g56
(g57
g58
NtRp1434
(dp1435
g61
(dp1436
g69
I4
ssg70
g1430
sg63
(lp1437
g56
(g65
g58
NtRp1438
(dp1439
g61
(dp1440
g69
I3
ssg70
Nsg63
(lp1441
g56
(g72
g58
NtRp1442
(dp1443
g61
(dp1444
sg70
g1438
sg63
(lp1445
g56
(g77
g58
NtRp1446
(dp1447
g61
(dp1448
sg70
g1442
sg63
(lp1449
g56
(g57
g58
NtRp1450
(dp1451
g61
(dp1452
g69
I3
ssg70
g1446
sg63
(lp1453
S'1'
asbasbasbag56
(g72
g58
NtRp1454
(dp1455
g61
(dp1456
sg70
g1438
sg63
(lp1457
g56
(g77
g58
NtRp1458
(dp1459
g61
(dp1460
sg70
g1454
sg63
(lp1461
g56
(g57
g58
NtRp1462
(dp1463
g61
(dp1464
g69
I3
ssg70
g1458
sg63
(lp1465
S'0'
asbasbasbasbasbasbasbasbasbasbasbag56
(g72
g58
NtRp1466
(dp1467
g61
(dp1468
sg70
g66
sg63
(lp1469
g56
(g77
g58
NtRp1470
(dp1471
g61
(dp1472
g81
g82
ssg70
g1466
sg63
(lp1473
S'extension'
p1474
asbag56
(g77
g58
NtRp1475
(dp1476
g61
(dp1477
g88
g89
ssg70
g1466
sg63
(lp1478
S':'
asbag56
(g77
g58
NtRp1479
(dp1480
g61
(dp1481
sg70
g1466
sg63
(lp1482
g56
(g57
g58
NtRp1483
(dp1484
g61
(dp1485
g69
I5
ssg70
g1479
sg63
(lp1486
S'load'
p1487
asbasbasbag56
(g72
g58
NtRp1488
(dp1489
g61
(dp1490
sg70
g66
sg63
(lp1491
g56
(g77
g58
NtRp1492
(dp1493
g61
(dp1494
g81
g82
ssg70
g1488
sg63
(lp1495
S'folder'
p1496
asbag56
(g77
g58
NtRp1497
(dp1498
g61
(dp1499
g88
g89
ssg70
g1488
sg63
(lp1500
S':'
asbag56
(g77
g58
NtRp1501
(dp1502
g61
(dp1503
sg70
g1488
sg63
(lp1504
g56
(g57
g58
NtRp1505
(dp1506
g61
(dp1507
g69
I5
ssg70
g1501
sg63
(lp1508
S'/home/ian/web2py/applications/places/'
p1509
asbasbasbag56
(g72
g58
NtRp1510
(dp1511
g61
(dp1512
sg70
g66
sg63
(lp1513
g56
(g77
g58
NtRp1514
(dp1515
g61
(dp1516
g81
g82
ssg70
g1510
sg63
(lp1517
S'function'
p1518
asbag56
(g77
g58
NtRp1519
(dp1520
g61
(dp1521
g88
g89
ssg70
g1510
sg63
(lp1522
S':'
asbag56
(g77
g58
NtRp1523
(dp1524
g61
(dp1525
sg70
g1510
sg63
(lp1526
g56
(g57
g58
NtRp1527
(dp1528
g61
(dp1529
g69
I5
ssg70
g1523
sg63
(lp1530
S'index'
p1531
asbasbasbag56
(g72
g58
NtRp1532
(dp1533
g61
(dp1534
sg70
g66
sg63
(lp1535
g56
(g77
g58
NtRp1536
(dp1537
g61
(dp1538
g81
g82
ssg70
g1532
sg63
(lp1539
S'get_vars'
p1540
asbag56
(g77
g58
NtRp1541
(dp1542
g61
(dp1543
g88
g89
ssg70
g1532
sg63
(lp1544
S':'
asbag56
(g77
g58
NtRp1545
(dp1546
g61
(dp1547
sg70
g1532
sg63
(lp1548
g56
(g57
g58
NtRp1549
(dp1550
g61
(dp1551
g69
I5
ssg70
g1545
sg63
(lp1552
g56
(g65
g58
NtRp1553
(dp1554
g61
(dp1555
g69
I4
ssg70
Nsg63
(lp1556
sbasbasbasbag56
(g72
g58
NtRp1557
(dp1558
g61
(dp1559
sg70
g66
sg63
(lp1560
g56
(g77
g58
NtRp1561
(dp1562
g61
(dp1563
g81
g82
ssg70
g1557
sg63
(lp1564
S'global_settings'
p1565
asbag56
(g77
g58
NtRp1566
(dp1567
g61
(dp1568
g88
g89
ssg70
g1557
sg63
(lp1569
S':'
asbag56
(g77
g58
NtRp1570
(dp1571
g61
(dp1572
sg70
g1557
sg63
(lp1573
g56
(g57
g58
NtRp1574
(dp1575
g61
(dp1576
g69
I5
ssg70
g1570
sg63
(lp1577
g56
(g65
g58
NtRp1578
(dp1579
g61
(dp1580
g69
I4
ssg70
Nsg63
(lp1581
g56
(g72
g58
NtRp1582
(dp1583
g61
(dp1584
sg70
g1578
sg63
(lp1585
g56
(g77
g58
NtRp1586
(dp1587
g61
(dp1588
g81
g82
ssg70
g1582
sg63
(lp1589
g485
asbag56
(g77
g58
NtRp1590
(dp1591
g61
(dp1592
g88
g89
ssg70
g1582
sg63
(lp1593
S':'
asbag56
(g77
g58
NtRp1594
(dp1595
g61
(dp1596
sg70
g1582
sg63
(lp1597
g56
(g57
g58
NtRp1598
(dp1599
g61
(dp1600
g69
I4
ssg70
g1594
sg63
(lp1601
S"set(['/home/ian/web2py/applications/welcome/', '/home/ian/web2py/applications/places/', '/home/ian/web2py/applications/admin/'])"
p1602
asbasbasbag56
(g72
g58
NtRp1603
(dp1604
g61
(dp1605
sg70
g1578
sg63
(lp1606
g56
(g77
g58
NtRp1607
(dp1608
g61
(dp1609
g81
g82
ssg70
g1603
sg63
(lp1610
g507
asbag56
(g77
g58
NtRp1611
(dp1612
g61
(dp1613
g88
g89
ssg70
g1603
sg63
(lp1614
S':'
asbag56
(g77
g58
NtRp1615
(dp1616
g61
(dp1617
sg70
g1603
sg63
(lp1618
g56
(g57
g58
NtRp1619
(dp1620
g61
(dp1621
g69
I4
ssg70
g1615
sg63
(lp1622
g520
asbasbasbag56
(g72
g58
NtRp1623
(dp1624
g61
(dp1625
sg70
g1578
sg63
(lp1626
g56
(g77
g58
NtRp1627
(dp1628
g61
(dp1629
g81
g82
ssg70
g1623
sg63
(lp1630
g529
asbag56
(g77
g58
NtRp1631
(dp1632
g61
(dp1633
g88
g89
ssg70
g1623
sg63
(lp1634
S':'
asbag56
(g77
g58
NtRp1635
(dp1636
g61
(dp1637
sg70
g1623
sg63
(lp1638
g56
(g57
g58
NtRp1639
(dp1640
g61
(dp1641
g69
I4
ssg70
g1635
sg63
(lp1642
g56
(g65
g58
NtRp1643
(dp1644
g61
(dp1645
g69
I3
ssg70
Nsg63
(lp1646
sbasbasbasbag56
(g72
g58
NtRp1647
(dp1648
g61
(dp1649
sg70
g1578
sg63
(lp1650
g56
(g77
g58
NtRp1651
(dp1652
g61
(dp1653
g81
g82
ssg70
g1647
sg63
(lp1654
g554
asbag56
(g77
g58
NtRp1655
(dp1656
g61
(dp1657
g88
g89
ssg70
g1647
sg63
(lp1658
S':'
asbag56
(g77
g58
NtRp1659
(dp1660
g61
(dp1661
sg70
g1647
sg63
(lp1662
g56
(g57
g58
NtRp1663
(dp1664
g61
(dp1665
g69
I4
ssg70
g1659
sg63
(lp1666
S"<Values at 0x2be17e8: {'verbose': False, 'ip': '127.0.0.1', 'shutdown_timeout': 5, 'taskbar': False, 'nocron': False, 'pid_filename': 'httpserver.pid', 'maxthreads': None, 'softcron': False, 'server_name': 'Ariel-ubuntu', 'bpython': False, 'nogui': False, 'port': 8000, 'extcron': False, 'debuglevel': 30, 'test': None, 'folder': '/home/ian/web2py', 'config': '', 'import_models': False, 'winservice': '', 'shell': None, 'run': '', 'log_filename': 'httpserver.log', 'args': [''], 'ssl_ca_certificate': None, 'scheduler': None, 'profiler_filename': None, 'ssl_private_key': '', 'password': '<ask>', 'request_queue_size': 5, 'ssl_certificate': '', 'cronjob': False, 'plain': False, 'quiet': False, 'interfaces': None, 'minthreads': None, 'timeout': 10, 'numthreads': None, 'nobanner': False}>"
p1667
asbasbasbag56
(g72
g58
NtRp1668
(dp1669
g61
(dp1670
sg70
g1578
sg63
(lp1671
g56
(g77
g58
NtRp1672
(dp1673
g61
(dp1674
g81
g82
ssg70
g1668
sg63
(lp1675
g576
asbag56
(g77
g58
NtRp1676
(dp1677
g61
(dp1678
g88
g89
ssg70
g1668
sg63
(lp1679
S':'
asbag56
(g77
g58
NtRp1680
(dp1681
g61
(dp1682
sg70
g1668
sg63
(lp1683
g56
(g57
g58
NtRp1684
(dp1685
g61
(dp1686
g69
I4
ssg70
g1680
sg63
(lp1687
S'set([])'
p1688
asbasbasbag56
(g72
g58
NtRp1689
(dp1690
g61
(dp1691
sg70
g1578
sg63
(lp1692
g56
(g77
g58
NtRp1693
(dp1694
g61
(dp1695
g81
g82
ssg70
g1689
sg63
(lp1696
g598
asbag56
(g77
g58
NtRp1697
(dp1698
g61
(dp1699
g88
g89
ssg70
g1689
sg63
(lp1700
S':'
asbag56
(g77
g58
NtRp1701
(dp1702
g61
(dp1703
sg70
g1689
sg63
(lp1704
g56
(g57
g58
NtRp1705
(dp1706
g61
(dp1707
g69
I4
ssg70
g1701
sg63
(lp1708
g611
asbasbasbag56
(g72
g58
NtRp1709
(dp1710
g61
(dp1711
sg70
g1578
sg63
(lp1712
g56
(g77
g58
NtRp1713
(dp1714
g61
(dp1715
g81
g82
ssg70
g1709
sg63
(lp1716
g620
asbag56
(g77
g58
NtRp1717
(dp1718
g61
(dp1719
g88
g89
ssg70
g1709
sg63
(lp1720
S':'
asbag56
(g77
g58
NtRp1721
(dp1722
g61
(dp1723
sg70
g1709
sg63
(lp1724
g56
(g57
g58
NtRp1725
(dp1726
g61
(dp1727
g69
I4
ssg70
g1721
sg63
(lp1728
g633
asbasbasbag56
(g72
g58
NtRp1729
(dp1730
g61
(dp1731
sg70
g1578
sg63
(lp1732
g56
(g77
g58
NtRp1733
(dp1734
g61
(dp1735
g81
g82
ssg70
g1729
sg63
(lp1736
g905
asbag56
(g77
g58
NtRp1737
(dp1738
g61
(dp1739
g88
g89
ssg70
g1729
sg63
(lp1740
S':'
asbag56
(g77
g58
NtRp1741
(dp1742
g61
(dp1743
sg70
g1729
sg63
(lp1744
g56
(g57
g58
NtRp1745
(dp1746
g61
(dp1747
g69
I4
ssg70
g1741
sg63
(lp1748
g611
asbasbasbag56
(g72
g58
NtRp1749
(dp1750
g61
(dp1751
sg70
g1578
sg63
(lp1752
g56
(g77
g58
NtRp1753
(dp1754
g61
(dp1755
g81
g82
ssg70
g1749
sg63
(lp1756
g1143
asbag56
(g77
g58
NtRp1757
(dp1758
g61
(dp1759
g88
g89
ssg70
g1749
sg63
(lp1760
S':'
asbag56
(g77
g58
NtRp1761
(dp1762
g61
(dp1763
sg70
g1749
sg63
(lp1764
g56
(g57
g58
NtRp1765
(dp1766
g61
(dp1767
g69
I4
ssg70
g1761
sg63
(lp1768
g1156
asbasbasbag56
(g72
g58
NtRp1769
(dp1770
g61
(dp1771
sg70
g1578
sg63
(lp1772
g56
(g77
g58
NtRp1773
(dp1774
g61
(dp1775
g81
g82
ssg70
g1769
sg63
(lp1776
g1186
asbag56
(g77
g58
NtRp1777
(dp1778
g61
(dp1779
g88
g89
ssg70
g1769
sg63
(lp1780
S':'
asbag56
(g77
g58
NtRp1781
(dp1782
g61
(dp1783
sg70
g1769
sg63
(lp1784
g56
(g57
g58
NtRp1785
(dp1786
g61
(dp1787
g69
I4
ssg70
g1781
sg63
(lp1788
g56
(g65
g58
NtRp1789
(dp1790
g61
(dp1791
g69
I3
ssg70
Nsg63
(lp1792
g56
(g72
g58
NtRp1793
(dp1794
g61
(dp1795
sg70
g1789
sg63
(lp1796
g56
(g77
g58
NtRp1797
(dp1798
g61
(dp1799
sg70
g1793
sg63
(lp1800
g56
(g57
g58
NtRp1801
(dp1802
g61
(dp1803
g69
I3
ssg70
g1797
sg63
(lp1804
S'1'
asbasbasbag56
(g72
g58
NtRp1805
(dp1806
g61
(dp1807
sg70
g1789
sg63
(lp1808
g56
(g77
g58
NtRp1809
(dp1810
g61
(dp1811
sg70
g1805
sg63
(lp1812
g56
(g57
g58
NtRp1813
(dp1814
g61
(dp1815
g69
I3
ssg70
g1809
sg63
(lp1816
S'99'
p1817
asbasbasbag56
(g72
g58
NtRp1818
(dp1819
g61
(dp1820
sg70
g1789
sg63
(lp1821
g56
(g77
g58
NtRp1822
(dp1823
g61
(dp1824
sg70
g1818
sg63
(lp1825
g56
(g57
g58
NtRp1826
(dp1827
g61
(dp1828
g69
I3
ssg70
g1822
sg63
(lp1829
S'2'
asbasbasbag56
(g72
g58
NtRp1830
(dp1831
g61
(dp1832
sg70
g1789
sg63
(lp1833
g56
(g77
g58
NtRp1834
(dp1835
g61
(dp1836
sg70
g1830
sg63
(lp1837
g56
(g57
g58
NtRp1838
(dp1839
g61
(dp1840
g69
I3
ssg70
g1834
sg63
(lp1841
S'datetime.datetime(2011, 9, 26, 6, 55, 33)'
p1842
asbasbasbag56
(g72
g58
NtRp1843
(dp1844
g61
(dp1845
sg70
g1789
sg63
(lp1846
g56
(g77
g58
NtRp1847
(dp1848
g61
(dp1849
sg70
g1843
sg63
(lp1850
g56
(g57
g58
NtRp1851
(dp1852
g61
(dp1853
g69
I3
ssg70
g1847
sg63
(lp1854
g1265
asbasbasbasbasbasbasbasbasbasbasbag56
(g72
g58
NtRp1855
(dp1856
g61
(dp1857
sg70
g66
sg63
(lp1858
g56
(g77
g58
NtRp1859
(dp1860
g61
(dp1861
g81
g82
ssg70
g1855
sg63
(lp1862
S'is_https'
p1863
asbag56
(g77
g58
NtRp1864
(dp1865
g61
(dp1866
g88
g89
ssg70
g1855
sg63
(lp1867
S':'
asbag56
(g77
g58
NtRp1868
(dp1869
g61
(dp1870
sg70
g1855
sg63
(lp1871
g56
(g57
g58
NtRp1872
(dp1873
g61
(dp1874
g69
I5
ssg70
g1868
sg63
(lp1875
g611
asbasbasbag56
(g72
g58
NtRp1876
(dp1877
g61
(dp1878
sg70
g66
sg63
(lp1879
g56
(g77
g58
NtRp1880
(dp1881
g61
(dp1882
g81
g82
ssg70
g1876
sg63
(lp1883
S'is_local'
p1884
asbag56
(g77
g58
NtRp1885
(dp1886
g61
(dp1887
g88
g89
ssg70
g1876
sg63
(lp1888
S':'
asbag56
(g77
g58
NtRp1889
(dp1890
g61
(dp1891
sg70
g1876
sg63
(lp1892
g56
(g57
g58
NtRp1893
(dp1894
g61
(dp1895
g69
I5
ssg70
g1889
sg63
(lp1896
g99
asbasbasbag56
(g72
g58
NtRp1897
(dp1898
g61
(dp1899
sg70
g66
sg63
(lp1900
g56
(g77
g58
NtRp1901
(dp1902
g61
(dp1903
g81
g82
ssg70
g1897
sg63
(lp1904
S'is_restful'
p1905
asbag56
(g77
g58
NtRp1906
(dp1907
g61
(dp1908
g88
g89
ssg70
g1897
sg63
(lp1909
S':'
asbag56
(g77
g58
NtRp1910
(dp1911
g61
(dp1912
sg70
g1897
sg63
(lp1913
g56
(g57
g58
NtRp1914
(dp1915
g61
(dp1916
g69
I5
ssg70
g1910
sg63
(lp1917
g611
asbasbasbag56
(g72
g58
NtRp1918
(dp1919
g61
(dp1920
sg70
g66
sg63
(lp1921
g56
(g77
g58
NtRp1922
(dp1923
g61
(dp1924
g81
g82
ssg70
g1918
sg63
(lp1925
S'now'
p1926
asbag56
(g77
g58
NtRp1927
(dp1928
g61
(dp1929
g88
g89
ssg70
g1918
sg63
(lp1930
S':'
asbag56
(g77
g58
NtRp1931
(dp1932
g61
(dp1933
sg70
g1918
sg63
(lp1934
g56
(g57
g58
NtRp1935
(dp1936
g61
(dp1937
g69
I5
ssg70
g1931
sg63
(lp1938
S'datetime.datetime(2011, 10, 20, 18, 17, 52, 787226)'
p1939
asbasbasbag56
(g72
g58
NtRp1940
(dp1941
g61
(dp1942
sg70
g66
sg63
(lp1943
g56
(g77
g58
NtRp1944
(dp1945
g61
(dp1946
g81
g82
ssg70
g1940
sg63
(lp1947
S'post_vars'
p1948
asbag56
(g77
g58
NtRp1949
(dp1950
g61
(dp1951
g88
g89
ssg70
g1940
sg63
(lp1952
S':'
asbag56
(g77
g58
NtRp1953
(dp1954
g61
(dp1955
sg70
g1940
sg63
(lp1956
g56
(g57
g58
NtRp1957
(dp1958
g61
(dp1959
g69
I5
ssg70
g1953
sg63
(lp1960
g56
(g65
g58
NtRp1961
(dp1962
g61
(dp1963
g69
I4
ssg70
Nsg63
(lp1964
sbasbasbasbag56
(g72
g58
NtRp1965
(dp1966
g61
(dp1967
sg70
g66
sg63
(lp1968
g56
(g77
g58
NtRp1969
(dp1970
g61
(dp1971
g81
g82
ssg70
g1965
sg63
(lp1972
S'raw_extension'
p1973
asbag56
(g77
g58
NtRp1974
(dp1975
g61
(dp1976
g88
g89
ssg70
g1965
sg63
(lp1977
S':'
asbag56
(g77
g58
NtRp1978
(dp1979
g61
(dp1980
sg70
g1965
sg63
(lp1981
g56
(g57
g58
NtRp1982
(dp1983
g61
(dp1984
g69
I5
ssg70
g1978
sg63
(lp1985
g1487
asbasbasbag56
(g72
g58
NtRp1986
(dp1987
g61
(dp1988
sg70
g66
sg63
(lp1989
g56
(g77
g58
NtRp1990
(dp1991
g61
(dp1992
g81
g82
ssg70
g1986
sg63
(lp1993
S'url'
p1994
asbag56
(g77
g58
NtRp1995
(dp1996
g61
(dp1997
g88
g89
ssg70
g1986
sg63
(lp1998
S':'
asbag56
(g77
g58
NtRp1999
(dp2000
g61
(dp2001
sg70
g1986
sg63
(lp2002
g56
(g57
g58
NtRp2003
(dp2004
g61
(dp2005
g69
I5
ssg70
g1999
sg63
(lp2006
S'/places/default/index.load'
p2007
asbasbasbag56
(g72
g58
NtRp2008
(dp2009
g61
(dp2010
sg70
g66
sg63
(lp2011
g56
(g77
g58
NtRp2012
(dp2013
g61
(dp2014
g81
g82
ssg70
g2008
sg63
(lp2015
S'utcnow'
p2016
asbag56
(g77
g58
NtRp2017
(dp2018
g61
(dp2019
g88
g89
ssg70
g2008
sg63
(lp2020
S':'
asbag56
(g77
g58
NtRp2021
(dp2022
g61
(dp2023
sg70
g2008
sg63
(lp2024
g56
(g57
g58
NtRp2025
(dp2026
g61
(dp2027
g69
I5
ssg70
g2021
sg63
(lp2028
S'datetime.datetime(2011, 10, 20, 22, 17, 52, 787297)'
p2029
asbasbasbag56
(g72
g58
NtRp2030
(dp2031
g61
(dp2032
sg70
g66
sg63
(lp2033
g56
(g77
g58
NtRp2034
(dp2035
g61
(dp2036
g81
g82
ssg70
g2030
sg63
(lp2037
S'uuid'
p2038
asbag56
(g77
g58
NtRp2039
(dp2040
g61
(dp2041
g88
g89
ssg70
g2030
sg63
(lp2042
S':'
asbag56
(g77
g58
NtRp2043
(dp2044
g61
(dp2045
sg70
g2030
sg63
(lp2046
g56
(g57
g58
NtRp2047
(dp2048
g61
(dp2049
g69
I5
ssg70
g2043
sg63
(lp2050
S'places/127.0.0.1.2011-10-20.18-17-52.0b301019-2097-411b-9f2c-620658b37adf'
p2051
asbasbasbag56
(g72
g58
NtRp2052
(dp2053
g61
(dp2054
sg70
g66
sg63
(lp2055
g56
(g77
g58
NtRp2056
(dp2057
g61
(dp2058
g81
g82
ssg70
g2052
sg63
(lp2059
S'vars'
p2060
asbag56
(g77
g58
NtRp2061
(dp2062
g61
(dp2063
g88
g89
ssg70
g2052
sg63
(lp2064
S':'
asbag56
(g77
g58
NtRp2065
(dp2066
g61
(dp2067
sg70
g2052
sg63
(lp2068
g56
(g57
g58
NtRp2069
(dp2070
g61
(dp2071
g69
I5
ssg70
g2065
sg63
(lp2072
g56
(g65
g58
NtRp2073
(dp2074
g61
(dp2075
g69
I4
ssg70
Nsg63
(lp2076
sbasbasbasbag56
(g72
g58
NtRp2077
(dp2078
g61
(dp2079
sg70
g66
sg63
(lp2080
g56
(g77
g58
NtRp2081
(dp2082
g61
(dp2083
g81
g82
ssg70
g2077
sg63
(lp2084
S'wsgi'
p2085
asbag56
(g77
g58
NtRp2086
(dp2087
g61
(dp2088
g88
g89
ssg70
g2077
sg63
(lp2089
S':'
asbag56
(g77
g58
NtRp2090
(dp2091
g61
(dp2092
sg70
g2077
sg63
(lp2093
g56
(g57
g58
NtRp2094
(dp2095
g61
(dp2096
g69
I5
ssg70
g2090
sg63
(lp2097
g56
(g65
g58
NtRp2098
(dp2099
g61
(dp2100
g69
I4
ssg70
Nsg63
(lp2101
g56
(g72
g58
NtRp2102
(dp2103
g61
(dp2104
sg70
g2098
sg63
(lp2105
g56
(g77
g58
NtRp2106
(dp2107
g61
(dp2108
g81
g82
ssg70
g2102
sg63
(lp2109
S'environ'
p2110
asbag56
(g77
g58
NtRp2111
(dp2112
g61
(dp2113
g88
g89
ssg70
g2102
sg63
(lp2114
S':'
asbag56
(g77
g58
NtRp2115
(dp2116
g61
(dp2117
sg70
g2102
sg63
(lp2118
g56
(g57
g58
NtRp2119
(dp2120
g61
(dp2121
g69
I4
ssg70
g2115
sg63
(lp2122
g56
(g65
g58
NtRp2123
(dp2124
g61
(dp2125
g69
I3
ssg70
Nsg63
(lp2126
g56
(g72
g58
NtRp2127
(dp2128
g61
(dp2129
sg70
g2123
sg63
(lp2130
g56
(g77
g58
NtRp2131
(dp2132
g61
(dp2133
g81
g82
ssg70
g2127
sg63
(lp2134
S'HTTP_ACCEPT'
p2135
asbag56
(g77
g58
NtRp2136
(dp2137
g61
(dp2138
g88
g89
ssg70
g2127
sg63
(lp2139
S':'
asbag56
(g77
g58
NtRp2140
(dp2141
g61
(dp2142
sg70
g2127
sg63
(lp2143
g56
(g57
g58
NtRp2144
(dp2145
g61
(dp2146
g69
I3
ssg70
g2140
sg63
(lp2147
g655
asbasbasbag56
(g72
g58
NtRp2148
(dp2149
g61
(dp2150
sg70
g2123
sg63
(lp2151
g56
(g77
g58
NtRp2152
(dp2153
g61
(dp2154
g81
g82
ssg70
g2148
sg63
(lp2155
S'HTTP_ACCEPT_ENCODING'
p2156
asbag56
(g77
g58
NtRp2157
(dp2158
g61
(dp2159
g88
g89
ssg70
g2148
sg63
(lp2160
S':'
asbag56
(g77
g58
NtRp2161
(dp2162
g61
(dp2163
sg70
g2148
sg63
(lp2164
g56
(g57
g58
NtRp2165
(dp2166
g61
(dp2167
g69
I3
ssg70
g2161
sg63
(lp2168
g677
asbasbasbag56
(g72
g58
NtRp2169
(dp2170
g61
(dp2171
sg70
g2123
sg63
(lp2172
g56
(g77
g58
NtRp2173
(dp2174
g61
(dp2175
g81
g82
ssg70
g2169
sg63
(lp2176
S'HTTP_ACCEPT_LANGUAGE'
p2177
asbag56
(g77
g58
NtRp2178
(dp2179
g61
(dp2180
g88
g89
ssg70
g2169
sg63
(lp2181
S':'
asbag56
(g77
g58
NtRp2182
(dp2183
g61
(dp2184
sg70
g2169
sg63
(lp2185
g56
(g57
g58
NtRp2186
(dp2187
g61
(dp2188
g69
I3
ssg70
g2182
sg63
(lp2189
g699
asbasbasbag56
(g72
g58
NtRp2190
(dp2191
g61
(dp2192
sg70
g2123
sg63
(lp2193
g56
(g77
g58
NtRp2194
(dp2195
g61
(dp2196
g81
g82
ssg70
g2190
sg63
(lp2197
S'HTTP_CACHE_CONTROL'
p2198
asbag56
(g77
g58
NtRp2199
(dp2200
g61
(dp2201
g88
g89
ssg70
g2190
sg63
(lp2202
S':'
asbag56
(g77
g58
NtRp2203
(dp2204
g61
(dp2205
sg70
g2190
sg63
(lp2206
g56
(g57
g58
NtRp2207
(dp2208
g61
(dp2209
g69
I3
ssg70
g2203
sg63
(lp2210
g721
asbasbasbag56
(g72
g58
NtRp2211
(dp2212
g61
(dp2213
sg70
g2123
sg63
(lp2214
g56
(g77
g58
NtRp2215
(dp2216
g61
(dp2217
g81
g82
ssg70
g2211
sg63
(lp2218
S'HTTP_CONNECTION'
p2219
asbag56
(g77
g58
NtRp2220
(dp2221
g61
(dp2222
g88
g89
ssg70
g2211
sg63
(lp2223
S':'
asbag56
(g77
g58
NtRp2224
(dp2225
g61
(dp2226
sg70
g2211
sg63
(lp2227
g56
(g57
g58
NtRp2228
(dp2229
g61
(dp2230
g69
I3
ssg70
g2224
sg63
(lp2231
g743
asbasbasbag56
(g72
g58
NtRp2232
(dp2233
g61
(dp2234
sg70
g2123
sg63
(lp2235
g56
(g77
g58
NtRp2236
(dp2237
g61
(dp2238
g81
g82
ssg70
g2232
sg63
(lp2239
S'HTTP_COOKIE'
p2240
asbag56
(g77
g58
NtRp2241
(dp2242
g61
(dp2243
g88
g89
ssg70
g2232
sg63
(lp2244
S':'
asbag56
(g77
g58
NtRp2245
(dp2246
g61
(dp2247
sg70
g2232
sg63
(lp2248
g56
(g57
g58
NtRp2249
(dp2250
g61
(dp2251
g69
I3
ssg70
g2245
sg63
(lp2252
g765
asbasbasbag56
(g72
g58
NtRp2253
(dp2254
g61
(dp2255
sg70
g2123
sg63
(lp2256
g56
(g77
g58
NtRp2257
(dp2258
g61
(dp2259
g81
g82
ssg70
g2253
sg63
(lp2260
S'HTTP_HOST'
p2261
asbag56
(g77
g58
NtRp2262
(dp2263
g61
(dp2264
g88
g89
ssg70
g2253
sg63
(lp2265
S':'
asbag56
(g77
g58
NtRp2266
(dp2267
g61
(dp2268
sg70
g2253
sg63
(lp2269
g56
(g57
g58
NtRp2270
(dp2271
g61
(dp2272
g69
I3
ssg70
g2266
sg63
(lp2273
g787
asbasbasbag56
(g72
g58
NtRp2274
(dp2275
g61
(dp2276
sg70
g2123
sg63
(lp2277
g56
(g77
g58
NtRp2278
(dp2279
g61
(dp2280
g81
g82
ssg70
g2274
sg63
(lp2281
S'HTTP_REFERER'
p2282
asbag56
(g77
g58
NtRp2283
(dp2284
g61
(dp2285
g88
g89
ssg70
g2274
sg63
(lp2286
S':'
asbag56
(g77
g58
NtRp2287
(dp2288
g61
(dp2289
sg70
g2274
sg63
(lp2290
g56
(g57
g58
NtRp2291
(dp2292
g61
(dp2293
g69
I3
ssg70
g2287
sg63
(lp2294
g809
asbasbasbag56
(g72
g58
NtRp2295
(dp2296
g61
(dp2297
sg70
g2123
sg63
(lp2298
g56
(g77
g58
NtRp2299
(dp2300
g61
(dp2301
g81
g82
ssg70
g2295
sg63
(lp2302
S'HTTP_USER_AGENT'
p2303
asbag56
(g77
g58
NtRp2304
(dp2305
g61
(dp2306
g88
g89
ssg70
g2295
sg63
(lp2307
S':'
asbag56
(g77
g58
NtRp2308
(dp2309
g61
(dp2310
sg70
g2295
sg63
(lp2311
g56
(g57
g58
NtRp2312
(dp2313
g61
(dp2314
g69
I3
ssg70
g2308
sg63
(lp2315
g831
asbasbasbag56
(g72
g58
NtRp2316
(dp2317
g61
(dp2318
sg70
g2123
sg63
(lp2319
g56
(g77
g58
NtRp2320
(dp2321
g61
(dp2322
g81
g82
ssg70
g2316
sg63
(lp2323
S'HTTP_WEB2PY_COMPONENT_ELEMENT'
p2324
asbag56
(g77
g58
NtRp2325
(dp2326
g61
(dp2327
g88
g89
ssg70
g2316
sg63
(lp2328
S':'
asbag56
(g77
g58
NtRp2329
(dp2330
g61
(dp2331
sg70
g2316
sg63
(lp2332
g56
(g57
g58
NtRp2333
(dp2334
g61
(dp2335
g69
I3
ssg70
g2329
sg63
(lp2336
g189
asbasbasbag56
(g72
g58
NtRp2337
(dp2338
g61
(dp2339
sg70
g2123
sg63
(lp2340
g56
(g77
g58
NtRp2341
(dp2342
g61
(dp2343
g81
g82
ssg70
g2337
sg63
(lp2344
S'HTTP_WEB2PY_COMPONENT_LOCATION'
p2345
asbag56
(g77
g58
NtRp2346
(dp2347
g61
(dp2348
g88
g89
ssg70
g2337
sg63
(lp2349
S':'
asbag56
(g77
g58
NtRp2350
(dp2351
g61
(dp2352
sg70
g2337
sg63
(lp2353
g56
(g57
g58
NtRp2354
(dp2355
g61
(dp2356
g69
I3
ssg70
g2350
sg63
(lp2357
g874
asbasbasbag56
(g72
g58
NtRp2358
(dp2359
g61
(dp2360
sg70
g2123
sg63
(lp2361
g56
(g77
g58
NtRp2362
(dp2363
g61
(dp2364
g81
g82
ssg70
g2358
sg63
(lp2365
S'HTTP_X_REQUESTED_WITH'
p2366
asbag56
(g77
g58
NtRp2367
(dp2368
g61
(dp2369
g88
g89
ssg70
g2358
sg63
(lp2370
S':'
asbag56
(g77
g58
NtRp2371
(dp2372
g61
(dp2373
sg70
g2358
sg63
(lp2374
g56
(g57
g58
NtRp2375
(dp2376
g61
(dp2377
g69
I3
ssg70
g2371
sg63
(lp2378
g896
asbasbasbag56
(g72
g58
NtRp2379
(dp2380
g61
(dp2381
sg70
g2123
sg63
(lp2382
g56
(g77
g58
NtRp2383
(dp2384
g61
(dp2385
g81
g82
ssg70
g2379
sg63
(lp2386
S'PATH_INFO'
p2387
asbag56
(g77
g58
NtRp2388
(dp2389
g61
(dp2390
g88
g89
ssg70
g2379
sg63
(lp2391
S':'
asbag56
(g77
g58
NtRp2392
(dp2393
g61
(dp2394
sg70
g2379
sg63
(lp2395
g56
(g57
g58
NtRp2396
(dp2397
g61
(dp2398
g69
I3
ssg70
g2392
sg63
(lp2399
g939
asbasbasbag56
(g72
g58
NtRp2400
(dp2401
g61
(dp2402
sg70
g2123
sg63
(lp2403
g56
(g77
g58
NtRp2404
(dp2405
g61
(dp2406
g81
g82
ssg70
g2400
sg63
(lp2407
S'QUERY_STRING'
p2408
asbag56
(g77
g58
NtRp2409
(dp2410
g61
(dp2411
g88
g89
ssg70
g2400
sg63
(lp2412
S':'
asbag56
(g77
g58
NtRp2413
(dp2414
g61
(dp2415
sg70
g2400
sg63
(lp2416
g56
(g57
g58
NtRp2417
(dp2418
g61
(dp2419
g69
I3
ssg70
g2413
sg63
(lp2420
S''
asbasbasbag56
(g72
g58
NtRp2421
(dp2422
g61
(dp2423
sg70
g2123
sg63
(lp2424
g56
(g77
g58
NtRp2425
(dp2426
g61
(dp2427
g81
g82
ssg70
g2421
sg63
(lp2428
S'REMOTE_ADDR'
p2429
asbag56
(g77
g58
NtRp2430
(dp2431
g61
(dp2432
g88
g89
ssg70
g2421
sg63
(lp2433
S':'
asbag56
(g77
g58
NtRp2434
(dp2435
g61
(dp2436
sg70
g2421
sg63
(lp2437
g56
(g57
g58
NtRp2438
(dp2439
g61
(dp2440
g69
I3
ssg70
g2434
sg63
(lp2441
g211
asbasbasbag56
(g72
g58
NtRp2442
(dp2443
g61
(dp2444
sg70
g2123
sg63
(lp2445
g56
(g77
g58
NtRp2446
(dp2447
g61
(dp2448
g81
g82
ssg70
g2442
sg63
(lp2449
S'REMOTE_PORT'
p2450
asbag56
(g77
g58
NtRp2451
(dp2452
g61
(dp2453
g88
g89
ssg70
g2442
sg63
(lp2454
S':'
asbag56
(g77
g58
NtRp2455
(dp2456
g61
(dp2457
sg70
g2442
sg63
(lp2458
g56
(g57
g58
NtRp2459
(dp2460
g61
(dp2461
g69
I3
ssg70
g2455
sg63
(lp2462
g1003
asbasbasbag56
(g72
g58
NtRp2463
(dp2464
g61
(dp2465
sg70
g2123
sg63
(lp2466
g56
(g77
g58
NtRp2467
(dp2468
g61
(dp2469
g81
g82
ssg70
g2463
sg63
(lp2470
S'REQUEST_METHOD'
p2471
asbag56
(g77
g58
NtRp2472
(dp2473
g61
(dp2474
g88
g89
ssg70
g2463
sg63
(lp2475
S':'
asbag56
(g77
g58
NtRp2476
(dp2477
g61
(dp2478
sg70
g2463
sg63
(lp2479
g56
(g57
g58
NtRp2480
(dp2481
g61
(dp2482
g69
I3
ssg70
g2476
sg63
(lp2483
g1025
asbasbasbag56
(g72
g58
NtRp2484
(dp2485
g61
(dp2486
sg70
g2123
sg63
(lp2487
g56
(g77
g58
NtRp2488
(dp2489
g61
(dp2490
g81
g82
ssg70
g2484
sg63
(lp2491
S'SCRIPT_NAME'
p2492
asbag56
(g77
g58
NtRp2493
(dp2494
g61
(dp2495
g88
g89
ssg70
g2484
sg63
(lp2496
S':'
asbag56
(g77
g58
NtRp2497
(dp2498
g61
(dp2499
sg70
g2484
sg63
(lp2500
g56
(g57
g58
NtRp2501
(dp2502
g61
(dp2503
g69
I3
ssg70
g2497
sg63
(lp2504
S''
asbasbasbag56
(g72
g58
NtRp2505
(dp2506
g61
(dp2507
sg70
g2123
sg63
(lp2508
g56
(g77
g58
NtRp2509
(dp2510
g61
(dp2511
g81
g82
ssg70
g2505
sg63
(lp2512
S'SERVER_NAME'
p2513
asbag56
(g77
g58
NtRp2514
(dp2515
g61
(dp2516
g88
g89
ssg70
g2505
sg63
(lp2517
S':'
asbag56
(g77
g58
NtRp2518
(dp2519
g61
(dp2520
sg70
g2505
sg63
(lp2521
g56
(g57
g58
NtRp2522
(dp2523
g61
(dp2524
g69
I3
ssg70
g2518
sg63
(lp2525
g1068
asbasbasbag56
(g72
g58
NtRp2526
(dp2527
g61
(dp2528
sg70
g2123
sg63
(lp2529
g56
(g77
g58
NtRp2530
(dp2531
g61
(dp2532
g81
g82
ssg70
g2526
sg63
(lp2533
S'SERVER_PORT'
p2534
asbag56
(g77
g58
NtRp2535
(dp2536
g61
(dp2537
g88
g89
ssg70
g2526
sg63
(lp2538
S':'
asbag56
(g77
g58
NtRp2539
(dp2540
g61
(dp2541
sg70
g2526
sg63
(lp2542
g56
(g57
g58
NtRp2543
(dp2544
g61
(dp2545
g69
I3
ssg70
g2539
sg63
(lp2546
g1090
asbasbasbag56
(g72
g58
NtRp2547
(dp2548
g61
(dp2549
sg70
g2123
sg63
(lp2550
g56
(g77
g58
NtRp2551
(dp2552
g61
(dp2553
g81
g82
ssg70
g2547
sg63
(lp2554
S'SERVER_PROTOCOL'
p2555
asbag56
(g77
g58
NtRp2556
(dp2557
g61
(dp2558
g88
g89
ssg70
g2547
sg63
(lp2559
S':'
asbag56
(g77
g58
NtRp2560
(dp2561
g61
(dp2562
sg70
g2547
sg63
(lp2563
g56
(g57
g58
NtRp2564
(dp2565
g61
(dp2566
g69
I3
ssg70
g2560
sg63
(lp2567
g1112
asbasbasbag56
(g72
g58
NtRp2568
(dp2569
g61
(dp2570
sg70
g2123
sg63
(lp2571
g56
(g77
g58
NtRp2572
(dp2573
g61
(dp2574
g81
g82
ssg70
g2568
sg63
(lp2575
S'SERVER_SOFTWARE'
p2576
asbag56
(g77
g58
NtRp2577
(dp2578
g61
(dp2579
g88
g89
ssg70
g2568
sg63
(lp2580
S':'
asbag56
(g77
g58
NtRp2581
(dp2582
g61
(dp2583
sg70
g2568
sg63
(lp2584
g56
(g57
g58
NtRp2585
(dp2586
g61
(dp2587
g69
I3
ssg70
g2581
sg63
(lp2588
g1134
asbasbasbag56
(g72
g58
NtRp2589
(dp2590
g61
(dp2591
sg70
g2123
sg63
(lp2592
g56
(g77
g58
NtRp2593
(dp2594
g61
(dp2595
g81
g82
ssg70
g2589
sg63
(lp2596
S'wsgi.errors'
p2597
asbag56
(g77
g58
NtRp2598
(dp2599
g61
(dp2600
g88
g89
ssg70
g2589
sg63
(lp2601
S':'
asbag56
(g77
g58
NtRp2602
(dp2603
g61
(dp2604
sg70
g2589
sg63
(lp2605
g56
(g57
g58
NtRp2606
(dp2607
g61
(dp2608
g69
I3
ssg70
g2602
sg63
(lp2609
S"<open file '<stderr>', mode 'w' at 0x7f7d1bc23270>"
p2610
asbasbasbag56
(g72
g58
NtRp2611
(dp2612
g61
(dp2613
sg70
g2123
sg63
(lp2614
g56
(g77
g58
NtRp2615
(dp2616
g61
(dp2617
g81
g82
ssg70
g2611
sg63
(lp2618
S'wsgi.file_wrapper'
p2619
asbag56
(g77
g58
NtRp2620
(dp2621
g61
(dp2622
g88
g89
ssg70
g2611
sg63
(lp2623
S':'
asbag56
(g77
g58
NtRp2624
(dp2625
g61
(dp2626
sg70
g2611
sg63
(lp2627
g56
(g57
g58
NtRp2628
(dp2629
g61
(dp2630
g69
I3
ssg70
g2624
sg63
(lp2631
S'<class wsgiref.util.FileWrapper at 0x2aaa808>'
p2632
asbasbasbag56
(g72
g58
NtRp2633
(dp2634
g61
(dp2635
sg70
g2123
sg63
(lp2636
g56
(g77
g58
NtRp2637
(dp2638
g61
(dp2639
g81
g82
ssg70
g2633
sg63
(lp2640
S'wsgi.input'
p2641
asbag56
(g77
g58
NtRp2642
(dp2643
g61
(dp2644
g88
g89
ssg70
g2633
sg63
(lp2645
S':'
asbag56
(g77
g58
NtRp2646
(dp2647
g61
(dp2648
sg70
g2633
sg63
(lp2649
g56
(g57
g58
NtRp2650
(dp2651
g61
(dp2652
g69
I3
ssg70
g2646
sg63
(lp2653
S'<cStringIO.StringO object at 0x3c7e9d0>'
p2654
asbasbasbag56
(g72
g58
NtRp2655
(dp2656
g61
(dp2657
sg70
g2123
sg63
(lp2658
g56
(g77
g58
NtRp2659
(dp2660
g61
(dp2661
g81
g82
ssg70
g2655
sg63
(lp2662
S'wsgi.multiprocess'
p2663
asbag56
(g77
g58
NtRp2664
(dp2665
g61
(dp2666
g88
g89
ssg70
g2655
sg63
(lp2667
S':'
asbag56
(g77
g58
NtRp2668
(dp2669
g61
(dp2670
sg70
g2655
sg63
(lp2671
g56
(g57
g58
NtRp2672
(dp2673
g61
(dp2674
g69
I3
ssg70
g2668
sg63
(lp2675
g611
asbasbasbag56
(g72
g58
NtRp2676
(dp2677
g61
(dp2678
sg70
g2123
sg63
(lp2679
g56
(g77
g58
NtRp2680
(dp2681
g61
(dp2682
g81
g82
ssg70
g2676
sg63
(lp2683
S'wsgi.multithread'
p2684
asbag56
(g77
g58
NtRp2685
(dp2686
g61
(dp2687
g88
g89
ssg70
g2676
sg63
(lp2688
S':'
asbag56
(g77
g58
NtRp2689
(dp2690
g61
(dp2691
sg70
g2676
sg63
(lp2692
g56
(g57
g58
NtRp2693
(dp2694
g61
(dp2695
g69
I3
ssg70
g2689
sg63
(lp2696
g99
asbasbasbag56
(g72
g58
NtRp2697
(dp2698
g61
(dp2699
sg70
g2123
sg63
(lp2700
g56
(g77
g58
NtRp2701
(dp2702
g61
(dp2703
g81
g82
ssg70
g2697
sg63
(lp2704
S'wsgi.run_once'
p2705
asbag56
(g77
g58
NtRp2706
(dp2707
g61
(dp2708
g88
g89
ssg70
g2697
sg63
(lp2709
S':'
asbag56
(g77
g58
NtRp2710
(dp2711
g61
(dp2712
sg70
g2697
sg63
(lp2713
g56
(g57
g58
NtRp2714
(dp2715
g61
(dp2716
g69
I3
ssg70
g2710
sg63
(lp2717
g611
asbasbasbag56
(g72
g58
NtRp2718
(dp2719
g61
(dp2720
sg70
g2123
sg63
(lp2721
g56
(g77
g58
NtRp2722
(dp2723
g61
(dp2724
g81
g82
ssg70
g2718
sg63
(lp2725
S'wsgi.url_scheme'
p2726
asbag56
(g77
g58
NtRp2727
(dp2728
g61
(dp2729
g88
g89
ssg70
g2718
sg63
(lp2730
S':'
asbag56
(g77
g58
NtRp2731
(dp2732
g61
(dp2733
sg70
g2718
sg63
(lp2734
g56
(g57
g58
NtRp2735
(dp2736
g61
(dp2737
g69
I3
ssg70
g2731
sg63
(lp2738
g1416
asbasbasbag56
(g72
g58
NtRp2739
(dp2740
g61
(dp2741
sg70
g2123
sg63
(lp2742
g56
(g77
g58
NtRp2743
(dp2744
g61
(dp2745
g81
g82
ssg70
g2739
sg63
(lp2746
S'wsgi.version'
p2747
asbag56
(g77
g58
NtRp2748
(dp2749
g61
(dp2750
g88
g89
ssg70
g2739
sg63
(lp2751
S':'
asbag56
(g77
g58
NtRp2752
(dp2753
g61
(dp2754
sg70
g2739
sg63
(lp2755
g56
(g57
g58
NtRp2756
(dp2757
g61
(dp2758
g69
I3
ssg70
g2752
sg63
(lp2759
S'1'
asbasbasbasbasbasbasbasbasbasbasbasbasbsS'frames'
p2760
(lp2761
(dp2762
S'file'
p2763
S'/home/ian/web2py/gluon/restricted.py'
p2764
sS'dump'
p2765
(dp2766
S'environment'
p2767
S"{'A': <class 'gluon.html.A'>, 'Auth': <class 'gluon.tools.Auth'>, 'B': <class 'gluon.html.B'>, 'BEAUTIFY': <class 'gluon.html.BEAUTIFY'>, 'BODY': <class 'gluon.html.BODY'>, 'BR': <class 'gluon.html.BR'>, 'BUTTON': <class 'gluon.html.BUTTON'>, 'CAT': <class 'gluon.html.CAT'>, 'CENTER': <class 'gluon.html.CENTER'>, 'CLEANUP': <class 'gluon.validators.CLEANUP'>, ...}"
p2768
sS'ccode'
p2769
S'<code object <module> at 0x3c67eb0, file "/home/...cations/places/views/default/index.load", line 1>'
p2770
ssS'lnum'
p2771
I194
sS'lines'
p2772
(dp2773
I192
S'        else:'
p2774
sI193
S'            ccode = compile2(code,layer)'
p2775
sI194
S'        exec ccode in environment'
p2776
sI195
S'    except HTTP:'
p2777
sI196
S'        raise'
p2778
sI197
S'    except Exception, error:'
p2779
sI198
S'        # XXX Show exception in Wing IDE if running in debugger'
p2780
sI189
S'    try:'
p2781
sI190
S'        if type(code) == types.CodeType:'
p2782
sI191
S'            ccode = code'
p2783
ssS'call'
p2784
S'(code="for link in links:\\n    response.write(\'\\\\n<li>\\\\n\'...esponse._vars)\\nresponse.write(\'\\\\n\', escape=False)", environment={\'A\': <class \'gluon.html.A\'>, \'Auth\': <class \'gluon.tools.Auth\'>, \'B\': <class \'gluon.html.B\'>, \'BEAUTIFY\': <class \'gluon.html.BEAUTIFY\'>, \'BODY\': <class \'gluon.html.BODY\'>, \'BR\': <class \'gluon.html.BR\'>, \'BUTTON\': <class \'gluon.html.BUTTON\'>, \'CAT\': <class \'gluon.html.CAT\'>, \'CENTER\': <class \'gluon.html.CENTER\'>, \'CLEANUP\': <class \'gluon.validators.CLEANUP\'>, ...}, layer=\'/home/ian/web2py/applications/places/views/default/index.load\')'
p2785
sS'func'
p2786
S'restricted'
p2787
sa(dp2788
g2763
S'/home/ian/web2py/applications/places/views/default/index.load'
p2789
sg2765
(dp2790
S'A'
S"<class 'gluon.html.A'>"
p2791
sS'_href'
p2792
S'undefined'
p2793
sS'cid'
p2794
g2793
sS'URL'
p2795
S'<function URL>'
p2796
sS'args'
p2797
g2793
sS'link'
p2798
S"<Row {'tags': [1], 'update_record': <function <l...elete_record': <function <lambda> at 0x318d488>}>"
p2799
sS'link.id'
p2800
S'1'
sS'_class'
p2801
g2793
ssg2771
I5
sg2772
(dp2802
I1
S'{{for link in links:}}'
p2803
sI2
S'<li>'
p2804
sI3
S'{{=A(link.link_name, _href=link.link_url, _title=link.link_name, _alt=link.link_name)}}'
p2805
sI4
S"{{=IMG(_src=URL('download', args=links.link_image))}}"
p2806
sI5
S"{{=A('edit', _href=URL('default', 'edit.load', args=[link.id]), cid='modal_frame', _class='edit_link')}}"
p2807
sI6
S'</li>'
p2808
sI7
S'{{pass}}'
p2809
sI8
S''
sI9
S'{{#=BEAUTIFY(response._vars)}}'
p2810
ssg2784
S'()'
p2811
sg2786
S'<module>'
p2812
sasS'pyver'
p2813
S'Python 2.7.2+: /usr/bin/python2.7'
p2814
sS'session'
p2815
g56
(g57
g58
NtRp2816
(dp2817
g61
(dp2818
sg63
(lp2819
g56
(g65
g58
NtRp2820
(dp2821
g61
(dp2822
g69
I5
ssg70
Nsg63
(lp2823
g56
(g72
g58
NtRp2824
(dp2825
g61
(dp2826
sg70
g2820
sg63
(lp2827
g56
(g77
g58
NtRp2828
(dp2829
g61
(dp2830
g81
g82
ssg70
g2824
sg63
(lp2831
S'auth'
p2832
asbag56
(g77
g58
NtRp2833
(dp2834
g61
(dp2835
g88
g89
ssg70
g2824
sg63
(lp2836
S':'
asbag56
(g77
g58
NtRp2837
(dp2838
g61
(dp2839
sg70
g2824
sg63
(lp2840
g56
(g57
g58
NtRp2841
(dp2842
g61
(dp2843
g69
I5
ssg70
g2837
sg63
(lp2844
g56
(g65
g58
NtRp2845
(dp2846
g61
(dp2847
g69
I4
ssg70
Nsg63
(lp2848
g56
(g72
g58
NtRp2849
(dp2850
g61
(dp2851
sg70
g2845
sg63
(lp2852
g56
(g77
g58
NtRp2853
(dp2854
g61
(dp2855
g81
g82
ssg70
g2849
sg63
(lp2856
S'expiration'
p2857
asbag56
(g77
g58
NtRp2858
(dp2859
g61
(dp2860
g88
g89
ssg70
g2849
sg63
(lp2861
S':'
asbag56
(g77
g58
NtRp2862
(dp2863
g61
(dp2864
sg70
g2849
sg63
(lp2865
g56
(g57
g58
NtRp2866
(dp2867
g61
(dp2868
g69
I4
ssg70
g2862
sg63
(lp2869
S'2592000'
p2870
asbasbasbag56
(g72
g58
NtRp2871
(dp2872
g61
(dp2873
sg70
g2845
sg63
(lp2874
g56
(g77
g58
NtRp2875
(dp2876
g61
(dp2877
g81
g82
ssg70
g2871
sg63
(lp2878
S'hmac_key'
p2879
asbag56
(g77
g58
NtRp2880
(dp2881
g61
(dp2882
g88
g89
ssg70
g2871
sg63
(lp2883
S':'
asbag56
(g77
g58
NtRp2884
(dp2885
g61
(dp2886
sg70
g2871
sg63
(lp2887
g56
(g57
g58
NtRp2888
(dp2889
g61
(dp2890
g69
I4
ssg70
g2884
sg63
(lp2891
S'3140303d-e177-4f14-8ddc-a8d1b0f1ad2b'
p2892
asbasbasbag56
(g72
g58
NtRp2893
(dp2894
g61
(dp2895
sg70
g2845
sg63
(lp2896
g56
(g77
g58
NtRp2897
(dp2898
g61
(dp2899
g81
g82
ssg70
g2893
sg63
(lp2900
S'last_visit'
p2901
asbag56
(g77
g58
NtRp2902
(dp2903
g61
(dp2904
g88
g89
ssg70
g2893
sg63
(lp2905
S':'
asbag56
(g77
g58
NtRp2906
(dp2907
g61
(dp2908
sg70
g2893
sg63
(lp2909
g56
(g57
g58
NtRp2910
(dp2911
g61
(dp2912
g69
I4
ssg70
g2906
sg63
(lp2913
S'datetime.datetime(2011, 10, 20, 18, 12, 23, 264821)'
p2914
asbasbasbag56
(g72
g58
NtRp2915
(dp2916
g61
(dp2917
sg70
g2845
sg63
(lp2918
g56
(g77
g58
NtRp2919
(dp2920
g61
(dp2921
g81
g82
ssg70
g2915
sg63
(lp2922
S'remember'
p2923
asbag56
(g77
g58
NtRp2924
(dp2925
g61
(dp2926
g88
g89
ssg70
g2915
sg63
(lp2927
S':'
asbag56
(g77
g58
NtRp2928
(dp2929
g61
(dp2930
sg70
g2915
sg63
(lp2931
g56
(g57
g58
NtRp2932
(dp2933
g61
(dp2934
g69
I4
ssg70
g2928
sg63
(lp2935
g611
asbasbasbag56
(g72
g58
NtRp2936
(dp2937
g61
(dp2938
sg70
g2845
sg63
(lp2939
g56
(g77
g58
NtRp2940
(dp2941
g61
(dp2942
g81
g82
ssg70
g2936
sg63
(lp2943
S'user'
p2944
asbag56
(g77
g58
NtRp2945
(dp2946
g61
(dp2947
g88
g89
ssg70
g2936
sg63
(lp2948
S':'
asbag56
(g77
g58
NtRp2949
(dp2950
g61
(dp2951
sg70
g2936
sg63
(lp2952
g56
(g57
g58
NtRp2953
(dp2954
g61
(dp2955
g69
I4
ssg70
g2949
sg63
(lp2956
g56
(g65
g58
NtRp2957
(dp2958
g61
(dp2959
g69
I3
ssg70
Nsg63
(lp2960
g56
(g72
g58
NtRp2961
(dp2962
g61
(dp2963
sg70
g2957
sg63
(lp2964
g56
(g77
g58
NtRp2965
(dp2966
g61
(dp2967
g81
g82
ssg70
g2961
sg63
(lp2968
S'email'
p2969
asbag56
(g77
g58
NtRp2970
(dp2971
g61
(dp2972
g88
g89
ssg70
g2961
sg63
(lp2973
S':'
asbag56
(g77
g58
NtRp2974
(dp2975
g61
(dp2976
sg70
g2961
sg63
(lp2977
g56
(g57
g58
NtRp2978
(dp2979
g61
(dp2980
g69
I3
ssg70
g2974
sg63
(lp2981
S'scottianw@gmail.com'
p2982
asbasbasbag56
(g72
g58
NtRp2983
(dp2984
g61
(dp2985
sg70
g2957
sg63
(lp2986
g56
(g77
g58
NtRp2987
(dp2988
g61
(dp2989
g81
g82
ssg70
g2983
sg63
(lp2990
S'first_name'
p2991
asbag56
(g77
g58
NtRp2992
(dp2993
g61
(dp2994
g88
g89
ssg70
g2983
sg63
(lp2995
S':'
asbag56
(g77
g58
NtRp2996
(dp2997
g61
(dp2998
sg70
g2983
sg63
(lp2999
g56
(g57
g58
NtRp3000
(dp3001
g61
(dp3002
g69
I3
ssg70
g2996
sg63
(lp3003
S'Ian'
p3004
asbasbasbag56
(g72
g58
NtRp3005
(dp3006
g61
(dp3007
sg70
g2957
sg63
(lp3008
g56
(g77
g58
NtRp3009
(dp3010
g61
(dp3011
g81
g82
ssg70
g3005
sg63
(lp3012
S'id'
p3013
asbag56
(g77
g58
NtRp3014
(dp3015
g61
(dp3016
g88
g89
ssg70
g3005
sg63
(lp3017
S':'
asbag56
(g77
g58
NtRp3018
(dp3019
g61
(dp3020
sg70
g3005
sg63
(lp3021
g56
(g57
g58
NtRp3022
(dp3023
g61
(dp3024
g69
I3
ssg70
g3018
sg63
(lp3025
S'1'
asbasbasbag56
(g72
g58
NtRp3026
(dp3027
g61
(dp3028
sg70
g2957
sg63
(lp3029
g56
(g77
g58
NtRp3030
(dp3031
g61
(dp3032
g81
g82
ssg70
g3026
sg63
(lp3033
S'last_name'
p3034
asbag56
(g77
g58
NtRp3035
(dp3036
g61
(dp3037
g88
g89
ssg70
g3026
sg63
(lp3038
S':'
asbag56
(g77
g58
NtRp3039
(dp3040
g61
(dp3041
sg70
g3026
sg63
(lp3042
g56
(g57
g58
NtRp3043
(dp3044
g61
(dp3045
g69
I3
ssg70
g3039
sg63
(lp3046
S'Scott'
p3047
asbasbasbag56
(g72
g58
NtRp3048
(dp3049
g61
(dp3050
sg70
g2957
sg63
(lp3051
g56
(g77
g58
NtRp3052
(dp3053
g61
(dp3054
g81
g82
ssg70
g3048
sg63
(lp3055
S'password'
p3056
asbag56
(g77
g58
NtRp3057
(dp3058
g61
(dp3059
g88
g89
ssg70
g3048
sg63
(lp3060
S':'
asbag56
(g77
g58
NtRp3061
(dp3062
g61
(dp3063
sg70
g3048
sg63
(lp3064
g56
(g57
g58
NtRp3065
(dp3066
g61
(dp3067
g69
I3
ssg70
g3061
sg63
(lp3068
S'351bc855a8ae4839e89ee60d2f279ed9'
p3069
asbasbasbag56
(g72
g58
NtRp3070
(dp3071
g61
(dp3072
sg70
g2957
sg63
(lp3073
g56
(g77
g58
NtRp3074
(dp3075
g61
(dp3076
g81
g82
ssg70
g3070
sg63
(lp3077
S'registration_key'
p3078
asbag56
(g77
g58
NtRp3079
(dp3080
g61
(dp3081
g88
g89
ssg70
g3070
sg63
(lp3082
S':'
asbag56
(g77
g58
NtRp3083
(dp3084
g61
(dp3085
sg70
g3070
sg63
(lp3086
g56
(g57
g58
NtRp3087
(dp3088
g61
(dp3089
g69
I3
ssg70
g3083
sg63
(lp3090
S''
asbasbasbag56
(g72
g58
NtRp3091
(dp3092
g61
(dp3093
sg70
g2957
sg63
(lp3094
g56
(g77
g58
NtRp3095
(dp3096
g61
(dp3097
g81
g82
ssg70
g3091
sg63
(lp3098
S'reset_password_key'
p3099
asbag56
(g77
g58
NtRp3100
(dp3101
g61
(dp3102
g88
g89
ssg70
g3091
sg63
(lp3103
S':'
asbag56
(g77
g58
NtRp3104
(dp3105
g61
(dp3106
sg70
g3091
sg63
(lp3107
g56
(g57
g58
NtRp3108
(dp3109
g61
(dp3110
g69
I3
ssg70
g3104
sg63
(lp3111
S''
asbasbasbasbasbasbasbasbasbasbasbag56
(g72
g58
NtRp3112
(dp3113
g61
(dp3114
sg70
g2820
sg63
(lp3115
g56
(g77
g58
NtRp3116
(dp3117
g61
(dp3118
g81
g82
ssg70
g3112
sg63
(lp3119
S'the_view'
p3120
asbag56
(g77
g58
NtRp3121
(dp3122
g61
(dp3123
g88
g89
ssg70
g3112
sg63
(lp3124
S':'
asbag56
(g77
g58
NtRp3125
(dp3126
g61
(dp3127
sg70
g3112
sg63
(lp3128
g56
(g57
g58
NtRp3129
(dp3130
g61
(dp3131
g69
I5
ssg70
g3125
sg63
(lp3132
S'kitchen'
p3133
asbasbasbasbasbsS'etype'
p3134
S"<type 'exceptions.AttributeError'>"
p3135
sS'date'
p3136
S'Thu Oct 20 18:17:52 2011'
p3137
sS'response'
p3138
g56
(g57
g58
NtRp3139
(dp3140
g61
(dp3141
sg63
(lp3142
g56
(g65
g58
NtRp3143
(dp3144
g61
(dp3145
g69
I5
ssg70
Nsg63
(lp3146
g56
(g72
g58
NtRp3147
(dp3148
g61
(dp3149
sg70
g3143
sg63
(lp3150
g56
(g77
g58
NtRp3151
(dp3152
g61
(dp3153
g81
g82
ssg70
g3147
sg63
(lp3154
g154
asbag56
(g77
g58
NtRp3155
(dp3156
g61
(dp3157
g88
g89
ssg70
g3147
sg63
(lp3158
S':'
asbag56
(g77
g58
NtRp3159
(dp3160
g61
(dp3161
sg70
g3147
sg63
(lp3162
g56
(g57
g58
NtRp3163
(dp3164
g61
(dp3165
g69
I5
ssg70
g3159
sg63
(lp3166
S'<cStringIO.StringO object at 0x3c745a8>'
p3167
asbasbasbag56
(g72
g58
NtRp3168
(dp3169
g61
(dp3170
sg70
g3143
sg63
(lp3171
g56
(g77
g58
NtRp3172
(dp3173
g61
(dp3174
g81
g82
ssg70
g3168
sg63
(lp3175
g242
asbag56
(g77
g58
NtRp3176
(dp3177
g61
(dp3178
g88
g89
ssg70
g3168
sg63
(lp3179
S':'
asbag56
(g77
g58
NtRp3180
(dp3181
g61
(dp3182
sg70
g3168
sg63
(lp3183
g56
(g57
g58
NtRp3184
(dp3185
g61
(dp3186
g69
I5
ssg70
g3180
sg63
(lp3187
g56
(g65
g58
NtRp3188
(dp3189
g61
(dp3190
g69
I4
ssg70
Nsg63
(lp3191
g56
(g72
g58
NtRp3192
(dp3193
g61
(dp3194
sg70
g3188
sg63
(lp3195
g56
(g77
g58
NtRp3196
(dp3197
g61
(dp3198
g81
g82
ssg70
g3192
sg63
(lp3199
S'session_id_places'
p3200
asbag56
(g77
g58
NtRp3201
(dp3202
g61
(dp3203
g88
g89
ssg70
g3192
sg63
(lp3204
S':'
asbag56
(g77
g58
NtRp3205
(dp3206
g61
(dp3207
sg70
g3192
sg63
(lp3208
g56
(g57
g58
NtRp3209
(dp3210
g61
(dp3211
g69
I4
ssg70
g3205
sg63
(lp3212
g56
(g65
g58
NtRp3213
(dp3214
g61
(dp3215
g69
I3
ssg70
Nsg63
(lp3216
g56
(g72
g58
NtRp3217
(dp3218
g61
(dp3219
sg70
g3213
sg63
(lp3220
g56
(g77
g58
NtRp3221
(dp3222
g61
(dp3223
g81
g82
ssg70
g3217
sg63
(lp3224
g292
asbag56
(g77
g58
NtRp3225
(dp3226
g61
(dp3227
g88
g89
ssg70
g3217
sg63
(lp3228
S':'
asbag56
(g77
g58
NtRp3229
(dp3230
g61
(dp3231
sg70
g3217
sg63
(lp3232
g56
(g57
g58
NtRp3233
(dp3234
g61
(dp3235
g69
I3
ssg70
g3229
sg63
(lp3236
S''
asbasbasbag56
(g72
g58
NtRp3237
(dp3238
g61
(dp3239
sg70
g3213
sg63
(lp3240
g56
(g77
g58
NtRp3241
(dp3242
g61
(dp3243
g81
g82
ssg70
g3237
sg63
(lp3244
g313
asbag56
(g77
g58
NtRp3245
(dp3246
g61
(dp3247
g88
g89
ssg70
g3237
sg63
(lp3248
S':'
asbag56
(g77
g58
NtRp3249
(dp3250
g61
(dp3251
sg70
g3237
sg63
(lp3252
g56
(g57
g58
NtRp3253
(dp3254
g61
(dp3255
g69
I3
ssg70
g3249
sg63
(lp3256
S''
asbasbasbag56
(g72
g58
NtRp3257
(dp3258
g61
(dp3259
sg70
g3213
sg63
(lp3260
g56
(g77
g58
NtRp3261
(dp3262
g61
(dp3263
g81
g82
ssg70
g3257
sg63
(lp3264
g334
asbag56
(g77
g58
NtRp3265
(dp3266
g61
(dp3267
g88
g89
ssg70
g3257
sg63
(lp3268
S':'
asbag56
(g77
g58
NtRp3269
(dp3270
g61
(dp3271
sg70
g3257
sg63
(lp3272
g56
(g57
g58
NtRp3273
(dp3274
g61
(dp3275
g69
I3
ssg70
g3269
sg63
(lp3276
S''
asbasbasbag56
(g72
g58
NtRp3277
(dp3278
g61
(dp3279
sg70
g3213
sg63
(lp3280
g56
(g77
g58
NtRp3281
(dp3282
g61
(dp3283
g81
g82
ssg70
g3277
sg63
(lp3284
g355
asbag56
(g77
g58
NtRp3285
(dp3286
g61
(dp3287
g88
g89
ssg70
g3277
sg63
(lp3288
S':'
asbag56
(g77
g58
NtRp3289
(dp3290
g61
(dp3291
sg70
g3277
sg63
(lp3292
g56
(g57
g58
NtRp3293
(dp3294
g61
(dp3295
g69
I3
ssg70
g3289
sg63
(lp3296
S''
asbasbasbag56
(g72
g58
NtRp3297
(dp3298
g61
(dp3299
sg70
g3213
sg63
(lp3300
g56
(g77
g58
NtRp3301
(dp3302
g61
(dp3303
g81
g82
ssg70
g3297
sg63
(lp3304
g376
asbag56
(g77
g58
NtRp3305
(dp3306
g61
(dp3307
g88
g89
ssg70
g3297
sg63
(lp3308
S':'
asbag56
(g77
g58
NtRp3309
(dp3310
g61
(dp3311
sg70
g3297
sg63
(lp3312
g56
(g57
g58
NtRp3313
(dp3314
g61
(dp3315
g69
I3
ssg70
g3309
sg63
(lp3316
S''
asbasbasbag56
(g72
g58
NtRp3317
(dp3318
g61
(dp3319
sg70
g3213
sg63
(lp3320
g56
(g77
g58
NtRp3321
(dp3322
g61
(dp3323
g81
g82
ssg70
g3317
sg63
(lp3324
g397
asbag56
(g77
g58
NtRp3325
(dp3326
g61
(dp3327
g88
g89
ssg70
g3317
sg63
(lp3328
S':'
asbag56
(g77
g58
NtRp3329
(dp3330
g61
(dp3331
sg70
g3317
sg63
(lp3332
g56
(g57
g58
NtRp3333
(dp3334
g61
(dp3335
g69
I3
ssg70
g3329
sg63
(lp3336
S'/'
asbasbasbag56
(g72
g58
NtRp3337
(dp3338
g61
(dp3339
sg70
g3213
sg63
(lp3340
g56
(g77
g58
NtRp3341
(dp3342
g61
(dp3343
g81
g82
ssg70
g3337
sg63
(lp3344
g418
asbag56
(g77
g58
NtRp3345
(dp3346
g61
(dp3347
g88
g89
ssg70
g3337
sg63
(lp3348
S':'
asbag56
(g77
g58
NtRp3349
(dp3350
g61
(dp3351
sg70
g3337
sg63
(lp3352
g56
(g57
g58
NtRp3353
(dp3354
g61
(dp3355
g69
I3
ssg70
g3349
sg63
(lp3356
S''
asbasbasbag56
(g72
g58
NtRp3357
(dp3358
g61
(dp3359
sg70
g3213
sg63
(lp3360
g56
(g77
g58
NtRp3361
(dp3362
g61
(dp3363
g81
g82
ssg70
g3357
sg63
(lp3364
g439
asbag56
(g77
g58
NtRp3365
(dp3366
g61
(dp3367
g88
g89
ssg70
g3357
sg63
(lp3368
S':'
asbag56
(g77
g58
NtRp3369
(dp3370
g61
(dp3371
sg70
g3357
sg63
(lp3372
g56
(g57
g58
NtRp3373
(dp3374
g61
(dp3375
g69
I3
ssg70
g3369
sg63
(lp3376
S''
asbasbasbasbasbasbasbasbasbasbasbag56
(g72
g58
NtRp3377
(dp3378
g61
(dp3379
sg70
g3143
sg63
(lp3380
g56
(g77
g58
NtRp3381
(dp3382
g61
(dp3383
g81
g82
ssg70
g3377
sg63
(lp3384
S'files'
p3385
asbag56
(g77
g58
NtRp3386
(dp3387
g61
(dp3388
g88
g89
ssg70
g3377
sg63
(lp3389
S':'
asbag56
(g77
g58
NtRp3390
(dp3391
g61
(dp3392
sg70
g3377
sg63
(lp3393
g56
(g57
g58
NtRp3394
(dp3395
g61
(dp3396
g69
I5
ssg70
g3390
sg63
(lp3397
g56
(g65
g58
NtRp3398
(dp3399
g61
(dp3400
g69
I4
ssg70
Nsg63
(lp3401
sbasbasbasbag56
(g72
g58
NtRp3402
(dp3403
g61
(dp3404
sg70
g3143
sg63
(lp3405
g56
(g77
g58
NtRp3406
(dp3407
g61
(dp3408
g81
g82
ssg70
g3402
sg63
(lp3409
S'flash'
p3410
asbag56
(g77
g58
NtRp3411
(dp3412
g61
(dp3413
g88
g89
ssg70
g3402
sg63
(lp3414
S':'
asbag56
(g77
g58
NtRp3415
(dp3416
g61
(dp3417
sg70
g3402
sg63
(lp3418
g56
(g57
g58
NtRp3419
(dp3420
g61
(dp3421
g69
I5
ssg70
g3415
sg63
(lp3422
S''
asbasbasbag56
(g72
g58
NtRp3423
(dp3424
g61
(dp3425
sg70
g3143
sg63
(lp3426
g56
(g77
g58
NtRp3427
(dp3428
g61
(dp3429
g81
g82
ssg70
g3423
sg63
(lp3430
S'generic_patterns'
p3431
asbag56
(g77
g58
NtRp3432
(dp3433
g61
(dp3434
g88
g89
ssg70
g3423
sg63
(lp3435
S':'
asbag56
(g77
g58
NtRp3436
(dp3437
g61
(dp3438
sg70
g3423
sg63
(lp3439
g56
(g57
g58
NtRp3440
(dp3441
g61
(dp3442
g69
I5
ssg70
g3436
sg63
(lp3443
g56
(g65
g58
NtRp3444
(dp3445
g61
(dp3446
g69
I4
ssg70
Nsg63
(lp3447
g56
(g72
g58
NtRp3448
(dp3449
g61
(dp3450
sg70
g3444
sg63
(lp3451
g56
(g77
g58
NtRp3452
(dp3453
g61
(dp3454
sg70
g3448
sg63
(lp3455
g56
(g57
g58
NtRp3456
(dp3457
g61
(dp3458
g69
I4
ssg70
g3452
sg63
(lp3459
S'*'
asbasbasbasbasbasbasbag56
(g72
g58
NtRp3460
(dp3461
g61
(dp3462
sg70
g3143
sg63
(lp3463
g56
(g77
g58
NtRp3464
(dp3465
g61
(dp3466
g81
g82
ssg70
g3460
sg63
(lp3467
S'headers'
p3468
asbag56
(g77
g58
NtRp3469
(dp3470
g61
(dp3471
g88
g89
ssg70
g3460
sg63
(lp3472
S':'
asbag56
(g77
g58
NtRp3473
(dp3474
g61
(dp3475
sg70
g3460
sg63
(lp3476
g56
(g57
g58
NtRp3477
(dp3478
g61
(dp3479
g69
I5
ssg70
g3473
sg63
(lp3480
g56
(g65
g58
NtRp3481
(dp3482
g61
(dp3483
g69
I4
ssg70
Nsg63
(lp3484
g56
(g72
g58
NtRp3485
(dp3486
g61
(dp3487
sg70
g3481
sg63
(lp3488
g56
(g77
g58
NtRp3489
(dp3490
g61
(dp3491
g81
g82
ssg70
g3485
sg63
(lp3492
S'Cache-Control'
p3493
asbag56
(g77
g58
NtRp3494
(dp3495
g61
(dp3496
g88
g89
ssg70
g3485
sg63
(lp3497
S':'
asbag56
(g77
g58
NtRp3498
(dp3499
g61
(dp3500
sg70
g3485
sg63
(lp3501
g56
(g57
g58
NtRp3502
(dp3503
g61
(dp3504
g69
I4
ssg70
g3498
sg63
(lp3505
S'no-store, no-cache, must-revalidate, post-check=0, pre-check=0'
p3506
asbasbasbag56
(g72
g58
NtRp3507
(dp3508
g61
(dp3509
sg70
g3481
sg63
(lp3510
g56
(g77
g58
NtRp3511
(dp3512
g61
(dp3513
g81
g82
ssg70
g3507
sg63
(lp3514
S'Content-Type'
p3515
asbag56
(g77
g58
NtRp3516
(dp3517
g61
(dp3518
g88
g89
ssg70
g3507
sg63
(lp3519
S':'
asbag56
(g77
g58
NtRp3520
(dp3521
g61
(dp3522
sg70
g3507
sg63
(lp3523
g56
(g57
g58
NtRp3524
(dp3525
g61
(dp3526
g69
I4
ssg70
g3520
sg63
(lp3527
S'text/html; charset=utf-8'
p3528
asbasbasbag56
(g72
g58
NtRp3529
(dp3530
g61
(dp3531
sg70
g3481
sg63
(lp3532
g56
(g77
g58
NtRp3533
(dp3534
g61
(dp3535
g81
g82
ssg70
g3529
sg63
(lp3536
S'Expires'
p3537
asbag56
(g77
g58
NtRp3538
(dp3539
g61
(dp3540
g88
g89
ssg70
g3529
sg63
(lp3541
S':'
asbag56
(g77
g58
NtRp3542
(dp3543
g61
(dp3544
sg70
g3529
sg63
(lp3545
g56
(g57
g58
NtRp3546
(dp3547
g61
(dp3548
g69
I4
ssg70
g3542
sg63
(lp3549
S'Thu, 20 Oct 2011 22:17:52 GMT'
p3550
asbasbasbag56
(g72
g58
NtRp3551
(dp3552
g61
(dp3553
sg70
g3481
sg63
(lp3554
g56
(g77
g58
NtRp3555
(dp3556
g61
(dp3557
g81
g82
ssg70
g3551
sg63
(lp3558
S'Pragma'
p3559
asbag56
(g77
g58
NtRp3560
(dp3561
g61
(dp3562
g88
g89
ssg70
g3551
sg63
(lp3563
S':'
asbag56
(g77
g58
NtRp3564
(dp3565
g61
(dp3566
sg70
g3551
sg63
(lp3567
g56
(g57
g58
NtRp3568
(dp3569
g61
(dp3570
g69
I4
ssg70
g3564
sg63
(lp3571
S'no-cache'
p3572
asbasbasbag56
(g72
g58
NtRp3573
(dp3574
g61
(dp3575
sg70
g3481
sg63
(lp3576
g56
(g77
g58
NtRp3577
(dp3578
g61
(dp3579
g81
g82
ssg70
g3573
sg63
(lp3580
S'X-Powered-By'
p3581
asbag56
(g77
g58
NtRp3582
(dp3583
g61
(dp3584
g88
g89
ssg70
g3573
sg63
(lp3585
S':'
asbag56
(g77
g58
NtRp3586
(dp3587
g61
(dp3588
sg70
g3573
sg63
(lp3589
g56
(g57
g58
NtRp3590
(dp3591
g61
(dp3592
g69
I4
ssg70
g3586
sg63
(lp3593
S'web2py'
p3594
asbasbasbasbasbasbasbag56
(g72
g58
NtRp3595
(dp3596
g61
(dp3597
sg70
g3143
sg63
(lp3598
g56
(g77
g58
NtRp3599
(dp3600
g61
(dp3601
g81
g82
ssg70
g3595
sg63
(lp3602
S'menu'
p3603
asbag56
(g77
g58
NtRp3604
(dp3605
g61
(dp3606
g88
g89
ssg70
g3595
sg63
(lp3607
S':'
asbag56
(g77
g58
NtRp3608
(dp3609
g61
(dp3610
sg70
g3595
sg63
(lp3611
g56
(g57
g58
NtRp3612
(dp3613
g61
(dp3614
g69
I5
ssg70
g3608
sg63
(lp3615
g56
(g65
g58
NtRp3616
(dp3617
g61
(dp3618
g69
I4
ssg70
Nsg63
(lp3619
g56
(g72
g58
NtRp3620
(dp3621
g61
(dp3622
sg70
g3616
sg63
(lp3623
g56
(g77
g58
NtRp3624
(dp3625
g61
(dp3626
sg70
g3620
sg63
(lp3627
g56
(g57
g58
NtRp3628
(dp3629
g61
(dp3630
g69
I4
ssg70
g3624
sg63
(lp3631
g56
(g65
g58
NtRp3632
(dp3633
g61
(dp3634
g69
I3
ssg70
Nsg63
(lp3635
g56
(g72
g58
NtRp3636
(dp3637
g61
(dp3638
sg70
g3632
sg63
(lp3639
g56
(g77
g58
NtRp3640
(dp3641
g61
(dp3642
sg70
g3636
sg63
(lp3643
g56
(g57
g58
NtRp3644
(dp3645
g61
(dp3646
g69
I3
ssg70
g3640
sg63
(lp3647
cgluon.languages
lazyT_unpickle
p3648
(S't\x04\x00\x00\x00Home'
tRp3649
asbasbasbag56
(g72
g58
NtRp3650
(dp3651
g61
(dp3652
sg70
g3632
sg63
(lp3653
g56
(g77
g58
NtRp3654
(dp3655
g61
(dp3656
sg70
g3650
sg63
(lp3657
g56
(g57
g58
NtRp3658
(dp3659
g61
(dp3660
g69
I3
ssg70
g3654
sg63
(lp3661
g611
asbasbasbag56
(g72
g58
NtRp3662
(dp3663
g61
(dp3664
sg70
g3632
sg63
(lp3665
g56
(g77
g58
NtRp3666
(dp3667
g61
(dp3668
sg70
g3662
sg63
(lp3669
g56
(g57
g58
NtRp3670
(dp3671
g61
(dp3672
g69
I3
ssg70
g3666
sg63
(lp3673
S'/places/default/index.load'
p3674
asbasbasbag56
(g72
g58
NtRp3675
(dp3676
g61
(dp3677
sg70
g3632
sg63
(lp3678
g56
(g77
g58
NtRp3679
(dp3680
g61
(dp3681
sg70
g3675
sg63
(lp3682
g56
(g57
g58
NtRp3683
(dp3684
g61
(dp3685
g69
I3
ssg70
g3679
sg63
(lp3686
g56
(g65
g58
NtRp3687
(dp3688
g61
(dp3689
g69
I2
ssg70
Nsg63
(lp3690
sbasbasbasbasbasbasbasbag56
(g72
g58
NtRp3691
(dp3692
g61
(dp3693
sg70
g3616
sg63
(lp3694
g56
(g77
g58
NtRp3695
(dp3696
g61
(dp3697
sg70
g3691
sg63
(lp3698
g56
(g57
g58
NtRp3699
(dp3700
g61
(dp3701
g69
I4
ssg70
g3695
sg63
(lp3702
g56
(g65
g58
NtRp3703
(dp3704
g61
(dp3705
g69
I3
ssg70
Nsg63
(lp3706
g56
(g72
g58
NtRp3707
(dp3708
g61
(dp3709
sg70
g3703
sg63
(lp3710
g56
(g77
g58
NtRp3711
(dp3712
g61
(dp3713
sg70
g3707
sg63
(lp3714
g56
(g57
g58
NtRp3715
(dp3716
g61
(dp3717
g69
I3
ssg70
g3711
sg63
(lp3718
g3648
(S's\x08\x00\x00\x00This App'
tRp3719
asbasbasbag56
(g72
g58
NtRp3720
(dp3721
g61
(dp3722
sg70
g3703
sg63
(lp3723
g56
(g77
g58
NtRp3724
(dp3725
g61
(dp3726
sg70
g3720
sg63
(lp3727
g56
(g57
g58
NtRp3728
(dp3729
g61
(dp3730
g69
I3
ssg70
g3724
sg63
(lp3731
g611
asbasbasbag56
(g72
g58
NtRp3732
(dp3733
g61
(dp3734
sg70
g3703
sg63
(lp3735
g56
(g77
g58
NtRp3736
(dp3737
g61
(dp3738
sg70
g3732
sg63
(lp3739
g56
(g57
g58
NtRp3740
(dp3741
g61
(dp3742
g69
I3
ssg70
g3736
sg63
(lp3743
S'/admin/default/design/places.load'
p3744
asbasbasbag56
(g72
g58
NtRp3745
(dp3746
g61
(dp3747
sg70
g3703
sg63
(lp3748
g56
(g77
g58
NtRp3749
(dp3750
g61
(dp3751
sg70
g3745
sg63
(lp3752
g56
(g57
g58
NtRp3753
(dp3754
g61
(dp3755
g69
I3
ssg70
g3749
sg63
(lp3756
g56
(g65
g58
NtRp3757
(dp3758
g61
(dp3759
g69
I2
ssg70
Nsg63
(lp3760
g56
(g72
g58
NtRp3761
(dp3762
g61
(dp3763
sg70
g3757
sg63
(lp3764
g56
(g77
g58
NtRp3765
(dp3766
g61
(dp3767
sg70
g3761
sg63
(lp3768
g56
(g57
g58
NtRp3769
(dp3770
g61
(dp3771
g69
I2
ssg70
g3765
sg63
(lp3772
g56
(g65
g58
NtRp3773
(dp3774
g61
(dp3775
g69
I1
ssg70
Nsg63
(lp3776
g56
(g72
g58
NtRp3777
(dp3778
g61
(dp3779
sg70
g3773
sg63
(lp3780
g56
(g77
g58
NtRp3781
(dp3782
g61
(dp3783
sg70
g3777
sg63
(lp3784
g56
(g57
g58
NtRp3785
(dp3786
g61
(dp3787
g69
I1
ssg70
g3781
sg63
(lp3788
g3648
(S't\n\x00\x00\x00Controller'
tRp3789
asbasbasbag56
(g72
g58
NtRp3790
(dp3791
g61
(dp3792
sg70
g3773
sg63
(lp3793
g56
(g77
g58
NtRp3794
(dp3795
g61
(dp3796
sg70
g3790
sg63
(lp3797
g56
(g57
g58
NtRp3798
(dp3799
g61
(dp3800
g69
I1
ssg70
g3794
sg63
(lp3801
I00
asbasbasbag56
(g72
g58
NtRp3802
(dp3803
g61
(dp3804
sg70
g3773
sg63
(lp3805
g56
(g77
g58
NtRp3806
(dp3807
g61
(dp3808
sg70
g3802
sg63
(lp3809
g56
(g57
g58
NtRp3810
(dp3811
g61
(dp3812
g69
I1
ssg70
g3806
sg63
(lp3813
S'/admin/default/edit/places/controllers/default.py'
p3814
asbasbasbasbasbasbasbag56
(g72
g58
NtRp3815
(dp3816
g61
(dp3817
sg70
g3757
sg63
(lp3818
g56
(g77
g58
NtRp3819
(dp3820
g61
(dp3821
sg70
g3815
sg63
(lp3822
g56
(g57
g58
NtRp3823
(dp3824
g61
(dp3825
g69
I2
ssg70
g3819
sg63
(lp3826
g56
(g65
g58
NtRp3827
(dp3828
g61
(dp3829
g69
I1
ssg70
Nsg63
(lp3830
g56
(g72
g58
NtRp3831
(dp3832
g61
(dp3833
sg70
g3827
sg63
(lp3834
g56
(g77
g58
NtRp3835
(dp3836
g61
(dp3837
sg70
g3831
sg63
(lp3838
g56
(g57
g58
NtRp3839
(dp3840
g61
(dp3841
g69
I1
ssg70
g3835
sg63
(lp3842
g3648
(S't\x04\x00\x00\x00View'
tRp3843
asbasbasbag56
(g72
g58
NtRp3844
(dp3845
g61
(dp3846
sg70
g3827
sg63
(lp3847
g56
(g77
g58
NtRp3848
(dp3849
g61
(dp3850
sg70
g3844
sg63
(lp3851
g56
(g57
g58
NtRp3852
(dp3853
g61
(dp3854
g69
I1
ssg70
g3848
sg63
(lp3855
I00
asbasbasbag56
(g72
g58
NtRp3856
(dp3857
g61
(dp3858
sg70
g3827
sg63
(lp3859
g56
(g77
g58
NtRp3860
(dp3861
g61
(dp3862
sg70
g3856
sg63
(lp3863
g56
(g57
g58
NtRp3864
(dp3865
g61
(dp3866
g69
I1
ssg70
g3860
sg63
(lp3867
S'/admin/default/edit/places/views/default/index.load'
p3868
asbasbasbasbasbasbasbag56
(g72
g58
NtRp3869
(dp3870
g61
(dp3871
sg70
g3757
sg63
(lp3872
g56
(g77
g58
NtRp3873
(dp3874
g61
(dp3875
sg70
g3869
sg63
(lp3876
g56
(g57
g58
NtRp3877
(dp3878
g61
(dp3879
g69
I2
ssg70
g3873
sg63
(lp3880
g56
(g65
g58
NtRp3881
(dp3882
g61
(dp3883
g69
I1
ssg70
Nsg63
(lp3884
g56
(g72
g58
NtRp3885
(dp3886
g61
(dp3887
sg70
g3881
sg63
(lp3888
g56
(g77
g58
NtRp3889
(dp3890
g61
(dp3891
sg70
g3885
sg63
(lp3892
g56
(g57
g58
NtRp3893
(dp3894
g61
(dp3895
g69
I1
ssg70
g3889
sg63
(lp3896
g3648
(S't\x06\x00\x00\x00Layout'
tRp3897
asbasbasbag56
(g72
g58
NtRp3898
(dp3899
g61
(dp3900
sg70
g3881
sg63
(lp3901
g56
(g77
g58
NtRp3902
(dp3903
g61
(dp3904
sg70
g3898
sg63
(lp3905
g56
(g57
g58
NtRp3906
(dp3907
g61
(dp3908
g69
I1
ssg70
g3902
sg63
(lp3909
I00
asbasbasbag56
(g72
g58
NtRp3910
(dp3911
g61
(dp3912
sg70
g3881
sg63
(lp3913
g56
(g77
g58
NtRp3914
(dp3915
g61
(dp3916
sg70
g3910
sg63
(lp3917
g56
(g57
g58
NtRp3918
(dp3919
g61
(dp3920
g69
I1
ssg70
g3914
sg63
(lp3921
S'/admin/default/edit/places/views/layout.html'
p3922
asbasbasbasbasbasbasbag56
(g72
g58
NtRp3923
(dp3924
g61
(dp3925
sg70
g3757
sg63
(lp3926
g56
(g77
g58
NtRp3927
(dp3928
g61
(dp3929
sg70
g3923
sg63
(lp3930
g56
(g57
g58
NtRp3931
(dp3932
g61
(dp3933
g69
I2
ssg70
g3927
sg63
(lp3934
g56
(g65
g58
NtRp3935
(dp3936
g61
(dp3937
g69
I1
ssg70
Nsg63
(lp3938
g56
(g72
g58
NtRp3939
(dp3940
g61
(dp3941
sg70
g3935
sg63
(lp3942
g56
(g77
g58
NtRp3943
(dp3944
g61
(dp3945
sg70
g3939
sg63
(lp3946
g56
(g57
g58
NtRp3947
(dp3948
g61
(dp3949
g69
I1
ssg70
g3943
sg63
(lp3950
g3648
(S't\n\x00\x00\x00Stylesheet'
tRp3951
asbasbasbag56
(g72
g58
NtRp3952
(dp3953
g61
(dp3954
sg70
g3935
sg63
(lp3955
g56
(g77
g58
NtRp3956
(dp3957
g61
(dp3958
sg70
g3952
sg63
(lp3959
g56
(g57
g58
NtRp3960
(dp3961
g61
(dp3962
g69
I1
ssg70
g3956
sg63
(lp3963
I00
asbasbasbag56
(g72
g58
NtRp3964
(dp3965
g61
(dp3966
sg70
g3935
sg63
(lp3967
g56
(g77
g58
NtRp3968
(dp3969
g61
(dp3970
sg70
g3964
sg63
(lp3971
g56
(g57
g58
NtRp3972
(dp3973
g61
(dp3974
g69
I1
ssg70
g3968
sg63
(lp3975
S'/admin/default/edit/places/static/base.css'
p3976
asbasbasbasbasbasbasbag56
(g72
g58
NtRp3977
(dp3978
g61
(dp3979
sg70
g3757
sg63
(lp3980
g56
(g77
g58
NtRp3981
(dp3982
g61
(dp3983
sg70
g3977
sg63
(lp3984
g56
(g57
g58
NtRp3985
(dp3986
g61
(dp3987
g69
I2
ssg70
g3981
sg63
(lp3988
g56
(g65
g58
NtRp3989
(dp3990
g61
(dp3991
g69
I1
ssg70
Nsg63
(lp3992
g56
(g72
g58
NtRp3993
(dp3994
g61
(dp3995
sg70
g3989
sg63
(lp3996
g56
(g77
g58
NtRp3997
(dp3998
g61
(dp3999
sg70
g3993
sg63
(lp4000
g56
(g57
g58
NtRp4001
(dp4002
g61
(dp4003
g69
I1
ssg70
g3997
sg63
(lp4004
g3648
(S's\x08\x00\x00\x00DB Model'
tRp4005
asbasbasbag56
(g72
g58
NtRp4006
(dp4007
g61
(dp4008
sg70
g3989
sg63
(lp4009
g56
(g77
g58
NtRp4010
(dp4011
g61
(dp4012
sg70
g4006
sg63
(lp4013
g56
(g57
g58
NtRp4014
(dp4015
g61
(dp4016
g69
I1
ssg70
g4010
sg63
(lp4017
I00
asbasbasbag56
(g72
g58
NtRp4018
(dp4019
g61
(dp4020
sg70
g3989
sg63
(lp4021
g56
(g77
g58
NtRp4022
(dp4023
g61
(dp4024
sg70
g4018
sg63
(lp4025
g56
(g57
g58
NtRp4026
(dp4027
g61
(dp4028
g69
I1
ssg70
g4022
sg63
(lp4029
S'/admin/default/edit/places/models/db.py'
p4030
asbasbasbasbasbasbasbag56
(g72
g58
NtRp4031
(dp4032
g61
(dp4033
sg70
g3757
sg63
(lp4034
g56
(g77
g58
NtRp4035
(dp4036
g61
(dp4037
sg70
g4031
sg63
(lp4038
g56
(g57
g58
NtRp4039
(dp4040
g61
(dp4041
g69
I2
ssg70
g4035
sg63
(lp4042
g56
(g65
g58
NtRp4043
(dp4044
g61
(dp4045
g69
I1
ssg70
Nsg63
(lp4046
g56
(g72
g58
NtRp4047
(dp4048
g61
(dp4049
sg70
g4043
sg63
(lp4050
g56
(g77
g58
NtRp4051
(dp4052
g61
(dp4053
sg70
g4047
sg63
(lp4054
g56
(g57
g58
NtRp4055
(dp4056
g61
(dp4057
g69
I1
ssg70
g4051
sg63
(lp4058
g3648
(S's\n\x00\x00\x00Menu Model'
tRp4059
asbasbasbag56
(g72
g58
NtRp4060
(dp4061
g61
(dp4062
sg70
g4043
sg63
(lp4063
g56
(g77
g58
NtRp4064
(dp4065
g61
(dp4066
sg70
g4060
sg63
(lp4067
g56
(g57
g58
NtRp4068
(dp4069
g61
(dp4070
g69
I1
ssg70
g4064
sg63
(lp4071
I00
asbasbasbag56
(g72
g58
NtRp4072
(dp4073
g61
(dp4074
sg70
g4043
sg63
(lp4075
g56
(g77
g58
NtRp4076
(dp4077
g61
(dp4078
sg70
g4072
sg63
(lp4079
g56
(g57
g58
NtRp4080
(dp4081
g61
(dp4082
g69
I1
ssg70
g4076
sg63
(lp4083
S'/admin/default/edit/places/models/menu.py'
p4084
asbasbasbasbasbasbasbag56
(g72
g58
NtRp4085
(dp4086
g61
(dp4087
sg70
g3757
sg63
(lp4088
g56
(g77
g58
NtRp4089
(dp4090
g61
(dp4091
sg70
g4085
sg63
(lp4092
g56
(g57
g58
NtRp4093
(dp4094
g61
(dp4095
g69
I2
ssg70
g4089
sg63
(lp4096
g56
(g65
g58
NtRp4097
(dp4098
g61
(dp4099
g69
I1
ssg70
Nsg63
(lp4100
g56
(g72
g58
NtRp4101
(dp4102
g61
(dp4103
sg70
g4097
sg63
(lp4104
g56
(g77
g58
NtRp4105
(dp4106
g61
(dp4107
sg70
g4101
sg63
(lp4108
g56
(g57
g58
NtRp4109
(dp4110
g61
(dp4111
g69
I1
ssg70
g4105
sg63
(lp4112
g3648
(S't\x08\x00\x00\x00Database'
tRp4113
asbasbasbag56
(g72
g58
NtRp4114
(dp4115
g61
(dp4116
sg70
g4097
sg63
(lp4117
g56
(g77
g58
NtRp4118
(dp4119
g61
(dp4120
sg70
g4114
sg63
(lp4121
g56
(g57
g58
NtRp4122
(dp4123
g61
(dp4124
g69
I1
ssg70
g4118
sg63
(lp4125
I00
asbasbasbag56
(g72
g58
NtRp4126
(dp4127
g61
(dp4128
sg70
g4097
sg63
(lp4129
g56
(g77
g58
NtRp4130
(dp4131
g61
(dp4132
sg70
g4126
sg63
(lp4133
g56
(g57
g58
NtRp4134
(dp4135
g61
(dp4136
g69
I1
ssg70
g4130
sg63
(lp4137
S'/places/appadmin/index.load'
p4138
asbasbasbasbasbasbasbag56
(g72
g58
NtRp4139
(dp4140
g61
(dp4141
sg70
g3757
sg63
(lp4142
g56
(g77
g58
NtRp4143
(dp4144
g61
(dp4145
sg70
g4139
sg63
(lp4146
g56
(g57
g58
NtRp4147
(dp4148
g61
(dp4149
g69
I2
ssg70
g4143
sg63
(lp4150
g56
(g65
g58
NtRp4151
(dp4152
g61
(dp4153
g69
I1
ssg70
Nsg63
(lp4154
g56
(g72
g58
NtRp4155
(dp4156
g61
(dp4157
sg70
g4151
sg63
(lp4158
g56
(g77
g58
NtRp4159
(dp4160
g61
(dp4161
sg70
g4155
sg63
(lp4162
g56
(g57
g58
NtRp4163
(dp4164
g61
(dp4165
g69
I1
ssg70
g4159
sg63
(lp4166
g3648
(S't\x06\x00\x00\x00Errors'
tRp4167
asbasbasbag56
(g72
g58
NtRp4168
(dp4169
g61
(dp4170
sg70
g4151
sg63
(lp4171
g56
(g77
g58
NtRp4172
(dp4173
g61
(dp4174
sg70
g4168
sg63
(lp4175
g56
(g57
g58
NtRp4176
(dp4177
g61
(dp4178
g69
I1
ssg70
g4172
sg63
(lp4179
I00
asbasbasbag56
(g72
g58
NtRp4180
(dp4181
g61
(dp4182
sg70
g4151
sg63
(lp4183
g56
(g77
g58
NtRp4184
(dp4185
g61
(dp4186
sg70
g4180
sg63
(lp4187
g56
(g57
g58
NtRp4188
(dp4189
g61
(dp4190
g69
I1
ssg70
g4184
sg63
(lp4191
S'/admin/default/errors/places.load'
p4192
asbasbasbasbasbasbasbag56
(g72
g58
NtRp4193
(dp4194
g61
(dp4195
sg70
g3757
sg63
(lp4196
g56
(g77
g58
NtRp4197
(dp4198
g61
(dp4199
sg70
g4193
sg63
(lp4200
g56
(g57
g58
NtRp4201
(dp4202
g61
(dp4203
g69
I2
ssg70
g4197
sg63
(lp4204
g56
(g65
g58
NtRp4205
(dp4206
g61
(dp4207
g69
I1
ssg70
Nsg63
(lp4208
g56
(g72
g58
NtRp4209
(dp4210
g61
(dp4211
sg70
g4205
sg63
(lp4212
g56
(g77
g58
NtRp4213
(dp4214
g61
(dp4215
sg70
g4209
sg63
(lp4216
g56
(g57
g58
NtRp4217
(dp4218
g61
(dp4219
g69
I1
ssg70
g4213
sg63
(lp4220
g3648
(S't\x05\x00\x00\x00About'
tRp4221
asbasbasbag56
(g72
g58
NtRp4222
(dp4223
g61
(dp4224
sg70
g4205
sg63
(lp4225
g56
(g77
g58
NtRp4226
(dp4227
g61
(dp4228
sg70
g4222
sg63
(lp4229
g56
(g57
g58
NtRp4230
(dp4231
g61
(dp4232
g69
I1
ssg70
g4226
sg63
(lp4233
I00
asbasbasbag56
(g72
g58
NtRp4234
(dp4235
g61
(dp4236
sg70
g4205
sg63
(lp4237
g56
(g77
g58
NtRp4238
(dp4239
g61
(dp4240
sg70
g4234
sg63
(lp4241
g56
(g57
g58
NtRp4242
(dp4243
g61
(dp4244
g69
I1
ssg70
g4238
sg63
(lp4245
S'/admin/default/about/places.load'
p4246
asbasbasbasbasbasbasbasbasbasbasbasbasbasbasbag56
(g72
g58
NtRp4247
(dp4248
g61
(dp4249
sg70
g3616
sg63
(lp4250
g56
(g77
g58
NtRp4251
(dp4252
g61
(dp4253
sg70
g4247
sg63
(lp4254
g56
(g57
g58
NtRp4255
(dp4256
g61
(dp4257
g69
I4
ssg70
g4251
sg63
(lp4258
g56
(g65
g58
NtRp4259
(dp4260
g61
(dp4261
g69
I3
ssg70
Nsg63
(lp4262
g56
(g72
g58
NtRp4263
(dp4264
g61
(dp4265
sg70
g4259
sg63
(lp4266
g56
(g77
g58
NtRp4267
(dp4268
g61
(dp4269
sg70
g4263
sg63
(lp4270
g56
(g57
g58
NtRp4271
(dp4272
g61
(dp4273
g69
I3
ssg70
g4267
sg63
(lp4274
g3648
(S't\t\x00\x00\x00Resources'
tRp4275
asbasbasbag56
(g72
g58
NtRp4276
(dp4277
g61
(dp4278
sg70
g4259
sg63
(lp4279
g56
(g77
g58
NtRp4280
(dp4281
g61
(dp4282
sg70
g4276
sg63
(lp4283
g56
(g57
g58
NtRp4284
(dp4285
g61
(dp4286
g69
I3
ssg70
g4280
sg63
(lp4287
g611
asbasbasbag56
(g72
g58
NtRp4288
(dp4289
g61
(dp4290
sg70
g4259
sg63
(lp4291
g56
(g77
g58
NtRp4292
(dp4293
g61
(dp4294
sg70
g4288
sg63
(lp4295
g56
(g57
g58
NtRp4296
(dp4297
g61
(dp4298
g69
I3
ssg70
g4292
sg63
(lp4299
S'None'
p4300
asbasbasbag56
(g72
g58
NtRp4301
(dp4302
g61
(dp4303
sg70
g4259
sg63
(lp4304
g56
(g77
g58
NtRp4305
(dp4306
g61
(dp4307
sg70
g4301
sg63
(lp4308
g56
(g57
g58
NtRp4309
(dp4310
g61
(dp4311
g69
I3
ssg70
g4305
sg63
(lp4312
g56
(g65
g58
NtRp4313
(dp4314
g61
(dp4315
g69
I2
ssg70
Nsg63
(lp4316
g56
(g72
g58
NtRp4317
(dp4318
g61
(dp4319
sg70
g4313
sg63
(lp4320
g56
(g77
g58
NtRp4321
(dp4322
g61
(dp4323
sg70
g4317
sg63
(lp4324
g56
(g57
g58
NtRp4325
(dp4326
g61
(dp4327
g69
I2
ssg70
g4321
sg63
(lp4328
g56
(g65
g58
NtRp4329
(dp4330
g61
(dp4331
g69
I1
ssg70
Nsg63
(lp4332
g56
(g72
g58
NtRp4333
(dp4334
g61
(dp4335
sg70
g4329
sg63
(lp4336
g56
(g77
g58
NtRp4337
(dp4338
g61
(dp4339
sg70
g4333
sg63
(lp4340
g56
(g57
g58
NtRp4341
(dp4342
g61
(dp4343
g69
I1
ssg70
g4337
sg63
(lp4344
g3648
(S't\r\x00\x00\x00Documentation'
tRp4345
asbasbasbag56
(g72
g58
NtRp4346
(dp4347
g61
(dp4348
sg70
g4329
sg63
(lp4349
g56
(g77
g58
NtRp4350
(dp4351
g61
(dp4352
sg70
g4346
sg63
(lp4353
g56
(g57
g58
NtRp4354
(dp4355
g61
(dp4356
g69
I1
ssg70
g4350
sg63
(lp4357
I00
asbasbasbag56
(g72
g58
NtRp4358
(dp4359
g61
(dp4360
sg70
g4329
sg63
(lp4361
g56
(g77
g58
NtRp4362
(dp4363
g61
(dp4364
sg70
g4358
sg63
(lp4365
g56
(g57
g58
NtRp4366
(dp4367
g61
(dp4368
g69
I1
ssg70
g4362
sg63
(lp4369
S'http://www.web2py.com/book'
p4370
asbasbasbag56
(g72
g58
NtRp4371
(dp4372
g61
(dp4373
sg70
g4329
sg63
(lp4374
g56
(g77
g58
NtRp4375
(dp4376
g61
(dp4377
sg70
g4371
sg63
(lp4378
g56
(g57
g58
NtRp4379
(dp4380
g61
(dp4381
g69
I1
ssg70
g4375
sg63
(lp4382
(lp4383
(g3648
(S't\x07\x00\x00\x00Preface'
tRp4384
I00
S'http://www.web2py.com/book/default/chapter/00'
p4385
tp4386
a(g3648
(S't\x0c\x00\x00\x00Introduction'
tRp4387
I00
S'http://www.web2py.com/book/default/chapter/01'
p4388
tp4389
a(g3648
(S't\x06\x00\x00\x00Python'
tRp4390
I00
S'http://www.web2py.com/book/default/chapter/02'
p4391
tp4392
a(g3648
(S't\x08\x00\x00\x00Overview'
tRp4393
I00
S'http://www.web2py.com/book/default/chapter/03'
p4394
tp4395
a(g3648
(S's\x08\x00\x00\x00The Core'
tRp4396
I00
S'http://www.web2py.com/book/default/chapter/04'
p4397
tp4398
a(g3648
(S's\t\x00\x00\x00The Views'
tRp4399
I00
S'http://www.web2py.com/book/default/chapter/05'
p4400
tp4401
a(g3648
(S't\x08\x00\x00\x00Database'
tRp4402
I00
S'http://www.web2py.com/book/default/chapter/06'
p4403
tp4404
a(g3648
(S's\x14\x00\x00\x00Forms and Validators'
tRp4405
I00
S'http://www.web2py.com/book/default/chapter/07'
p4406
tp4407
a(g3648
(S's\x0e\x00\x00\x00Access Control'
tRp4408
I00
S'http://www.web2py.com/book/default/chapter/08'
p4409
tp4410
a(g3648
(S't\x08\x00\x00\x00Services'
tRp4411
I00
S'http://www.web2py.com/book/default/chapter/09'
p4412
tp4413
a(g3648
(S's\x0c\x00\x00\x00Ajax Recipes'
tRp4414
I00
S'http://www.web2py.com/book/default/chapter/10'
p4415
tp4416
a(g3648
(S's\x12\x00\x00\x00Deployment Recipes'
tRp4417
I00
S'http://www.web2py.com/book/default/chapter/11'
p4418
tp4419
a(g3648
(S's\r\x00\x00\x00Other Recipes'
tRp4420
I00
S'http://www.web2py.com/book/default/chapter/12'
p4421
tp4422
a(g3648
(S's\r\x00\x00\x00Buy this book'
tRp4423
I00
S'http://stores.lulu.com/web2py'
p4424
tp4425
aasbasbasbasbasbasbasbag56
(g72
g58
NtRp4426
(dp4427
g61
(dp4428
sg70
g4313
sg63
(lp4429
g56
(g77
g58
NtRp4430
(dp4431
g61
(dp4432
sg70
g4426
sg63
(lp4433
g56
(g57
g58
NtRp4434
(dp4435
g61
(dp4436
g69
I2
ssg70
g4430
sg63
(lp4437
g56
(g65
g58
NtRp4438
(dp4439
g61
(dp4440
g69
I1
ssg70
Nsg63
(lp4441
g56
(g72
g58
NtRp4442
(dp4443
g61
(dp4444
sg70
g4438
sg63
(lp4445
g56
(g77
g58
NtRp4446
(dp4447
g61
(dp4448
sg70
g4442
sg63
(lp4449
g56
(g57
g58
NtRp4450
(dp4451
g61
(dp4452
g69
I1
ssg70
g4446
sg63
(lp4453
g3648
(S't\t\x00\x00\x00Community'
tRp4454
asbasbasbag56
(g72
g58
NtRp4455
(dp4456
g61
(dp4457
sg70
g4438
sg63
(lp4458
g56
(g77
g58
NtRp4459
(dp4460
g61
(dp4461
sg70
g4455
sg63
(lp4462
g56
(g57
g58
NtRp4463
(dp4464
g61
(dp4465
g69
I1
ssg70
g4459
sg63
(lp4466
I00
asbasbasbag56
(g72
g58
NtRp4467
(dp4468
g61
(dp4469
sg70
g4438
sg63
(lp4470
g56
(g77
g58
NtRp4471
(dp4472
g61
(dp4473
sg70
g4467
sg63
(lp4474
g56
(g57
g58
NtRp4475
(dp4476
g61
(dp4477
g69
I1
ssg70
g4471
sg63
(lp4478
Nasbasbasbag56
(g72
g58
NtRp4479
(dp4480
g61
(dp4481
sg70
g4438
sg63
(lp4482
g56
(g77
g58
NtRp4483
(dp4484
g61
(dp4485
sg70
g4479
sg63
(lp4486
g56
(g57
g58
NtRp4487
(dp4488
g61
(dp4489
g69
I1
ssg70
g4483
sg63
(lp4490
(lp4491
(g3648
(S't\x06\x00\x00\x00Groups'
tRp4492
I00
S'http://www.web2py.com/examples/default/usergroups'
p4493
tp4494
a(g3648
(S't\x07\x00\x00\x00Twitter'
tRp4495
I00
S'http://twitter.com/web2py'
p4496
tp4497
a(g3648
(S's\t\x00\x00\x00Live chat'
tRp4498
I00
S'http://mibbit.com/?channel=%23web2py&server=irc.mibbit.net'
p4499
tp4500
a(g3648
(S's\n\x00\x00\x00User Voice'
tRp4501
I00
S'http://web2py.uservoice.com/'
p4502
tp4503
aasbasbasbasbasbasbasbag56
(g72
g58
NtRp4504
(dp4505
g61
(dp4506
sg70
g4313
sg63
(lp4507
g56
(g77
g58
NtRp4508
(dp4509
g61
(dp4510
sg70
g4504
sg63
(lp4511
g56
(g57
g58
NtRp4512
(dp4513
g61
(dp4514
g69
I2
ssg70
g4508
sg63
(lp4515
g56
(g65
g58
NtRp4516
(dp4517
g61
(dp4518
g69
I1
ssg70
Nsg63
(lp4519
g56
(g72
g58
NtRp4520
(dp4521
g61
(dp4522
sg70
g4516
sg63
(lp4523
g56
(g77
g58
NtRp4524
(dp4525
g61
(dp4526
sg70
g4520
sg63
(lp4527
g56
(g57
g58
NtRp4528
(dp4529
g61
(dp4530
g69
I1
ssg70
g4524
sg63
(lp4531
g3648
(S't\x06\x00\x00\x00Web2py'
tRp4532
asbasbasbag56
(g72
g58
NtRp4533
(dp4534
g61
(dp4535
sg70
g4516
sg63
(lp4536
g56
(g77
g58
NtRp4537
(dp4538
g61
(dp4539
sg70
g4533
sg63
(lp4540
g56
(g57
g58
NtRp4541
(dp4542
g61
(dp4543
g69
I1
ssg70
g4537
sg63
(lp4544
I00
asbasbasbag56
(g72
g58
NtRp4545
(dp4546
g61
(dp4547
sg70
g4516
sg63
(lp4548
g56
(g77
g58
NtRp4549
(dp4550
g61
(dp4551
sg70
g4545
sg63
(lp4552
g56
(g57
g58
NtRp4553
(dp4554
g61
(dp4555
g69
I1
ssg70
g4549
sg63
(lp4556
S'http://www.web2py.com'
p4557
asbasbasbag56
(g72
g58
NtRp4558
(dp4559
g61
(dp4560
sg70
g4516
sg63
(lp4561
g56
(g77
g58
NtRp4562
(dp4563
g61
(dp4564
sg70
g4558
sg63
(lp4565
g56
(g57
g58
NtRp4566
(dp4567
g61
(dp4568
g69
I1
ssg70
g4562
sg63
(lp4569
(lp4570
(g3648
(S't\x08\x00\x00\x00Download'
tRp4571
I00
S'http://www.web2py.com/examples/default/download'
p4572
tp4573
a(g3648
(S't\x07\x00\x00\x00Support'
tRp4574
I00
S'http://www.web2py.com/examples/default/support'
p4575
tp4576
a(g3648
(S's\x0e\x00\x00\x00Quick Examples'
tRp4577
I00
S'http://web2py.com/examples/default/examples'
p4578
tp4579
a(g3648
(S't\x03\x00\x00\x00FAQ'
tRp4580
I00
S'http://web2py.com/AlterEgo'
p4581
tp4582
a(g3648
(S's\x11\x00\x00\x00Free Applications'
tRp4583
I00
S'http://web2py.com/appliances'
p4584
tp4585
a(g3648
(S't\x07\x00\x00\x00Plugins'
tRp4586
I00
S'http://web2py.com/plugins'
p4587
tp4588
a(g3648
(S't\x07\x00\x00\x00Recipes'
tRp4589
I00
S'http://web2pyslices.com/'
p4590
tp4591
a(g3648
(S't\x04\x00\x00\x00Demo'
tRp4592
I00
S'http://web2py.com/demo_admin'
p4593
tp4594
a(g3648
(S't\x08\x00\x00\x00Semantic'
tRp4595
I00
S'http://web2py.com/semantic'
p4596
tp4597
a(g3648
(S't\x07\x00\x00\x00Layouts'
tRp4598
I00
S'http://web2py.com/layouts'
p4599
tp4600
a(g3648
(S't\x06\x00\x00\x00Videos'
tRp4601
I00
S'http://www.web2py.com/examples/default/videos/'
p4602
tp4603
aasbasbasbasbasbasbasbasbasbasbasbasbasbasbasbasbasbasbasbag56
(g72
g58
NtRp4604
(dp4605
g61
(dp4606
sg70
g3143
sg63
(lp4607
g56
(g77
g58
NtRp4608
(dp4609
g61
(dp4610
g81
g82
ssg70
g4604
sg63
(lp4611
S'meta'
p4612
asbag56
(g77
g58
NtRp4613
(dp4614
g61
(dp4615
g88
g89
ssg70
g4604
sg63
(lp4616
S':'
asbag56
(g77
g58
NtRp4617
(dp4618
g61
(dp4619
sg70
g4604
sg63
(lp4620
g56
(g57
g58
NtRp4621
(dp4622
g61
(dp4623
g69
I5
ssg70
g4617
sg63
(lp4624
g56
(g65
g58
NtRp4625
(dp4626
g61
(dp4627
g69
I4
ssg70
Nsg63
(lp4628
g56
(g72
g58
NtRp4629
(dp4630
g61
(dp4631
sg70
g4625
sg63
(lp4632
g56
(g77
g58
NtRp4633
(dp4634
g61
(dp4635
g81
g82
ssg70
g4629
sg63
(lp4636
S'author'
p4637
asbag56
(g77
g58
NtRp4638
(dp4639
g61
(dp4640
g88
g89
ssg70
g4629
sg63
(lp4641
S':'
asbag56
(g77
g58
NtRp4642
(dp4643
g61
(dp4644
sg70
g4629
sg63
(lp4645
g56
(g57
g58
NtRp4646
(dp4647
g61
(dp4648
g69
I4
ssg70
g4642
sg63
(lp4649
S'Your Name <you@example.com>'
p4650
asbasbasbag56
(g72
g58
NtRp4651
(dp4652
g61
(dp4653
sg70
g4625
sg63
(lp4654
g56
(g77
g58
NtRp4655
(dp4656
g61
(dp4657
g81
g82
ssg70
g4651
sg63
(lp4658
S'copyright'
p4659
asbag56
(g77
g58
NtRp4660
(dp4661
g61
(dp4662
g88
g89
ssg70
g4651
sg63
(lp4663
S':'
asbag56
(g77
g58
NtRp4664
(dp4665
g61
(dp4666
sg70
g4651
sg63
(lp4667
g56
(g57
g58
NtRp4668
(dp4669
g61
(dp4670
g69
I4
ssg70
g4664
sg63
(lp4671
S'Copyright 2011'
p4672
asbasbasbag56
(g72
g58
NtRp4673
(dp4674
g61
(dp4675
sg70
g4625
sg63
(lp4676
g56
(g77
g58
NtRp4677
(dp4678
g61
(dp4679
g81
g82
ssg70
g4673
sg63
(lp4680
S'description'
p4681
asbag56
(g77
g58
NtRp4682
(dp4683
g61
(dp4684
g88
g89
ssg70
g4673
sg63
(lp4685
S':'
asbag56
(g77
g58
NtRp4686
(dp4687
g61
(dp4688
sg70
g4673
sg63
(lp4689
g56
(g57
g58
NtRp4690
(dp4691
g61
(dp4692
g69
I4
ssg70
g4686
sg63
(lp4693
S'a cool new app'
p4694
asbasbasbag56
(g72
g58
NtRp4695
(dp4696
g61
(dp4697
sg70
g4625
sg63
(lp4698
g56
(g77
g58
NtRp4699
(dp4700
g61
(dp4701
g81
g82
ssg70
g4695
sg63
(lp4702
S'generator'
p4703
asbag56
(g77
g58
NtRp4704
(dp4705
g61
(dp4706
g88
g89
ssg70
g4695
sg63
(lp4707
S':'
asbag56
(g77
g58
NtRp4708
(dp4709
g61
(dp4710
sg70
g4695
sg63
(lp4711
g56
(g57
g58
NtRp4712
(dp4713
g61
(dp4714
g69
I4
ssg70
g4708
sg63
(lp4715
S'Web2py Web Framework'
p4716
asbasbasbag56
(g72
g58
NtRp4717
(dp4718
g61
(dp4719
sg70
g4625
sg63
(lp4720
g56
(g77
g58
NtRp4721
(dp4722
g61
(dp4723
g81
g82
ssg70
g4717
sg63
(lp4724
S'keywords'
p4725
asbag56
(g77
g58
NtRp4726
(dp4727
g61
(dp4728
g88
g89
ssg70
g4717
sg63
(lp4729
S':'
asbag56
(g77
g58
NtRp4730
(dp4731
g61
(dp4732
sg70
g4717
sg63
(lp4733
g56
(g57
g58
NtRp4734
(dp4735
g61
(dp4736
g69
I4
ssg70
g4730
sg63
(lp4737
S'web2py, python, framework'
p4738
asbasbasbasbasbasbasbag56
(g72
g58
NtRp4739
(dp4740
g61
(dp4741
sg70
g3143
sg63
(lp4742
g56
(g77
g58
NtRp4743
(dp4744
g61
(dp4745
g81
g82
ssg70
g4739
sg63
(lp4746
S'postprocessing'
p4747
asbag56
(g77
g58
NtRp4748
(dp4749
g61
(dp4750
g88
g89
ssg70
g4739
sg63
(lp4751
S':'
asbag56
(g77
g58
NtRp4752
(dp4753
g61
(dp4754
sg70
g4739
sg63
(lp4755
g56
(g57
g58
NtRp4756
(dp4757
g61
(dp4758
g69
I5
ssg70
g4752
sg63
(lp4759
g56
(g65
g58
NtRp4760
(dp4761
g61
(dp4762
g69
I4
ssg70
Nsg63
(lp4763
sbasbasbasbag56
(g72
g58
NtRp4764
(dp4765
g61
(dp4766
sg70
g3143
sg63
(lp4767
g56
(g77
g58
NtRp4768
(dp4769
g61
(dp4770
g81
g82
ssg70
g4764
sg63
(lp4771
S'session_file'
p4772
asbag56
(g77
g58
NtRp4773
(dp4774
g61
(dp4775
g88
g89
ssg70
g4764
sg63
(lp4776
S':'
asbag56
(g77
g58
NtRp4777
(dp4778
g61
(dp4779
sg70
g4764
sg63
(lp4780
g56
(g57
g58
NtRp4781
(dp4782
g61
(dp4783
g69
I5
ssg70
g4777
sg63
(lp4784
S"<open file '/home/ian/web2py/applications/places/sessions/127.0.0.1-4360be36-8b97-4cc9-b03c-0a430ecf4db1', mode 'rb+' at 0x3463ed0>"
p4785
asbasbasbag56
(g72
g58
NtRp4786
(dp4787
g61
(dp4788
sg70
g3143
sg63
(lp4789
g56
(g77
g58
NtRp4790
(dp4791
g61
(dp4792
g81
g82
ssg70
g4786
sg63
(lp4793
S'session_filename'
p4794
asbag56
(g77
g58
NtRp4795
(dp4796
g61
(dp4797
g88
g89
ssg70
g4786
sg63
(lp4798
S':'
asbag56
(g77
g58
NtRp4799
(dp4800
g61
(dp4801
sg70
g4786
sg63
(lp4802
g56
(g57
g58
NtRp4803
(dp4804
g61
(dp4805
g69
I5
ssg70
g4799
sg63
(lp4806
S'/home/ian/web2py/applications/places/sessions/127.0.0.1-4360be36-8b97-4cc9-b03c-0a430ecf4db1'
p4807
asbasbasbag56
(g72
g58
NtRp4808
(dp4809
g61
(dp4810
sg70
g3143
sg63
(lp4811
g56
(g77
g58
NtRp4812
(dp4813
g61
(dp4814
g81
g82
ssg70
g4808
sg63
(lp4815
S'session_id'
p4816
asbag56
(g77
g58
NtRp4817
(dp4818
g61
(dp4819
g88
g89
ssg70
g4808
sg63
(lp4820
S':'
asbag56
(g77
g58
NtRp4821
(dp4822
g61
(dp4823
sg70
g4808
sg63
(lp4824
g56
(g57
g58
NtRp4825
(dp4826
g61
(dp4827
g69
I5
ssg70
g4821
sg63
(lp4828
S'127.0.0.1-4360be36-8b97-4cc9-b03c-0a430ecf4db1'
p4829
asbasbasbag56
(g72
g58
NtRp4830
(dp4831
g61
(dp4832
sg70
g3143
sg63
(lp4833
g56
(g77
g58
NtRp4834
(dp4835
g61
(dp4836
g81
g82
ssg70
g4830
sg63
(lp4837
S'session_id_name'
p4838
asbag56
(g77
g58
NtRp4839
(dp4840
g61
(dp4841
g88
g89
ssg70
g4830
sg63
(lp4842
S':'
asbag56
(g77
g58
NtRp4843
(dp4844
g61
(dp4845
sg70
g4830
sg63
(lp4846
g56
(g57
g58
NtRp4847
(dp4848
g61
(dp4849
g69
I5
ssg70
g4843
sg63
(lp4850
g3200
asbasbasbag56
(g72
g58
NtRp4851
(dp4852
g61
(dp4853
sg70
g3143
sg63
(lp4854
g56
(g77
g58
NtRp4855
(dp4856
g61
(dp4857
g81
g82
ssg70
g4851
sg63
(lp4858
S'session_locked'
p4859
asbag56
(g77
g58
NtRp4860
(dp4861
g61
(dp4862
g88
g89
ssg70
g4851
sg63
(lp4863
S':'
asbag56
(g77
g58
NtRp4864
(dp4865
g61
(dp4866
sg70
g4851
sg63
(lp4867
g56
(g57
g58
NtRp4868
(dp4869
g61
(dp4870
g69
I5
ssg70
g4864
sg63
(lp4871
g99
asbasbasbag56
(g72
g58
NtRp4872
(dp4873
g61
(dp4874
sg70
g3143
sg63
(lp4875
g56
(g77
g58
NtRp4876
(dp4877
g61
(dp4878
g81
g82
ssg70
g4872
sg63
(lp4879
S'session_new'
p4880
asbag56
(g77
g58
NtRp4881
(dp4882
g61
(dp4883
g88
g89
ssg70
g4872
sg63
(lp4884
S':'
asbag56
(g77
g58
NtRp4885
(dp4886
g61
(dp4887
sg70
g4872
sg63
(lp4888
g56
(g57
g58
NtRp4889
(dp4890
g61
(dp4891
g69
I5
ssg70
g4885
sg63
(lp4892
g611
asbasbasbag56
(g72
g58
NtRp4893
(dp4894
g61
(dp4895
sg70
g3143
sg63
(lp4896
g56
(g77
g58
NtRp4897
(dp4898
g61
(dp4899
g81
g82
ssg70
g4893
sg63
(lp4900
S'status'
p4901
asbag56
(g77
g58
NtRp4902
(dp4903
g61
(dp4904
g88
g89
ssg70
g4893
sg63
(lp4905
S':'
asbag56
(g77
g58
NtRp4906
(dp4907
g61
(dp4908
sg70
g4893
sg63
(lp4909
g56
(g57
g58
NtRp4910
(dp4911
g61
(dp4912
g69
I5
ssg70
g4906
sg63
(lp4913
S'200'
p4914
asbasbasbag56
(g72
g58
NtRp4915
(dp4916
g61
(dp4917
sg70
g3143
sg63
(lp4918
g56
(g77
g58
NtRp4919
(dp4920
g61
(dp4921
g81
g82
ssg70
g4915
sg63
(lp4922
S'subtitle'
p4923
asbag56
(g77
g58
NtRp4924
(dp4925
g61
(dp4926
g88
g89
ssg70
g4915
sg63
(lp4927
S':'
asbag56
(g77
g58
NtRp4928
(dp4929
g61
(dp4930
sg70
g4915
sg63
(lp4931
g56
(g57
g58
NtRp4932
(dp4933
g61
(dp4934
g69
I5
ssg70
g4928
sg63
(lp4935
g3648
(S's\r\x00\x00\x00customize me!'
tRp4936
asbasbasbag56
(g72
g58
NtRp4937
(dp4938
g61
(dp4939
sg70
g3143
sg63
(lp4940
g56
(g77
g58
NtRp4941
(dp4942
g61
(dp4943
g81
g82
ssg70
g4937
sg63
(lp4944
S'title'
p4945
asbag56
(g77
g58
NtRp4946
(dp4947
g61
(dp4948
g88
g89
ssg70
g4937
sg63
(lp4949
S':'
asbag56
(g77
g58
NtRp4950
(dp4951
g61
(dp4952
sg70
g4937
sg63
(lp4953
g56
(g57
g58
NtRp4954
(dp4955
g61
(dp4956
g69
I5
ssg70
g4950
sg63
(lp4957
g121
asbasbasbag56
(g72
g58
NtRp4958
(dp4959
g61
(dp4960
sg70
g3143
sg63
(lp4961
g56
(g77
g58
NtRp4962
(dp4963
g61
(dp4964
g81
g82
ssg70
g4958
sg63
(lp4965
g2038
asbag56
(g77
g58
NtRp4966
(dp4967
g61
(dp4968
g88
g89
ssg70
g4958
sg63
(lp4969
S':'
asbag56
(g77
g58
NtRp4970
(dp4971
g61
(dp4972
sg70
g4958
sg63
(lp4973
g56
(g57
g58
NtRp4974
(dp4975
g61
(dp4976
g69
I5
ssg70
g4970
sg63
(lp4977
g2051
asbasbasbag56
(g72
g58
NtRp4978
(dp4979
g61
(dp4980
sg70
g3143
sg63
(lp4981
g56
(g77
g58
NtRp4982
(dp4983
g61
(dp4984
g81
g82
ssg70
g4978
sg63
(lp4985
S'view'
p4986
asbag56
(g77
g58
NtRp4987
(dp4988
g61
(dp4989
g88
g89
ssg70
g4978
sg63
(lp4990
S':'
asbag56
(g77
g58
NtRp4991
(dp4992
g61
(dp4993
sg70
g4978
sg63
(lp4994
g56
(g57
g58
NtRp4995
(dp4996
g61
(dp4997
g69
I5
ssg70
g4991
sg63
(lp4998
S'default/index.load'
p4999
asbasbasbasbasbsS'locals'
p5000
(dp5001
S'Service'
p5002
S"<class 'gluon.tools.Service'>"
p5003
sS'OBJECT'
p5004
S"<class 'gluon.html.OBJECT'>"
p5005
sS'SQLDB'
p5006
S"<class 'gluon.dal.DAL'>"
p5007
sg2815
S"<Storage {'_auth_next': '/places/default/index',...-4d31-a35c-204cb3dc4151', 'the_view': 'kitchen'}>"
p5008
sS'LINK'
p5009
S"<class 'gluon.html.LINK'>"
p5010
sS'BR'
p5011
S"<class 'gluon.html.BR'>"
p5012
sS'local_import'
p5013
S'<function <lambda>>'
p5014
sS'OPTGROUP'
p5015
S"<class 'gluon.html.OPTGROUP'>"
p5016
sS'PRE'
p5017
S"<class 'gluon.html.PRE'>"
p5018
sS'IS_INT_IN_RANGE'
p5019
S"<class 'gluon.validators.IS_INT_IN_RANGE'>"
p5020
sS'IS_LOWER'
p5021
S"<class 'gluon.validators.IS_LOWER'>"
p5022
sS'IS_STRONG'
p5023
S"<class 'gluon.validators.IS_STRONG'>"
p5024
sS'cache'
p5025
S'<gluon.cache.Cache object>'
p5026
sS'IS_IN_DB'
p5027
S"<class 'gluon.validators.IS_IN_DB'>"
p5028
sS'TAG'
p5029
S'<gluon.html.__TAG__ object>'
p5030
sS'SQLField'
p5031
S"<class 'gluon.dal.Field'>"
p5032
sS'mail'
p5033
S'<gluon.tools.Mail object>'
p5034
sS'BODY'
p5035
S"<class 'gluon.html.BODY'>"
p5036
sS'IS_DATE_IN_RANGE'
p5037
S"<class 'gluon.validators.IS_DATE_IN_RANGE'>"
p5038
sS'TH'
p5039
S"<class 'gluon.html.TH'>"
p5040
sS'URL'
p5041
S'<function URL>'
p5042
sS'__file__'
p5043
S"'/home/ian/web2py/applications/places/views/default/index.load'"
p5044
sS'db'
p5045
S"<DAL {'auth_event': <Table {'origin': <gluon.dal..., 'id': <gluon.dal.Field object at 0x3c97e50>}>}>"
p5046
sS'auth'
p5047
S'<gluon.tools.Auth object>'
p5048
sS'P'
S"<class 'gluon.html.P'>"
p5049
sS'TFOOT'
p5050
S"<class 'gluon.html.TFOOT'>"
p5051
sS'XHTML'
p5052
S"<class 'gluon.html.XHTML'>"
p5053
sS'ON'
p5054
g99
sS'OL'
p5055
S"<class 'gluon.html.OL'>"
p5056
sS'TEXTAREA'
p5057
S"<class 'gluon.html.TEXTAREA'>"
p5058
sS'MENU'
p5059
S"<class 'gluon.html.MENU'>"
p5060
sS'LOAD'
p5061
S'<gluon.compileapp.LoadFactory object>'
p5062
sS'CODE'
p5063
S"<class 'gluon.html.CODE'>"
p5064
sS'HTTP'
p5065
S"<class 'gluon.http.HTTP'>"
p5066
sS'HR'
p5067
S"<class 'gluon.html.HR'>"
p5068
sS'IS_DATETIME'
p5069
S"<class 'gluon.validators.IS_DATETIME'>"
p5070
sS'HEAD'
p5071
S"<class 'gluon.html.HEAD'>"
p5072
sS'LABEL'
p5073
S"<class 'gluon.html.LABEL'>"
p5074
sS'CLEANUP'
p5075
S"<class 'gluon.validators.CLEANUP'>"
p5076
sS'plugins'
p5077
S'<gluon.tools.PluginManager object>'
p5078
sS'SELECT'
p5079
S"<class 'gluon.html.SELECT'>"
p5080
sS'use_janrain'
p5081
S'<function use_janrain>'
p5082
sS'CENTER'
p5083
S"<class 'gluon.html.CENTER'>"
p5084
sS'prettydate'
p5085
S'<function prettydate>'
p5086
sS'Crud'
p5087
S"<class 'gluon.tools.Crud'>"
p5088
sS'Auth'
p5089
S"<class 'gluon.tools.Auth'>"
p5090
sS'__builtins__'
p5091
S"{'ArithmeticError': <type 'exceptions.ArithmeticError'>, 'AssertionError': <type 'exceptions.AssertionError'>, 'AttributeError': <type 'exceptions.AttributeError'>, 'BaseException': <type 'exceptions.BaseException'>, 'BufferError': <type 'exceptions.BufferError'>, 'BytesWarning': <type 'exceptions.BytesWarning'>, 'DeprecationWarning': <type 'exceptions.DeprecationWarning'>, 'EOFError': <type 'exceptions.EOFError'>, 'Ellipsis': Ellipsis, 'EnvironmentError': <type 'exceptions.EnvironmentError'>, ...}"
p5092
sS'HTML'
p5093
S"<class 'gluon.html.HTML'>"
p5094
sS'SQLFORM'
p5095
S"<class 'gluon.sqlhtml.SQLFORM'>"
p5096
sS'EM'
p5097
S"<class 'gluon.html.EM'>"
p5098
sS'redirect'
p5099
S'<function redirect>'
p5100
sS'FIELDSET'
p5101
S"<class 'gluon.html.FIELDSET'>"
p5102
sS'IS_EQUAL_TO'
p5103
S"<class 'gluon.validators.IS_EQUAL_TO'>"
p5104
sS'embed64'
p5105
S'<function embed64>'
p5106
sS'IS_LIST_OF'
p5107
S"<class 'gluon.validators.IS_LIST_OF'>"
p5108
sS'INPUT'
p5109
S"<class 'gluon.html.INPUT'>"
p5110
sS'EMBED'
p5111
S"<class 'gluon.html.EMBED'>"
p5112
sS'_'
S'<function _>'
p5113
sS'FORM'
p5114
S"<class 'gluon.html.FORM'>"
p5115
sS'H2'
p5116
S"<class 'gluon.html.H2'>"
p5117
sS'H3'
p5118
S"<class 'gluon.html.H3'>"
p5119
sS'BUTTON'
p5120
S"<class 'gluon.html.BUTTON'>"
p5121
sS'H1'
p5122
S"<class 'gluon.html.H1'>"
p5123
sS'H6'
p5124
S"<class 'gluon.html.H6'>"
p5125
sS'H4'
p5126
S"<class 'gluon.html.H4'>"
p5127
sS'H5'
p5128
S"<class 'gluon.html.H5'>"
p5129
sS'UL'
p5130
S"<class 'gluon.html.UL'>"
p5131
sS'IS_UPPER'
p5132
S"<class 'gluon.validators.IS_UPPER'>"
p5133
sS'xmlescape'
p5134
S'<function xmlescape>'
p5135
sS'IS_TIME'
p5136
S"<class 'gluon.validators.IS_TIME'>"
p5137
sS'OPTION'
p5138
S"<class 'gluon.html.OPTION'>"
p5139
sS'TITLE'
p5140
S"<class 'gluon.html.TITLE'>"
p5141
sS'CRYPT'
p5142
S"<class 'gluon.validators.CRYPT'>"
p5143
sS'IS_EMPTY_OR'
p5144
S"<class 'gluon.validators.IS_EMPTY_OR'>"
p5145
sS'MARKMIN'
p5146
S"<class 'gluon.html.MARKMIN'>"
p5147
sS'COL'
p5148
S"<class 'gluon.html.COL'>"
p5149
sS'service'
p5150
S'<gluon.tools.Service object>'
p5151
sS'SCRIPT'
p5152
S"<class 'gluon.html.SCRIPT'>"
p5153
sS'TABLE'
p5154
S"<class 'gluon.html.TABLE'>"
p5155
sS'IS_IPV4'
p5156
S"<class 'gluon.validators.IS_IPV4'>"
p5157
sS'IS_LENGTH'
p5158
S"<class 'gluon.validators.IS_LENGTH'>"
p5159
sS'XML'
p5160
S"<class 'gluon.html.XML'>"
p5161
sS'B'
S"<class 'gluon.html.B'>"
p5162
sS'IMG'
p5163
S"<class 'gluon.html.IMG'>"
p5164
sS'SQLTABLE'
p5165
S"<class 'gluon.sqlhtml.SQLTABLE'>"
p5166
sS'IS_MATCH'
p5167
S"<class 'gluon.validators.IS_MATCH'>"
p5168
sS'IS_ALPHANUMERIC'
p5169
S"<class 'gluon.validators.IS_ALPHANUMERIC'>"
p5170
sS'link'
p5171
S"<Row {'tags': [1], 'update_record': <function <l...elete_record': <function <lambda> at 0x318d488>}>"
p5172
sS'SPAN'
p5173
S"<class 'gluon.html.SPAN'>"
p5174
sS'IS_SLUG'
p5175
S"<class 'gluon.validators.IS_SLUG'>"
p5176
sS'BEAUTIFY'
p5177
S"<class 'gluon.html.BEAUTIFY'>"
p5178
sS'META'
p5179
S"<class 'gluon.html.META'>"
p5180
sS'IS_DATE'
p5181
S"<class 'gluon.validators.IS_DATE'>"
p5182
sS'IS_EMAIL'
p5183
S"<class 'gluon.validators.IS_EMAIL'>"
p5184
sS'links'
p5185
S'<gluon.dal.Rows object>'
p5186
sS'IS_NOT_EMPTY'
p5187
S"<class 'gluon.validators.IS_NOT_EMPTY'>"
p5188
sS'IS_FLOAT_IN_RANGE'
p5189
S"<class 'gluon.validators.IS_FLOAT_IN_RANGE'>"
p5190
sS'TBODY'
p5191
S"<class 'gluon.html.TBODY'>"
p5192
sS'CAT'
p5193
S"<class 'gluon.html.CAT'>"
p5194
sS'Field'
p5195
S"<class 'gluon.dal.Field'>"
p5196
sS'DIV'
p5197
S"<class 'gluon.html.DIV'>"
p5198
sS'LEGEND'
p5199
S"<class 'gluon.html.LEGEND'>"
p5200
sS'COLGROUP'
p5201
S"<class 'gluon.html.COLGROUP'>"
p5202
sS'DAL'
p5203
S"<class 'gluon.dal.DAL'>"
p5204
sS'TT'
p5205
S"<class 'gluon.html.TT'>"
p5206
sS'TR'
p5207
S"<class 'gluon.html.TR'>"
p5208
sS'LI'
p5209
S"<class 'gluon.html.LI'>"
p5210
sS'IFRAME'
p5211
S"<class 'gluon.html.IFRAME'>"
p5212
sS'TD'
p5213
S"<class 'gluon.html.TD'>"
p5214
sS'PluginManager'
p5215
S"<class 'gluon.tools.PluginManager'>"
p5216
sS'IS_URL'
p5217
S"<class 'gluon.validators.IS_URL'>"
p5218
sS'A'
S"<class 'gluon.html.A'>"
p5219
sS'STYLE'
p5220
S"<class 'gluon.html.STYLE'>"
p5221
sS'IS_DATETIME_IN_RANGE'
p5222
S"<class 'gluon.validators.IS_DATETIME_IN_RANGE'>"
p5223
sS'IS_IMAGE'
p5224
S"<class 'gluon.validators.IS_IMAGE'>"
p5225
sS'I'
S"<class 'gluon.html.I'>"
p5226
sS'crud'
p5227
S'<gluon.tools.Crud object>'
p5228
sS'IS_NOT_IN_DB'
p5229
S"<class 'gluon.validators.IS_NOT_IN_DB'>"
p5230
sg3138
S"<Storage {'body': <cStringIO.StringO object at 0...da> at 0x3c8d2a8>, 'view': 'default/index.load'}>"
p5231
sS'THEAD'
p5232
S"<class 'gluon.html.THEAD'>"
p5233
sS'IS_NULL_OR'
p5234
S"<class 'gluon.validators.IS_EMPTY_OR'>"
p5235
sg55
S"<Storage {'body': <cStringIO.StringO object at 0..._vars': <Storage {}>, 'post_vars': <Storage {}>}>"
p5236
sS'IS_EXPR'
p5237
S"<class 'gluon.validators.IS_EXPR'>"
p5238
sS'T'
S'<gluon.languages.translator object>'
p5239
sS'IS_IN_SET'
p5240
S"<class 'gluon.validators.IS_IN_SET'>"
p5241
sS'IS_UPLOAD_FILENAME'
p5242
S"<class 'gluon.validators.IS_UPLOAD_FILENAME'>"
p5243
sS'IS_DECIMAL_IN_RANGE'
p5244
S"<class 'gluon.validators.IS_DECIMAL_IN_RANGE'>"
p5245
sssS'traceback'
p5246
S'Traceback (most recent call last):\n  File "/home/ian/web2py/gluon/restricted.py", line 194, in restricted\n    exec ccode in environment\n  File "/home/ian/web2py/applications/places/views/default/index.load", line 5, in <module>\n    {{=A(\'edit\', _href=URL(\'default\', \'edit.load\', args=[link.id]), cid=\'modal_frame\', _class=\'edit_link\')}}\nAttributeError: \'Rows\' object has no attribute \'link_image\'\n'
p5247
s.