(dp1
S'output'
p2
S''
sS'layer'
p3
S'/home/ian/web2py/applications/places/views/default/index.html'
p4
sS'code'
p5
S'left_sidebar_enabled=right_sidebar_enabled=False\nresponse.write(\'\\n\', escape=False)\nresponse.write(\'<!DOCTYPE html>\\n<html lang="\', escape=False)\nresponse.write(T.accepted_language or \'en\')\nresponse.write(\'" class="no-js"><!-- no-js need it for modernzr -->\\n  <head>\\n    \\n    <meta charset="utf-8" />        \\n    <!-- www.phpied.com/conditional-comments-block-downloads/ -->\\n    <!--[if IE]><![endif]-->    \\n    <!-- Always force latest IE rendering engine \\n     (even in intranet) & Chrome Frame \\n     Remove this if you use the .htaccess -->\\n    <meta http-equiv="X-UA-Compatible" content="IE=edge,chrome=1">\\n    \\n    <title>\', escape=False)\nresponse.write(response.title or request.application)\nresponse.write(\'</title>\\n    \\n    <!-- http://dev.w3.org/html5/markup/meta.name.html -->\\n    <meta name="application-name" content="\', escape=False)\nresponse.write(request.application)\nresponse.write(\'" /> \\n    \\n    <!-- Speaking of Google, don\\\'t forget to set your site up: \\n     http://google.com/webmasters -->\\n    <meta name="google-site-verification" content="" />\\n    \\n    <!--  Mobile Viewport Fix\\n      j.mp/mobileviewport & davidbcalhoun.com/2010/viewport-metatag \\n      device-width: Occupy full width of the screen in its current orientation\\n      initial-scale = 1.0 retains dimensions instead of zooming out if page height > device height\\n      maximum-scale = 1.0 retains dimensions instead of zooming in if page width < device width\\n      -->\\n    <meta name="viewport" content="width=device-width, initial-scale=1.0, maximum-scale=1.0">\\n    \\n    <!-- Place favicon.ico and apple-touch-icon.png in the root of your domain and delete these references -->\\n    <link rel="shortcut icon" href="\', escape=False)\nresponse.write(URL(\'static\',\'favicon.ico\'))\nresponse.write(\'" type="image/x-icon">\\n    <link rel="apple-touch-icon" href="\', escape=False)\nresponse.write(URL(\'static\',\'favicon.png\'))\nresponse.write(\'">\\n\\n    <!-- For the less-enabled mobile browsers like Opera Mini -->\\n    <link rel="stylesheet" media="handheld" href="\', escape=False)\nresponse.write(URL(\'static\',\'css/handheld.css\'))\nresponse.write(\'">\\n    \\n    <!-- All JavaScript at the bottom, except for Modernizr which enables HTML5 elements & feature detects -->\\n    <script src="\', escape=False)\nresponse.write(URL(\'static\',\'js/modernizr-1.7.min.js\'))\nresponse.write(\'"></script>\\n    \\n    \', escape=False)\n#------  require CSS and JS files for this page (read info in base.css) ------\nresponse.write(\'\\n    \', escape=False)\nresponse.files.append(URL(\'static\',\'css/base.css\'))\nresponse.write(\'\\n    \', escape=False)\nresponse.files.append(URL(\'static\',\'css/superfish.css\'))\nresponse.write(\'\\n    \', escape=False)\nresponse.files.append(URL(\'static\',\'js/superfish.js\'))\nresponse.write(\'\\n    \', escape=False)\n#------ include web2py specific js code (jquery, calendar, form stuff) ------\nresponse.write(\'\\n    \', escape=False)\nresponse.files.insert(0,URL(\'static\',\'js/jquery.js\'))\nresponse.files.insert(1,URL(\'static\',\'css/anytime.css\'))\nresponse.files.insert(2,URL(\'static\',\'js/anytime.js\'))\nresponse.include_meta()\nresponse.include_files()\nresponse.write(\'\\n<script type="text/javascript"><!--\\n    // These variables are used by the web2py_ajax_init function in web2py_ajax.js (which is loaded below).\\n    var w2p_ajax_confirm_message = "\', escape=False)\nresponse.write(T(\'Are you sure you want to delete this object?\'))\nresponse.write(\'";\\n    var w2p_ajax_date_format = "\', escape=False)\nresponse.write(T(\'%Y-%m-%d\'))\nresponse.write(\'";\\n    var w2p_ajax_datetime_format = "\', escape=False)\nresponse.write(T(\'%Y-%m-%d %H:%M:%S\'))\nresponse.write(\'";\\n    //--></script>\\n    <script src="\', escape=False)\nresponse.write(URL(\'static\',\'js/web2py_ajax.js\'))\nresponse.write(\'" type="text/javascript"></script>\\n\', escape=False)\nresponse.write(\'\\n\\n    \', escape=False)\n#using sidebars need to know what sidebar you want to use\n#prior of using it, because of static width size of content, you can use\n#left_sidebar, right_sidebar, both or none (False left and right)\nleft_sidebar_enabled = globals().get(\'left_sidebar_enabled\',False)\nright_sidebar_enabled = globals().get(\'right_sidebar_enabled\',False)\nif left_sidebar_enabled and right_sidebar_enabled: width_content=\'63%\'\nelif left_sidebar_enabled != right_sidebar_enabled: width_content=\'740px\'\nelse: width_content=\'100%\'\nif left_sidebar_enabled: left_sidebar_style = \'style="display: block;"\'\nelse: left_sidebar_style = \'style="display: none;"\'\nif right_sidebar_enabled: right_sidebar_style = \'style="display: block;"\'\nelse: right_sidebar_style = \'style="display: none;"\'\nstyle_content = \'style="width: %s"\' % width_content\nresponse.write(\'\\n    \\n    <!--use html5shiv to let IE see new html entities and give them block style so that they are treated properly--> \\n    <!--[if IE]>\\n        <script src="http://html5shiv.googlecode.com/svn/trunk/html5.js"></script>\\n    <![endif]-->\\n    <style>\\n      article, aside, details, figcaption, figure, footer, header,\\n      hgroup, menu, nav, section { display: block; }\\n    </style>\\n      \\n    \\n  </head>\\n  \\n  <!-- paulirish.com/2008/conditional-stylesheets-vs-css-hacks-answer-neither/ -->  \\n  <!--[if lt IE 7 ]> <body class="ie6"> <![endif]-->\\n  <!--[if IE 7 ]>    <body class="ie7"> <![endif]-->\\n  <!--[if IE 8 ]>    <body class="ie8"> <![endif]-->\\n  <!--[if IE 9 ]>    <body class="ie9"> <![endif]-->\\n  <!--[if (gt IE 9)|!(IE)]><!--> <body> <!--<![endif]-->\\n    \\n    <div class="flash">\', escape=False)\nresponse.write(response.flash or \'\')\nresponse.write(\'</div> <!-- notification div -->                           \\n    \\n    <header>\\n        \\n      \', escape=False)\nresponse.write(\' <!-- this is default header -->\\n      \', escape=False)\ntry:\n    response.write(auth.navbar(action=URL(\'default\',\'user\')))\nexcept:pass\nresponse.write(\'               \\n      <h1 id="appname">\', escape=False)\nresponse.write(A(request.application.capitalize(), _href=URL(\'default\', \'index\')))\nresponse.write(\'</h1>\\n      <div style="clear: both;"></div><!-- Clear the divs -->\\n      \', escape=False)\nresponse.write(\'                \\n                             \\n    </header>\\n    \\n    <div id="page" class="\', escape=False)\nresponse.write(request.controller)\nresponse.write(\' \', escape=False)\nresponse.write(request.function)\nresponse.write(\'">    \\n\\n      \', escape=False)\nif left_sidebar_enabled:\n    response.write(\'\\n          <div id="left_sidebar" \', escape=False)\n    response.write(XML(left_sidebar_style))\n    response.write(\' >\\n            <div style="padding: 4px;">\\n          \', escape=False)\n    response.write(\'New Left Sidebar Content\', escape=False)\n    response.write(\'       \\n            </div>\\n          </div><!-- left_sidebar -->\\n      \', escape=False)\n    pass\nresponse.write(\'\\n\\n      <!-- content of other views-->\\n      \', escape=False)\nresponse.write("\\n\\n<ul id=\'menu\' class=\'clearfix\'>\\n", escape=False)\nfor tag in db(db.tags).select():\n    response.write(\'\\n\\n\', escape=False)\n    response.write(LI(A(tag.tag, _href=URL(\'index.load\', vars=(\'the_view:tag.tag\')), cid="links")))\n    response.write(\'\\n\\n\', escape=False)\n    pass\nresponse.write(\'\\n\', escape=False)\nresponse.write(LI(A(\'+\', _href=URL(\'create.load\'))))\nresponse.write(\'\\n</ul>\\n<section id="links">\\n\\n\', escape=False)\nresponse.write(LOAD(\'index.load\', ajax=True))\nresponse.write(\'\\n\\n</section>\\n\\n\', escape=False)\n#=BEAUTIFY(response._vars)\nresponse.write(\'\\n\\n\', escape=False)\nresponse.write(\'\\n\', escape=False)\nresponse.write(\'\\n\', escape=False)\nresponse.write(\' \\n      <!-- content -->\\n\\n      \', escape=False)\nif right_sidebar_enabled:\n    response.write(\'\\n          <div id="right_sidebar" \', escape=False)\n    response.write(XML(right_sidebar_style))\n    response.write(\' >\\n            <div style="padding: 4px;">\\n              \', escape=False)\n    response.write(\'New Right Sidebar Content\', escape=False)\n    response.write(\'\\n            </div>\\n          </div><!-- right_sidebar -->\\n      \', escape=False)\n    pass\nresponse.write(\'\\n       \\n      <div style="clear: both;"></div><!-- Clear the divs -->                         \\n    \\n    </div><!--page-->\\n    \\n    <footer>\\n      \', escape=False)\nresponse.write(\' <!-- this is default footer -->\\n      <a href="http://www.web2py.com/" >\\n        <img src="\', escape=False)\nresponse.write(URL(\'static\',\'images/poweredby.png\'))\nresponse.write(\'"/>\\n      </a>\\n      \', escape=False)\nresponse.write(T(\'Copyright\'))\nresponse.write(\' &#169; Ian W. Scott 2011 (licensed under GPL 3.0)               \\n      <div style="clear: both;"></div><!-- Clear the divs -->\\n      \', escape=False)\nresponse.write(\'\\n    </footer>           \\n\\n\\t<div id=\\\'modal_frame\\\'></div>\\n\\n    <!--[if lt IE 7 ]>\\n    <script src="\', escape=False)\nresponse.write(URL(\'static\',\'js/dd_belatedpng.js\'))\nresponse.write(\'"></script>\\n    <script> DD_belatedPNG.fix(\\\'img, .png_bg\\\'); //fix any <img> or .png_bg background-images </script>\\n    <![endif]-->\\n    \\n    <!-- asynchronous google analytics: mathiasbynens.be/notes/async-analytics-snippet \\n     change the UA-XXXXX-X to be your site\\\'s ID -->\\n    <!--   \\n       <script>\\n         var _gaq = [[\\\'_setAccount\\\', \\\'UA-XXXXX-X\\\'], [\\\'_trackPageview\\\']];\\n         (function(d, t) {\\n         var g = d.createElement(t),\\n         s = d.getElementsByTagName(t)[0];\\n         g.async = true;\\n         g.src = \\\'//www.google-analytics.com/ga.js\\\';\\n         s.parentNode.insertBefore(g, s);\\n         })(document, \\\'script\\\');\\n       </script>\\n       -->    \\n  </body>\\n</html>\\n\', escape=False)'
p6
sS'snapshot'
p7
(dp8
S'exception'
p9
(dp10
S'__hash__'
p11
S"<method-wrapper '__hash__' of exceptions.AttributeError object>"
p12
sS'__setattr__'
p13
S"<method-wrapper '__setattr__' of exceptions.AttributeError object>"
p14
sS'__reduce_ex__'
p15
S'<built-in method __reduce_ex__ of exceptions.AttributeError object>'
p16
sS'__getslice__'
p17
S"<method-wrapper '__getslice__' of exceptions.AttributeError object>"
p18
sS'__getitem__'
p19
S"<method-wrapper '__getitem__' of exceptions.AttributeError object>"
p20
sS'__setstate__'
p21
S'<built-in method __setstate__ of exceptions.AttributeError object>'
p22
sS'args'
p23
S'("\'str\' object has no attribute \'has_key\'",)'
p24
sS'__reduce__'
p25
S'<built-in method __reduce__ of exceptions.AttributeError object>'
p26
sS'__str__'
p27
S"<method-wrapper '__str__' of exceptions.AttributeError object>"
p28
sS'__format__'
p29
S'<built-in method __format__ of exceptions.AttributeError object>'
p30
sS'__getattribute__'
p31
S"<method-wrapper '__getattribute__' of exceptions.AttributeError object>"
p32
sS'__class__'
p33
S"<type 'exceptions.AttributeError'>"
p34
sS'__unicode__'
p35
S'<built-in method __unicode__ of exceptions.AttributeError object>'
p36
sS'__delattr__'
p37
S"<method-wrapper '__delattr__' of exceptions.AttributeError object>"
p38
sS'__subclasshook__'
p39
S'<built-in method __subclasshook__ of type object>'
p40
sS'__repr__'
p41
S"<method-wrapper '__repr__' of exceptions.AttributeError object>"
p42
sS'__dict__'
p43
S'{}'
p44
sS'__sizeof__'
p45
S'<built-in method __sizeof__ of exceptions.AttributeError object>'
p46
sS'__doc__'
p47
S"'Attribute not found.'"
p48
sS'__init__'
p49
S"<method-wrapper '__init__' of exceptions.AttributeError object>"
p50
sS'__new__'
p51
S'<built-in method __new__ of type object>'
p52
ssS'evalue'
p53
S"'str' object has no attribute 'has_key'"
p54
sS'request'
p55
ccopy_reg
_reconstructor
p56
(cgluon.html
BEAUTIFY
p57
c__builtin__
object
p58
NtRp59
(dp60
S'attributes'
p61
(dp62
sS'components'
p63
(lp64
g56
(cgluon.html
TABLE
p65
g58
NtRp66
(dp67
g61
(dp68
S'level'
p69
I5
ssS'parent'
p70
Nsg63
(lp71
g56
(cgluon.html
TR
p72
g58
NtRp73
(dp74
g61
(dp75
sg70
g66
sg63
(lp76
g56
(cgluon.html
TD
p77
g58
NtRp78
(dp79
g61
(dp80
S'_style'
p81
S'font-weight:bold;'
p82
ssg70
g73
sg63
(lp83
S'ajax'
p84
asbag56
(g77
g58
NtRp85
(dp86
g61
(dp87
S'_valign'
p88
S'top'
p89
ssg70
g73
sg63
(lp90
S':'
asbag56
(g77
g58
NtRp91
(dp92
g61
(dp93
sg70
g73
sg63
(lp94
g56
(g57
g58
NtRp95
(dp96
g61
(dp97
g69
I5
ssg70
g91
sg63
(lp98
S'False'
p99
asbasbasbag56
(g72
g58
NtRp100
(dp101
g61
(dp102
sg70
g66
sg63
(lp103
g56
(g77
g58
NtRp104
(dp105
g61
(dp106
g81
g82
ssg70
g100
sg63
(lp107
S'application'
p108
asbag56
(g77
g58
NtRp109
(dp110
g61
(dp111
g88
g89
ssg70
g100
sg63
(lp112
S':'
asbag56
(g77
g58
NtRp113
(dp114
g61
(dp115
sg70
g100
sg63
(lp116
g56
(g57
g58
NtRp117
(dp118
g61
(dp119
g69
I5
ssg70
g113
sg63
(lp120
S'places'
p121
asbasbasbag56
(g72
g58
NtRp122
(dp123
g61
(dp124
sg70
g66
sg63
(lp125
g56
(g77
g58
NtRp126
(dp127
g61
(dp128
g81
g82
ssg70
g122
sg63
(lp129
g23
asbag56
(g77
g58
NtRp130
(dp131
g61
(dp132
g88
g89
ssg70
g122
sg63
(lp133
S':'
asbag56
(g77
g58
NtRp134
(dp135
g61
(dp136
sg70
g122
sg63
(lp137
g56
(g57
g58
NtRp138
(dp139
g61
(dp140
g69
I5
ssg70
g134
sg63
(lp141
g56
(g65
g58
NtRp142
(dp143
g61
(dp144
g69
I4
ssg70
Nsg63
(lp145
sbasbasbasbag56
(g72
g58
NtRp146
(dp147
g61
(dp148
sg70
g66
sg63
(lp149
g56
(g77
g58
NtRp150
(dp151
g61
(dp152
g81
g82
ssg70
g146
sg63
(lp153
S'body'
p154
asbag56
(g77
g58
NtRp155
(dp156
g61
(dp157
g88
g89
ssg70
g146
sg63
(lp158
S':'
asbag56
(g77
g58
NtRp159
(dp160
g61
(dp161
sg70
g146
sg63
(lp162
g56
(g57
g58
NtRp163
(dp164
g61
(dp165
g69
I5
ssg70
g159
sg63
(lp166
S'<cStringIO.StringO object at 0x40fe6c0>'
p167
asbasbasbag56
(g72
g58
NtRp168
(dp169
g61
(dp170
sg70
g66
sg63
(lp171
g56
(g77
g58
NtRp172
(dp173
g61
(dp174
g81
g82
ssg70
g168
sg63
(lp175
S'client'
p176
asbag56
(g77
g58
NtRp177
(dp178
g61
(dp179
g88
g89
ssg70
g168
sg63
(lp180
S':'
asbag56
(g77
g58
NtRp181
(dp182
g61
(dp183
sg70
g168
sg63
(lp184
g56
(g57
g58
NtRp185
(dp186
g61
(dp187
g69
I5
ssg70
g181
sg63
(lp188
S'127.0.0.1'
p189
asbasbasbag56
(g72
g58
NtRp190
(dp191
g61
(dp192
sg70
g66
sg63
(lp193
g56
(g77
g58
NtRp194
(dp195
g61
(dp196
g81
g82
ssg70
g190
sg63
(lp197
S'controller'
p198
asbag56
(g77
g58
NtRp199
(dp200
g61
(dp201
g88
g89
ssg70
g190
sg63
(lp202
S':'
asbag56
(g77
g58
NtRp203
(dp204
g61
(dp205
sg70
g190
sg63
(lp206
g56
(g57
g58
NtRp207
(dp208
g61
(dp209
g69
I5
ssg70
g203
sg63
(lp210
S'default'
p211
asbasbasbag56
(g72
g58
NtRp212
(dp213
g61
(dp214
sg70
g66
sg63
(lp215
g56
(g77
g58
NtRp216
(dp217
g61
(dp218
g81
g82
ssg70
g212
sg63
(lp219
S'cookies'
p220
asbag56
(g77
g58
NtRp221
(dp222
g61
(dp223
g88
g89
ssg70
g212
sg63
(lp224
S':'
asbag56
(g77
g58
NtRp225
(dp226
g61
(dp227
sg70
g212
sg63
(lp228
g56
(g57
g58
NtRp229
(dp230
g61
(dp231
g69
I5
ssg70
g225
sg63
(lp232
g56
(g65
g58
NtRp233
(dp234
g61
(dp235
g69
I4
ssg70
Nsg63
(lp236
g56
(g72
g58
NtRp237
(dp238
g61
(dp239
sg70
g233
sg63
(lp240
g56
(g77
g58
NtRp241
(dp242
g61
(dp243
g81
g82
ssg70
g237
sg63
(lp244
S'session_id_admin'
p245
asbag56
(g77
g58
NtRp246
(dp247
g61
(dp248
g88
g89
ssg70
g237
sg63
(lp249
S':'
asbag56
(g77
g58
NtRp250
(dp251
g61
(dp252
sg70
g237
sg63
(lp253
g56
(g57
g58
NtRp254
(dp255
g61
(dp256
g69
I4
ssg70
g250
sg63
(lp257
g56
(g65
g58
NtRp258
(dp259
g61
(dp260
g69
I3
ssg70
Nsg63
(lp261
g56
(g72
g58
NtRp262
(dp263
g61
(dp264
sg70
g258
sg63
(lp265
g56
(g77
g58
NtRp266
(dp267
g61
(dp268
g81
g82
ssg70
g262
sg63
(lp269
S'comment'
p270
asbag56
(g77
g58
NtRp271
(dp272
g61
(dp273
g88
g89
ssg70
g262
sg63
(lp274
S':'
asbag56
(g77
g58
NtRp275
(dp276
g61
(dp277
sg70
g262
sg63
(lp278
g56
(g57
g58
NtRp279
(dp280
g61
(dp281
g69
I3
ssg70
g275
sg63
(lp282
S''
asbasbasbag56
(g72
g58
NtRp283
(dp284
g61
(dp285
sg70
g258
sg63
(lp286
g56
(g77
g58
NtRp287
(dp288
g61
(dp289
g81
g82
ssg70
g283
sg63
(lp290
S'domain'
p291
asbag56
(g77
g58
NtRp292
(dp293
g61
(dp294
g88
g89
ssg70
g283
sg63
(lp295
S':'
asbag56
(g77
g58
NtRp296
(dp297
g61
(dp298
sg70
g283
sg63
(lp299
g56
(g57
g58
NtRp300
(dp301
g61
(dp302
g69
I3
ssg70
g296
sg63
(lp303
S''
asbasbasbag56
(g72
g58
NtRp304
(dp305
g61
(dp306
sg70
g258
sg63
(lp307
g56
(g77
g58
NtRp308
(dp309
g61
(dp310
g81
g82
ssg70
g304
sg63
(lp311
S'expires'
p312
asbag56
(g77
g58
NtRp313
(dp314
g61
(dp315
g88
g89
ssg70
g304
sg63
(lp316
S':'
asbag56
(g77
g58
NtRp317
(dp318
g61
(dp319
sg70
g304
sg63
(lp320
g56
(g57
g58
NtRp321
(dp322
g61
(dp323
g69
I3
ssg70
g317
sg63
(lp324
S''
asbasbasbag56
(g72
g58
NtRp325
(dp326
g61
(dp327
sg70
g258
sg63
(lp328
g56
(g77
g58
NtRp329
(dp330
g61
(dp331
g81
g82
ssg70
g325
sg63
(lp332
S'httponly'
p333
asbag56
(g77
g58
NtRp334
(dp335
g61
(dp336
g88
g89
ssg70
g325
sg63
(lp337
S':'
asbag56
(g77
g58
NtRp338
(dp339
g61
(dp340
sg70
g325
sg63
(lp341
g56
(g57
g58
NtRp342
(dp343
g61
(dp344
g69
I3
ssg70
g338
sg63
(lp345
S''
asbasbasbag56
(g72
g58
NtRp346
(dp347
g61
(dp348
sg70
g258
sg63
(lp349
g56
(g77
g58
NtRp350
(dp351
g61
(dp352
g81
g82
ssg70
g346
sg63
(lp353
S'max-age'
p354
asbag56
(g77
g58
NtRp355
(dp356
g61
(dp357
g88
g89
ssg70
g346
sg63
(lp358
S':'
asbag56
(g77
g58
NtRp359
(dp360
g61
(dp361
sg70
g346
sg63
(lp362
g56
(g57
g58
NtRp363
(dp364
g61
(dp365
g69
I3
ssg70
g359
sg63
(lp366
S''
asbasbasbag56
(g72
g58
NtRp367
(dp368
g61
(dp369
sg70
g258
sg63
(lp370
g56
(g77
g58
NtRp371
(dp372
g61
(dp373
g81
g82
ssg70
g367
sg63
(lp374
S'path'
p375
asbag56
(g77
g58
NtRp376
(dp377
g61
(dp378
g88
g89
ssg70
g367
sg63
(lp379
S':'
asbag56
(g77
g58
NtRp380
(dp381
g61
(dp382
sg70
g367
sg63
(lp383
g56
(g57
g58
NtRp384
(dp385
g61
(dp386
g69
I3
ssg70
g380
sg63
(lp387
S''
asbasbasbag56
(g72
g58
NtRp388
(dp389
g61
(dp390
sg70
g258
sg63
(lp391
g56
(g77
g58
NtRp392
(dp393
g61
(dp394
g81
g82
ssg70
g388
sg63
(lp395
S'secure'
p396
asbag56
(g77
g58
NtRp397
(dp398
g61
(dp399
g88
g89
ssg70
g388
sg63
(lp400
S':'
asbag56
(g77
g58
NtRp401
(dp402
g61
(dp403
sg70
g388
sg63
(lp404
g56
(g57
g58
NtRp405
(dp406
g61
(dp407
g69
I3
ssg70
g401
sg63
(lp408
S''
asbasbasbag56
(g72
g58
NtRp409
(dp410
g61
(dp411
sg70
g258
sg63
(lp412
g56
(g77
g58
NtRp413
(dp414
g61
(dp415
g81
g82
ssg70
g409
sg63
(lp416
S'version'
p417
asbag56
(g77
g58
NtRp418
(dp419
g61
(dp420
g88
g89
ssg70
g409
sg63
(lp421
S':'
asbag56
(g77
g58
NtRp422
(dp423
g61
(dp424
sg70
g409
sg63
(lp425
g56
(g57
g58
NtRp426
(dp427
g61
(dp428
g69
I3
ssg70
g422
sg63
(lp429
S''
asbasbasbasbasbasbasbag56
(g72
g58
NtRp430
(dp431
g61
(dp432
sg70
g233
sg63
(lp433
g56
(g77
g58
NtRp434
(dp435
g61
(dp436
g81
g82
ssg70
g430
sg63
(lp437
S'session_id_places'
p438
asbag56
(g77
g58
NtRp439
(dp440
g61
(dp441
g88
g89
ssg70
g430
sg63
(lp442
S':'
asbag56
(g77
g58
NtRp443
(dp444
g61
(dp445
sg70
g430
sg63
(lp446
g56
(g57
g58
NtRp447
(dp448
g61
(dp449
g69
I4
ssg70
g443
sg63
(lp450
g56
(g65
g58
NtRp451
(dp452
g61
(dp453
g69
I3
ssg70
Nsg63
(lp454
g56
(g72
g58
NtRp455
(dp456
g61
(dp457
sg70
g451
sg63
(lp458
g56
(g77
g58
NtRp459
(dp460
g61
(dp461
g81
g82
ssg70
g455
sg63
(lp462
g270
asbag56
(g77
g58
NtRp463
(dp464
g61
(dp465
g88
g89
ssg70
g455
sg63
(lp466
S':'
asbag56
(g77
g58
NtRp467
(dp468
g61
(dp469
sg70
g455
sg63
(lp470
g56
(g57
g58
NtRp471
(dp472
g61
(dp473
g69
I3
ssg70
g467
sg63
(lp474
S''
asbasbasbag56
(g72
g58
NtRp475
(dp476
g61
(dp477
sg70
g451
sg63
(lp478
g56
(g77
g58
NtRp479
(dp480
g61
(dp481
g81
g82
ssg70
g475
sg63
(lp482
g291
asbag56
(g77
g58
NtRp483
(dp484
g61
(dp485
g88
g89
ssg70
g475
sg63
(lp486
S':'
asbag56
(g77
g58
NtRp487
(dp488
g61
(dp489
sg70
g475
sg63
(lp490
g56
(g57
g58
NtRp491
(dp492
g61
(dp493
g69
I3
ssg70
g487
sg63
(lp494
S''
asbasbasbag56
(g72
g58
NtRp495
(dp496
g61
(dp497
sg70
g451
sg63
(lp498
g56
(g77
g58
NtRp499
(dp500
g61
(dp501
g81
g82
ssg70
g495
sg63
(lp502
g312
asbag56
(g77
g58
NtRp503
(dp504
g61
(dp505
g88
g89
ssg70
g495
sg63
(lp506
S':'
asbag56
(g77
g58
NtRp507
(dp508
g61
(dp509
sg70
g495
sg63
(lp510
g56
(g57
g58
NtRp511
(dp512
g61
(dp513
g69
I3
ssg70
g507
sg63
(lp514
S''
asbasbasbag56
(g72
g58
NtRp515
(dp516
g61
(dp517
sg70
g451
sg63
(lp518
g56
(g77
g58
NtRp519
(dp520
g61
(dp521
g81
g82
ssg70
g515
sg63
(lp522
g333
asbag56
(g77
g58
NtRp523
(dp524
g61
(dp525
g88
g89
ssg70
g515
sg63
(lp526
S':'
asbag56
(g77
g58
NtRp527
(dp528
g61
(dp529
sg70
g515
sg63
(lp530
g56
(g57
g58
NtRp531
(dp532
g61
(dp533
g69
I3
ssg70
g527
sg63
(lp534
S''
asbasbasbag56
(g72
g58
NtRp535
(dp536
g61
(dp537
sg70
g451
sg63
(lp538
g56
(g77
g58
NtRp539
(dp540
g61
(dp541
g81
g82
ssg70
g535
sg63
(lp542
g354
asbag56
(g77
g58
NtRp543
(dp544
g61
(dp545
g88
g89
ssg70
g535
sg63
(lp546
S':'
asbag56
(g77
g58
NtRp547
(dp548
g61
(dp549
sg70
g535
sg63
(lp550
g56
(g57
g58
NtRp551
(dp552
g61
(dp553
g69
I3
ssg70
g547
sg63
(lp554
S''
asbasbasbag56
(g72
g58
NtRp555
(dp556
g61
(dp557
sg70
g451
sg63
(lp558
g56
(g77
g58
NtRp559
(dp560
g61
(dp561
g81
g82
ssg70
g555
sg63
(lp562
g375
asbag56
(g77
g58
NtRp563
(dp564
g61
(dp565
g88
g89
ssg70
g555
sg63
(lp566
S':'
asbag56
(g77
g58
NtRp567
(dp568
g61
(dp569
sg70
g555
sg63
(lp570
g56
(g57
g58
NtRp571
(dp572
g61
(dp573
g69
I3
ssg70
g567
sg63
(lp574
S''
asbasbasbag56
(g72
g58
NtRp575
(dp576
g61
(dp577
sg70
g451
sg63
(lp578
g56
(g77
g58
NtRp579
(dp580
g61
(dp581
g81
g82
ssg70
g575
sg63
(lp582
g396
asbag56
(g77
g58
NtRp583
(dp584
g61
(dp585
g88
g89
ssg70
g575
sg63
(lp586
S':'
asbag56
(g77
g58
NtRp587
(dp588
g61
(dp589
sg70
g575
sg63
(lp590
g56
(g57
g58
NtRp591
(dp592
g61
(dp593
g69
I3
ssg70
g587
sg63
(lp594
S''
asbasbasbag56
(g72
g58
NtRp595
(dp596
g61
(dp597
sg70
g451
sg63
(lp598
g56
(g77
g58
NtRp599
(dp600
g61
(dp601
g81
g82
ssg70
g595
sg63
(lp602
g417
asbag56
(g77
g58
NtRp603
(dp604
g61
(dp605
g88
g89
ssg70
g595
sg63
(lp606
S':'
asbag56
(g77
g58
NtRp607
(dp608
g61
(dp609
sg70
g595
sg63
(lp610
g56
(g57
g58
NtRp611
(dp612
g61
(dp613
g69
I3
ssg70
g607
sg63
(lp614
S''
asbasbasbasbasbasbasbag56
(g72
g58
NtRp615
(dp616
g61
(dp617
sg70
g233
sg63
(lp618
g56
(g77
g58
NtRp619
(dp620
g61
(dp621
g81
g82
ssg70
g615
sg63
(lp622
S'session_id_welcome'
p623
asbag56
(g77
g58
NtRp624
(dp625
g61
(dp626
g88
g89
ssg70
g615
sg63
(lp627
S':'
asbag56
(g77
g58
NtRp628
(dp629
g61
(dp630
sg70
g615
sg63
(lp631
g56
(g57
g58
NtRp632
(dp633
g61
(dp634
g69
I4
ssg70
g628
sg63
(lp635
g56
(g65
g58
NtRp636
(dp637
g61
(dp638
g69
I3
ssg70
Nsg63
(lp639
g56
(g72
g58
NtRp640
(dp641
g61
(dp642
sg70
g636
sg63
(lp643
g56
(g77
g58
NtRp644
(dp645
g61
(dp646
g81
g82
ssg70
g640
sg63
(lp647
g270
asbag56
(g77
g58
NtRp648
(dp649
g61
(dp650
g88
g89
ssg70
g640
sg63
(lp651
S':'
asbag56
(g77
g58
NtRp652
(dp653
g61
(dp654
sg70
g640
sg63
(lp655
g56
(g57
g58
NtRp656
(dp657
g61
(dp658
g69
I3
ssg70
g652
sg63
(lp659
S''
asbasbasbag56
(g72
g58
NtRp660
(dp661
g61
(dp662
sg70
g636
sg63
(lp663
g56
(g77
g58
NtRp664
(dp665
g61
(dp666
g81
g82
ssg70
g660
sg63
(lp667
g291
asbag56
(g77
g58
NtRp668
(dp669
g61
(dp670
g88
g89
ssg70
g660
sg63
(lp671
S':'
asbag56
(g77
g58
NtRp672
(dp673
g61
(dp674
sg70
g660
sg63
(lp675
g56
(g57
g58
NtRp676
(dp677
g61
(dp678
g69
I3
ssg70
g672
sg63
(lp679
S''
asbasbasbag56
(g72
g58
NtRp680
(dp681
g61
(dp682
sg70
g636
sg63
(lp683
g56
(g77
g58
NtRp684
(dp685
g61
(dp686
g81
g82
ssg70
g680
sg63
(lp687
g312
asbag56
(g77
g58
NtRp688
(dp689
g61
(dp690
g88
g89
ssg70
g680
sg63
(lp691
S':'
asbag56
(g77
g58
NtRp692
(dp693
g61
(dp694
sg70
g680
sg63
(lp695
g56
(g57
g58
NtRp696
(dp697
g61
(dp698
g69
I3
ssg70
g692
sg63
(lp699
S''
asbasbasbag56
(g72
g58
NtRp700
(dp701
g61
(dp702
sg70
g636
sg63
(lp703
g56
(g77
g58
NtRp704
(dp705
g61
(dp706
g81
g82
ssg70
g700
sg63
(lp707
g333
asbag56
(g77
g58
NtRp708
(dp709
g61
(dp710
g88
g89
ssg70
g700
sg63
(lp711
S':'
asbag56
(g77
g58
NtRp712
(dp713
g61
(dp714
sg70
g700
sg63
(lp715
g56
(g57
g58
NtRp716
(dp717
g61
(dp718
g69
I3
ssg70
g712
sg63
(lp719
S''
asbasbasbag56
(g72
g58
NtRp720
(dp721
g61
(dp722
sg70
g636
sg63
(lp723
g56
(g77
g58
NtRp724
(dp725
g61
(dp726
g81
g82
ssg70
g720
sg63
(lp727
g354
asbag56
(g77
g58
NtRp728
(dp729
g61
(dp730
g88
g89
ssg70
g720
sg63
(lp731
S':'
asbag56
(g77
g58
NtRp732
(dp733
g61
(dp734
sg70
g720
sg63
(lp735
g56
(g57
g58
NtRp736
(dp737
g61
(dp738
g69
I3
ssg70
g732
sg63
(lp739
S''
asbasbasbag56
(g72
g58
NtRp740
(dp741
g61
(dp742
sg70
g636
sg63
(lp743
g56
(g77
g58
NtRp744
(dp745
g61
(dp746
g81
g82
ssg70
g740
sg63
(lp747
g375
asbag56
(g77
g58
NtRp748
(dp749
g61
(dp750
g88
g89
ssg70
g740
sg63
(lp751
S':'
asbag56
(g77
g58
NtRp752
(dp753
g61
(dp754
sg70
g740
sg63
(lp755
g56
(g57
g58
NtRp756
(dp757
g61
(dp758
g69
I3
ssg70
g752
sg63
(lp759
S''
asbasbasbag56
(g72
g58
NtRp760
(dp761
g61
(dp762
sg70
g636
sg63
(lp763
g56
(g77
g58
NtRp764
(dp765
g61
(dp766
g81
g82
ssg70
g760
sg63
(lp767
g396
asbag56
(g77
g58
NtRp768
(dp769
g61
(dp770
g88
g89
ssg70
g760
sg63
(lp771
S':'
asbag56
(g77
g58
NtRp772
(dp773
g61
(dp774
sg70
g760
sg63
(lp775
g56
(g57
g58
NtRp776
(dp777
g61
(dp778
g69
I3
ssg70
g772
sg63
(lp779
S''
asbasbasbag56
(g72
g58
NtRp780
(dp781
g61
(dp782
sg70
g636
sg63
(lp783
g56
(g77
g58
NtRp784
(dp785
g61
(dp786
g81
g82
ssg70
g780
sg63
(lp787
g417
asbag56
(g77
g58
NtRp788
(dp789
g61
(dp790
g88
g89
ssg70
g780
sg63
(lp791
S':'
asbag56
(g77
g58
NtRp792
(dp793
g61
(dp794
sg70
g780
sg63
(lp795
g56
(g57
g58
NtRp796
(dp797
g61
(dp798
g69
I3
ssg70
g792
sg63
(lp799
S''
asbasbasbasbasbasbasbasbasbasbasbag56
(g72
g58
NtRp800
(dp801
g61
(dp802
sg70
g66
sg63
(lp803
g56
(g77
g58
NtRp804
(dp805
g61
(dp806
g81
g82
ssg70
g800
sg63
(lp807
S'env'
p808
asbag56
(g77
g58
NtRp809
(dp810
g61
(dp811
g88
g89
ssg70
g800
sg63
(lp812
S':'
asbag56
(g77
g58
NtRp813
(dp814
g61
(dp815
sg70
g800
sg63
(lp816
g56
(g57
g58
NtRp817
(dp818
g61
(dp819
g69
I5
ssg70
g813
sg63
(lp820
g56
(g65
g58
NtRp821
(dp822
g61
(dp823
g69
I4
ssg70
Nsg63
(lp824
g56
(g72
g58
NtRp825
(dp826
g61
(dp827
sg70
g821
sg63
(lp828
g56
(g77
g58
NtRp829
(dp830
g61
(dp831
g81
g82
ssg70
g825
sg63
(lp832
S'app_folders'
p833
asbag56
(g77
g58
NtRp834
(dp835
g61
(dp836
g88
g89
ssg70
g825
sg63
(lp837
S':'
asbag56
(g77
g58
NtRp838
(dp839
g61
(dp840
sg70
g825
sg63
(lp841
g56
(g57
g58
NtRp842
(dp843
g61
(dp844
g69
I4
ssg70
g838
sg63
(lp845
S"set(['/home/ian/web2py/applications/welcome/', '/home/ian/web2py/applications/places/', '/home/ian/web2py/applications/admin/'])"
p846
asbasbasbag56
(g72
g58
NtRp847
(dp848
g61
(dp849
sg70
g821
sg63
(lp850
g56
(g77
g58
NtRp851
(dp852
g61
(dp853
g81
g82
ssg70
g847
sg63
(lp854
S'applications_parent'
p855
asbag56
(g77
g58
NtRp856
(dp857
g61
(dp858
g88
g89
ssg70
g847
sg63
(lp859
S':'
asbag56
(g77
g58
NtRp860
(dp861
g61
(dp862
sg70
g847
sg63
(lp863
g56
(g57
g58
NtRp864
(dp865
g61
(dp866
g69
I4
ssg70
g860
sg63
(lp867
S'/home/ian/web2py'
p868
asbasbasbag56
(g72
g58
NtRp869
(dp870
g61
(dp871
sg70
g821
sg63
(lp872
g56
(g77
g58
NtRp873
(dp874
g61
(dp875
g81
g82
ssg70
g869
sg63
(lp876
S'cmd_args'
p877
asbag56
(g77
g58
NtRp878
(dp879
g61
(dp880
g88
g89
ssg70
g869
sg63
(lp881
S':'
asbag56
(g77
g58
NtRp882
(dp883
g61
(dp884
sg70
g869
sg63
(lp885
g56
(g57
g58
NtRp886
(dp887
g61
(dp888
g69
I4
ssg70
g882
sg63
(lp889
g56
(g65
g58
NtRp890
(dp891
g61
(dp892
g69
I3
ssg70
Nsg63
(lp893
sbasbasbasbag56
(g72
g58
NtRp894
(dp895
g61
(dp896
sg70
g821
sg63
(lp897
g56
(g77
g58
NtRp898
(dp899
g61
(dp900
g81
g82
ssg70
g894
sg63
(lp901
S'cmd_options'
p902
asbag56
(g77
g58
NtRp903
(dp904
g61
(dp905
g88
g89
ssg70
g894
sg63
(lp906
S':'
asbag56
(g77
g58
NtRp907
(dp908
g61
(dp909
sg70
g894
sg63
(lp910
g56
(g57
g58
NtRp911
(dp912
g61
(dp913
g69
I4
ssg70
g907
sg63
(lp914
S"<Values at 0x26ccbd8: {'verbose': False, 'ip': '127.0.0.1', 'shutdown_timeout': 5, 'taskbar': False, 'nocron': False, 'pid_filename': 'httpserver.pid', 'maxthreads': None, 'softcron': False, 'server_name': 'Ariel-ubuntu', 'bpython': False, 'nogui': False, 'port': 8000, 'extcron': False, 'debuglevel': 30, 'test': None, 'folder': '/home/ian/web2py', 'config': '', 'import_models': False, 'winservice': '', 'shell': None, 'run': '', 'log_filename': 'httpserver.log', 'args': [''], 'ssl_ca_certificate': None, 'scheduler': None, 'profiler_filename': None, 'ssl_private_key': '', 'password': '<ask>', 'request_queue_size': 5, 'ssl_certificate': '', 'cronjob': False, 'plain': False, 'quiet': False, 'interfaces': None, 'minthreads': None, 'timeout': 10, 'numthreads': None, 'nobanner': False}>"
p915
asbasbasbag56
(g72
g58
NtRp916
(dp917
g61
(dp918
sg70
g821
sg63
(lp919
g56
(g77
g58
NtRp920
(dp921
g61
(dp922
g81
g82
ssg70
g916
sg63
(lp923
S'db_sessions'
p924
asbag56
(g77
g58
NtRp925
(dp926
g61
(dp927
g88
g89
ssg70
g916
sg63
(lp928
S':'
asbag56
(g77
g58
NtRp929
(dp930
g61
(dp931
sg70
g916
sg63
(lp932
g56
(g57
g58
NtRp933
(dp934
g61
(dp935
g69
I4
ssg70
g929
sg63
(lp936
S'set([])'
p937
asbasbasbag56
(g72
g58
NtRp938
(dp939
g61
(dp940
sg70
g821
sg63
(lp941
g56
(g77
g58
NtRp942
(dp943
g61
(dp944
g81
g82
ssg70
g938
sg63
(lp945
S'debugging'
p946
asbag56
(g77
g58
NtRp947
(dp948
g61
(dp949
g88
g89
ssg70
g938
sg63
(lp950
S':'
asbag56
(g77
g58
NtRp951
(dp952
g61
(dp953
sg70
g938
sg63
(lp954
g56
(g57
g58
NtRp955
(dp956
g61
(dp957
g69
I4
ssg70
g951
sg63
(lp958
g99
asbasbasbag56
(g72
g58
NtRp959
(dp960
g61
(dp961
sg70
g821
sg63
(lp962
g56
(g77
g58
NtRp963
(dp964
g61
(dp965
g81
g82
ssg70
g959
sg63
(lp966
S'gluon_parent'
p967
asbag56
(g77
g58
NtRp968
(dp969
g61
(dp970
g88
g89
ssg70
g959
sg63
(lp971
S':'
asbag56
(g77
g58
NtRp972
(dp973
g61
(dp974
sg70
g959
sg63
(lp975
g56
(g57
g58
NtRp976
(dp977
g61
(dp978
g69
I4
ssg70
g972
sg63
(lp979
S'/home/ian/web2py'
p980
asbasbasbag56
(g72
g58
NtRp981
(dp982
g61
(dp983
sg70
g821
sg63
(lp984
g56
(g77
g58
NtRp985
(dp986
g61
(dp987
g81
g82
ssg70
g981
sg63
(lp988
S'http_accept'
p989
asbag56
(g77
g58
NtRp990
(dp991
g61
(dp992
g88
g89
ssg70
g981
sg63
(lp993
S':'
asbag56
(g77
g58
NtRp994
(dp995
g61
(dp996
sg70
g981
sg63
(lp997
g56
(g57
g58
NtRp998
(dp999
g61
(dp1000
g69
I4
ssg70
g994
sg63
(lp1001
S'text/html,application/xhtml+xml,application/xml;q=0.9,*/*;q=0.8'
p1002
asbasbasbag56
(g72
g58
NtRp1003
(dp1004
g61
(dp1005
sg70
g821
sg63
(lp1006
g56
(g77
g58
NtRp1007
(dp1008
g61
(dp1009
g81
g82
ssg70
g1003
sg63
(lp1010
S'http_accept_charset'
p1011
asbag56
(g77
g58
NtRp1012
(dp1013
g61
(dp1014
g88
g89
ssg70
g1003
sg63
(lp1015
S':'
asbag56
(g77
g58
NtRp1016
(dp1017
g61
(dp1018
sg70
g1003
sg63
(lp1019
g56
(g57
g58
NtRp1020
(dp1021
g61
(dp1022
g69
I4
ssg70
g1016
sg63
(lp1023
S'ISO-8859-1,utf-8;q=0.7,*;q=0.7'
p1024
asbasbasbag56
(g72
g58
NtRp1025
(dp1026
g61
(dp1027
sg70
g821
sg63
(lp1028
g56
(g77
g58
NtRp1029
(dp1030
g61
(dp1031
g81
g82
ssg70
g1025
sg63
(lp1032
S'http_accept_encoding'
p1033
asbag56
(g77
g58
NtRp1034
(dp1035
g61
(dp1036
g88
g89
ssg70
g1025
sg63
(lp1037
S':'
asbag56
(g77
g58
NtRp1038
(dp1039
g61
(dp1040
sg70
g1025
sg63
(lp1041
g56
(g57
g58
NtRp1042
(dp1043
g61
(dp1044
g69
I4
ssg70
g1038
sg63
(lp1045
S'gzip, deflate'
p1046
asbasbasbag56
(g72
g58
NtRp1047
(dp1048
g61
(dp1049
sg70
g821
sg63
(lp1050
g56
(g77
g58
NtRp1051
(dp1052
g61
(dp1053
g81
g82
ssg70
g1047
sg63
(lp1054
S'http_accept_language'
p1055
asbag56
(g77
g58
NtRp1056
(dp1057
g61
(dp1058
g88
g89
ssg70
g1047
sg63
(lp1059
S':'
asbag56
(g77
g58
NtRp1060
(dp1061
g61
(dp1062
sg70
g1047
sg63
(lp1063
g56
(g57
g58
NtRp1064
(dp1065
g61
(dp1066
g69
I4
ssg70
g1060
sg63
(lp1067
S'en-us,en;q=0.5'
p1068
asbasbasbag56
(g72
g58
NtRp1069
(dp1070
g61
(dp1071
sg70
g821
sg63
(lp1072
g56
(g77
g58
NtRp1073
(dp1074
g61
(dp1075
g81
g82
ssg70
g1069
sg63
(lp1076
S'http_cache_control'
p1077
asbag56
(g77
g58
NtRp1078
(dp1079
g61
(dp1080
g88
g89
ssg70
g1069
sg63
(lp1081
S':'
asbag56
(g77
g58
NtRp1082
(dp1083
g61
(dp1084
sg70
g1069
sg63
(lp1085
g56
(g57
g58
NtRp1086
(dp1087
g61
(dp1088
g69
I4
ssg70
g1082
sg63
(lp1089
S'max-age=0'
p1090
asbasbasbag56
(g72
g58
NtRp1091
(dp1092
g61
(dp1093
sg70
g821
sg63
(lp1094
g56
(g77
g58
NtRp1095
(dp1096
g61
(dp1097
g81
g82
ssg70
g1091
sg63
(lp1098
S'http_connection'
p1099
asbag56
(g77
g58
NtRp1100
(dp1101
g61
(dp1102
g88
g89
ssg70
g1091
sg63
(lp1103
S':'
asbag56
(g77
g58
NtRp1104
(dp1105
g61
(dp1106
sg70
g1091
sg63
(lp1107
g56
(g57
g58
NtRp1108
(dp1109
g61
(dp1110
g69
I4
ssg70
g1104
sg63
(lp1111
S'keep-alive'
p1112
asbasbasbag56
(g72
g58
NtRp1113
(dp1114
g61
(dp1115
sg70
g821
sg63
(lp1116
g56
(g77
g58
NtRp1117
(dp1118
g61
(dp1119
g81
g82
ssg70
g1113
sg63
(lp1120
S'http_cookie'
p1121
asbag56
(g77
g58
NtRp1122
(dp1123
g61
(dp1124
g88
g89
ssg70
g1113
sg63
(lp1125
S':'
asbag56
(g77
g58
NtRp1126
(dp1127
g61
(dp1128
sg70
g1113
sg63
(lp1129
g56
(g57
g58
NtRp1130
(dp1131
g61
(dp1132
g69
I4
ssg70
g1126
sg63
(lp1133
S'session_id_welcome=127.0.0.1-f0e6d08e-4585-488a-91e0-180c6c7f25a8; session_id_admin=127.0.0.1-dac11dfe-be99-4fb0-a78e-57512c9f5790; session_id_places=127.0.0.1-9bd70a00-d029-4b6e-8bcc-a423c3a61399'
p1134
asbasbasbag56
(g72
g58
NtRp1135
(dp1136
g61
(dp1137
sg70
g821
sg63
(lp1138
g56
(g77
g58
NtRp1139
(dp1140
g61
(dp1141
g81
g82
ssg70
g1135
sg63
(lp1142
S'http_host'
p1143
asbag56
(g77
g58
NtRp1144
(dp1145
g61
(dp1146
g88
g89
ssg70
g1135
sg63
(lp1147
S':'
asbag56
(g77
g58
NtRp1148
(dp1149
g61
(dp1150
sg70
g1135
sg63
(lp1151
g56
(g57
g58
NtRp1152
(dp1153
g61
(dp1154
g69
I4
ssg70
g1148
sg63
(lp1155
S'127.0.0.1:8000'
p1156
asbasbasbag56
(g72
g58
NtRp1157
(dp1158
g61
(dp1159
sg70
g821
sg63
(lp1160
g56
(g77
g58
NtRp1161
(dp1162
g61
(dp1163
g81
g82
ssg70
g1157
sg63
(lp1164
S'http_user_agent'
p1165
asbag56
(g77
g58
NtRp1166
(dp1167
g61
(dp1168
g88
g89
ssg70
g1157
sg63
(lp1169
S':'
asbag56
(g77
g58
NtRp1170
(dp1171
g61
(dp1172
sg70
g1157
sg63
(lp1173
g56
(g57
g58
NtRp1174
(dp1175
g61
(dp1176
g69
I4
ssg70
g1170
sg63
(lp1177
S'Mozilla/5.0 (X11; Linux x86_64; rv:7.0.1) Gecko/20100101 Firefox/7.0.1'
p1178
asbasbasbag56
(g72
g58
NtRp1179
(dp1180
g61
(dp1181
sg70
g821
sg63
(lp1182
g56
(g77
g58
NtRp1183
(dp1184
g61
(dp1185
g81
g82
ssg70
g1179
sg63
(lp1186
S'is_jython'
p1187
asbag56
(g77
g58
NtRp1188
(dp1189
g61
(dp1190
g88
g89
ssg70
g1179
sg63
(lp1191
S':'
asbag56
(g77
g58
NtRp1192
(dp1193
g61
(dp1194
sg70
g1179
sg63
(lp1195
g56
(g57
g58
NtRp1196
(dp1197
g61
(dp1198
g69
I4
ssg70
g1192
sg63
(lp1199
g99
asbasbasbag56
(g72
g58
NtRp1200
(dp1201
g61
(dp1202
sg70
g821
sg63
(lp1203
g56
(g77
g58
NtRp1204
(dp1205
g61
(dp1206
g81
g82
ssg70
g1200
sg63
(lp1207
S'path_info'
p1208
asbag56
(g77
g58
NtRp1209
(dp1210
g61
(dp1211
g88
g89
ssg70
g1200
sg63
(lp1212
S':'
asbag56
(g77
g58
NtRp1213
(dp1214
g61
(dp1215
sg70
g1200
sg63
(lp1216
g56
(g57
g58
NtRp1217
(dp1218
g61
(dp1219
g69
I4
ssg70
g1213
sg63
(lp1220
S'/places'
p1221
asbasbasbag56
(g72
g58
NtRp1222
(dp1223
g61
(dp1224
sg70
g821
sg63
(lp1225
g56
(g77
g58
NtRp1226
(dp1227
g61
(dp1228
g81
g82
ssg70
g1222
sg63
(lp1229
S'query_string'
p1230
asbag56
(g77
g58
NtRp1231
(dp1232
g61
(dp1233
g88
g89
ssg70
g1222
sg63
(lp1234
S':'
asbag56
(g77
g58
NtRp1235
(dp1236
g61
(dp1237
sg70
g1222
sg63
(lp1238
g56
(g57
g58
NtRp1239
(dp1240
g61
(dp1241
g69
I4
ssg70
g1235
sg63
(lp1242
S''
asbasbasbag56
(g72
g58
NtRp1243
(dp1244
g61
(dp1245
sg70
g821
sg63
(lp1246
g56
(g77
g58
NtRp1247
(dp1248
g61
(dp1249
g81
g82
ssg70
g1243
sg63
(lp1250
S'remote_addr'
p1251
asbag56
(g77
g58
NtRp1252
(dp1253
g61
(dp1254
g88
g89
ssg70
g1243
sg63
(lp1255
S':'
asbag56
(g77
g58
NtRp1256
(dp1257
g61
(dp1258
sg70
g1243
sg63
(lp1259
g56
(g57
g58
NtRp1260
(dp1261
g61
(dp1262
g69
I4
ssg70
g1256
sg63
(lp1263
g189
asbasbasbag56
(g72
g58
NtRp1264
(dp1265
g61
(dp1266
sg70
g821
sg63
(lp1267
g56
(g77
g58
NtRp1268
(dp1269
g61
(dp1270
g81
g82
ssg70
g1264
sg63
(lp1271
S'remote_port'
p1272
asbag56
(g77
g58
NtRp1273
(dp1274
g61
(dp1275
g88
g89
ssg70
g1264
sg63
(lp1276
S':'
asbag56
(g77
g58
NtRp1277
(dp1278
g61
(dp1279
sg70
g1264
sg63
(lp1280
g56
(g57
g58
NtRp1281
(dp1282
g61
(dp1283
g69
I4
ssg70
g1277
sg63
(lp1284
S'34826'
p1285
asbasbasbag56
(g72
g58
NtRp1286
(dp1287
g61
(dp1288
sg70
g821
sg63
(lp1289
g56
(g77
g58
NtRp1290
(dp1291
g61
(dp1292
g81
g82
ssg70
g1286
sg63
(lp1293
S'request_method'
p1294
asbag56
(g77
g58
NtRp1295
(dp1296
g61
(dp1297
g88
g89
ssg70
g1286
sg63
(lp1298
S':'
asbag56
(g77
g58
NtRp1299
(dp1300
g61
(dp1301
sg70
g1286
sg63
(lp1302
g56
(g57
g58
NtRp1303
(dp1304
g61
(dp1305
g69
I4
ssg70
g1299
sg63
(lp1306
S'GET'
p1307
asbasbasbag56
(g72
g58
NtRp1308
(dp1309
g61
(dp1310
sg70
g821
sg63
(lp1311
g56
(g77
g58
NtRp1312
(dp1313
g61
(dp1314
g81
g82
ssg70
g1308
sg63
(lp1315
S'script_name'
p1316
asbag56
(g77
g58
NtRp1317
(dp1318
g61
(dp1319
g88
g89
ssg70
g1308
sg63
(lp1320
S':'
asbag56
(g77
g58
NtRp1321
(dp1322
g61
(dp1323
sg70
g1308
sg63
(lp1324
g56
(g57
g58
NtRp1325
(dp1326
g61
(dp1327
g69
I4
ssg70
g1321
sg63
(lp1328
S''
asbasbasbag56
(g72
g58
NtRp1329
(dp1330
g61
(dp1331
sg70
g821
sg63
(lp1332
g56
(g77
g58
NtRp1333
(dp1334
g61
(dp1335
g81
g82
ssg70
g1329
sg63
(lp1336
S'server_name'
p1337
asbag56
(g77
g58
NtRp1338
(dp1339
g61
(dp1340
g88
g89
ssg70
g1329
sg63
(lp1341
S':'
asbag56
(g77
g58
NtRp1342
(dp1343
g61
(dp1344
sg70
g1329
sg63
(lp1345
g56
(g57
g58
NtRp1346
(dp1347
g61
(dp1348
g69
I4
ssg70
g1342
sg63
(lp1349
S'Ariel-ubuntu'
p1350
asbasbasbag56
(g72
g58
NtRp1351
(dp1352
g61
(dp1353
sg70
g821
sg63
(lp1354
g56
(g77
g58
NtRp1355
(dp1356
g61
(dp1357
g81
g82
ssg70
g1351
sg63
(lp1358
S'server_port'
p1359
asbag56
(g77
g58
NtRp1360
(dp1361
g61
(dp1362
g88
g89
ssg70
g1351
sg63
(lp1363
S':'
asbag56
(g77
g58
NtRp1364
(dp1365
g61
(dp1366
sg70
g1351
sg63
(lp1367
g56
(g57
g58
NtRp1368
(dp1369
g61
(dp1370
g69
I4
ssg70
g1364
sg63
(lp1371
S'8000'
p1372
asbasbasbag56
(g72
g58
NtRp1373
(dp1374
g61
(dp1375
sg70
g821
sg63
(lp1376
g56
(g77
g58
NtRp1377
(dp1378
g61
(dp1379
g81
g82
ssg70
g1373
sg63
(lp1380
S'server_protocol'
p1381
asbag56
(g77
g58
NtRp1382
(dp1383
g61
(dp1384
g88
g89
ssg70
g1373
sg63
(lp1385
S':'
asbag56
(g77
g58
NtRp1386
(dp1387
g61
(dp1388
sg70
g1373
sg63
(lp1389
g56
(g57
g58
NtRp1390
(dp1391
g61
(dp1392
g69
I4
ssg70
g1386
sg63
(lp1393
S'HTTP/1.1'
p1394
asbasbasbag56
(g72
g58
NtRp1395
(dp1396
g61
(dp1397
sg70
g821
sg63
(lp1398
g56
(g77
g58
NtRp1399
(dp1400
g61
(dp1401
g81
g82
ssg70
g1395
sg63
(lp1402
S'server_software'
p1403
asbag56
(g77
g58
NtRp1404
(dp1405
g61
(dp1406
g88
g89
ssg70
g1395
sg63
(lp1407
S':'
asbag56
(g77
g58
NtRp1408
(dp1409
g61
(dp1410
sg70
g1395
sg63
(lp1411
g56
(g57
g58
NtRp1412
(dp1413
g61
(dp1414
g69
I4
ssg70
g1408
sg63
(lp1415
S'Rocket 1.2.4'
p1416
asbasbasbag56
(g72
g58
NtRp1417
(dp1418
g61
(dp1419
sg70
g821
sg63
(lp1420
g56
(g77
g58
NtRp1421
(dp1422
g61
(dp1423
g81
g82
ssg70
g1417
sg63
(lp1424
S'web2py_crontype'
p1425
asbag56
(g77
g58
NtRp1426
(dp1427
g61
(dp1428
g88
g89
ssg70
g1417
sg63
(lp1429
S':'
asbag56
(g77
g58
NtRp1430
(dp1431
g61
(dp1432
sg70
g1417
sg63
(lp1433
g56
(g57
g58
NtRp1434
(dp1435
g61
(dp1436
g69
I4
ssg70
g1430
sg63
(lp1437
S'hard'
p1438
asbasbasbag56
(g72
g58
NtRp1439
(dp1440
g61
(dp1441
sg70
g821
sg63
(lp1442
g56
(g77
g58
NtRp1443
(dp1444
g61
(dp1445
g81
g82
ssg70
g1439
sg63
(lp1446
S'web2py_path'
p1447
asbag56
(g77
g58
NtRp1448
(dp1449
g61
(dp1450
g88
g89
ssg70
g1439
sg63
(lp1451
S':'
asbag56
(g77
g58
NtRp1452
(dp1453
g61
(dp1454
sg70
g1439
sg63
(lp1455
g56
(g57
g58
NtRp1456
(dp1457
g61
(dp1458
g69
I4
ssg70
g1452
sg63
(lp1459
g868
asbasbasbag56
(g72
g58
NtRp1460
(dp1461
g61
(dp1462
sg70
g821
sg63
(lp1463
g56
(g77
g58
NtRp1464
(dp1465
g61
(dp1466
g81
g82
ssg70
g1460
sg63
(lp1467
S'web2py_version'
p1468
asbag56
(g77
g58
NtRp1469
(dp1470
g61
(dp1471
g88
g89
ssg70
g1460
sg63
(lp1472
S':'
asbag56
(g77
g58
NtRp1473
(dp1474
g61
(dp1475
sg70
g1460
sg63
(lp1476
g56
(g57
g58
NtRp1477
(dp1478
g61
(dp1479
g69
I4
ssg70
g1473
sg63
(lp1480
g56
(g65
g58
NtRp1481
(dp1482
g61
(dp1483
g69
I3
ssg70
Nsg63
(lp1484
g56
(g72
g58
NtRp1485
(dp1486
g61
(dp1487
sg70
g1481
sg63
(lp1488
g56
(g77
g58
NtRp1489
(dp1490
g61
(dp1491
sg70
g1485
sg63
(lp1492
g56
(g57
g58
NtRp1493
(dp1494
g61
(dp1495
g69
I3
ssg70
g1489
sg63
(lp1496
S'1'
asbasbasbag56
(g72
g58
NtRp1497
(dp1498
g61
(dp1499
sg70
g1481
sg63
(lp1500
g56
(g77
g58
NtRp1501
(dp1502
g61
(dp1503
sg70
g1497
sg63
(lp1504
g56
(g57
g58
NtRp1505
(dp1506
g61
(dp1507
g69
I3
ssg70
g1501
sg63
(lp1508
S'99'
p1509
asbasbasbag56
(g72
g58
NtRp1510
(dp1511
g61
(dp1512
sg70
g1481
sg63
(lp1513
g56
(g77
g58
NtRp1514
(dp1515
g61
(dp1516
sg70
g1510
sg63
(lp1517
g56
(g57
g58
NtRp1518
(dp1519
g61
(dp1520
g69
I3
ssg70
g1514
sg63
(lp1521
S'2'
asbasbasbag56
(g72
g58
NtRp1522
(dp1523
g61
(dp1524
sg70
g1481
sg63
(lp1525
g56
(g77
g58
NtRp1526
(dp1527
g61
(dp1528
sg70
g1522
sg63
(lp1529
g56
(g57
g58
NtRp1530
(dp1531
g61
(dp1532
g69
I3
ssg70
g1526
sg63
(lp1533
S'datetime.datetime(2011, 9, 26, 6, 55, 33)'
p1534
asbasbasbag56
(g72
g58
NtRp1535
(dp1536
g61
(dp1537
sg70
g1481
sg63
(lp1538
g56
(g77
g58
NtRp1539
(dp1540
g61
(dp1541
sg70
g1535
sg63
(lp1542
g56
(g57
g58
NtRp1543
(dp1544
g61
(dp1545
g69
I3
ssg70
g1539
sg63
(lp1546
S'stable'
p1547
asbasbasbasbasbasbasbag56
(g72
g58
NtRp1548
(dp1549
g61
(dp1550
sg70
g821
sg63
(lp1551
g56
(g77
g58
NtRp1552
(dp1553
g61
(dp1554
g81
g82
ssg70
g1548
sg63
(lp1555
S'wsgi_errors'
p1556
asbag56
(g77
g58
NtRp1557
(dp1558
g61
(dp1559
g88
g89
ssg70
g1548
sg63
(lp1560
S':'
asbag56
(g77
g58
NtRp1561
(dp1562
g61
(dp1563
sg70
g1548
sg63
(lp1564
g56
(g57
g58
NtRp1565
(dp1566
g61
(dp1567
g69
I4
ssg70
g1561
sg63
(lp1568
S"<open file '<stderr>', mode 'w' at 0x7f6d3a48b270>"
p1569
asbasbasbag56
(g72
g58
NtRp1570
(dp1571
g61
(dp1572
sg70
g821
sg63
(lp1573
g56
(g77
g58
NtRp1574
(dp1575
g61
(dp1576
g81
g82
ssg70
g1570
sg63
(lp1577
S'wsgi_file_wrapper'
p1578
asbag56
(g77
g58
NtRp1579
(dp1580
g61
(dp1581
g88
g89
ssg70
g1570
sg63
(lp1582
S':'
asbag56
(g77
g58
NtRp1583
(dp1584
g61
(dp1585
sg70
g1570
sg63
(lp1586
g56
(g57
g58
NtRp1587
(dp1588
g61
(dp1589
g69
I4
ssg70
g1583
sg63
(lp1590
S'<class wsgiref.util.FileWrapper at 0x25957a0>'
p1591
asbasbasbag56
(g72
g58
NtRp1592
(dp1593
g61
(dp1594
sg70
g821
sg63
(lp1595
g56
(g77
g58
NtRp1596
(dp1597
g61
(dp1598
g81
g82
ssg70
g1592
sg63
(lp1599
S'wsgi_input'
p1600
asbag56
(g77
g58
NtRp1601
(dp1602
g61
(dp1603
g88
g89
ssg70
g1592
sg63
(lp1604
S':'
asbag56
(g77
g58
NtRp1605
(dp1606
g61
(dp1607
sg70
g1592
sg63
(lp1608
g56
(g57
g58
NtRp1609
(dp1610
g61
(dp1611
g69
I4
ssg70
g1605
sg63
(lp1612
S'<socket._fileobject object at 0x3b14050>'
p1613
asbasbasbag56
(g72
g58
NtRp1614
(dp1615
g61
(dp1616
sg70
g821
sg63
(lp1617
g56
(g77
g58
NtRp1618
(dp1619
g61
(dp1620
g81
g82
ssg70
g1614
sg63
(lp1621
S'wsgi_multiprocess'
p1622
asbag56
(g77
g58
NtRp1623
(dp1624
g61
(dp1625
g88
g89
ssg70
g1614
sg63
(lp1626
S':'
asbag56
(g77
g58
NtRp1627
(dp1628
g61
(dp1629
sg70
g1614
sg63
(lp1630
g56
(g57
g58
NtRp1631
(dp1632
g61
(dp1633
g69
I4
ssg70
g1627
sg63
(lp1634
g99
asbasbasbag56
(g72
g58
NtRp1635
(dp1636
g61
(dp1637
sg70
g821
sg63
(lp1638
g56
(g77
g58
NtRp1639
(dp1640
g61
(dp1641
g81
g82
ssg70
g1635
sg63
(lp1642
S'wsgi_multithread'
p1643
asbag56
(g77
g58
NtRp1644
(dp1645
g61
(dp1646
g88
g89
ssg70
g1635
sg63
(lp1647
S':'
asbag56
(g77
g58
NtRp1648
(dp1649
g61
(dp1650
sg70
g1635
sg63
(lp1651
g56
(g57
g58
NtRp1652
(dp1653
g61
(dp1654
g69
I4
ssg70
g1648
sg63
(lp1655
S'True'
p1656
asbasbasbag56
(g72
g58
NtRp1657
(dp1658
g61
(dp1659
sg70
g821
sg63
(lp1660
g56
(g77
g58
NtRp1661
(dp1662
g61
(dp1663
g81
g82
ssg70
g1657
sg63
(lp1664
S'wsgi_run_once'
p1665
asbag56
(g77
g58
NtRp1666
(dp1667
g61
(dp1668
g88
g89
ssg70
g1657
sg63
(lp1669
S':'
asbag56
(g77
g58
NtRp1670
(dp1671
g61
(dp1672
sg70
g1657
sg63
(lp1673
g56
(g57
g58
NtRp1674
(dp1675
g61
(dp1676
g69
I4
ssg70
g1670
sg63
(lp1677
g99
asbasbasbag56
(g72
g58
NtRp1678
(dp1679
g61
(dp1680
sg70
g821
sg63
(lp1681
g56
(g77
g58
NtRp1682
(dp1683
g61
(dp1684
g81
g82
ssg70
g1678
sg63
(lp1685
S'wsgi_url_scheme'
p1686
asbag56
(g77
g58
NtRp1687
(dp1688
g61
(dp1689
g88
g89
ssg70
g1678
sg63
(lp1690
S':'
asbag56
(g77
g58
NtRp1691
(dp1692
g61
(dp1693
sg70
g1678
sg63
(lp1694
g56
(g57
g58
NtRp1695
(dp1696
g61
(dp1697
g69
I4
ssg70
g1691
sg63
(lp1698
S'http'
p1699
asbasbasbag56
(g72
g58
NtRp1700
(dp1701
g61
(dp1702
sg70
g821
sg63
(lp1703
g56
(g77
g58
NtRp1704
(dp1705
g61
(dp1706
g81
g82
ssg70
g1700
sg63
(lp1707
S'wsgi_version'
p1708
asbag56
(g77
g58
NtRp1709
(dp1710
g61
(dp1711
g88
g89
ssg70
g1700
sg63
(lp1712
S':'
asbag56
(g77
g58
NtRp1713
(dp1714
g61
(dp1715
sg70
g1700
sg63
(lp1716
g56
(g57
g58
NtRp1717
(dp1718
g61
(dp1719
g69
I4
ssg70
g1713
sg63
(lp1720
g56
(g65
g58
NtRp1721
(dp1722
g61
(dp1723
g69
I3
ssg70
Nsg63
(lp1724
g56
(g72
g58
NtRp1725
(dp1726
g61
(dp1727
sg70
g1721
sg63
(lp1728
g56
(g77
g58
NtRp1729
(dp1730
g61
(dp1731
sg70
g1725
sg63
(lp1732
g56
(g57
g58
NtRp1733
(dp1734
g61
(dp1735
g69
I3
ssg70
g1729
sg63
(lp1736
S'1'
asbasbasbag56
(g72
g58
NtRp1737
(dp1738
g61
(dp1739
sg70
g1721
sg63
(lp1740
g56
(g77
g58
NtRp1741
(dp1742
g61
(dp1743
sg70
g1737
sg63
(lp1744
g56
(g57
g58
NtRp1745
(dp1746
g61
(dp1747
g69
I3
ssg70
g1741
sg63
(lp1748
S'0'
asbasbasbasbasbasbasbasbasbasbasbag56
(g72
g58
NtRp1749
(dp1750
g61
(dp1751
sg70
g66
sg63
(lp1752
g56
(g77
g58
NtRp1753
(dp1754
g61
(dp1755
g81
g82
ssg70
g1749
sg63
(lp1756
S'extension'
p1757
asbag56
(g77
g58
NtRp1758
(dp1759
g61
(dp1760
g88
g89
ssg70
g1749
sg63
(lp1761
S':'
asbag56
(g77
g58
NtRp1762
(dp1763
g61
(dp1764
sg70
g1749
sg63
(lp1765
g56
(g57
g58
NtRp1766
(dp1767
g61
(dp1768
g69
I5
ssg70
g1762
sg63
(lp1769
S'html'
p1770
asbasbasbag56
(g72
g58
NtRp1771
(dp1772
g61
(dp1773
sg70
g66
sg63
(lp1774
g56
(g77
g58
NtRp1775
(dp1776
g61
(dp1777
g81
g82
ssg70
g1771
sg63
(lp1778
S'folder'
p1779
asbag56
(g77
g58
NtRp1780
(dp1781
g61
(dp1782
g88
g89
ssg70
g1771
sg63
(lp1783
S':'
asbag56
(g77
g58
NtRp1784
(dp1785
g61
(dp1786
sg70
g1771
sg63
(lp1787
g56
(g57
g58
NtRp1788
(dp1789
g61
(dp1790
g69
I5
ssg70
g1784
sg63
(lp1791
S'/home/ian/web2py/applications/places/'
p1792
asbasbasbag56
(g72
g58
NtRp1793
(dp1794
g61
(dp1795
sg70
g66
sg63
(lp1796
g56
(g77
g58
NtRp1797
(dp1798
g61
(dp1799
g81
g82
ssg70
g1793
sg63
(lp1800
S'function'
p1801
asbag56
(g77
g58
NtRp1802
(dp1803
g61
(dp1804
g88
g89
ssg70
g1793
sg63
(lp1805
S':'
asbag56
(g77
g58
NtRp1806
(dp1807
g61
(dp1808
sg70
g1793
sg63
(lp1809
g56
(g57
g58
NtRp1810
(dp1811
g61
(dp1812
g69
I5
ssg70
g1806
sg63
(lp1813
S'index'
p1814
asbasbasbag56
(g72
g58
NtRp1815
(dp1816
g61
(dp1817
sg70
g66
sg63
(lp1818
g56
(g77
g58
NtRp1819
(dp1820
g61
(dp1821
g81
g82
ssg70
g1815
sg63
(lp1822
S'get_vars'
p1823
asbag56
(g77
g58
NtRp1824
(dp1825
g61
(dp1826
g88
g89
ssg70
g1815
sg63
(lp1827
S':'
asbag56
(g77
g58
NtRp1828
(dp1829
g61
(dp1830
sg70
g1815
sg63
(lp1831
g56
(g57
g58
NtRp1832
(dp1833
g61
(dp1834
g69
I5
ssg70
g1828
sg63
(lp1835
g56
(g65
g58
NtRp1836
(dp1837
g61
(dp1838
g69
I4
ssg70
Nsg63
(lp1839
sbasbasbasbag56
(g72
g58
NtRp1840
(dp1841
g61
(dp1842
sg70
g66
sg63
(lp1843
g56
(g77
g58
NtRp1844
(dp1845
g61
(dp1846
g81
g82
ssg70
g1840
sg63
(lp1847
S'global_settings'
p1848
asbag56
(g77
g58
NtRp1849
(dp1850
g61
(dp1851
g88
g89
ssg70
g1840
sg63
(lp1852
S':'
asbag56
(g77
g58
NtRp1853
(dp1854
g61
(dp1855
sg70
g1840
sg63
(lp1856
g56
(g57
g58
NtRp1857
(dp1858
g61
(dp1859
g69
I5
ssg70
g1853
sg63
(lp1860
g56
(g65
g58
NtRp1861
(dp1862
g61
(dp1863
g69
I4
ssg70
Nsg63
(lp1864
g56
(g72
g58
NtRp1865
(dp1866
g61
(dp1867
sg70
g1861
sg63
(lp1868
g56
(g77
g58
NtRp1869
(dp1870
g61
(dp1871
g81
g82
ssg70
g1865
sg63
(lp1872
g833
asbag56
(g77
g58
NtRp1873
(dp1874
g61
(dp1875
g88
g89
ssg70
g1865
sg63
(lp1876
S':'
asbag56
(g77
g58
NtRp1877
(dp1878
g61
(dp1879
sg70
g1865
sg63
(lp1880
g56
(g57
g58
NtRp1881
(dp1882
g61
(dp1883
g69
I4
ssg70
g1877
sg63
(lp1884
S"set(['/home/ian/web2py/applications/welcome/', '/home/ian/web2py/applications/places/', '/home/ian/web2py/applications/admin/'])"
p1885
asbasbasbag56
(g72
g58
NtRp1886
(dp1887
g61
(dp1888
sg70
g1861
sg63
(lp1889
g56
(g77
g58
NtRp1890
(dp1891
g61
(dp1892
g81
g82
ssg70
g1886
sg63
(lp1893
g855
asbag56
(g77
g58
NtRp1894
(dp1895
g61
(dp1896
g88
g89
ssg70
g1886
sg63
(lp1897
S':'
asbag56
(g77
g58
NtRp1898
(dp1899
g61
(dp1900
sg70
g1886
sg63
(lp1901
g56
(g57
g58
NtRp1902
(dp1903
g61
(dp1904
g69
I4
ssg70
g1898
sg63
(lp1905
g868
asbasbasbag56
(g72
g58
NtRp1906
(dp1907
g61
(dp1908
sg70
g1861
sg63
(lp1909
g56
(g77
g58
NtRp1910
(dp1911
g61
(dp1912
g81
g82
ssg70
g1906
sg63
(lp1913
g877
asbag56
(g77
g58
NtRp1914
(dp1915
g61
(dp1916
g88
g89
ssg70
g1906
sg63
(lp1917
S':'
asbag56
(g77
g58
NtRp1918
(dp1919
g61
(dp1920
sg70
g1906
sg63
(lp1921
g56
(g57
g58
NtRp1922
(dp1923
g61
(dp1924
g69
I4
ssg70
g1918
sg63
(lp1925
g56
(g65
g58
NtRp1926
(dp1927
g61
(dp1928
g69
I3
ssg70
Nsg63
(lp1929
sbasbasbasbag56
(g72
g58
NtRp1930
(dp1931
g61
(dp1932
sg70
g1861
sg63
(lp1933
g56
(g77
g58
NtRp1934
(dp1935
g61
(dp1936
g81
g82
ssg70
g1930
sg63
(lp1937
g902
asbag56
(g77
g58
NtRp1938
(dp1939
g61
(dp1940
g88
g89
ssg70
g1930
sg63
(lp1941
S':'
asbag56
(g77
g58
NtRp1942
(dp1943
g61
(dp1944
sg70
g1930
sg63
(lp1945
g56
(g57
g58
NtRp1946
(dp1947
g61
(dp1948
g69
I4
ssg70
g1942
sg63
(lp1949
S"<Values at 0x26ccbd8: {'verbose': False, 'ip': '127.0.0.1', 'shutdown_timeout': 5, 'taskbar': False, 'nocron': False, 'pid_filename': 'httpserver.pid', 'maxthreads': None, 'softcron': False, 'server_name': 'Ariel-ubuntu', 'bpython': False, 'nogui': False, 'port': 8000, 'extcron': False, 'debuglevel': 30, 'test': None, 'folder': '/home/ian/web2py', 'config': '', 'import_models': False, 'winservice': '', 'shell': None, 'run': '', 'log_filename': 'httpserver.log', 'args': [''], 'ssl_ca_certificate': None, 'scheduler': None, 'profiler_filename': None, 'ssl_private_key': '', 'password': '<ask>', 'request_queue_size': 5, 'ssl_certificate': '', 'cronjob': False, 'plain': False, 'quiet': False, 'interfaces': None, 'minthreads': None, 'timeout': 10, 'numthreads': None, 'nobanner': False}>"
p1950
asbasbasbag56
(g72
g58
NtRp1951
(dp1952
g61
(dp1953
sg70
g1861
sg63
(lp1954
g56
(g77
g58
NtRp1955
(dp1956
g61
(dp1957
g81
g82
ssg70
g1951
sg63
(lp1958
g924
asbag56
(g77
g58
NtRp1959
(dp1960
g61
(dp1961
g88
g89
ssg70
g1951
sg63
(lp1962
S':'
asbag56
(g77
g58
NtRp1963
(dp1964
g61
(dp1965
sg70
g1951
sg63
(lp1966
g56
(g57
g58
NtRp1967
(dp1968
g61
(dp1969
g69
I4
ssg70
g1963
sg63
(lp1970
S'set([])'
p1971
asbasbasbag56
(g72
g58
NtRp1972
(dp1973
g61
(dp1974
sg70
g1861
sg63
(lp1975
g56
(g77
g58
NtRp1976
(dp1977
g61
(dp1978
g81
g82
ssg70
g1972
sg63
(lp1979
g946
asbag56
(g77
g58
NtRp1980
(dp1981
g61
(dp1982
g88
g89
ssg70
g1972
sg63
(lp1983
S':'
asbag56
(g77
g58
NtRp1984
(dp1985
g61
(dp1986
sg70
g1972
sg63
(lp1987
g56
(g57
g58
NtRp1988
(dp1989
g61
(dp1990
g69
I4
ssg70
g1984
sg63
(lp1991
g99
asbasbasbag56
(g72
g58
NtRp1992
(dp1993
g61
(dp1994
sg70
g1861
sg63
(lp1995
g56
(g77
g58
NtRp1996
(dp1997
g61
(dp1998
g81
g82
ssg70
g1992
sg63
(lp1999
g967
asbag56
(g77
g58
NtRp2000
(dp2001
g61
(dp2002
g88
g89
ssg70
g1992
sg63
(lp2003
S':'
asbag56
(g77
g58
NtRp2004
(dp2005
g61
(dp2006
sg70
g1992
sg63
(lp2007
g56
(g57
g58
NtRp2008
(dp2009
g61
(dp2010
g69
I4
ssg70
g2004
sg63
(lp2011
g980
asbasbasbag56
(g72
g58
NtRp2012
(dp2013
g61
(dp2014
sg70
g1861
sg63
(lp2015
g56
(g77
g58
NtRp2016
(dp2017
g61
(dp2018
g81
g82
ssg70
g2012
sg63
(lp2019
g1187
asbag56
(g77
g58
NtRp2020
(dp2021
g61
(dp2022
g88
g89
ssg70
g2012
sg63
(lp2023
S':'
asbag56
(g77
g58
NtRp2024
(dp2025
g61
(dp2026
sg70
g2012
sg63
(lp2027
g56
(g57
g58
NtRp2028
(dp2029
g61
(dp2030
g69
I4
ssg70
g2024
sg63
(lp2031
g99
asbasbasbag56
(g72
g58
NtRp2032
(dp2033
g61
(dp2034
sg70
g1861
sg63
(lp2035
g56
(g77
g58
NtRp2036
(dp2037
g61
(dp2038
g81
g82
ssg70
g2032
sg63
(lp2039
g1425
asbag56
(g77
g58
NtRp2040
(dp2041
g61
(dp2042
g88
g89
ssg70
g2032
sg63
(lp2043
S':'
asbag56
(g77
g58
NtRp2044
(dp2045
g61
(dp2046
sg70
g2032
sg63
(lp2047
g56
(g57
g58
NtRp2048
(dp2049
g61
(dp2050
g69
I4
ssg70
g2044
sg63
(lp2051
g1438
asbasbasbag56
(g72
g58
NtRp2052
(dp2053
g61
(dp2054
sg70
g1861
sg63
(lp2055
g56
(g77
g58
NtRp2056
(dp2057
g61
(dp2058
g81
g82
ssg70
g2052
sg63
(lp2059
g1468
asbag56
(g77
g58
NtRp2060
(dp2061
g61
(dp2062
g88
g89
ssg70
g2052
sg63
(lp2063
S':'
asbag56
(g77
g58
NtRp2064
(dp2065
g61
(dp2066
sg70
g2052
sg63
(lp2067
g56
(g57
g58
NtRp2068
(dp2069
g61
(dp2070
g69
I4
ssg70
g2064
sg63
(lp2071
g56
(g65
g58
NtRp2072
(dp2073
g61
(dp2074
g69
I3
ssg70
Nsg63
(lp2075
g56
(g72
g58
NtRp2076
(dp2077
g61
(dp2078
sg70
g2072
sg63
(lp2079
g56
(g77
g58
NtRp2080
(dp2081
g61
(dp2082
sg70
g2076
sg63
(lp2083
g56
(g57
g58
NtRp2084
(dp2085
g61
(dp2086
g69
I3
ssg70
g2080
sg63
(lp2087
S'1'
asbasbasbag56
(g72
g58
NtRp2088
(dp2089
g61
(dp2090
sg70
g2072
sg63
(lp2091
g56
(g77
g58
NtRp2092
(dp2093
g61
(dp2094
sg70
g2088
sg63
(lp2095
g56
(g57
g58
NtRp2096
(dp2097
g61
(dp2098
g69
I3
ssg70
g2092
sg63
(lp2099
S'99'
p2100
asbasbasbag56
(g72
g58
NtRp2101
(dp2102
g61
(dp2103
sg70
g2072
sg63
(lp2104
g56
(g77
g58
NtRp2105
(dp2106
g61
(dp2107
sg70
g2101
sg63
(lp2108
g56
(g57
g58
NtRp2109
(dp2110
g61
(dp2111
g69
I3
ssg70
g2105
sg63
(lp2112
S'2'
asbasbasbag56
(g72
g58
NtRp2113
(dp2114
g61
(dp2115
sg70
g2072
sg63
(lp2116
g56
(g77
g58
NtRp2117
(dp2118
g61
(dp2119
sg70
g2113
sg63
(lp2120
g56
(g57
g58
NtRp2121
(dp2122
g61
(dp2123
g69
I3
ssg70
g2117
sg63
(lp2124
S'datetime.datetime(2011, 9, 26, 6, 55, 33)'
p2125
asbasbasbag56
(g72
g58
NtRp2126
(dp2127
g61
(dp2128
sg70
g2072
sg63
(lp2129
g56
(g77
g58
NtRp2130
(dp2131
g61
(dp2132
sg70
g2126
sg63
(lp2133
g56
(g57
g58
NtRp2134
(dp2135
g61
(dp2136
g69
I3
ssg70
g2130
sg63
(lp2137
g1547
asbasbasbasbasbasbasbasbasbasbasbag56
(g72
g58
NtRp2138
(dp2139
g61
(dp2140
sg70
g66
sg63
(lp2141
g56
(g77
g58
NtRp2142
(dp2143
g61
(dp2144
g81
g82
ssg70
g2138
sg63
(lp2145
S'is_https'
p2146
asbag56
(g77
g58
NtRp2147
(dp2148
g61
(dp2149
g88
g89
ssg70
g2138
sg63
(lp2150
S':'
asbag56
(g77
g58
NtRp2151
(dp2152
g61
(dp2153
sg70
g2138
sg63
(lp2154
g56
(g57
g58
NtRp2155
(dp2156
g61
(dp2157
g69
I5
ssg70
g2151
sg63
(lp2158
g99
asbasbasbag56
(g72
g58
NtRp2159
(dp2160
g61
(dp2161
sg70
g66
sg63
(lp2162
g56
(g77
g58
NtRp2163
(dp2164
g61
(dp2165
g81
g82
ssg70
g2159
sg63
(lp2166
S'is_local'
p2167
asbag56
(g77
g58
NtRp2168
(dp2169
g61
(dp2170
g88
g89
ssg70
g2159
sg63
(lp2171
S':'
asbag56
(g77
g58
NtRp2172
(dp2173
g61
(dp2174
sg70
g2159
sg63
(lp2175
g56
(g57
g58
NtRp2176
(dp2177
g61
(dp2178
g69
I5
ssg70
g2172
sg63
(lp2179
g1656
asbasbasbag56
(g72
g58
NtRp2180
(dp2181
g61
(dp2182
sg70
g66
sg63
(lp2183
g56
(g77
g58
NtRp2184
(dp2185
g61
(dp2186
g81
g82
ssg70
g2180
sg63
(lp2187
S'is_restful'
p2188
asbag56
(g77
g58
NtRp2189
(dp2190
g61
(dp2191
g88
g89
ssg70
g2180
sg63
(lp2192
S':'
asbag56
(g77
g58
NtRp2193
(dp2194
g61
(dp2195
sg70
g2180
sg63
(lp2196
g56
(g57
g58
NtRp2197
(dp2198
g61
(dp2199
g69
I5
ssg70
g2193
sg63
(lp2200
g99
asbasbasbag56
(g72
g58
NtRp2201
(dp2202
g61
(dp2203
sg70
g66
sg63
(lp2204
g56
(g77
g58
NtRp2205
(dp2206
g61
(dp2207
g81
g82
ssg70
g2201
sg63
(lp2208
S'now'
p2209
asbag56
(g77
g58
NtRp2210
(dp2211
g61
(dp2212
g88
g89
ssg70
g2201
sg63
(lp2213
S':'
asbag56
(g77
g58
NtRp2214
(dp2215
g61
(dp2216
sg70
g2201
sg63
(lp2217
g56
(g57
g58
NtRp2218
(dp2219
g61
(dp2220
g69
I5
ssg70
g2214
sg63
(lp2221
S'datetime.datetime(2011, 10, 2, 19, 35, 51, 730229)'
p2222
asbasbasbag56
(g72
g58
NtRp2223
(dp2224
g61
(dp2225
sg70
g66
sg63
(lp2226
g56
(g77
g58
NtRp2227
(dp2228
g61
(dp2229
g81
g82
ssg70
g2223
sg63
(lp2230
S'post_vars'
p2231
asbag56
(g77
g58
NtRp2232
(dp2233
g61
(dp2234
g88
g89
ssg70
g2223
sg63
(lp2235
S':'
asbag56
(g77
g58
NtRp2236
(dp2237
g61
(dp2238
sg70
g2223
sg63
(lp2239
g56
(g57
g58
NtRp2240
(dp2241
g61
(dp2242
g69
I5
ssg70
g2236
sg63
(lp2243
g56
(g65
g58
NtRp2244
(dp2245
g61
(dp2246
g69
I4
ssg70
Nsg63
(lp2247
sbasbasbasbag56
(g72
g58
NtRp2248
(dp2249
g61
(dp2250
sg70
g66
sg63
(lp2251
g56
(g77
g58
NtRp2252
(dp2253
g61
(dp2254
g81
g82
ssg70
g2248
sg63
(lp2255
S'url'
p2256
asbag56
(g77
g58
NtRp2257
(dp2258
g61
(dp2259
g88
g89
ssg70
g2248
sg63
(lp2260
S':'
asbag56
(g77
g58
NtRp2261
(dp2262
g61
(dp2263
sg70
g2248
sg63
(lp2264
g56
(g57
g58
NtRp2265
(dp2266
g61
(dp2267
g69
I5
ssg70
g2261
sg63
(lp2268
S'/places/default/index'
p2269
asbasbasbag56
(g72
g58
NtRp2270
(dp2271
g61
(dp2272
sg70
g66
sg63
(lp2273
g56
(g77
g58
NtRp2274
(dp2275
g61
(dp2276
g81
g82
ssg70
g2270
sg63
(lp2277
S'utcnow'
p2278
asbag56
(g77
g58
NtRp2279
(dp2280
g61
(dp2281
g88
g89
ssg70
g2270
sg63
(lp2282
S':'
asbag56
(g77
g58
NtRp2283
(dp2284
g61
(dp2285
sg70
g2270
sg63
(lp2286
g56
(g57
g58
NtRp2287
(dp2288
g61
(dp2289
g69
I5
ssg70
g2283
sg63
(lp2290
S'datetime.datetime(2011, 10, 2, 23, 35, 51, 730277)'
p2291
asbasbasbag56
(g72
g58
NtRp2292
(dp2293
g61
(dp2294
sg70
g66
sg63
(lp2295
g56
(g77
g58
NtRp2296
(dp2297
g61
(dp2298
g81
g82
ssg70
g2292
sg63
(lp2299
S'uuid'
p2300
asbag56
(g77
g58
NtRp2301
(dp2302
g61
(dp2303
g88
g89
ssg70
g2292
sg63
(lp2304
S':'
asbag56
(g77
g58
NtRp2305
(dp2306
g61
(dp2307
sg70
g2292
sg63
(lp2308
g56
(g57
g58
NtRp2309
(dp2310
g61
(dp2311
g69
I5
ssg70
g2305
sg63
(lp2312
S'places/127.0.0.1.2011-10-02.19-35-51.89589879-e753-4150-a6a5-09dc8db75feb'
p2313
asbasbasbag56
(g72
g58
NtRp2314
(dp2315
g61
(dp2316
sg70
g66
sg63
(lp2317
g56
(g77
g58
NtRp2318
(dp2319
g61
(dp2320
g81
g82
ssg70
g2314
sg63
(lp2321
S'vars'
p2322
asbag56
(g77
g58
NtRp2323
(dp2324
g61
(dp2325
g88
g89
ssg70
g2314
sg63
(lp2326
S':'
asbag56
(g77
g58
NtRp2327
(dp2328
g61
(dp2329
sg70
g2314
sg63
(lp2330
g56
(g57
g58
NtRp2331
(dp2332
g61
(dp2333
g69
I5
ssg70
g2327
sg63
(lp2334
g56
(g65
g58
NtRp2335
(dp2336
g61
(dp2337
g69
I4
ssg70
Nsg63
(lp2338
sbasbasbasbag56
(g72
g58
NtRp2339
(dp2340
g61
(dp2341
sg70
g66
sg63
(lp2342
g56
(g77
g58
NtRp2343
(dp2344
g61
(dp2345
g81
g82
ssg70
g2339
sg63
(lp2346
S'wsgi'
p2347
asbag56
(g77
g58
NtRp2348
(dp2349
g61
(dp2350
g88
g89
ssg70
g2339
sg63
(lp2351
S':'
asbag56
(g77
g58
NtRp2352
(dp2353
g61
(dp2354
sg70
g2339
sg63
(lp2355
g56
(g57
g58
NtRp2356
(dp2357
g61
(dp2358
g69
I5
ssg70
g2352
sg63
(lp2359
g56
(g65
g58
NtRp2360
(dp2361
g61
(dp2362
g69
I4
ssg70
Nsg63
(lp2363
g56
(g72
g58
NtRp2364
(dp2365
g61
(dp2366
sg70
g2360
sg63
(lp2367
g56
(g77
g58
NtRp2368
(dp2369
g61
(dp2370
g81
g82
ssg70
g2364
sg63
(lp2371
S'environ'
p2372
asbag56
(g77
g58
NtRp2373
(dp2374
g61
(dp2375
g88
g89
ssg70
g2364
sg63
(lp2376
S':'
asbag56
(g77
g58
NtRp2377
(dp2378
g61
(dp2379
sg70
g2364
sg63
(lp2380
g56
(g57
g58
NtRp2381
(dp2382
g61
(dp2383
g69
I4
ssg70
g2377
sg63
(lp2384
g56
(g65
g58
NtRp2385
(dp2386
g61
(dp2387
g69
I3
ssg70
Nsg63
(lp2388
g56
(g72
g58
NtRp2389
(dp2390
g61
(dp2391
sg70
g2385
sg63
(lp2392
g56
(g77
g58
NtRp2393
(dp2394
g61
(dp2395
g81
g82
ssg70
g2389
sg63
(lp2396
S'HTTP_ACCEPT'
p2397
asbag56
(g77
g58
NtRp2398
(dp2399
g61
(dp2400
g88
g89
ssg70
g2389
sg63
(lp2401
S':'
asbag56
(g77
g58
NtRp2402
(dp2403
g61
(dp2404
sg70
g2389
sg63
(lp2405
g56
(g57
g58
NtRp2406
(dp2407
g61
(dp2408
g69
I3
ssg70
g2402
sg63
(lp2409
g1002
asbasbasbag56
(g72
g58
NtRp2410
(dp2411
g61
(dp2412
sg70
g2385
sg63
(lp2413
g56
(g77
g58
NtRp2414
(dp2415
g61
(dp2416
g81
g82
ssg70
g2410
sg63
(lp2417
S'HTTP_ACCEPT_CHARSET'
p2418
asbag56
(g77
g58
NtRp2419
(dp2420
g61
(dp2421
g88
g89
ssg70
g2410
sg63
(lp2422
S':'
asbag56
(g77
g58
NtRp2423
(dp2424
g61
(dp2425
sg70
g2410
sg63
(lp2426
g56
(g57
g58
NtRp2427
(dp2428
g61
(dp2429
g69
I3
ssg70
g2423
sg63
(lp2430
g1024
asbasbasbag56
(g72
g58
NtRp2431
(dp2432
g61
(dp2433
sg70
g2385
sg63
(lp2434
g56
(g77
g58
NtRp2435
(dp2436
g61
(dp2437
g81
g82
ssg70
g2431
sg63
(lp2438
S'HTTP_ACCEPT_ENCODING'
p2439
asbag56
(g77
g58
NtRp2440
(dp2441
g61
(dp2442
g88
g89
ssg70
g2431
sg63
(lp2443
S':'
asbag56
(g77
g58
NtRp2444
(dp2445
g61
(dp2446
sg70
g2431
sg63
(lp2447
g56
(g57
g58
NtRp2448
(dp2449
g61
(dp2450
g69
I3
ssg70
g2444
sg63
(lp2451
g1046
asbasbasbag56
(g72
g58
NtRp2452
(dp2453
g61
(dp2454
sg70
g2385
sg63
(lp2455
g56
(g77
g58
NtRp2456
(dp2457
g61
(dp2458
g81
g82
ssg70
g2452
sg63
(lp2459
S'HTTP_ACCEPT_LANGUAGE'
p2460
asbag56
(g77
g58
NtRp2461
(dp2462
g61
(dp2463
g88
g89
ssg70
g2452
sg63
(lp2464
S':'
asbag56
(g77
g58
NtRp2465
(dp2466
g61
(dp2467
sg70
g2452
sg63
(lp2468
g56
(g57
g58
NtRp2469
(dp2470
g61
(dp2471
g69
I3
ssg70
g2465
sg63
(lp2472
g1068
asbasbasbag56
(g72
g58
NtRp2473
(dp2474
g61
(dp2475
sg70
g2385
sg63
(lp2476
g56
(g77
g58
NtRp2477
(dp2478
g61
(dp2479
g81
g82
ssg70
g2473
sg63
(lp2480
S'HTTP_CACHE_CONTROL'
p2481
asbag56
(g77
g58
NtRp2482
(dp2483
g61
(dp2484
g88
g89
ssg70
g2473
sg63
(lp2485
S':'
asbag56
(g77
g58
NtRp2486
(dp2487
g61
(dp2488
sg70
g2473
sg63
(lp2489
g56
(g57
g58
NtRp2490
(dp2491
g61
(dp2492
g69
I3
ssg70
g2486
sg63
(lp2493
g1090
asbasbasbag56
(g72
g58
NtRp2494
(dp2495
g61
(dp2496
sg70
g2385
sg63
(lp2497
g56
(g77
g58
NtRp2498
(dp2499
g61
(dp2500
g81
g82
ssg70
g2494
sg63
(lp2501
S'HTTP_CONNECTION'
p2502
asbag56
(g77
g58
NtRp2503
(dp2504
g61
(dp2505
g88
g89
ssg70
g2494
sg63
(lp2506
S':'
asbag56
(g77
g58
NtRp2507
(dp2508
g61
(dp2509
sg70
g2494
sg63
(lp2510
g56
(g57
g58
NtRp2511
(dp2512
g61
(dp2513
g69
I3
ssg70
g2507
sg63
(lp2514
g1112
asbasbasbag56
(g72
g58
NtRp2515
(dp2516
g61
(dp2517
sg70
g2385
sg63
(lp2518
g56
(g77
g58
NtRp2519
(dp2520
g61
(dp2521
g81
g82
ssg70
g2515
sg63
(lp2522
S'HTTP_COOKIE'
p2523
asbag56
(g77
g58
NtRp2524
(dp2525
g61
(dp2526
g88
g89
ssg70
g2515
sg63
(lp2527
S':'
asbag56
(g77
g58
NtRp2528
(dp2529
g61
(dp2530
sg70
g2515
sg63
(lp2531
g56
(g57
g58
NtRp2532
(dp2533
g61
(dp2534
g69
I3
ssg70
g2528
sg63
(lp2535
g1134
asbasbasbag56
(g72
g58
NtRp2536
(dp2537
g61
(dp2538
sg70
g2385
sg63
(lp2539
g56
(g77
g58
NtRp2540
(dp2541
g61
(dp2542
g81
g82
ssg70
g2536
sg63
(lp2543
S'HTTP_HOST'
p2544
asbag56
(g77
g58
NtRp2545
(dp2546
g61
(dp2547
g88
g89
ssg70
g2536
sg63
(lp2548
S':'
asbag56
(g77
g58
NtRp2549
(dp2550
g61
(dp2551
sg70
g2536
sg63
(lp2552
g56
(g57
g58
NtRp2553
(dp2554
g61
(dp2555
g69
I3
ssg70
g2549
sg63
(lp2556
g1156
asbasbasbag56
(g72
g58
NtRp2557
(dp2558
g61
(dp2559
sg70
g2385
sg63
(lp2560
g56
(g77
g58
NtRp2561
(dp2562
g61
(dp2563
g81
g82
ssg70
g2557
sg63
(lp2564
S'HTTP_USER_AGENT'
p2565
asbag56
(g77
g58
NtRp2566
(dp2567
g61
(dp2568
g88
g89
ssg70
g2557
sg63
(lp2569
S':'
asbag56
(g77
g58
NtRp2570
(dp2571
g61
(dp2572
sg70
g2557
sg63
(lp2573
g56
(g57
g58
NtRp2574
(dp2575
g61
(dp2576
g69
I3
ssg70
g2570
sg63
(lp2577
g1178
asbasbasbag56
(g72
g58
NtRp2578
(dp2579
g61
(dp2580
sg70
g2385
sg63
(lp2581
g56
(g77
g58
NtRp2582
(dp2583
g61
(dp2584
g81
g82
ssg70
g2578
sg63
(lp2585
S'PATH_INFO'
p2586
asbag56
(g77
g58
NtRp2587
(dp2588
g61
(dp2589
g88
g89
ssg70
g2578
sg63
(lp2590
S':'
asbag56
(g77
g58
NtRp2591
(dp2592
g61
(dp2593
sg70
g2578
sg63
(lp2594
g56
(g57
g58
NtRp2595
(dp2596
g61
(dp2597
g69
I3
ssg70
g2591
sg63
(lp2598
g1221
asbasbasbag56
(g72
g58
NtRp2599
(dp2600
g61
(dp2601
sg70
g2385
sg63
(lp2602
g56
(g77
g58
NtRp2603
(dp2604
g61
(dp2605
g81
g82
ssg70
g2599
sg63
(lp2606
S'QUERY_STRING'
p2607
asbag56
(g77
g58
NtRp2608
(dp2609
g61
(dp2610
g88
g89
ssg70
g2599
sg63
(lp2611
S':'
asbag56
(g77
g58
NtRp2612
(dp2613
g61
(dp2614
sg70
g2599
sg63
(lp2615
g56
(g57
g58
NtRp2616
(dp2617
g61
(dp2618
g69
I3
ssg70
g2612
sg63
(lp2619
S''
asbasbasbag56
(g72
g58
NtRp2620
(dp2621
g61
(dp2622
sg70
g2385
sg63
(lp2623
g56
(g77
g58
NtRp2624
(dp2625
g61
(dp2626
g81
g82
ssg70
g2620
sg63
(lp2627
S'REMOTE_ADDR'
p2628
asbag56
(g77
g58
NtRp2629
(dp2630
g61
(dp2631
g88
g89
ssg70
g2620
sg63
(lp2632
S':'
asbag56
(g77
g58
NtRp2633
(dp2634
g61
(dp2635
sg70
g2620
sg63
(lp2636
g56
(g57
g58
NtRp2637
(dp2638
g61
(dp2639
g69
I3
ssg70
g2633
sg63
(lp2640
g189
asbasbasbag56
(g72
g58
NtRp2641
(dp2642
g61
(dp2643
sg70
g2385
sg63
(lp2644
g56
(g77
g58
NtRp2645
(dp2646
g61
(dp2647
g81
g82
ssg70
g2641
sg63
(lp2648
S'REMOTE_PORT'
p2649
asbag56
(g77
g58
NtRp2650
(dp2651
g61
(dp2652
g88
g89
ssg70
g2641
sg63
(lp2653
S':'
asbag56
(g77
g58
NtRp2654
(dp2655
g61
(dp2656
sg70
g2641
sg63
(lp2657
g56
(g57
g58
NtRp2658
(dp2659
g61
(dp2660
g69
I3
ssg70
g2654
sg63
(lp2661
g1285
asbasbasbag56
(g72
g58
NtRp2662
(dp2663
g61
(dp2664
sg70
g2385
sg63
(lp2665
g56
(g77
g58
NtRp2666
(dp2667
g61
(dp2668
g81
g82
ssg70
g2662
sg63
(lp2669
S'REQUEST_METHOD'
p2670
asbag56
(g77
g58
NtRp2671
(dp2672
g61
(dp2673
g88
g89
ssg70
g2662
sg63
(lp2674
S':'
asbag56
(g77
g58
NtRp2675
(dp2676
g61
(dp2677
sg70
g2662
sg63
(lp2678
g56
(g57
g58
NtRp2679
(dp2680
g61
(dp2681
g69
I3
ssg70
g2675
sg63
(lp2682
g1307
asbasbasbag56
(g72
g58
NtRp2683
(dp2684
g61
(dp2685
sg70
g2385
sg63
(lp2686
g56
(g77
g58
NtRp2687
(dp2688
g61
(dp2689
g81
g82
ssg70
g2683
sg63
(lp2690
S'SCRIPT_NAME'
p2691
asbag56
(g77
g58
NtRp2692
(dp2693
g61
(dp2694
g88
g89
ssg70
g2683
sg63
(lp2695
S':'
asbag56
(g77
g58
NtRp2696
(dp2697
g61
(dp2698
sg70
g2683
sg63
(lp2699
g56
(g57
g58
NtRp2700
(dp2701
g61
(dp2702
g69
I3
ssg70
g2696
sg63
(lp2703
S''
asbasbasbag56
(g72
g58
NtRp2704
(dp2705
g61
(dp2706
sg70
g2385
sg63
(lp2707
g56
(g77
g58
NtRp2708
(dp2709
g61
(dp2710
g81
g82
ssg70
g2704
sg63
(lp2711
S'SERVER_NAME'
p2712
asbag56
(g77
g58
NtRp2713
(dp2714
g61
(dp2715
g88
g89
ssg70
g2704
sg63
(lp2716
S':'
asbag56
(g77
g58
NtRp2717
(dp2718
g61
(dp2719
sg70
g2704
sg63
(lp2720
g56
(g57
g58
NtRp2721
(dp2722
g61
(dp2723
g69
I3
ssg70
g2717
sg63
(lp2724
g1350
asbasbasbag56
(g72
g58
NtRp2725
(dp2726
g61
(dp2727
sg70
g2385
sg63
(lp2728
g56
(g77
g58
NtRp2729
(dp2730
g61
(dp2731
g81
g82
ssg70
g2725
sg63
(lp2732
S'SERVER_PORT'
p2733
asbag56
(g77
g58
NtRp2734
(dp2735
g61
(dp2736
g88
g89
ssg70
g2725
sg63
(lp2737
S':'
asbag56
(g77
g58
NtRp2738
(dp2739
g61
(dp2740
sg70
g2725
sg63
(lp2741
g56
(g57
g58
NtRp2742
(dp2743
g61
(dp2744
g69
I3
ssg70
g2738
sg63
(lp2745
g1372
asbasbasbag56
(g72
g58
NtRp2746
(dp2747
g61
(dp2748
sg70
g2385
sg63
(lp2749
g56
(g77
g58
NtRp2750
(dp2751
g61
(dp2752
g81
g82
ssg70
g2746
sg63
(lp2753
S'SERVER_PROTOCOL'
p2754
asbag56
(g77
g58
NtRp2755
(dp2756
g61
(dp2757
g88
g89
ssg70
g2746
sg63
(lp2758
S':'
asbag56
(g77
g58
NtRp2759
(dp2760
g61
(dp2761
sg70
g2746
sg63
(lp2762
g56
(g57
g58
NtRp2763
(dp2764
g61
(dp2765
g69
I3
ssg70
g2759
sg63
(lp2766
g1394
asbasbasbag56
(g72
g58
NtRp2767
(dp2768
g61
(dp2769
sg70
g2385
sg63
(lp2770
g56
(g77
g58
NtRp2771
(dp2772
g61
(dp2773
g81
g82
ssg70
g2767
sg63
(lp2774
S'SERVER_SOFTWARE'
p2775
asbag56
(g77
g58
NtRp2776
(dp2777
g61
(dp2778
g88
g89
ssg70
g2767
sg63
(lp2779
S':'
asbag56
(g77
g58
NtRp2780
(dp2781
g61
(dp2782
sg70
g2767
sg63
(lp2783
g56
(g57
g58
NtRp2784
(dp2785
g61
(dp2786
g69
I3
ssg70
g2780
sg63
(lp2787
g1416
asbasbasbag56
(g72
g58
NtRp2788
(dp2789
g61
(dp2790
sg70
g2385
sg63
(lp2791
g56
(g77
g58
NtRp2792
(dp2793
g61
(dp2794
g81
g82
ssg70
g2788
sg63
(lp2795
S'wsgi.errors'
p2796
asbag56
(g77
g58
NtRp2797
(dp2798
g61
(dp2799
g88
g89
ssg70
g2788
sg63
(lp2800
S':'
asbag56
(g77
g58
NtRp2801
(dp2802
g61
(dp2803
sg70
g2788
sg63
(lp2804
g56
(g57
g58
NtRp2805
(dp2806
g61
(dp2807
g69
I3
ssg70
g2801
sg63
(lp2808
S"<open file '<stderr>', mode 'w' at 0x7f6d3a48b270>"
p2809
asbasbasbag56
(g72
g58
NtRp2810
(dp2811
g61
(dp2812
sg70
g2385
sg63
(lp2813
g56
(g77
g58
NtRp2814
(dp2815
g61
(dp2816
g81
g82
ssg70
g2810
sg63
(lp2817
S'wsgi.file_wrapper'
p2818
asbag56
(g77
g58
NtRp2819
(dp2820
g61
(dp2821
g88
g89
ssg70
g2810
sg63
(lp2822
S':'
asbag56
(g77
g58
NtRp2823
(dp2824
g61
(dp2825
sg70
g2810
sg63
(lp2826
g56
(g57
g58
NtRp2827
(dp2828
g61
(dp2829
g69
I3
ssg70
g2823
sg63
(lp2830
S'<class wsgiref.util.FileWrapper at 0x25957a0>'
p2831
asbasbasbag56
(g72
g58
NtRp2832
(dp2833
g61
(dp2834
sg70
g2385
sg63
(lp2835
g56
(g77
g58
NtRp2836
(dp2837
g61
(dp2838
g81
g82
ssg70
g2832
sg63
(lp2839
S'wsgi.input'
p2840
asbag56
(g77
g58
NtRp2841
(dp2842
g61
(dp2843
g88
g89
ssg70
g2832
sg63
(lp2844
S':'
asbag56
(g77
g58
NtRp2845
(dp2846
g61
(dp2847
sg70
g2832
sg63
(lp2848
g56
(g57
g58
NtRp2849
(dp2850
g61
(dp2851
g69
I3
ssg70
g2845
sg63
(lp2852
S'<cStringIO.StringO object at 0x40fe6c0>'
p2853
asbasbasbag56
(g72
g58
NtRp2854
(dp2855
g61
(dp2856
sg70
g2385
sg63
(lp2857
g56
(g77
g58
NtRp2858
(dp2859
g61
(dp2860
g81
g82
ssg70
g2854
sg63
(lp2861
S'wsgi.multiprocess'
p2862
asbag56
(g77
g58
NtRp2863
(dp2864
g61
(dp2865
g88
g89
ssg70
g2854
sg63
(lp2866
S':'
asbag56
(g77
g58
NtRp2867
(dp2868
g61
(dp2869
sg70
g2854
sg63
(lp2870
g56
(g57
g58
NtRp2871
(dp2872
g61
(dp2873
g69
I3
ssg70
g2867
sg63
(lp2874
g99
asbasbasbag56
(g72
g58
NtRp2875
(dp2876
g61
(dp2877
sg70
g2385
sg63
(lp2878
g56
(g77
g58
NtRp2879
(dp2880
g61
(dp2881
g81
g82
ssg70
g2875
sg63
(lp2882
S'wsgi.multithread'
p2883
asbag56
(g77
g58
NtRp2884
(dp2885
g61
(dp2886
g88
g89
ssg70
g2875
sg63
(lp2887
S':'
asbag56
(g77
g58
NtRp2888
(dp2889
g61
(dp2890
sg70
g2875
sg63
(lp2891
g56
(g57
g58
NtRp2892
(dp2893
g61
(dp2894
g69
I3
ssg70
g2888
sg63
(lp2895
g1656
asbasbasbag56
(g72
g58
NtRp2896
(dp2897
g61
(dp2898
sg70
g2385
sg63
(lp2899
g56
(g77
g58
NtRp2900
(dp2901
g61
(dp2902
g81
g82
ssg70
g2896
sg63
(lp2903
S'wsgi.run_once'
p2904
asbag56
(g77
g58
NtRp2905
(dp2906
g61
(dp2907
g88
g89
ssg70
g2896
sg63
(lp2908
S':'
asbag56
(g77
g58
NtRp2909
(dp2910
g61
(dp2911
sg70
g2896
sg63
(lp2912
g56
(g57
g58
NtRp2913
(dp2914
g61
(dp2915
g69
I3
ssg70
g2909
sg63
(lp2916
g99
asbasbasbag56
(g72
g58
NtRp2917
(dp2918
g61
(dp2919
sg70
g2385
sg63
(lp2920
g56
(g77
g58
NtRp2921
(dp2922
g61
(dp2923
g81
g82
ssg70
g2917
sg63
(lp2924
S'wsgi.url_scheme'
p2925
asbag56
(g77
g58
NtRp2926
(dp2927
g61
(dp2928
g88
g89
ssg70
g2917
sg63
(lp2929
S':'
asbag56
(g77
g58
NtRp2930
(dp2931
g61
(dp2932
sg70
g2917
sg63
(lp2933
g56
(g57
g58
NtRp2934
(dp2935
g61
(dp2936
g69
I3
ssg70
g2930
sg63
(lp2937
g1699
asbasbasbag56
(g72
g58
NtRp2938
(dp2939
g61
(dp2940
sg70
g2385
sg63
(lp2941
g56
(g77
g58
NtRp2942
(dp2943
g61
(dp2944
g81
g82
ssg70
g2938
sg63
(lp2945
S'wsgi.version'
p2946
asbag56
(g77
g58
NtRp2947
(dp2948
g61
(dp2949
g88
g89
ssg70
g2938
sg63
(lp2950
S':'
asbag56
(g77
g58
NtRp2951
(dp2952
g61
(dp2953
sg70
g2938
sg63
(lp2954
g56
(g57
g58
NtRp2955
(dp2956
g61
(dp2957
g69
I3
ssg70
g2951
sg63
(lp2958
S'1'
asbasbasbasbasbasbasbasbasbasbasbasbasbsS'frames'
p2959
(lp2960
(dp2961
S'file'
p2962
S'/home/ian/web2py/gluon/restricted.py'
p2963
sS'dump'
p2964
(dp2965
S'environment'
p2966
S"{'A': <class 'gluon.html.A'>, 'Auth': <class 'gluon.tools.Auth'>, 'B': <class 'gluon.html.B'>, 'BEAUTIFY': <class 'gluon.html.BEAUTIFY'>, 'BODY': <class 'gluon.html.BODY'>, 'BR': <class 'gluon.html.BR'>, 'BUTTON': <class 'gluon.html.BUTTON'>, 'CAT': <class 'gluon.html.CAT'>, 'CENTER': <class 'gluon.html.CENTER'>, 'CLEANUP': <class 'gluon.validators.CLEANUP'>, ...}"
p2967
sS'ccode'
p2968
S'<code object <module> at 0x418d3b0, file "/home/...cations/places/views/default/index.html", line 1>'
p2969
ssS'lnum'
p2970
I194
sS'lines'
p2971
(dp2972
I192
S'        else:'
p2973
sI193
S'            ccode = compile2(code,layer)'
p2974
sI194
S'        exec ccode in environment'
p2975
sI195
S'    except HTTP:'
p2976
sI196
S'        raise'
p2977
sI197
S'    except Exception, error:'
p2978
sI198
S'        # XXX Show exception in Wing IDE if running in debugger'
p2979
sI189
S'    try:'
p2980
sI190
S'        if type(code) == types.CodeType:'
p2981
sI191
S'            ccode = code'
p2982
ssS'call'
p2983
S'(code=r"left_sidebar_enabled=right_sidebar_enabled=False...    -->    \\n  </body>\\n</html>\\n\', escape=False)", environment={\'A\': <class \'gluon.html.A\'>, \'Auth\': <class \'gluon.tools.Auth\'>, \'B\': <class \'gluon.html.B\'>, \'BEAUTIFY\': <class \'gluon.html.BEAUTIFY\'>, \'BODY\': <class \'gluon.html.BODY\'>, \'BR\': <class \'gluon.html.BR\'>, \'BUTTON\': <class \'gluon.html.BUTTON\'>, \'CAT\': <class \'gluon.html.CAT\'>, \'CENTER\': <class \'gluon.html.CENTER\'>, \'CLEANUP\': <class \'gluon.validators.CLEANUP\'>, ...}, layer=\'/home/ian/web2py/applications/places/views/default/index.html\')'
p2984
sS'func'
p2985
S'restricted'
p2986
sa(dp2987
g2962
S'/home/ian/web2py/applications/places/views/default/index.html'
p2988
sg2964
(dp2989
sg2970
I82
sg2971
(dp2990
I73
S'    response.write(XML(left_sidebar_style))'
p2991
sI74
S'    response.write(\' >\\n            <div style="padding: 4px;">\\n          \', escape=False)'
p2992
sI75
S"    response.write('New Left Sidebar Content', escape=False)"
p2993
sI76
S"    response.write('       \\n            </div>\\n          </div><!-- left_sidebar -->\\n      ', escape=False)"
p2994
sI77
S'    pass'
p2995
sI78
S"response.write('\\n\\n      <!-- content of other views-->\\n      ', escape=False)"
p2996
sI79
S'response.write("\\n\\n<ul id=\'menu\' class=\'clearfix\'>\\n", escape=False)'
p2997
sI80
S'for tag in db(db.tags).select():'
p2998
sI81
S"    response.write('\\n\\n', escape=False)"
p2999
sI82
S'    response.write(LI(A(tag.tag, _href=URL(\'index.load\', vars=(\'the_view:tag.tag\')), cid="links")))'
p3000
sI83
S"    response.write('\\n\\n', escape=False)"
p3001
sI84
S'    pass'
p3002
sI85
S"response.write('\\n', escape=False)"
p3003
sI86
S"response.write(LI(A('+', _href=URL('create.load'))))"
p3004
sI87
S'response.write(\'\\n</ul>\\n<section id="links">\\n\\n\', escape=False)'
p3005
sI88
S"response.write(LOAD('index.load', ajax=True))"
p3006
sI89
S"response.write('\\n\\n</section>\\n\\n', escape=False)"
p3007
sI90
S'#=BEAUTIFY(response._vars)'
p3008
sI91
S"response.write('\\n\\n', escape=False)"
p3009
sI92
S"response.write('\\n', escape=False)"
p3010
ssg2983
S'()'
p3011
sg2985
S'<module>'
p3012
sa(dp3013
g2962
S'/home/ian/web2py/gluon/html.py'
p3014
sg2964
(dp3015
S'vars.has_key'
p3016
S'undefined'
p3017
sS'vars.pop'
p3018
g3017
sS'vars'
p3019
S"'the_view:tag.tag'"
p3020
ssg2970
I258
sg2971
(dp3021
I256
S"        other += '/'    # add trailing slash to make last trailing empty arg explicit"
p3022
sI257
S''
sI258
S"    if vars.has_key('_signature'): vars.pop('_signature')"
p3023
sI259
S'    list_vars = []'
p3024
sI260
S'    for (key, vals) in sorted(vars.items()):'
p3025
sI261
S'        if not isinstance(vals, (list, tuple)):'
p3026
sI262
S'            vals = [vals]'
p3027
sI253
S"        other = ''"
p3028
sI254
S''
sI255
S"    if other.endswith('/'):"
p3029
ssg2983
S"(a=None, c=None, f='index.load', r=<Storage {'body': <cStringIO.StringO object at 0..._vars': <Storage {}>, 'post_vars': <Storage {}>}>, args=[], vars='the_view:tag.tag', anchor='', extension='load', env=<Storage {'debugging': False, 'http_user_agent':...[]), 'query_string': '', 'wsgi_run_once': False}>, hmac_key=None, hash_vars=True, salt=None, user_signature=None, scheme=None, host=None, port=None, encode_embedded_slash=False)"
p3030
sg2985
S'URL'
p3031
sasS'pyver'
p3032
S'Python 2.7.1+: /usr/bin/python2.7'
p3033
sS'session'
p3034
g56
(g57
g58
NtRp3035
(dp3036
g61
(dp3037
sg63
(lp3038
g56
(g65
g58
NtRp3039
(dp3040
g61
(dp3041
g69
I5
ssg70
Nsg63
(lp3042
g56
(g72
g58
NtRp3043
(dp3044
g61
(dp3045
sg70
g3039
sg63
(lp3046
g56
(g77
g58
NtRp3047
(dp3048
g61
(dp3049
g81
g82
ssg70
g3043
sg63
(lp3050
S'current'
p3051
asbag56
(g77
g58
NtRp3052
(dp3053
g61
(dp3054
g88
g89
ssg70
g3043
sg63
(lp3055
S':'
asbag56
(g77
g58
NtRp3056
(dp3057
g61
(dp3058
sg70
g3043
sg63
(lp3059
g56
(g57
g58
NtRp3060
(dp3061
g61
(dp3062
g69
I5
ssg70
g3056
sg63
(lp3063
S'kitchen'
p3064
asbasbasbag56
(g72
g58
NtRp3065
(dp3066
g61
(dp3067
sg70
g3039
sg63
(lp3068
g56
(g77
g58
NtRp3069
(dp3070
g61
(dp3071
g81
g82
ssg70
g3065
sg63
(lp3072
S'current_view'
p3073
asbag56
(g77
g58
NtRp3074
(dp3075
g61
(dp3076
g88
g89
ssg70
g3065
sg63
(lp3077
S':'
asbag56
(g77
g58
NtRp3078
(dp3079
g61
(dp3080
sg70
g3065
sg63
(lp3081
g56
(g57
g58
NtRp3082
(dp3083
g61
(dp3084
g69
I5
ssg70
g3078
sg63
(lp3085
S'kitchen'
p3086
asbasbasbag56
(g72
g58
NtRp3087
(dp3088
g61
(dp3089
sg70
g3039
sg63
(lp3090
g56
(g77
g58
NtRp3091
(dp3092
g61
(dp3093
g81
g82
ssg70
g3087
sg63
(lp3094
S'the_view'
p3095
asbag56
(g77
g58
NtRp3096
(dp3097
g61
(dp3098
g88
g89
ssg70
g3087
sg63
(lp3099
S':'
asbag56
(g77
g58
NtRp3100
(dp3101
g61
(dp3102
sg70
g3087
sg63
(lp3103
g56
(g57
g58
NtRp3104
(dp3105
g61
(dp3106
g69
I5
ssg70
g3100
sg63
(lp3107
S'kitchen'
p3108
asbasbasbasbasbsS'etype'
p3109
S"<type 'exceptions.AttributeError'>"
p3110
sS'date'
p3111
S'Sun Oct  2 19:35:52 2011'
p3112
sS'response'
p3113
g56
(g57
g58
NtRp3114
(dp3115
g61
(dp3116
sg63
(lp3117
g56
(g65
g58
NtRp3118
(dp3119
g61
(dp3120
g69
I5
ssg70
Nsg63
(lp3121
g56
(g72
g58
NtRp3122
(dp3123
g61
(dp3124
sg70
g3118
sg63
(lp3125
g56
(g77
g58
NtRp3126
(dp3127
g61
(dp3128
g81
g82
ssg70
g3122
sg63
(lp3129
g154
asbag56
(g77
g58
NtRp3130
(dp3131
g61
(dp3132
g88
g89
ssg70
g3122
sg63
(lp3133
S':'
asbag56
(g77
g58
NtRp3134
(dp3135
g61
(dp3136
sg70
g3122
sg63
(lp3137
g56
(g57
g58
NtRp3138
(dp3139
g61
(dp3140
g69
I5
ssg70
g3134
sg63
(lp3141
S'<cStringIO.StringO object at 0x3b10a78>'
p3142
asbasbasbag56
(g72
g58
NtRp3143
(dp3144
g61
(dp3145
sg70
g3118
sg63
(lp3146
g56
(g77
g58
NtRp3147
(dp3148
g61
(dp3149
g81
g82
ssg70
g3143
sg63
(lp3150
g220
asbag56
(g77
g58
NtRp3151
(dp3152
g61
(dp3153
g88
g89
ssg70
g3143
sg63
(lp3154
S':'
asbag56
(g77
g58
NtRp3155
(dp3156
g61
(dp3157
sg70
g3143
sg63
(lp3158
g56
(g57
g58
NtRp3159
(dp3160
g61
(dp3161
g69
I5
ssg70
g3155
sg63
(lp3162
g56
(g65
g58
NtRp3163
(dp3164
g61
(dp3165
g69
I4
ssg70
Nsg63
(lp3166
g56
(g72
g58
NtRp3167
(dp3168
g61
(dp3169
sg70
g3163
sg63
(lp3170
g56
(g77
g58
NtRp3171
(dp3172
g61
(dp3173
g81
g82
ssg70
g3167
sg63
(lp3174
S'session_id_places'
p3175
asbag56
(g77
g58
NtRp3176
(dp3177
g61
(dp3178
g88
g89
ssg70
g3167
sg63
(lp3179
S':'
asbag56
(g77
g58
NtRp3180
(dp3181
g61
(dp3182
sg70
g3167
sg63
(lp3183
g56
(g57
g58
NtRp3184
(dp3185
g61
(dp3186
g69
I4
ssg70
g3180
sg63
(lp3187
g56
(g65
g58
NtRp3188
(dp3189
g61
(dp3190
g69
I3
ssg70
Nsg63
(lp3191
g56
(g72
g58
NtRp3192
(dp3193
g61
(dp3194
sg70
g3188
sg63
(lp3195
g56
(g77
g58
NtRp3196
(dp3197
g61
(dp3198
g81
g82
ssg70
g3192
sg63
(lp3199
g270
asbag56
(g77
g58
NtRp3200
(dp3201
g61
(dp3202
g88
g89
ssg70
g3192
sg63
(lp3203
S':'
asbag56
(g77
g58
NtRp3204
(dp3205
g61
(dp3206
sg70
g3192
sg63
(lp3207
g56
(g57
g58
NtRp3208
(dp3209
g61
(dp3210
g69
I3
ssg70
g3204
sg63
(lp3211
S''
asbasbasbag56
(g72
g58
NtRp3212
(dp3213
g61
(dp3214
sg70
g3188
sg63
(lp3215
g56
(g77
g58
NtRp3216
(dp3217
g61
(dp3218
g81
g82
ssg70
g3212
sg63
(lp3219
g291
asbag56
(g77
g58
NtRp3220
(dp3221
g61
(dp3222
g88
g89
ssg70
g3212
sg63
(lp3223
S':'
asbag56
(g77
g58
NtRp3224
(dp3225
g61
(dp3226
sg70
g3212
sg63
(lp3227
g56
(g57
g58
NtRp3228
(dp3229
g61
(dp3230
g69
I3
ssg70
g3224
sg63
(lp3231
S''
asbasbasbag56
(g72
g58
NtRp3232
(dp3233
g61
(dp3234
sg70
g3188
sg63
(lp3235
g56
(g77
g58
NtRp3236
(dp3237
g61
(dp3238
g81
g82
ssg70
g3232
sg63
(lp3239
g312
asbag56
(g77
g58
NtRp3240
(dp3241
g61
(dp3242
g88
g89
ssg70
g3232
sg63
(lp3243
S':'
asbag56
(g77
g58
NtRp3244
(dp3245
g61
(dp3246
sg70
g3232
sg63
(lp3247
g56
(g57
g58
NtRp3248
(dp3249
g61
(dp3250
g69
I3
ssg70
g3244
sg63
(lp3251
S''
asbasbasbag56
(g72
g58
NtRp3252
(dp3253
g61
(dp3254
sg70
g3188
sg63
(lp3255
g56
(g77
g58
NtRp3256
(dp3257
g61
(dp3258
g81
g82
ssg70
g3252
sg63
(lp3259
g333
asbag56
(g77
g58
NtRp3260
(dp3261
g61
(dp3262
g88
g89
ssg70
g3252
sg63
(lp3263
S':'
asbag56
(g77
g58
NtRp3264
(dp3265
g61
(dp3266
sg70
g3252
sg63
(lp3267
g56
(g57
g58
NtRp3268
(dp3269
g61
(dp3270
g69
I3
ssg70
g3264
sg63
(lp3271
S''
asbasbasbag56
(g72
g58
NtRp3272
(dp3273
g61
(dp3274
sg70
g3188
sg63
(lp3275
g56
(g77
g58
NtRp3276
(dp3277
g61
(dp3278
g81
g82
ssg70
g3272
sg63
(lp3279
g354
asbag56
(g77
g58
NtRp3280
(dp3281
g61
(dp3282
g88
g89
ssg70
g3272
sg63
(lp3283
S':'
asbag56
(g77
g58
NtRp3284
(dp3285
g61
(dp3286
sg70
g3272
sg63
(lp3287
g56
(g57
g58
NtRp3288
(dp3289
g61
(dp3290
g69
I3
ssg70
g3284
sg63
(lp3291
S''
asbasbasbag56
(g72
g58
NtRp3292
(dp3293
g61
(dp3294
sg70
g3188
sg63
(lp3295
g56
(g77
g58
NtRp3296
(dp3297
g61
(dp3298
g81
g82
ssg70
g3292
sg63
(lp3299
g375
asbag56
(g77
g58
NtRp3300
(dp3301
g61
(dp3302
g88
g89
ssg70
g3292
sg63
(lp3303
S':'
asbag56
(g77
g58
NtRp3304
(dp3305
g61
(dp3306
sg70
g3292
sg63
(lp3307
g56
(g57
g58
NtRp3308
(dp3309
g61
(dp3310
g69
I3
ssg70
g3304
sg63
(lp3311
S'/'
asbasbasbag56
(g72
g58
NtRp3312
(dp3313
g61
(dp3314
sg70
g3188
sg63
(lp3315
g56
(g77
g58
NtRp3316
(dp3317
g61
(dp3318
g81
g82
ssg70
g3312
sg63
(lp3319
g396
asbag56
(g77
g58
NtRp3320
(dp3321
g61
(dp3322
g88
g89
ssg70
g3312
sg63
(lp3323
S':'
asbag56
(g77
g58
NtRp3324
(dp3325
g61
(dp3326
sg70
g3312
sg63
(lp3327
g56
(g57
g58
NtRp3328
(dp3329
g61
(dp3330
g69
I3
ssg70
g3324
sg63
(lp3331
S''
asbasbasbag56
(g72
g58
NtRp3332
(dp3333
g61
(dp3334
sg70
g3188
sg63
(lp3335
g56
(g77
g58
NtRp3336
(dp3337
g61
(dp3338
g81
g82
ssg70
g3332
sg63
(lp3339
g417
asbag56
(g77
g58
NtRp3340
(dp3341
g61
(dp3342
g88
g89
ssg70
g3332
sg63
(lp3343
S':'
asbag56
(g77
g58
NtRp3344
(dp3345
g61
(dp3346
sg70
g3332
sg63
(lp3347
g56
(g57
g58
NtRp3348
(dp3349
g61
(dp3350
g69
I3
ssg70
g3344
sg63
(lp3351
S''
asbasbasbasbasbasbasbasbasbasbasbag56
(g72
g58
NtRp3352
(dp3353
g61
(dp3354
sg70
g3118
sg63
(lp3355
g56
(g77
g58
NtRp3356
(dp3357
g61
(dp3358
g81
g82
ssg70
g3352
sg63
(lp3359
S'files'
p3360
asbag56
(g77
g58
NtRp3361
(dp3362
g61
(dp3363
g88
g89
ssg70
g3352
sg63
(lp3364
S':'
asbag56
(g77
g58
NtRp3365
(dp3366
g61
(dp3367
sg70
g3352
sg63
(lp3368
g56
(g57
g58
NtRp3369
(dp3370
g61
(dp3371
g69
I5
ssg70
g3365
sg63
(lp3372
g56
(g65
g58
NtRp3373
(dp3374
g61
(dp3375
g69
I4
ssg70
Nsg63
(lp3376
g56
(g72
g58
NtRp3377
(dp3378
g61
(dp3379
sg70
g3373
sg63
(lp3380
g56
(g77
g58
NtRp3381
(dp3382
g61
(dp3383
sg70
g3377
sg63
(lp3384
g56
(g57
g58
NtRp3385
(dp3386
g61
(dp3387
g69
I4
ssg70
g3381
sg63
(lp3388
S'/places/static/js/jquery.js'
p3389
asbasbasbag56
(g72
g58
NtRp3390
(dp3391
g61
(dp3392
sg70
g3373
sg63
(lp3393
g56
(g77
g58
NtRp3394
(dp3395
g61
(dp3396
sg70
g3390
sg63
(lp3397
g56
(g57
g58
NtRp3398
(dp3399
g61
(dp3400
g69
I4
ssg70
g3394
sg63
(lp3401
S'/places/static/css/anytime.css'
p3402
asbasbasbag56
(g72
g58
NtRp3403
(dp3404
g61
(dp3405
sg70
g3373
sg63
(lp3406
g56
(g77
g58
NtRp3407
(dp3408
g61
(dp3409
sg70
g3403
sg63
(lp3410
g56
(g57
g58
NtRp3411
(dp3412
g61
(dp3413
g69
I4
ssg70
g3407
sg63
(lp3414
S'/places/static/js/anytime.js'
p3415
asbasbasbag56
(g72
g58
NtRp3416
(dp3417
g61
(dp3418
sg70
g3373
sg63
(lp3419
g56
(g77
g58
NtRp3420
(dp3421
g61
(dp3422
sg70
g3416
sg63
(lp3423
g56
(g57
g58
NtRp3424
(dp3425
g61
(dp3426
g69
I4
ssg70
g3420
sg63
(lp3427
S'/places/static/css/base.css'
p3428
asbasbasbag56
(g72
g58
NtRp3429
(dp3430
g61
(dp3431
sg70
g3373
sg63
(lp3432
g56
(g77
g58
NtRp3433
(dp3434
g61
(dp3435
sg70
g3429
sg63
(lp3436
g56
(g57
g58
NtRp3437
(dp3438
g61
(dp3439
g69
I4
ssg70
g3433
sg63
(lp3440
S'/places/static/css/superfish.css'
p3441
asbasbasbag56
(g72
g58
NtRp3442
(dp3443
g61
(dp3444
sg70
g3373
sg63
(lp3445
g56
(g77
g58
NtRp3446
(dp3447
g61
(dp3448
sg70
g3442
sg63
(lp3449
g56
(g57
g58
NtRp3450
(dp3451
g61
(dp3452
g69
I4
ssg70
g3446
sg63
(lp3453
S'/places/static/js/superfish.js'
p3454
asbasbasbasbasbasbasbag56
(g72
g58
NtRp3455
(dp3456
g61
(dp3457
sg70
g3118
sg63
(lp3458
g56
(g77
g58
NtRp3459
(dp3460
g61
(dp3461
g81
g82
ssg70
g3455
sg63
(lp3462
S'flash'
p3463
asbag56
(g77
g58
NtRp3464
(dp3465
g61
(dp3466
g88
g89
ssg70
g3455
sg63
(lp3467
S':'
asbag56
(g77
g58
NtRp3468
(dp3469
g61
(dp3470
sg70
g3455
sg63
(lp3471
g56
(g57
g58
NtRp3472
(dp3473
g61
(dp3474
g69
I5
ssg70
g3468
sg63
(lp3475
S''
asbasbasbag56
(g72
g58
NtRp3476
(dp3477
g61
(dp3478
sg70
g3118
sg63
(lp3479
g56
(g77
g58
NtRp3480
(dp3481
g61
(dp3482
g81
g82
ssg70
g3476
sg63
(lp3483
S'generic_patterns'
p3484
asbag56
(g77
g58
NtRp3485
(dp3486
g61
(dp3487
g88
g89
ssg70
g3476
sg63
(lp3488
S':'
asbag56
(g77
g58
NtRp3489
(dp3490
g61
(dp3491
sg70
g3476
sg63
(lp3492
g56
(g57
g58
NtRp3493
(dp3494
g61
(dp3495
g69
I5
ssg70
g3489
sg63
(lp3496
g56
(g65
g58
NtRp3497
(dp3498
g61
(dp3499
g69
I4
ssg70
Nsg63
(lp3500
g56
(g72
g58
NtRp3501
(dp3502
g61
(dp3503
sg70
g3497
sg63
(lp3504
g56
(g77
g58
NtRp3505
(dp3506
g61
(dp3507
sg70
g3501
sg63
(lp3508
g56
(g57
g58
NtRp3509
(dp3510
g61
(dp3511
g69
I4
ssg70
g3505
sg63
(lp3512
S'*'
asbasbasbasbasbasbasbag56
(g72
g58
NtRp3513
(dp3514
g61
(dp3515
sg70
g3118
sg63
(lp3516
g56
(g77
g58
NtRp3517
(dp3518
g61
(dp3519
g81
g82
ssg70
g3513
sg63
(lp3520
S'headers'
p3521
asbag56
(g77
g58
NtRp3522
(dp3523
g61
(dp3524
g88
g89
ssg70
g3513
sg63
(lp3525
S':'
asbag56
(g77
g58
NtRp3526
(dp3527
g61
(dp3528
sg70
g3513
sg63
(lp3529
g56
(g57
g58
NtRp3530
(dp3531
g61
(dp3532
g69
I5
ssg70
g3526
sg63
(lp3533
g56
(g65
g58
NtRp3534
(dp3535
g61
(dp3536
g69
I4
ssg70
Nsg63
(lp3537
g56
(g72
g58
NtRp3538
(dp3539
g61
(dp3540
sg70
g3534
sg63
(lp3541
g56
(g77
g58
NtRp3542
(dp3543
g61
(dp3544
g81
g82
ssg70
g3538
sg63
(lp3545
S'Cache-Control'
p3546
asbag56
(g77
g58
NtRp3547
(dp3548
g61
(dp3549
g88
g89
ssg70
g3538
sg63
(lp3550
S':'
asbag56
(g77
g58
NtRp3551
(dp3552
g61
(dp3553
sg70
g3538
sg63
(lp3554
g56
(g57
g58
NtRp3555
(dp3556
g61
(dp3557
g69
I4
ssg70
g3551
sg63
(lp3558
S'no-store, no-cache, must-revalidate, post-check=0, pre-check=0'
p3559
asbasbasbag56
(g72
g58
NtRp3560
(dp3561
g61
(dp3562
sg70
g3534
sg63
(lp3563
g56
(g77
g58
NtRp3564
(dp3565
g61
(dp3566
g81
g82
ssg70
g3560
sg63
(lp3567
S'Content-Type'
p3568
asbag56
(g77
g58
NtRp3569
(dp3570
g61
(dp3571
g88
g89
ssg70
g3560
sg63
(lp3572
S':'
asbag56
(g77
g58
NtRp3573
(dp3574
g61
(dp3575
sg70
g3560
sg63
(lp3576
g56
(g57
g58
NtRp3577
(dp3578
g61
(dp3579
g69
I4
ssg70
g3573
sg63
(lp3580
S'text/html; charset=utf-8'
p3581
asbasbasbag56
(g72
g58
NtRp3582
(dp3583
g61
(dp3584
sg70
g3534
sg63
(lp3585
g56
(g77
g58
NtRp3586
(dp3587
g61
(dp3588
g81
g82
ssg70
g3582
sg63
(lp3589
S'Expires'
p3590
asbag56
(g77
g58
NtRp3591
(dp3592
g61
(dp3593
g88
g89
ssg70
g3582
sg63
(lp3594
S':'
asbag56
(g77
g58
NtRp3595
(dp3596
g61
(dp3597
sg70
g3582
sg63
(lp3598
g56
(g57
g58
NtRp3599
(dp3600
g61
(dp3601
g69
I4
ssg70
g3595
sg63
(lp3602
S'Sun, 02 Oct 2011 23:35:51 GMT'
p3603
asbasbasbag56
(g72
g58
NtRp3604
(dp3605
g61
(dp3606
sg70
g3534
sg63
(lp3607
g56
(g77
g58
NtRp3608
(dp3609
g61
(dp3610
g81
g82
ssg70
g3604
sg63
(lp3611
S'Pragma'
p3612
asbag56
(g77
g58
NtRp3613
(dp3614
g61
(dp3615
g88
g89
ssg70
g3604
sg63
(lp3616
S':'
asbag56
(g77
g58
NtRp3617
(dp3618
g61
(dp3619
sg70
g3604
sg63
(lp3620
g56
(g57
g58
NtRp3621
(dp3622
g61
(dp3623
g69
I4
ssg70
g3617
sg63
(lp3624
S'no-cache'
p3625
asbasbasbag56
(g72
g58
NtRp3626
(dp3627
g61
(dp3628
sg70
g3534
sg63
(lp3629
g56
(g77
g58
NtRp3630
(dp3631
g61
(dp3632
g81
g82
ssg70
g3626
sg63
(lp3633
S'X-Powered-By'
p3634
asbag56
(g77
g58
NtRp3635
(dp3636
g61
(dp3637
g88
g89
ssg70
g3626
sg63
(lp3638
S':'
asbag56
(g77
g58
NtRp3639
(dp3640
g61
(dp3641
sg70
g3626
sg63
(lp3642
g56
(g57
g58
NtRp3643
(dp3644
g61
(dp3645
g69
I4
ssg70
g3639
sg63
(lp3646
S'web2py'
p3647
asbasbasbasbasbasbasbag56
(g72
g58
NtRp3648
(dp3649
g61
(dp3650
sg70
g3118
sg63
(lp3651
g56
(g77
g58
NtRp3652
(dp3653
g61
(dp3654
g81
g82
ssg70
g3648
sg63
(lp3655
S'menu'
p3656
asbag56
(g77
g58
NtRp3657
(dp3658
g61
(dp3659
g88
g89
ssg70
g3648
sg63
(lp3660
S':'
asbag56
(g77
g58
NtRp3661
(dp3662
g61
(dp3663
sg70
g3648
sg63
(lp3664
g56
(g57
g58
NtRp3665
(dp3666
g61
(dp3667
g69
I5
ssg70
g3661
sg63
(lp3668
g56
(g65
g58
NtRp3669
(dp3670
g61
(dp3671
g69
I4
ssg70
Nsg63
(lp3672
g56
(g72
g58
NtRp3673
(dp3674
g61
(dp3675
sg70
g3669
sg63
(lp3676
g56
(g77
g58
NtRp3677
(dp3678
g61
(dp3679
sg70
g3673
sg63
(lp3680
g56
(g57
g58
NtRp3681
(dp3682
g61
(dp3683
g69
I4
ssg70
g3677
sg63
(lp3684
g56
(g65
g58
NtRp3685
(dp3686
g61
(dp3687
g69
I3
ssg70
Nsg63
(lp3688
g56
(g72
g58
NtRp3689
(dp3690
g61
(dp3691
sg70
g3685
sg63
(lp3692
g56
(g77
g58
NtRp3693
(dp3694
g61
(dp3695
sg70
g3689
sg63
(lp3696
g56
(g57
g58
NtRp3697
(dp3698
g61
(dp3699
g69
I3
ssg70
g3693
sg63
(lp3700
cgluon.languages
lazyT_unpickle
p3701
(S't\x04\x00\x00\x00Home'
tRp3702
asbasbasbag56
(g72
g58
NtRp3703
(dp3704
g61
(dp3705
sg70
g3685
sg63
(lp3706
g56
(g77
g58
NtRp3707
(dp3708
g61
(dp3709
sg70
g3703
sg63
(lp3710
g56
(g57
g58
NtRp3711
(dp3712
g61
(dp3713
g69
I3
ssg70
g3707
sg63
(lp3714
g99
asbasbasbag56
(g72
g58
NtRp3715
(dp3716
g61
(dp3717
sg70
g3685
sg63
(lp3718
g56
(g77
g58
NtRp3719
(dp3720
g61
(dp3721
sg70
g3715
sg63
(lp3722
g56
(g57
g58
NtRp3723
(dp3724
g61
(dp3725
g69
I3
ssg70
g3719
sg63
(lp3726
S'/places/default/index'
p3727
asbasbasbag56
(g72
g58
NtRp3728
(dp3729
g61
(dp3730
sg70
g3685
sg63
(lp3731
g56
(g77
g58
NtRp3732
(dp3733
g61
(dp3734
sg70
g3728
sg63
(lp3735
g56
(g57
g58
NtRp3736
(dp3737
g61
(dp3738
g69
I3
ssg70
g3732
sg63
(lp3739
g56
(g65
g58
NtRp3740
(dp3741
g61
(dp3742
g69
I2
ssg70
Nsg63
(lp3743
sbasbasbasbasbasbasbasbag56
(g72
g58
NtRp3744
(dp3745
g61
(dp3746
sg70
g3669
sg63
(lp3747
g56
(g77
g58
NtRp3748
(dp3749
g61
(dp3750
sg70
g3744
sg63
(lp3751
g56
(g57
g58
NtRp3752
(dp3753
g61
(dp3754
g69
I4
ssg70
g3748
sg63
(lp3755
g56
(g65
g58
NtRp3756
(dp3757
g61
(dp3758
g69
I3
ssg70
Nsg63
(lp3759
g56
(g72
g58
NtRp3760
(dp3761
g61
(dp3762
sg70
g3756
sg63
(lp3763
g56
(g77
g58
NtRp3764
(dp3765
g61
(dp3766
sg70
g3760
sg63
(lp3767
g56
(g57
g58
NtRp3768
(dp3769
g61
(dp3770
g69
I3
ssg70
g3764
sg63
(lp3771
g3701
(S's\x08\x00\x00\x00This App'
tRp3772
asbasbasbag56
(g72
g58
NtRp3773
(dp3774
g61
(dp3775
sg70
g3756
sg63
(lp3776
g56
(g77
g58
NtRp3777
(dp3778
g61
(dp3779
sg70
g3773
sg63
(lp3780
g56
(g57
g58
NtRp3781
(dp3782
g61
(dp3783
g69
I3
ssg70
g3777
sg63
(lp3784
g99
asbasbasbag56
(g72
g58
NtRp3785
(dp3786
g61
(dp3787
sg70
g3756
sg63
(lp3788
g56
(g77
g58
NtRp3789
(dp3790
g61
(dp3791
sg70
g3785
sg63
(lp3792
g56
(g57
g58
NtRp3793
(dp3794
g61
(dp3795
g69
I3
ssg70
g3789
sg63
(lp3796
S'/admin/default/design/places'
p3797
asbasbasbag56
(g72
g58
NtRp3798
(dp3799
g61
(dp3800
sg70
g3756
sg63
(lp3801
g56
(g77
g58
NtRp3802
(dp3803
g61
(dp3804
sg70
g3798
sg63
(lp3805
g56
(g57
g58
NtRp3806
(dp3807
g61
(dp3808
g69
I3
ssg70
g3802
sg63
(lp3809
g56
(g65
g58
NtRp3810
(dp3811
g61
(dp3812
g69
I2
ssg70
Nsg63
(lp3813
g56
(g72
g58
NtRp3814
(dp3815
g61
(dp3816
sg70
g3810
sg63
(lp3817
g56
(g77
g58
NtRp3818
(dp3819
g61
(dp3820
sg70
g3814
sg63
(lp3821
g56
(g57
g58
NtRp3822
(dp3823
g61
(dp3824
g69
I2
ssg70
g3818
sg63
(lp3825
g56
(g65
g58
NtRp3826
(dp3827
g61
(dp3828
g69
I1
ssg70
Nsg63
(lp3829
g56
(g72
g58
NtRp3830
(dp3831
g61
(dp3832
sg70
g3826
sg63
(lp3833
g56
(g77
g58
NtRp3834
(dp3835
g61
(dp3836
sg70
g3830
sg63
(lp3837
g56
(g57
g58
NtRp3838
(dp3839
g61
(dp3840
g69
I1
ssg70
g3834
sg63
(lp3841
g3701
(S't\n\x00\x00\x00Controller'
tRp3842
asbasbasbag56
(g72
g58
NtRp3843
(dp3844
g61
(dp3845
sg70
g3826
sg63
(lp3846
g56
(g77
g58
NtRp3847
(dp3848
g61
(dp3849
sg70
g3843
sg63
(lp3850
g56
(g57
g58
NtRp3851
(dp3852
g61
(dp3853
g69
I1
ssg70
g3847
sg63
(lp3854
I00
asbasbasbag56
(g72
g58
NtRp3855
(dp3856
g61
(dp3857
sg70
g3826
sg63
(lp3858
g56
(g77
g58
NtRp3859
(dp3860
g61
(dp3861
sg70
g3855
sg63
(lp3862
g56
(g57
g58
NtRp3863
(dp3864
g61
(dp3865
g69
I1
ssg70
g3859
sg63
(lp3866
S'/admin/default/edit/places/controllers/default.py'
p3867
asbasbasbasbasbasbasbag56
(g72
g58
NtRp3868
(dp3869
g61
(dp3870
sg70
g3810
sg63
(lp3871
g56
(g77
g58
NtRp3872
(dp3873
g61
(dp3874
sg70
g3868
sg63
(lp3875
g56
(g57
g58
NtRp3876
(dp3877
g61
(dp3878
g69
I2
ssg70
g3872
sg63
(lp3879
g56
(g65
g58
NtRp3880
(dp3881
g61
(dp3882
g69
I1
ssg70
Nsg63
(lp3883
g56
(g72
g58
NtRp3884
(dp3885
g61
(dp3886
sg70
g3880
sg63
(lp3887
g56
(g77
g58
NtRp3888
(dp3889
g61
(dp3890
sg70
g3884
sg63
(lp3891
g56
(g57
g58
NtRp3892
(dp3893
g61
(dp3894
g69
I1
ssg70
g3888
sg63
(lp3895
g3701
(S't\x04\x00\x00\x00View'
tRp3896
asbasbasbag56
(g72
g58
NtRp3897
(dp3898
g61
(dp3899
sg70
g3880
sg63
(lp3900
g56
(g77
g58
NtRp3901
(dp3902
g61
(dp3903
sg70
g3897
sg63
(lp3904
g56
(g57
g58
NtRp3905
(dp3906
g61
(dp3907
g69
I1
ssg70
g3901
sg63
(lp3908
I00
asbasbasbag56
(g72
g58
NtRp3909
(dp3910
g61
(dp3911
sg70
g3880
sg63
(lp3912
g56
(g77
g58
NtRp3913
(dp3914
g61
(dp3915
sg70
g3909
sg63
(lp3916
g56
(g57
g58
NtRp3917
(dp3918
g61
(dp3919
g69
I1
ssg70
g3913
sg63
(lp3920
S'/admin/default/edit/places/views/default/index.html'
p3921
asbasbasbasbasbasbasbag56
(g72
g58
NtRp3922
(dp3923
g61
(dp3924
sg70
g3810
sg63
(lp3925
g56
(g77
g58
NtRp3926
(dp3927
g61
(dp3928
sg70
g3922
sg63
(lp3929
g56
(g57
g58
NtRp3930
(dp3931
g61
(dp3932
g69
I2
ssg70
g3926
sg63
(lp3933
g56
(g65
g58
NtRp3934
(dp3935
g61
(dp3936
g69
I1
ssg70
Nsg63
(lp3937
g56
(g72
g58
NtRp3938
(dp3939
g61
(dp3940
sg70
g3934
sg63
(lp3941
g56
(g77
g58
NtRp3942
(dp3943
g61
(dp3944
sg70
g3938
sg63
(lp3945
g56
(g57
g58
NtRp3946
(dp3947
g61
(dp3948
g69
I1
ssg70
g3942
sg63
(lp3949
g3701
(S't\x06\x00\x00\x00Layout'
tRp3950
asbasbasbag56
(g72
g58
NtRp3951
(dp3952
g61
(dp3953
sg70
g3934
sg63
(lp3954
g56
(g77
g58
NtRp3955
(dp3956
g61
(dp3957
sg70
g3951
sg63
(lp3958
g56
(g57
g58
NtRp3959
(dp3960
g61
(dp3961
g69
I1
ssg70
g3955
sg63
(lp3962
I00
asbasbasbag56
(g72
g58
NtRp3963
(dp3964
g61
(dp3965
sg70
g3934
sg63
(lp3966
g56
(g77
g58
NtRp3967
(dp3968
g61
(dp3969
sg70
g3963
sg63
(lp3970
g56
(g57
g58
NtRp3971
(dp3972
g61
(dp3973
g69
I1
ssg70
g3967
sg63
(lp3974
S'/admin/default/edit/places/views/layout.html'
p3975
asbasbasbasbasbasbasbag56
(g72
g58
NtRp3976
(dp3977
g61
(dp3978
sg70
g3810
sg63
(lp3979
g56
(g77
g58
NtRp3980
(dp3981
g61
(dp3982
sg70
g3976
sg63
(lp3983
g56
(g57
g58
NtRp3984
(dp3985
g61
(dp3986
g69
I2
ssg70
g3980
sg63
(lp3987
g56
(g65
g58
NtRp3988
(dp3989
g61
(dp3990
g69
I1
ssg70
Nsg63
(lp3991
g56
(g72
g58
NtRp3992
(dp3993
g61
(dp3994
sg70
g3988
sg63
(lp3995
g56
(g77
g58
NtRp3996
(dp3997
g61
(dp3998
sg70
g3992
sg63
(lp3999
g56
(g57
g58
NtRp4000
(dp4001
g61
(dp4002
g69
I1
ssg70
g3996
sg63
(lp4003
g3701
(S't\n\x00\x00\x00Stylesheet'
tRp4004
asbasbasbag56
(g72
g58
NtRp4005
(dp4006
g61
(dp4007
sg70
g3988
sg63
(lp4008
g56
(g77
g58
NtRp4009
(dp4010
g61
(dp4011
sg70
g4005
sg63
(lp4012
g56
(g57
g58
NtRp4013
(dp4014
g61
(dp4015
g69
I1
ssg70
g4009
sg63
(lp4016
I00
asbasbasbag56
(g72
g58
NtRp4017
(dp4018
g61
(dp4019
sg70
g3988
sg63
(lp4020
g56
(g77
g58
NtRp4021
(dp4022
g61
(dp4023
sg70
g4017
sg63
(lp4024
g56
(g57
g58
NtRp4025
(dp4026
g61
(dp4027
g69
I1
ssg70
g4021
sg63
(lp4028
S'/admin/default/edit/places/static/base.css'
p4029
asbasbasbasbasbasbasbag56
(g72
g58
NtRp4030
(dp4031
g61
(dp4032
sg70
g3810
sg63
(lp4033
g56
(g77
g58
NtRp4034
(dp4035
g61
(dp4036
sg70
g4030
sg63
(lp4037
g56
(g57
g58
NtRp4038
(dp4039
g61
(dp4040
g69
I2
ssg70
g4034
sg63
(lp4041
g56
(g65
g58
NtRp4042
(dp4043
g61
(dp4044
g69
I1
ssg70
Nsg63
(lp4045
g56
(g72
g58
NtRp4046
(dp4047
g61
(dp4048
sg70
g4042
sg63
(lp4049
g56
(g77
g58
NtRp4050
(dp4051
g61
(dp4052
sg70
g4046
sg63
(lp4053
g56
(g57
g58
NtRp4054
(dp4055
g61
(dp4056
g69
I1
ssg70
g4050
sg63
(lp4057
g3701
(S's\x08\x00\x00\x00DB Model'
tRp4058
asbasbasbag56
(g72
g58
NtRp4059
(dp4060
g61
(dp4061
sg70
g4042
sg63
(lp4062
g56
(g77
g58
NtRp4063
(dp4064
g61
(dp4065
sg70
g4059
sg63
(lp4066
g56
(g57
g58
NtRp4067
(dp4068
g61
(dp4069
g69
I1
ssg70
g4063
sg63
(lp4070
I00
asbasbasbag56
(g72
g58
NtRp4071
(dp4072
g61
(dp4073
sg70
g4042
sg63
(lp4074
g56
(g77
g58
NtRp4075
(dp4076
g61
(dp4077
sg70
g4071
sg63
(lp4078
g56
(g57
g58
NtRp4079
(dp4080
g61
(dp4081
g69
I1
ssg70
g4075
sg63
(lp4082
S'/admin/default/edit/places/models/db.py'
p4083
asbasbasbasbasbasbasbag56
(g72
g58
NtRp4084
(dp4085
g61
(dp4086
sg70
g3810
sg63
(lp4087
g56
(g77
g58
NtRp4088
(dp4089
g61
(dp4090
sg70
g4084
sg63
(lp4091
g56
(g57
g58
NtRp4092
(dp4093
g61
(dp4094
g69
I2
ssg70
g4088
sg63
(lp4095
g56
(g65
g58
NtRp4096
(dp4097
g61
(dp4098
g69
I1
ssg70
Nsg63
(lp4099
g56
(g72
g58
NtRp4100
(dp4101
g61
(dp4102
sg70
g4096
sg63
(lp4103
g56
(g77
g58
NtRp4104
(dp4105
g61
(dp4106
sg70
g4100
sg63
(lp4107
g56
(g57
g58
NtRp4108
(dp4109
g61
(dp4110
g69
I1
ssg70
g4104
sg63
(lp4111
g3701
(S's\n\x00\x00\x00Menu Model'
tRp4112
asbasbasbag56
(g72
g58
NtRp4113
(dp4114
g61
(dp4115
sg70
g4096
sg63
(lp4116
g56
(g77
g58
NtRp4117
(dp4118
g61
(dp4119
sg70
g4113
sg63
(lp4120
g56
(g57
g58
NtRp4121
(dp4122
g61
(dp4123
g69
I1
ssg70
g4117
sg63
(lp4124
I00
asbasbasbag56
(g72
g58
NtRp4125
(dp4126
g61
(dp4127
sg70
g4096
sg63
(lp4128
g56
(g77
g58
NtRp4129
(dp4130
g61
(dp4131
sg70
g4125
sg63
(lp4132
g56
(g57
g58
NtRp4133
(dp4134
g61
(dp4135
g69
I1
ssg70
g4129
sg63
(lp4136
S'/admin/default/edit/places/models/menu.py'
p4137
asbasbasbasbasbasbasbag56
(g72
g58
NtRp4138
(dp4139
g61
(dp4140
sg70
g3810
sg63
(lp4141
g56
(g77
g58
NtRp4142
(dp4143
g61
(dp4144
sg70
g4138
sg63
(lp4145
g56
(g57
g58
NtRp4146
(dp4147
g61
(dp4148
g69
I2
ssg70
g4142
sg63
(lp4149
g56
(g65
g58
NtRp4150
(dp4151
g61
(dp4152
g69
I1
ssg70
Nsg63
(lp4153
g56
(g72
g58
NtRp4154
(dp4155
g61
(dp4156
sg70
g4150
sg63
(lp4157
g56
(g77
g58
NtRp4158
(dp4159
g61
(dp4160
sg70
g4154
sg63
(lp4161
g56
(g57
g58
NtRp4162
(dp4163
g61
(dp4164
g69
I1
ssg70
g4158
sg63
(lp4165
g3701
(S't\x08\x00\x00\x00Database'
tRp4166
asbasbasbag56
(g72
g58
NtRp4167
(dp4168
g61
(dp4169
sg70
g4150
sg63
(lp4170
g56
(g77
g58
NtRp4171
(dp4172
g61
(dp4173
sg70
g4167
sg63
(lp4174
g56
(g57
g58
NtRp4175
(dp4176
g61
(dp4177
g69
I1
ssg70
g4171
sg63
(lp4178
I00
asbasbasbag56
(g72
g58
NtRp4179
(dp4180
g61
(dp4181
sg70
g4150
sg63
(lp4182
g56
(g77
g58
NtRp4183
(dp4184
g61
(dp4185
sg70
g4179
sg63
(lp4186
g56
(g57
g58
NtRp4187
(dp4188
g61
(dp4189
g69
I1
ssg70
g4183
sg63
(lp4190
S'/places/appadmin/index'
p4191
asbasbasbasbasbasbasbag56
(g72
g58
NtRp4192
(dp4193
g61
(dp4194
sg70
g3810
sg63
(lp4195
g56
(g77
g58
NtRp4196
(dp4197
g61
(dp4198
sg70
g4192
sg63
(lp4199
g56
(g57
g58
NtRp4200
(dp4201
g61
(dp4202
g69
I2
ssg70
g4196
sg63
(lp4203
g56
(g65
g58
NtRp4204
(dp4205
g61
(dp4206
g69
I1
ssg70
Nsg63
(lp4207
g56
(g72
g58
NtRp4208
(dp4209
g61
(dp4210
sg70
g4204
sg63
(lp4211
g56
(g77
g58
NtRp4212
(dp4213
g61
(dp4214
sg70
g4208
sg63
(lp4215
g56
(g57
g58
NtRp4216
(dp4217
g61
(dp4218
g69
I1
ssg70
g4212
sg63
(lp4219
g3701
(S't\x06\x00\x00\x00Errors'
tRp4220
asbasbasbag56
(g72
g58
NtRp4221
(dp4222
g61
(dp4223
sg70
g4204
sg63
(lp4224
g56
(g77
g58
NtRp4225
(dp4226
g61
(dp4227
sg70
g4221
sg63
(lp4228
g56
(g57
g58
NtRp4229
(dp4230
g61
(dp4231
g69
I1
ssg70
g4225
sg63
(lp4232
I00
asbasbasbag56
(g72
g58
NtRp4233
(dp4234
g61
(dp4235
sg70
g4204
sg63
(lp4236
g56
(g77
g58
NtRp4237
(dp4238
g61
(dp4239
sg70
g4233
sg63
(lp4240
g56
(g57
g58
NtRp4241
(dp4242
g61
(dp4243
g69
I1
ssg70
g4237
sg63
(lp4244
S'/admin/default/errors/places'
p4245
asbasbasbasbasbasbasbag56
(g72
g58
NtRp4246
(dp4247
g61
(dp4248
sg70
g3810
sg63
(lp4249
g56
(g77
g58
NtRp4250
(dp4251
g61
(dp4252
sg70
g4246
sg63
(lp4253
g56
(g57
g58
NtRp4254
(dp4255
g61
(dp4256
g69
I2
ssg70
g4250
sg63
(lp4257
g56
(g65
g58
NtRp4258
(dp4259
g61
(dp4260
g69
I1
ssg70
Nsg63
(lp4261
g56
(g72
g58
NtRp4262
(dp4263
g61
(dp4264
sg70
g4258
sg63
(lp4265
g56
(g77
g58
NtRp4266
(dp4267
g61
(dp4268
sg70
g4262
sg63
(lp4269
g56
(g57
g58
NtRp4270
(dp4271
g61
(dp4272
g69
I1
ssg70
g4266
sg63
(lp4273
g3701
(S't\x05\x00\x00\x00About'
tRp4274
asbasbasbag56
(g72
g58
NtRp4275
(dp4276
g61
(dp4277
sg70
g4258
sg63
(lp4278
g56
(g77
g58
NtRp4279
(dp4280
g61
(dp4281
sg70
g4275
sg63
(lp4282
g56
(g57
g58
NtRp4283
(dp4284
g61
(dp4285
g69
I1
ssg70
g4279
sg63
(lp4286
I00
asbasbasbag56
(g72
g58
NtRp4287
(dp4288
g61
(dp4289
sg70
g4258
sg63
(lp4290
g56
(g77
g58
NtRp4291
(dp4292
g61
(dp4293
sg70
g4287
sg63
(lp4294
g56
(g57
g58
NtRp4295
(dp4296
g61
(dp4297
g69
I1
ssg70
g4291
sg63
(lp4298
S'/admin/default/about/places'
p4299
asbasbasbasbasbasbasbasbasbasbasbasbasbasbasbag56
(g72
g58
NtRp4300
(dp4301
g61
(dp4302
sg70
g3669
sg63
(lp4303
g56
(g77
g58
NtRp4304
(dp4305
g61
(dp4306
sg70
g4300
sg63
(lp4307
g56
(g57
g58
NtRp4308
(dp4309
g61
(dp4310
g69
I4
ssg70
g4304
sg63
(lp4311
g56
(g65
g58
NtRp4312
(dp4313
g61
(dp4314
g69
I3
ssg70
Nsg63
(lp4315
g56
(g72
g58
NtRp4316
(dp4317
g61
(dp4318
sg70
g4312
sg63
(lp4319
g56
(g77
g58
NtRp4320
(dp4321
g61
(dp4322
sg70
g4316
sg63
(lp4323
g56
(g57
g58
NtRp4324
(dp4325
g61
(dp4326
g69
I3
ssg70
g4320
sg63
(lp4327
g3701
(S't\t\x00\x00\x00Resources'
tRp4328
asbasbasbag56
(g72
g58
NtRp4329
(dp4330
g61
(dp4331
sg70
g4312
sg63
(lp4332
g56
(g77
g58
NtRp4333
(dp4334
g61
(dp4335
sg70
g4329
sg63
(lp4336
g56
(g57
g58
NtRp4337
(dp4338
g61
(dp4339
g69
I3
ssg70
g4333
sg63
(lp4340
g99
asbasbasbag56
(g72
g58
NtRp4341
(dp4342
g61
(dp4343
sg70
g4312
sg63
(lp4344
g56
(g77
g58
NtRp4345
(dp4346
g61
(dp4347
sg70
g4341
sg63
(lp4348
g56
(g57
g58
NtRp4349
(dp4350
g61
(dp4351
g69
I3
ssg70
g4345
sg63
(lp4352
S'None'
p4353
asbasbasbag56
(g72
g58
NtRp4354
(dp4355
g61
(dp4356
sg70
g4312
sg63
(lp4357
g56
(g77
g58
NtRp4358
(dp4359
g61
(dp4360
sg70
g4354
sg63
(lp4361
g56
(g57
g58
NtRp4362
(dp4363
g61
(dp4364
g69
I3
ssg70
g4358
sg63
(lp4365
g56
(g65
g58
NtRp4366
(dp4367
g61
(dp4368
g69
I2
ssg70
Nsg63
(lp4369
g56
(g72
g58
NtRp4370
(dp4371
g61
(dp4372
sg70
g4366
sg63
(lp4373
g56
(g77
g58
NtRp4374
(dp4375
g61
(dp4376
sg70
g4370
sg63
(lp4377
g56
(g57
g58
NtRp4378
(dp4379
g61
(dp4380
g69
I2
ssg70
g4374
sg63
(lp4381
g56
(g65
g58
NtRp4382
(dp4383
g61
(dp4384
g69
I1
ssg70
Nsg63
(lp4385
g56
(g72
g58
NtRp4386
(dp4387
g61
(dp4388
sg70
g4382
sg63
(lp4389
g56
(g77
g58
NtRp4390
(dp4391
g61
(dp4392
sg70
g4386
sg63
(lp4393
g56
(g57
g58
NtRp4394
(dp4395
g61
(dp4396
g69
I1
ssg70
g4390
sg63
(lp4397
g3701
(S't\r\x00\x00\x00Documentation'
tRp4398
asbasbasbag56
(g72
g58
NtRp4399
(dp4400
g61
(dp4401
sg70
g4382
sg63
(lp4402
g56
(g77
g58
NtRp4403
(dp4404
g61
(dp4405
sg70
g4399
sg63
(lp4406
g56
(g57
g58
NtRp4407
(dp4408
g61
(dp4409
g69
I1
ssg70
g4403
sg63
(lp4410
I00
asbasbasbag56
(g72
g58
NtRp4411
(dp4412
g61
(dp4413
sg70
g4382
sg63
(lp4414
g56
(g77
g58
NtRp4415
(dp4416
g61
(dp4417
sg70
g4411
sg63
(lp4418
g56
(g57
g58
NtRp4419
(dp4420
g61
(dp4421
g69
I1
ssg70
g4415
sg63
(lp4422
S'http://www.web2py.com/book'
p4423
asbasbasbag56
(g72
g58
NtRp4424
(dp4425
g61
(dp4426
sg70
g4382
sg63
(lp4427
g56
(g77
g58
NtRp4428
(dp4429
g61
(dp4430
sg70
g4424
sg63
(lp4431
g56
(g57
g58
NtRp4432
(dp4433
g61
(dp4434
g69
I1
ssg70
g4428
sg63
(lp4435
(lp4436
(g3701
(S't\x07\x00\x00\x00Preface'
tRp4437
I00
S'http://www.web2py.com/book/default/chapter/00'
p4438
tp4439
a(g3701
(S't\x0c\x00\x00\x00Introduction'
tRp4440
I00
S'http://www.web2py.com/book/default/chapter/01'
p4441
tp4442
a(g3701
(S't\x06\x00\x00\x00Python'
tRp4443
I00
S'http://www.web2py.com/book/default/chapter/02'
p4444
tp4445
a(g3701
(S't\x08\x00\x00\x00Overview'
tRp4446
I00
S'http://www.web2py.com/book/default/chapter/03'
p4447
tp4448
a(g3701
(S's\x08\x00\x00\x00The Core'
tRp4449
I00
S'http://www.web2py.com/book/default/chapter/04'
p4450
tp4451
a(g3701
(S's\t\x00\x00\x00The Views'
tRp4452
I00
S'http://www.web2py.com/book/default/chapter/05'
p4453
tp4454
a(g3701
(S't\x08\x00\x00\x00Database'
tRp4455
I00
S'http://www.web2py.com/book/default/chapter/06'
p4456
tp4457
a(g3701
(S's\x14\x00\x00\x00Forms and Validators'
tRp4458
I00
S'http://www.web2py.com/book/default/chapter/07'
p4459
tp4460
a(g3701
(S's\x0e\x00\x00\x00Access Control'
tRp4461
I00
S'http://www.web2py.com/book/default/chapter/08'
p4462
tp4463
a(g3701
(S't\x08\x00\x00\x00Services'
tRp4464
I00
S'http://www.web2py.com/book/default/chapter/09'
p4465
tp4466
a(g3701
(S's\x0c\x00\x00\x00Ajax Recipes'
tRp4467
I00
S'http://www.web2py.com/book/default/chapter/10'
p4468
tp4469
a(g3701
(S's\x12\x00\x00\x00Deployment Recipes'
tRp4470
I00
S'http://www.web2py.com/book/default/chapter/11'
p4471
tp4472
a(g3701
(S's\r\x00\x00\x00Other Recipes'
tRp4473
I00
S'http://www.web2py.com/book/default/chapter/12'
p4474
tp4475
a(g3701
(S's\r\x00\x00\x00Buy this book'
tRp4476
I00
S'http://stores.lulu.com/web2py'
p4477
tp4478
aasbasbasbasbasbasbasbag56
(g72
g58
NtRp4479
(dp4480
g61
(dp4481
sg70
g4366
sg63
(lp4482
g56
(g77
g58
NtRp4483
(dp4484
g61
(dp4485
sg70
g4479
sg63
(lp4486
g56
(g57
g58
NtRp4487
(dp4488
g61
(dp4489
g69
I2
ssg70
g4483
sg63
(lp4490
g56
(g65
g58
NtRp4491
(dp4492
g61
(dp4493
g69
I1
ssg70
Nsg63
(lp4494
g56
(g72
g58
NtRp4495
(dp4496
g61
(dp4497
sg70
g4491
sg63
(lp4498
g56
(g77
g58
NtRp4499
(dp4500
g61
(dp4501
sg70
g4495
sg63
(lp4502
g56
(g57
g58
NtRp4503
(dp4504
g61
(dp4505
g69
I1
ssg70
g4499
sg63
(lp4506
g3701
(S't\t\x00\x00\x00Community'
tRp4507
asbasbasbag56
(g72
g58
NtRp4508
(dp4509
g61
(dp4510
sg70
g4491
sg63
(lp4511
g56
(g77
g58
NtRp4512
(dp4513
g61
(dp4514
sg70
g4508
sg63
(lp4515
g56
(g57
g58
NtRp4516
(dp4517
g61
(dp4518
g69
I1
ssg70
g4512
sg63
(lp4519
I00
asbasbasbag56
(g72
g58
NtRp4520
(dp4521
g61
(dp4522
sg70
g4491
sg63
(lp4523
g56
(g77
g58
NtRp4524
(dp4525
g61
(dp4526
sg70
g4520
sg63
(lp4527
g56
(g57
g58
NtRp4528
(dp4529
g61
(dp4530
g69
I1
ssg70
g4524
sg63
(lp4531
Nasbasbasbag56
(g72
g58
NtRp4532
(dp4533
g61
(dp4534
sg70
g4491
sg63
(lp4535
g56
(g77
g58
NtRp4536
(dp4537
g61
(dp4538
sg70
g4532
sg63
(lp4539
g56
(g57
g58
NtRp4540
(dp4541
g61
(dp4542
g69
I1
ssg70
g4536
sg63
(lp4543
(lp4544
(g3701
(S't\x06\x00\x00\x00Groups'
tRp4545
I00
S'http://www.web2py.com/examples/default/usergroups'
p4546
tp4547
a(g3701
(S't\x07\x00\x00\x00Twitter'
tRp4548
I00
S'http://twitter.com/web2py'
p4549
tp4550
a(g3701
(S's\t\x00\x00\x00Live chat'
tRp4551
I00
S'http://mibbit.com/?channel=%23web2py&server=irc.mibbit.net'
p4552
tp4553
a(g3701
(S's\n\x00\x00\x00User Voice'
tRp4554
I00
S'http://web2py.uservoice.com/'
p4555
tp4556
aasbasbasbasbasbasbasbag56
(g72
g58
NtRp4557
(dp4558
g61
(dp4559
sg70
g4366
sg63
(lp4560
g56
(g77
g58
NtRp4561
(dp4562
g61
(dp4563
sg70
g4557
sg63
(lp4564
g56
(g57
g58
NtRp4565
(dp4566
g61
(dp4567
g69
I2
ssg70
g4561
sg63
(lp4568
g56
(g65
g58
NtRp4569
(dp4570
g61
(dp4571
g69
I1
ssg70
Nsg63
(lp4572
g56
(g72
g58
NtRp4573
(dp4574
g61
(dp4575
sg70
g4569
sg63
(lp4576
g56
(g77
g58
NtRp4577
(dp4578
g61
(dp4579
sg70
g4573
sg63
(lp4580
g56
(g57
g58
NtRp4581
(dp4582
g61
(dp4583
g69
I1
ssg70
g4577
sg63
(lp4584
g3701
(S't\x06\x00\x00\x00Web2py'
tRp4585
asbasbasbag56
(g72
g58
NtRp4586
(dp4587
g61
(dp4588
sg70
g4569
sg63
(lp4589
g56
(g77
g58
NtRp4590
(dp4591
g61
(dp4592
sg70
g4586
sg63
(lp4593
g56
(g57
g58
NtRp4594
(dp4595
g61
(dp4596
g69
I1
ssg70
g4590
sg63
(lp4597
I00
asbasbasbag56
(g72
g58
NtRp4598
(dp4599
g61
(dp4600
sg70
g4569
sg63
(lp4601
g56
(g77
g58
NtRp4602
(dp4603
g61
(dp4604
sg70
g4598
sg63
(lp4605
g56
(g57
g58
NtRp4606
(dp4607
g61
(dp4608
g69
I1
ssg70
g4602
sg63
(lp4609
S'http://www.web2py.com'
p4610
asbasbasbag56
(g72
g58
NtRp4611
(dp4612
g61
(dp4613
sg70
g4569
sg63
(lp4614
g56
(g77
g58
NtRp4615
(dp4616
g61
(dp4617
sg70
g4611
sg63
(lp4618
g56
(g57
g58
NtRp4619
(dp4620
g61
(dp4621
g69
I1
ssg70
g4615
sg63
(lp4622
(lp4623
(g3701
(S't\x08\x00\x00\x00Download'
tRp4624
I00
S'http://www.web2py.com/examples/default/download'
p4625
tp4626
a(g3701
(S't\x07\x00\x00\x00Support'
tRp4627
I00
S'http://www.web2py.com/examples/default/support'
p4628
tp4629
a(g3701
(S's\x0e\x00\x00\x00Quick Examples'
tRp4630
I00
S'http://web2py.com/examples/default/examples'
p4631
tp4632
a(g3701
(S't\x03\x00\x00\x00FAQ'
tRp4633
I00
S'http://web2py.com/AlterEgo'
p4634
tp4635
a(g3701
(S's\x11\x00\x00\x00Free Applications'
tRp4636
I00
S'http://web2py.com/appliances'
p4637
tp4638
a(g3701
(S't\x07\x00\x00\x00Plugins'
tRp4639
I00
S'http://web2py.com/plugins'
p4640
tp4641
a(g3701
(S't\x07\x00\x00\x00Recipes'
tRp4642
I00
S'http://web2pyslices.com/'
p4643
tp4644
a(g3701
(S't\x04\x00\x00\x00Demo'
tRp4645
I00
S'http://web2py.com/demo_admin'
p4646
tp4647
a(g3701
(S't\x08\x00\x00\x00Semantic'
tRp4648
I00
S'http://web2py.com/semantic'
p4649
tp4650
a(g3701
(S't\x07\x00\x00\x00Layouts'
tRp4651
I00
S'http://web2py.com/layouts'
p4652
tp4653
a(g3701
(S't\x06\x00\x00\x00Videos'
tRp4654
I00
S'http://www.web2py.com/examples/default/videos/'
p4655
tp4656
aasbasbasbasbasbasbasbasbasbasbasbasbasbasbasbasbasbasbasbag56
(g72
g58
NtRp4657
(dp4658
g61
(dp4659
sg70
g3118
sg63
(lp4660
g56
(g77
g58
NtRp4661
(dp4662
g61
(dp4663
g81
g82
ssg70
g4657
sg63
(lp4664
S'meta'
p4665
asbag56
(g77
g58
NtRp4666
(dp4667
g61
(dp4668
g88
g89
ssg70
g4657
sg63
(lp4669
S':'
asbag56
(g77
g58
NtRp4670
(dp4671
g61
(dp4672
sg70
g4657
sg63
(lp4673
g56
(g57
g58
NtRp4674
(dp4675
g61
(dp4676
g69
I5
ssg70
g4670
sg63
(lp4677
g56
(g65
g58
NtRp4678
(dp4679
g61
(dp4680
g69
I4
ssg70
Nsg63
(lp4681
g56
(g72
g58
NtRp4682
(dp4683
g61
(dp4684
sg70
g4678
sg63
(lp4685
g56
(g77
g58
NtRp4686
(dp4687
g61
(dp4688
g81
g82
ssg70
g4682
sg63
(lp4689
S'author'
p4690
asbag56
(g77
g58
NtRp4691
(dp4692
g61
(dp4693
g88
g89
ssg70
g4682
sg63
(lp4694
S':'
asbag56
(g77
g58
NtRp4695
(dp4696
g61
(dp4697
sg70
g4682
sg63
(lp4698
g56
(g57
g58
NtRp4699
(dp4700
g61
(dp4701
g69
I4
ssg70
g4695
sg63
(lp4702
S'Your Name <you@example.com>'
p4703
asbasbasbag56
(g72
g58
NtRp4704
(dp4705
g61
(dp4706
sg70
g4678
sg63
(lp4707
g56
(g77
g58
NtRp4708
(dp4709
g61
(dp4710
g81
g82
ssg70
g4704
sg63
(lp4711
S'copyright'
p4712
asbag56
(g77
g58
NtRp4713
(dp4714
g61
(dp4715
g88
g89
ssg70
g4704
sg63
(lp4716
S':'
asbag56
(g77
g58
NtRp4717
(dp4718
g61
(dp4719
sg70
g4704
sg63
(lp4720
g56
(g57
g58
NtRp4721
(dp4722
g61
(dp4723
g69
I4
ssg70
g4717
sg63
(lp4724
S'Copyright 2011'
p4725
asbasbasbag56
(g72
g58
NtRp4726
(dp4727
g61
(dp4728
sg70
g4678
sg63
(lp4729
g56
(g77
g58
NtRp4730
(dp4731
g61
(dp4732
g81
g82
ssg70
g4726
sg63
(lp4733
S'description'
p4734
asbag56
(g77
g58
NtRp4735
(dp4736
g61
(dp4737
g88
g89
ssg70
g4726
sg63
(lp4738
S':'
asbag56
(g77
g58
NtRp4739
(dp4740
g61
(dp4741
sg70
g4726
sg63
(lp4742
g56
(g57
g58
NtRp4743
(dp4744
g61
(dp4745
g69
I4
ssg70
g4739
sg63
(lp4746
S'a cool new app'
p4747
asbasbasbag56
(g72
g58
NtRp4748
(dp4749
g61
(dp4750
sg70
g4678
sg63
(lp4751
g56
(g77
g58
NtRp4752
(dp4753
g61
(dp4754
g81
g82
ssg70
g4748
sg63
(lp4755
S'generator'
p4756
asbag56
(g77
g58
NtRp4757
(dp4758
g61
(dp4759
g88
g89
ssg70
g4748
sg63
(lp4760
S':'
asbag56
(g77
g58
NtRp4761
(dp4762
g61
(dp4763
sg70
g4748
sg63
(lp4764
g56
(g57
g58
NtRp4765
(dp4766
g61
(dp4767
g69
I4
ssg70
g4761
sg63
(lp4768
S'Web2py Web Framework'
p4769
asbasbasbag56
(g72
g58
NtRp4770
(dp4771
g61
(dp4772
sg70
g4678
sg63
(lp4773
g56
(g77
g58
NtRp4774
(dp4775
g61
(dp4776
g81
g82
ssg70
g4770
sg63
(lp4777
S'keywords'
p4778
asbag56
(g77
g58
NtRp4779
(dp4780
g61
(dp4781
g88
g89
ssg70
g4770
sg63
(lp4782
S':'
asbag56
(g77
g58
NtRp4783
(dp4784
g61
(dp4785
sg70
g4770
sg63
(lp4786
g56
(g57
g58
NtRp4787
(dp4788
g61
(dp4789
g69
I4
ssg70
g4783
sg63
(lp4790
S'web2py, python, framework'
p4791
asbasbasbasbasbasbasbag56
(g72
g58
NtRp4792
(dp4793
g61
(dp4794
sg70
g3118
sg63
(lp4795
g56
(g77
g58
NtRp4796
(dp4797
g61
(dp4798
g81
g82
ssg70
g4792
sg63
(lp4799
S'postprocessing'
p4800
asbag56
(g77
g58
NtRp4801
(dp4802
g61
(dp4803
g88
g89
ssg70
g4792
sg63
(lp4804
S':'
asbag56
(g77
g58
NtRp4805
(dp4806
g61
(dp4807
sg70
g4792
sg63
(lp4808
g56
(g57
g58
NtRp4809
(dp4810
g61
(dp4811
g69
I5
ssg70
g4805
sg63
(lp4812
g56
(g65
g58
NtRp4813
(dp4814
g61
(dp4815
g69
I4
ssg70
Nsg63
(lp4816
sbasbasbasbag56
(g72
g58
NtRp4817
(dp4818
g61
(dp4819
sg70
g3118
sg63
(lp4820
g56
(g77
g58
NtRp4821
(dp4822
g61
(dp4823
g81
g82
ssg70
g4817
sg63
(lp4824
S'session_file'
p4825
asbag56
(g77
g58
NtRp4826
(dp4827
g61
(dp4828
g88
g89
ssg70
g4817
sg63
(lp4829
S':'
asbag56
(g77
g58
NtRp4830
(dp4831
g61
(dp4832
sg70
g4817
sg63
(lp4833
g56
(g57
g58
NtRp4834
(dp4835
g61
(dp4836
g69
I5
ssg70
g4830
sg63
(lp4837
S"<open file '/home/ian/web2py/applications/places/sessions/127.0.0.1-9bd70a00-d029-4b6e-8bcc-a423c3a61399', mode 'rb+' at 0x3b32810>"
p4838
asbasbasbag56
(g72
g58
NtRp4839
(dp4840
g61
(dp4841
sg70
g3118
sg63
(lp4842
g56
(g77
g58
NtRp4843
(dp4844
g61
(dp4845
g81
g82
ssg70
g4839
sg63
(lp4846
S'session_filename'
p4847
asbag56
(g77
g58
NtRp4848
(dp4849
g61
(dp4850
g88
g89
ssg70
g4839
sg63
(lp4851
S':'
asbag56
(g77
g58
NtRp4852
(dp4853
g61
(dp4854
sg70
g4839
sg63
(lp4855
g56
(g57
g58
NtRp4856
(dp4857
g61
(dp4858
g69
I5
ssg70
g4852
sg63
(lp4859
S'/home/ian/web2py/applications/places/sessions/127.0.0.1-9bd70a00-d029-4b6e-8bcc-a423c3a61399'
p4860
asbasbasbag56
(g72
g58
NtRp4861
(dp4862
g61
(dp4863
sg70
g3118
sg63
(lp4864
g56
(g77
g58
NtRp4865
(dp4866
g61
(dp4867
g81
g82
ssg70
g4861
sg63
(lp4868
S'session_id'
p4869
asbag56
(g77
g58
NtRp4870
(dp4871
g61
(dp4872
g88
g89
ssg70
g4861
sg63
(lp4873
S':'
asbag56
(g77
g58
NtRp4874
(dp4875
g61
(dp4876
sg70
g4861
sg63
(lp4877
g56
(g57
g58
NtRp4878
(dp4879
g61
(dp4880
g69
I5
ssg70
g4874
sg63
(lp4881
S'127.0.0.1-9bd70a00-d029-4b6e-8bcc-a423c3a61399'
p4882
asbasbasbag56
(g72
g58
NtRp4883
(dp4884
g61
(dp4885
sg70
g3118
sg63
(lp4886
g56
(g77
g58
NtRp4887
(dp4888
g61
(dp4889
g81
g82
ssg70
g4883
sg63
(lp4890
S'session_id_name'
p4891
asbag56
(g77
g58
NtRp4892
(dp4893
g61
(dp4894
g88
g89
ssg70
g4883
sg63
(lp4895
S':'
asbag56
(g77
g58
NtRp4896
(dp4897
g61
(dp4898
sg70
g4883
sg63
(lp4899
g56
(g57
g58
NtRp4900
(dp4901
g61
(dp4902
g69
I5
ssg70
g4896
sg63
(lp4903
g3175
asbasbasbag56
(g72
g58
NtRp4904
(dp4905
g61
(dp4906
sg70
g3118
sg63
(lp4907
g56
(g77
g58
NtRp4908
(dp4909
g61
(dp4910
g81
g82
ssg70
g4904
sg63
(lp4911
S'session_locked'
p4912
asbag56
(g77
g58
NtRp4913
(dp4914
g61
(dp4915
g88
g89
ssg70
g4904
sg63
(lp4916
S':'
asbag56
(g77
g58
NtRp4917
(dp4918
g61
(dp4919
sg70
g4904
sg63
(lp4920
g56
(g57
g58
NtRp4921
(dp4922
g61
(dp4923
g69
I5
ssg70
g4917
sg63
(lp4924
g1656
asbasbasbag56
(g72
g58
NtRp4925
(dp4926
g61
(dp4927
sg70
g3118
sg63
(lp4928
g56
(g77
g58
NtRp4929
(dp4930
g61
(dp4931
g81
g82
ssg70
g4925
sg63
(lp4932
S'session_new'
p4933
asbag56
(g77
g58
NtRp4934
(dp4935
g61
(dp4936
g88
g89
ssg70
g4925
sg63
(lp4937
S':'
asbag56
(g77
g58
NtRp4938
(dp4939
g61
(dp4940
sg70
g4925
sg63
(lp4941
g56
(g57
g58
NtRp4942
(dp4943
g61
(dp4944
g69
I5
ssg70
g4938
sg63
(lp4945
g99
asbasbasbag56
(g72
g58
NtRp4946
(dp4947
g61
(dp4948
sg70
g3118
sg63
(lp4949
g56
(g77
g58
NtRp4950
(dp4951
g61
(dp4952
g81
g82
ssg70
g4946
sg63
(lp4953
S'status'
p4954
asbag56
(g77
g58
NtRp4955
(dp4956
g61
(dp4957
g88
g89
ssg70
g4946
sg63
(lp4958
S':'
asbag56
(g77
g58
NtRp4959
(dp4960
g61
(dp4961
sg70
g4946
sg63
(lp4962
g56
(g57
g58
NtRp4963
(dp4964
g61
(dp4965
g69
I5
ssg70
g4959
sg63
(lp4966
S'200'
p4967
asbasbasbag56
(g72
g58
NtRp4968
(dp4969
g61
(dp4970
sg70
g3118
sg63
(lp4971
g56
(g77
g58
NtRp4972
(dp4973
g61
(dp4974
g81
g82
ssg70
g4968
sg63
(lp4975
S'subtitle'
p4976
asbag56
(g77
g58
NtRp4977
(dp4978
g61
(dp4979
g88
g89
ssg70
g4968
sg63
(lp4980
S':'
asbag56
(g77
g58
NtRp4981
(dp4982
g61
(dp4983
sg70
g4968
sg63
(lp4984
g56
(g57
g58
NtRp4985
(dp4986
g61
(dp4987
g69
I5
ssg70
g4981
sg63
(lp4988
g3701
(S's\r\x00\x00\x00customize me!'
tRp4989
asbasbasbag56
(g72
g58
NtRp4990
(dp4991
g61
(dp4992
sg70
g3118
sg63
(lp4993
g56
(g77
g58
NtRp4994
(dp4995
g61
(dp4996
g81
g82
ssg70
g4990
sg63
(lp4997
S'title'
p4998
asbag56
(g77
g58
NtRp4999
(dp5000
g61
(dp5001
g88
g89
ssg70
g4990
sg63
(lp5002
S':'
asbag56
(g77
g58
NtRp5003
(dp5004
g61
(dp5005
sg70
g4990
sg63
(lp5006
g56
(g57
g58
NtRp5007
(dp5008
g61
(dp5009
g69
I5
ssg70
g5003
sg63
(lp5010
g121
asbasbasbag56
(g72
g58
NtRp5011
(dp5012
g61
(dp5013
sg70
g3118
sg63
(lp5014
g56
(g77
g58
NtRp5015
(dp5016
g61
(dp5017
g81
g82
ssg70
g5011
sg63
(lp5018
g2300
asbag56
(g77
g58
NtRp5019
(dp5020
g61
(dp5021
g88
g89
ssg70
g5011
sg63
(lp5022
S':'
asbag56
(g77
g58
NtRp5023
(dp5024
g61
(dp5025
sg70
g5011
sg63
(lp5026
g56
(g57
g58
NtRp5027
(dp5028
g61
(dp5029
g69
I5
ssg70
g5023
sg63
(lp5030
g2313
asbasbasbag56
(g72
g58
NtRp5031
(dp5032
g61
(dp5033
sg70
g3118
sg63
(lp5034
g56
(g77
g58
NtRp5035
(dp5036
g61
(dp5037
g81
g82
ssg70
g5031
sg63
(lp5038
S'view'
p5039
asbag56
(g77
g58
NtRp5040
(dp5041
g61
(dp5042
g88
g89
ssg70
g5031
sg63
(lp5043
S':'
asbag56
(g77
g58
NtRp5044
(dp5045
g61
(dp5046
sg70
g5031
sg63
(lp5047
g56
(g57
g58
NtRp5048
(dp5049
g61
(dp5050
g69
I5
ssg70
g5044
sg63
(lp5051
S'default/index.html'
p5052
asbasbasbasbasbsS'locals'
p5053
(dp5054
g2322
S"'the_view:tag.tag'"
p5055
sS'hash_vars'
p5056
g1656
sS'port'
p5057
S'None'
p5058
sS'current'
p5059
S'<thread._local object>'
p5060
sg108
S"'places'"
p5061
sS'other'
p5062
S"''"
p5063
sS'user_signature'
p5064
S'None'
p5065
sg808
S"<Storage {'debugging': False, 'http_user_agent':...[]), 'query_string': '', 'wsgi_run_once': False}>"
p5066
sS'scheme'
p5067
S'None'
p5068
sg1801
S"'index'"
p5069
sS'encode_embedded_slash'
p5070
g99
sg23
S'[]'
p5071
sg198
S"'default'"
p5072
sS'a'
S'None'
p5073
sS'c'
S'None'
p5074
sS'function2'
p5075
S"'index.load'"
p5076
sg1757
S"'load'"
p5077
sS'f'
S"'index.load'"
p5078
sS'host'
p5079
S'None'
p5080
sS'hmac_key'
p5081
S'None'
p5082
sS'r'
S"<Storage {'body': <cStringIO.StringO object at 0..._vars': <Storage {}>, 'post_vars': <Storage {}>}>"
p5083
sS'salt'
p5084
S'None'
p5085
sS'anchor'
p5086
S"''"
p5087
sssS'traceback'
p5088
S'Traceback (most recent call last):\n  File "/home/ian/web2py/gluon/restricted.py", line 194, in restricted\n    exec ccode in environment\n  File "/home/ian/web2py/applications/places/views/default/index.html", line 82, in <module>\n  File "/home/ian/web2py/gluon/html.py", line 258, in URL\n    if vars.has_key(\'_signature\'): vars.pop(\'_signature\')\nAttributeError: \'str\' object has no attribute \'has_key\'\n'
p5089
s.