(dp1
S'output'
p2
S''
sS'layer'
p3
S'/home/ian/Dropbox/Web_Pages/web2py-linux/applications/places/controllers/default.py'
p4
sS'code'
p5
S'# -*- coding: utf-8 -*-\n# this file is released under public domain and you can use without limitations\n\n#########################################################################\n## This is a samples controller\n## - index is the default action of any application\n## - user is required for authentication and authorization\n## - download is for downloading files uploaded in the db (does streaming)\n## - call exposes all registered services (none by default)\n#########################################################################\n\ndef index():\n    """\n    example action using the internationalization operator T and flash\n    rendered by views/default/index.html or views/generic.html\n    """   \n        \n    if request.args:\n        session.current = request.args[0]    \n    elif not session.current:\n        the_row = db(db.tags.id == 1).select()\n        session.current = the_row.tag\n    \n    current_row = db(db.tags.tag == session.current).select()    \n    current = current_row.id\n       \n    links = db(db.links.tags.contains(current)).select()\n    \n    return dict(links = links)\n\ndef user():\n    """\n    exposes:\n    http://..../[app]/default/user/login\n    http://..../[app]/default/user/logout\n    http://..../[app]/default/user/register\n    http://..../[app]/default/user/profile\n    http://..../[app]/default/user/retrieve_password\n    http://..../[app]/default/user/change_password\n    use @auth.requires_login()\n        @auth.requires_membership(\'group name\')\n        @auth.requires_permission(\'read\',\'table name\',record_id)\n    to decorate functions that need access control\n    """\n    return dict(form=auth())\n\n\ndef download():\n    """\n    allows downloading of uploaded files\n    http://..../[app]/default/download/[filename]\n    """\n    return response.download(request,db)\n\n\ndef call():\n    """\n    exposes services. for example:\n    http://..../[app]/default/call/jsonrpc\n    decorate with @services.jsonrpc the functions to expose\n    supports xml, json, xmlrpc, jsonrpc, amfrpc, rss, csv\n    """\n    return service()\n\n\n@auth.requires_signature()\ndef data():\n    """\n    http://..../[app]/default/data/tables\n    http://..../[app]/default/data/create/[table]\n    http://..../[app]/default/data/read/[table]/[id]\n    http://..../[app]/default/data/update/[table]/[id]\n    http://..../[app]/default/data/delete/[table]/[id]\n    http://..../[app]/default/data/select/[table]\n    http://..../[app]/default/data/search/[table]\n    but URLs bust be signed, i.e. linked with\n      A(\'table\',_href=URL(\'data/tables\',user_signature=True))\n    or with the signed load operator\n      LOAD(\'default\',\'data.load\',args=\'tables\',ajax=True,user_signature=True)\n    """\n    return dict(form=crud())\n\nresponse._vars=response._caller(index)\n'
p6
sS'snapshot'
p7
(dp8
S'exception'
p9
(dp10
S'__hash__'
p11
S"<method-wrapper '__hash__' of exceptions.AttributeError object>"
p12
sS'__setattr__'
p13
S"<method-wrapper '__setattr__' of exceptions.AttributeError object>"
p14
sS'__reduce_ex__'
p15
S'<built-in method __reduce_ex__ of exceptions.AttributeError object>'
p16
sS'__getslice__'
p17
S"<method-wrapper '__getslice__' of exceptions.AttributeError object>"
p18
sS'__getitem__'
p19
S"<method-wrapper '__getitem__' of exceptions.AttributeError object>"
p20
sS'__setstate__'
p21
S'<built-in method __setstate__ of exceptions.AttributeError object>'
p22
sS'args'
p23
S'("\'Rows\' object has no attribute \'id\'",)'
p24
sS'__reduce__'
p25
S'<built-in method __reduce__ of exceptions.AttributeError object>'
p26
sS'__str__'
p27
S"<method-wrapper '__str__' of exceptions.AttributeError object>"
p28
sS'__format__'
p29
S'<built-in method __format__ of exceptions.AttributeError object>'
p30
sS'__getattribute__'
p31
S"<method-wrapper '__getattribute__' of exceptions.AttributeError object>"
p32
sS'__class__'
p33
S"<type 'exceptions.AttributeError'>"
p34
sS'__unicode__'
p35
S'<built-in method __unicode__ of exceptions.AttributeError object>'
p36
sS'__delattr__'
p37
S"<method-wrapper '__delattr__' of exceptions.AttributeError object>"
p38
sS'__subclasshook__'
p39
S'<built-in method __subclasshook__ of type object>'
p40
sS'__repr__'
p41
S"<method-wrapper '__repr__' of exceptions.AttributeError object>"
p42
sS'__dict__'
p43
S'{}'
p44
sS'__sizeof__'
p45
S'<built-in method __sizeof__ of exceptions.AttributeError object>'
p46
sS'__doc__'
p47
S"'Attribute not found.'"
p48
sS'__init__'
p49
S"<method-wrapper '__init__' of exceptions.AttributeError object>"
p50
sS'__new__'
p51
S'<built-in method __new__ of type object>'
p52
ssS'evalue'
p53
S"'Rows' object has no attribute 'id'"
p54
sS'request'
p55
ccopy_reg
_reconstructor
p56
(cgluon.html
BEAUTIFY
p57
c__builtin__
object
p58
NtRp59
(dp60
S'attributes'
p61
(dp62
sS'components'
p63
(lp64
g56
(cgluon.html
TABLE
p65
g58
NtRp66
(dp67
g61
(dp68
S'level'
p69
I5
ssS'parent'
p70
Nsg63
(lp71
g56
(cgluon.html
TR
p72
g58
NtRp73
(dp74
g61
(dp75
sg70
g66
sg63
(lp76
g56
(cgluon.html
TD
p77
g58
NtRp78
(dp79
g61
(dp80
S'_style'
p81
S'font-weight:bold;'
p82
ssg70
g73
sg63
(lp83
S'ajax'
p84
asbag56
(g77
g58
NtRp85
(dp86
g61
(dp87
S'_valign'
p88
S'top'
p89
ssg70
g73
sg63
(lp90
S':'
asbag56
(g77
g58
NtRp91
(dp92
g61
(dp93
sg70
g73
sg63
(lp94
g56
(g57
g58
NtRp95
(dp96
g61
(dp97
g69
I5
ssg70
g91
sg63
(lp98
S'False'
p99
asbasbasbag56
(g72
g58
NtRp100
(dp101
g61
(dp102
sg70
g66
sg63
(lp103
g56
(g77
g58
NtRp104
(dp105
g61
(dp106
g81
g82
ssg70
g100
sg63
(lp107
S'application'
p108
asbag56
(g77
g58
NtRp109
(dp110
g61
(dp111
g88
g89
ssg70
g100
sg63
(lp112
S':'
asbag56
(g77
g58
NtRp113
(dp114
g61
(dp115
sg70
g100
sg63
(lp116
g56
(g57
g58
NtRp117
(dp118
g61
(dp119
g69
I5
ssg70
g113
sg63
(lp120
S'places'
p121
asbasbasbag56
(g72
g58
NtRp122
(dp123
g61
(dp124
sg70
g66
sg63
(lp125
g56
(g77
g58
NtRp126
(dp127
g61
(dp128
g81
g82
ssg70
g122
sg63
(lp129
g23
asbag56
(g77
g58
NtRp130
(dp131
g61
(dp132
g88
g89
ssg70
g122
sg63
(lp133
S':'
asbag56
(g77
g58
NtRp134
(dp135
g61
(dp136
sg70
g122
sg63
(lp137
g56
(g57
g58
NtRp138
(dp139
g61
(dp140
g69
I5
ssg70
g134
sg63
(lp141
g56
(g65
g58
NtRp142
(dp143
g61
(dp144
g69
I4
ssg70
Nsg63
(lp145
sbasbasbasbag56
(g72
g58
NtRp146
(dp147
g61
(dp148
sg70
g66
sg63
(lp149
g56
(g77
g58
NtRp150
(dp151
g61
(dp152
g81
g82
ssg70
g146
sg63
(lp153
S'body'
p154
asbag56
(g77
g58
NtRp155
(dp156
g61
(dp157
g88
g89
ssg70
g146
sg63
(lp158
S':'
asbag56
(g77
g58
NtRp159
(dp160
g61
(dp161
sg70
g146
sg63
(lp162
g56
(g57
g58
NtRp163
(dp164
g61
(dp165
g69
I5
ssg70
g159
sg63
(lp166
S'<cStringIO.StringO object at 0x3bc2848>'
p167
asbasbasbag56
(g72
g58
NtRp168
(dp169
g61
(dp170
sg70
g66
sg63
(lp171
g56
(g77
g58
NtRp172
(dp173
g61
(dp174
g81
g82
ssg70
g168
sg63
(lp175
S'client'
p176
asbag56
(g77
g58
NtRp177
(dp178
g61
(dp179
g88
g89
ssg70
g168
sg63
(lp180
S':'
asbag56
(g77
g58
NtRp181
(dp182
g61
(dp183
sg70
g168
sg63
(lp184
g56
(g57
g58
NtRp185
(dp186
g61
(dp187
g69
I5
ssg70
g181
sg63
(lp188
S'127.0.0.1'
p189
asbasbasbag56
(g72
g58
NtRp190
(dp191
g61
(dp192
sg70
g66
sg63
(lp193
g56
(g77
g58
NtRp194
(dp195
g61
(dp196
g81
g82
ssg70
g190
sg63
(lp197
S'controller'
p198
asbag56
(g77
g58
NtRp199
(dp200
g61
(dp201
g88
g89
ssg70
g190
sg63
(lp202
S':'
asbag56
(g77
g58
NtRp203
(dp204
g61
(dp205
sg70
g190
sg63
(lp206
g56
(g57
g58
NtRp207
(dp208
g61
(dp209
g69
I5
ssg70
g203
sg63
(lp210
S'default'
p211
asbasbasbag56
(g72
g58
NtRp212
(dp213
g61
(dp214
sg70
g66
sg63
(lp215
g56
(g77
g58
NtRp216
(dp217
g61
(dp218
g81
g82
ssg70
g212
sg63
(lp219
S'cookies'
p220
asbag56
(g77
g58
NtRp221
(dp222
g61
(dp223
g88
g89
ssg70
g212
sg63
(lp224
S':'
asbag56
(g77
g58
NtRp225
(dp226
g61
(dp227
sg70
g212
sg63
(lp228
g56
(g57
g58
NtRp229
(dp230
g61
(dp231
g69
I5
ssg70
g225
sg63
(lp232
g56
(g65
g58
NtRp233
(dp234
g61
(dp235
g69
I4
ssg70
Nsg63
(lp236
g56
(g72
g58
NtRp237
(dp238
g61
(dp239
sg70
g233
sg63
(lp240
g56
(g77
g58
NtRp241
(dp242
g61
(dp243
g81
g82
ssg70
g237
sg63
(lp244
S'session_id_admin'
p245
asbag56
(g77
g58
NtRp246
(dp247
g61
(dp248
g88
g89
ssg70
g237
sg63
(lp249
S':'
asbag56
(g77
g58
NtRp250
(dp251
g61
(dp252
sg70
g237
sg63
(lp253
g56
(g57
g58
NtRp254
(dp255
g61
(dp256
g69
I4
ssg70
g250
sg63
(lp257
g56
(g65
g58
NtRp258
(dp259
g61
(dp260
g69
I3
ssg70
Nsg63
(lp261
g56
(g72
g58
NtRp262
(dp263
g61
(dp264
sg70
g258
sg63
(lp265
g56
(g77
g58
NtRp266
(dp267
g61
(dp268
g81
g82
ssg70
g262
sg63
(lp269
S'comment'
p270
asbag56
(g77
g58
NtRp271
(dp272
g61
(dp273
g88
g89
ssg70
g262
sg63
(lp274
S':'
asbag56
(g77
g58
NtRp275
(dp276
g61
(dp277
sg70
g262
sg63
(lp278
g56
(g57
g58
NtRp279
(dp280
g61
(dp281
g69
I3
ssg70
g275
sg63
(lp282
S''
asbasbasbag56
(g72
g58
NtRp283
(dp284
g61
(dp285
sg70
g258
sg63
(lp286
g56
(g77
g58
NtRp287
(dp288
g61
(dp289
g81
g82
ssg70
g283
sg63
(lp290
S'domain'
p291
asbag56
(g77
g58
NtRp292
(dp293
g61
(dp294
g88
g89
ssg70
g283
sg63
(lp295
S':'
asbag56
(g77
g58
NtRp296
(dp297
g61
(dp298
sg70
g283
sg63
(lp299
g56
(g57
g58
NtRp300
(dp301
g61
(dp302
g69
I3
ssg70
g296
sg63
(lp303
S''
asbasbasbag56
(g72
g58
NtRp304
(dp305
g61
(dp306
sg70
g258
sg63
(lp307
g56
(g77
g58
NtRp308
(dp309
g61
(dp310
g81
g82
ssg70
g304
sg63
(lp311
S'expires'
p312
asbag56
(g77
g58
NtRp313
(dp314
g61
(dp315
g88
g89
ssg70
g304
sg63
(lp316
S':'
asbag56
(g77
g58
NtRp317
(dp318
g61
(dp319
sg70
g304
sg63
(lp320
g56
(g57
g58
NtRp321
(dp322
g61
(dp323
g69
I3
ssg70
g317
sg63
(lp324
S''
asbasbasbag56
(g72
g58
NtRp325
(dp326
g61
(dp327
sg70
g258
sg63
(lp328
g56
(g77
g58
NtRp329
(dp330
g61
(dp331
g81
g82
ssg70
g325
sg63
(lp332
S'httponly'
p333
asbag56
(g77
g58
NtRp334
(dp335
g61
(dp336
g88
g89
ssg70
g325
sg63
(lp337
S':'
asbag56
(g77
g58
NtRp338
(dp339
g61
(dp340
sg70
g325
sg63
(lp341
g56
(g57
g58
NtRp342
(dp343
g61
(dp344
g69
I3
ssg70
g338
sg63
(lp345
S''
asbasbasbag56
(g72
g58
NtRp346
(dp347
g61
(dp348
sg70
g258
sg63
(lp349
g56
(g77
g58
NtRp350
(dp351
g61
(dp352
g81
g82
ssg70
g346
sg63
(lp353
S'max-age'
p354
asbag56
(g77
g58
NtRp355
(dp356
g61
(dp357
g88
g89
ssg70
g346
sg63
(lp358
S':'
asbag56
(g77
g58
NtRp359
(dp360
g61
(dp361
sg70
g346
sg63
(lp362
g56
(g57
g58
NtRp363
(dp364
g61
(dp365
g69
I3
ssg70
g359
sg63
(lp366
S''
asbasbasbag56
(g72
g58
NtRp367
(dp368
g61
(dp369
sg70
g258
sg63
(lp370
g56
(g77
g58
NtRp371
(dp372
g61
(dp373
g81
g82
ssg70
g367
sg63
(lp374
S'path'
p375
asbag56
(g77
g58
NtRp376
(dp377
g61
(dp378
g88
g89
ssg70
g367
sg63
(lp379
S':'
asbag56
(g77
g58
NtRp380
(dp381
g61
(dp382
sg70
g367
sg63
(lp383
g56
(g57
g58
NtRp384
(dp385
g61
(dp386
g69
I3
ssg70
g380
sg63
(lp387
S''
asbasbasbag56
(g72
g58
NtRp388
(dp389
g61
(dp390
sg70
g258
sg63
(lp391
g56
(g77
g58
NtRp392
(dp393
g61
(dp394
g81
g82
ssg70
g388
sg63
(lp395
S'secure'
p396
asbag56
(g77
g58
NtRp397
(dp398
g61
(dp399
g88
g89
ssg70
g388
sg63
(lp400
S':'
asbag56
(g77
g58
NtRp401
(dp402
g61
(dp403
sg70
g388
sg63
(lp404
g56
(g57
g58
NtRp405
(dp406
g61
(dp407
g69
I3
ssg70
g401
sg63
(lp408
S''
asbasbasbag56
(g72
g58
NtRp409
(dp410
g61
(dp411
sg70
g258
sg63
(lp412
g56
(g77
g58
NtRp413
(dp414
g61
(dp415
g81
g82
ssg70
g409
sg63
(lp416
S'version'
p417
asbag56
(g77
g58
NtRp418
(dp419
g61
(dp420
g88
g89
ssg70
g409
sg63
(lp421
S':'
asbag56
(g77
g58
NtRp422
(dp423
g61
(dp424
sg70
g409
sg63
(lp425
g56
(g57
g58
NtRp426
(dp427
g61
(dp428
g69
I3
ssg70
g422
sg63
(lp429
S''
asbasbasbasbasbasbasbag56
(g72
g58
NtRp430
(dp431
g61
(dp432
sg70
g233
sg63
(lp433
g56
(g77
g58
NtRp434
(dp435
g61
(dp436
g81
g82
ssg70
g430
sg63
(lp437
S'session_id_blog'
p438
asbag56
(g77
g58
NtRp439
(dp440
g61
(dp441
g88
g89
ssg70
g430
sg63
(lp442
S':'
asbag56
(g77
g58
NtRp443
(dp444
g61
(dp445
sg70
g430
sg63
(lp446
g56
(g57
g58
NtRp447
(dp448
g61
(dp449
g69
I4
ssg70
g443
sg63
(lp450
g56
(g65
g58
NtRp451
(dp452
g61
(dp453
g69
I3
ssg70
Nsg63
(lp454
g56
(g72
g58
NtRp455
(dp456
g61
(dp457
sg70
g451
sg63
(lp458
g56
(g77
g58
NtRp459
(dp460
g61
(dp461
g81
g82
ssg70
g455
sg63
(lp462
g270
asbag56
(g77
g58
NtRp463
(dp464
g61
(dp465
g88
g89
ssg70
g455
sg63
(lp466
S':'
asbag56
(g77
g58
NtRp467
(dp468
g61
(dp469
sg70
g455
sg63
(lp470
g56
(g57
g58
NtRp471
(dp472
g61
(dp473
g69
I3
ssg70
g467
sg63
(lp474
S''
asbasbasbag56
(g72
g58
NtRp475
(dp476
g61
(dp477
sg70
g451
sg63
(lp478
g56
(g77
g58
NtRp479
(dp480
g61
(dp481
g81
g82
ssg70
g475
sg63
(lp482
g291
asbag56
(g77
g58
NtRp483
(dp484
g61
(dp485
g88
g89
ssg70
g475
sg63
(lp486
S':'
asbag56
(g77
g58
NtRp487
(dp488
g61
(dp489
sg70
g475
sg63
(lp490
g56
(g57
g58
NtRp491
(dp492
g61
(dp493
g69
I3
ssg70
g487
sg63
(lp494
S''
asbasbasbag56
(g72
g58
NtRp495
(dp496
g61
(dp497
sg70
g451
sg63
(lp498
g56
(g77
g58
NtRp499
(dp500
g61
(dp501
g81
g82
ssg70
g495
sg63
(lp502
g312
asbag56
(g77
g58
NtRp503
(dp504
g61
(dp505
g88
g89
ssg70
g495
sg63
(lp506
S':'
asbag56
(g77
g58
NtRp507
(dp508
g61
(dp509
sg70
g495
sg63
(lp510
g56
(g57
g58
NtRp511
(dp512
g61
(dp513
g69
I3
ssg70
g507
sg63
(lp514
S''
asbasbasbag56
(g72
g58
NtRp515
(dp516
g61
(dp517
sg70
g451
sg63
(lp518
g56
(g77
g58
NtRp519
(dp520
g61
(dp521
g81
g82
ssg70
g515
sg63
(lp522
g333
asbag56
(g77
g58
NtRp523
(dp524
g61
(dp525
g88
g89
ssg70
g515
sg63
(lp526
S':'
asbag56
(g77
g58
NtRp527
(dp528
g61
(dp529
sg70
g515
sg63
(lp530
g56
(g57
g58
NtRp531
(dp532
g61
(dp533
g69
I3
ssg70
g527
sg63
(lp534
S''
asbasbasbag56
(g72
g58
NtRp535
(dp536
g61
(dp537
sg70
g451
sg63
(lp538
g56
(g77
g58
NtRp539
(dp540
g61
(dp541
g81
g82
ssg70
g535
sg63
(lp542
g354
asbag56
(g77
g58
NtRp543
(dp544
g61
(dp545
g88
g89
ssg70
g535
sg63
(lp546
S':'
asbag56
(g77
g58
NtRp547
(dp548
g61
(dp549
sg70
g535
sg63
(lp550
g56
(g57
g58
NtRp551
(dp552
g61
(dp553
g69
I3
ssg70
g547
sg63
(lp554
S''
asbasbasbag56
(g72
g58
NtRp555
(dp556
g61
(dp557
sg70
g451
sg63
(lp558
g56
(g77
g58
NtRp559
(dp560
g61
(dp561
g81
g82
ssg70
g555
sg63
(lp562
g375
asbag56
(g77
g58
NtRp563
(dp564
g61
(dp565
g88
g89
ssg70
g555
sg63
(lp566
S':'
asbag56
(g77
g58
NtRp567
(dp568
g61
(dp569
sg70
g555
sg63
(lp570
g56
(g57
g58
NtRp571
(dp572
g61
(dp573
g69
I3
ssg70
g567
sg63
(lp574
S''
asbasbasbag56
(g72
g58
NtRp575
(dp576
g61
(dp577
sg70
g451
sg63
(lp578
g56
(g77
g58
NtRp579
(dp580
g61
(dp581
g81
g82
ssg70
g575
sg63
(lp582
g396
asbag56
(g77
g58
NtRp583
(dp584
g61
(dp585
g88
g89
ssg70
g575
sg63
(lp586
S':'
asbag56
(g77
g58
NtRp587
(dp588
g61
(dp589
sg70
g575
sg63
(lp590
g56
(g57
g58
NtRp591
(dp592
g61
(dp593
g69
I3
ssg70
g587
sg63
(lp594
S''
asbasbasbag56
(g72
g58
NtRp595
(dp596
g61
(dp597
sg70
g451
sg63
(lp598
g56
(g77
g58
NtRp599
(dp600
g61
(dp601
g81
g82
ssg70
g595
sg63
(lp602
g417
asbag56
(g77
g58
NtRp603
(dp604
g61
(dp605
g88
g89
ssg70
g595
sg63
(lp606
S':'
asbag56
(g77
g58
NtRp607
(dp608
g61
(dp609
sg70
g595
sg63
(lp610
g56
(g57
g58
NtRp611
(dp612
g61
(dp613
g69
I3
ssg70
g607
sg63
(lp614
S''
asbasbasbasbasbasbasbag56
(g72
g58
NtRp615
(dp616
g61
(dp617
sg70
g233
sg63
(lp618
g56
(g77
g58
NtRp619
(dp620
g61
(dp621
g81
g82
ssg70
g615
sg63
(lp622
S'session_id_paideia'
p623
asbag56
(g77
g58
NtRp624
(dp625
g61
(dp626
g88
g89
ssg70
g615
sg63
(lp627
S':'
asbag56
(g77
g58
NtRp628
(dp629
g61
(dp630
sg70
g615
sg63
(lp631
g56
(g57
g58
NtRp632
(dp633
g61
(dp634
g69
I4
ssg70
g628
sg63
(lp635
g56
(g65
g58
NtRp636
(dp637
g61
(dp638
g69
I3
ssg70
Nsg63
(lp639
g56
(g72
g58
NtRp640
(dp641
g61
(dp642
sg70
g636
sg63
(lp643
g56
(g77
g58
NtRp644
(dp645
g61
(dp646
g81
g82
ssg70
g640
sg63
(lp647
g270
asbag56
(g77
g58
NtRp648
(dp649
g61
(dp650
g88
g89
ssg70
g640
sg63
(lp651
S':'
asbag56
(g77
g58
NtRp652
(dp653
g61
(dp654
sg70
g640
sg63
(lp655
g56
(g57
g58
NtRp656
(dp657
g61
(dp658
g69
I3
ssg70
g652
sg63
(lp659
S''
asbasbasbag56
(g72
g58
NtRp660
(dp661
g61
(dp662
sg70
g636
sg63
(lp663
g56
(g77
g58
NtRp664
(dp665
g61
(dp666
g81
g82
ssg70
g660
sg63
(lp667
g291
asbag56
(g77
g58
NtRp668
(dp669
g61
(dp670
g88
g89
ssg70
g660
sg63
(lp671
S':'
asbag56
(g77
g58
NtRp672
(dp673
g61
(dp674
sg70
g660
sg63
(lp675
g56
(g57
g58
NtRp676
(dp677
g61
(dp678
g69
I3
ssg70
g672
sg63
(lp679
S''
asbasbasbag56
(g72
g58
NtRp680
(dp681
g61
(dp682
sg70
g636
sg63
(lp683
g56
(g77
g58
NtRp684
(dp685
g61
(dp686
g81
g82
ssg70
g680
sg63
(lp687
g312
asbag56
(g77
g58
NtRp688
(dp689
g61
(dp690
g88
g89
ssg70
g680
sg63
(lp691
S':'
asbag56
(g77
g58
NtRp692
(dp693
g61
(dp694
sg70
g680
sg63
(lp695
g56
(g57
g58
NtRp696
(dp697
g61
(dp698
g69
I3
ssg70
g692
sg63
(lp699
S''
asbasbasbag56
(g72
g58
NtRp700
(dp701
g61
(dp702
sg70
g636
sg63
(lp703
g56
(g77
g58
NtRp704
(dp705
g61
(dp706
g81
g82
ssg70
g700
sg63
(lp707
g333
asbag56
(g77
g58
NtRp708
(dp709
g61
(dp710
g88
g89
ssg70
g700
sg63
(lp711
S':'
asbag56
(g77
g58
NtRp712
(dp713
g61
(dp714
sg70
g700
sg63
(lp715
g56
(g57
g58
NtRp716
(dp717
g61
(dp718
g69
I3
ssg70
g712
sg63
(lp719
S''
asbasbasbag56
(g72
g58
NtRp720
(dp721
g61
(dp722
sg70
g636
sg63
(lp723
g56
(g77
g58
NtRp724
(dp725
g61
(dp726
g81
g82
ssg70
g720
sg63
(lp727
g354
asbag56
(g77
g58
NtRp728
(dp729
g61
(dp730
g88
g89
ssg70
g720
sg63
(lp731
S':'
asbag56
(g77
g58
NtRp732
(dp733
g61
(dp734
sg70
g720
sg63
(lp735
g56
(g57
g58
NtRp736
(dp737
g61
(dp738
g69
I3
ssg70
g732
sg63
(lp739
S''
asbasbasbag56
(g72
g58
NtRp740
(dp741
g61
(dp742
sg70
g636
sg63
(lp743
g56
(g77
g58
NtRp744
(dp745
g61
(dp746
g81
g82
ssg70
g740
sg63
(lp747
g375
asbag56
(g77
g58
NtRp748
(dp749
g61
(dp750
g88
g89
ssg70
g740
sg63
(lp751
S':'
asbag56
(g77
g58
NtRp752
(dp753
g61
(dp754
sg70
g740
sg63
(lp755
g56
(g57
g58
NtRp756
(dp757
g61
(dp758
g69
I3
ssg70
g752
sg63
(lp759
S''
asbasbasbag56
(g72
g58
NtRp760
(dp761
g61
(dp762
sg70
g636
sg63
(lp763
g56
(g77
g58
NtRp764
(dp765
g61
(dp766
g81
g82
ssg70
g760
sg63
(lp767
g396
asbag56
(g77
g58
NtRp768
(dp769
g61
(dp770
g88
g89
ssg70
g760
sg63
(lp771
S':'
asbag56
(g77
g58
NtRp772
(dp773
g61
(dp774
sg70
g760
sg63
(lp775
g56
(g57
g58
NtRp776
(dp777
g61
(dp778
g69
I3
ssg70
g772
sg63
(lp779
S''
asbasbasbag56
(g72
g58
NtRp780
(dp781
g61
(dp782
sg70
g636
sg63
(lp783
g56
(g77
g58
NtRp784
(dp785
g61
(dp786
g81
g82
ssg70
g780
sg63
(lp787
g417
asbag56
(g77
g58
NtRp788
(dp789
g61
(dp790
g88
g89
ssg70
g780
sg63
(lp791
S':'
asbag56
(g77
g58
NtRp792
(dp793
g61
(dp794
sg70
g780
sg63
(lp795
g56
(g57
g58
NtRp796
(dp797
g61
(dp798
g69
I3
ssg70
g792
sg63
(lp799
S''
asbasbasbasbasbasbasbag56
(g72
g58
NtRp800
(dp801
g61
(dp802
sg70
g233
sg63
(lp803
g56
(g77
g58
NtRp804
(dp805
g61
(dp806
g81
g82
ssg70
g800
sg63
(lp807
S'session_id_places'
p808
asbag56
(g77
g58
NtRp809
(dp810
g61
(dp811
g88
g89
ssg70
g800
sg63
(lp812
S':'
asbag56
(g77
g58
NtRp813
(dp814
g61
(dp815
sg70
g800
sg63
(lp816
g56
(g57
g58
NtRp817
(dp818
g61
(dp819
g69
I4
ssg70
g813
sg63
(lp820
g56
(g65
g58
NtRp821
(dp822
g61
(dp823
g69
I3
ssg70
Nsg63
(lp824
g56
(g72
g58
NtRp825
(dp826
g61
(dp827
sg70
g821
sg63
(lp828
g56
(g77
g58
NtRp829
(dp830
g61
(dp831
g81
g82
ssg70
g825
sg63
(lp832
g270
asbag56
(g77
g58
NtRp833
(dp834
g61
(dp835
g88
g89
ssg70
g825
sg63
(lp836
S':'
asbag56
(g77
g58
NtRp837
(dp838
g61
(dp839
sg70
g825
sg63
(lp840
g56
(g57
g58
NtRp841
(dp842
g61
(dp843
g69
I3
ssg70
g837
sg63
(lp844
S''
asbasbasbag56
(g72
g58
NtRp845
(dp846
g61
(dp847
sg70
g821
sg63
(lp848
g56
(g77
g58
NtRp849
(dp850
g61
(dp851
g81
g82
ssg70
g845
sg63
(lp852
g291
asbag56
(g77
g58
NtRp853
(dp854
g61
(dp855
g88
g89
ssg70
g845
sg63
(lp856
S':'
asbag56
(g77
g58
NtRp857
(dp858
g61
(dp859
sg70
g845
sg63
(lp860
g56
(g57
g58
NtRp861
(dp862
g61
(dp863
g69
I3
ssg70
g857
sg63
(lp864
S''
asbasbasbag56
(g72
g58
NtRp865
(dp866
g61
(dp867
sg70
g821
sg63
(lp868
g56
(g77
g58
NtRp869
(dp870
g61
(dp871
g81
g82
ssg70
g865
sg63
(lp872
g312
asbag56
(g77
g58
NtRp873
(dp874
g61
(dp875
g88
g89
ssg70
g865
sg63
(lp876
S':'
asbag56
(g77
g58
NtRp877
(dp878
g61
(dp879
sg70
g865
sg63
(lp880
g56
(g57
g58
NtRp881
(dp882
g61
(dp883
g69
I3
ssg70
g877
sg63
(lp884
S''
asbasbasbag56
(g72
g58
NtRp885
(dp886
g61
(dp887
sg70
g821
sg63
(lp888
g56
(g77
g58
NtRp889
(dp890
g61
(dp891
g81
g82
ssg70
g885
sg63
(lp892
g333
asbag56
(g77
g58
NtRp893
(dp894
g61
(dp895
g88
g89
ssg70
g885
sg63
(lp896
S':'
asbag56
(g77
g58
NtRp897
(dp898
g61
(dp899
sg70
g885
sg63
(lp900
g56
(g57
g58
NtRp901
(dp902
g61
(dp903
g69
I3
ssg70
g897
sg63
(lp904
S''
asbasbasbag56
(g72
g58
NtRp905
(dp906
g61
(dp907
sg70
g821
sg63
(lp908
g56
(g77
g58
NtRp909
(dp910
g61
(dp911
g81
g82
ssg70
g905
sg63
(lp912
g354
asbag56
(g77
g58
NtRp913
(dp914
g61
(dp915
g88
g89
ssg70
g905
sg63
(lp916
S':'
asbag56
(g77
g58
NtRp917
(dp918
g61
(dp919
sg70
g905
sg63
(lp920
g56
(g57
g58
NtRp921
(dp922
g61
(dp923
g69
I3
ssg70
g917
sg63
(lp924
S''
asbasbasbag56
(g72
g58
NtRp925
(dp926
g61
(dp927
sg70
g821
sg63
(lp928
g56
(g77
g58
NtRp929
(dp930
g61
(dp931
g81
g82
ssg70
g925
sg63
(lp932
g375
asbag56
(g77
g58
NtRp933
(dp934
g61
(dp935
g88
g89
ssg70
g925
sg63
(lp936
S':'
asbag56
(g77
g58
NtRp937
(dp938
g61
(dp939
sg70
g925
sg63
(lp940
g56
(g57
g58
NtRp941
(dp942
g61
(dp943
g69
I3
ssg70
g937
sg63
(lp944
S''
asbasbasbag56
(g72
g58
NtRp945
(dp946
g61
(dp947
sg70
g821
sg63
(lp948
g56
(g77
g58
NtRp949
(dp950
g61
(dp951
g81
g82
ssg70
g945
sg63
(lp952
g396
asbag56
(g77
g58
NtRp953
(dp954
g61
(dp955
g88
g89
ssg70
g945
sg63
(lp956
S':'
asbag56
(g77
g58
NtRp957
(dp958
g61
(dp959
sg70
g945
sg63
(lp960
g56
(g57
g58
NtRp961
(dp962
g61
(dp963
g69
I3
ssg70
g957
sg63
(lp964
S''
asbasbasbag56
(g72
g58
NtRp965
(dp966
g61
(dp967
sg70
g821
sg63
(lp968
g56
(g77
g58
NtRp969
(dp970
g61
(dp971
g81
g82
ssg70
g965
sg63
(lp972
g417
asbag56
(g77
g58
NtRp973
(dp974
g61
(dp975
g88
g89
ssg70
g965
sg63
(lp976
S':'
asbag56
(g77
g58
NtRp977
(dp978
g61
(dp979
sg70
g965
sg63
(lp980
g56
(g57
g58
NtRp981
(dp982
g61
(dp983
g69
I3
ssg70
g977
sg63
(lp984
S''
asbasbasbasbasbasbasbag56
(g72
g58
NtRp985
(dp986
g61
(dp987
sg70
g233
sg63
(lp988
g56
(g77
g58
NtRp989
(dp990
g61
(dp991
g81
g82
ssg70
g985
sg63
(lp992
S'session_id_welcome'
p993
asbag56
(g77
g58
NtRp994
(dp995
g61
(dp996
g88
g89
ssg70
g985
sg63
(lp997
S':'
asbag56
(g77
g58
NtRp998
(dp999
g61
(dp1000
sg70
g985
sg63
(lp1001
g56
(g57
g58
NtRp1002
(dp1003
g61
(dp1004
g69
I4
ssg70
g998
sg63
(lp1005
g56
(g65
g58
NtRp1006
(dp1007
g61
(dp1008
g69
I3
ssg70
Nsg63
(lp1009
g56
(g72
g58
NtRp1010
(dp1011
g61
(dp1012
sg70
g1006
sg63
(lp1013
g56
(g77
g58
NtRp1014
(dp1015
g61
(dp1016
g81
g82
ssg70
g1010
sg63
(lp1017
g270
asbag56
(g77
g58
NtRp1018
(dp1019
g61
(dp1020
g88
g89
ssg70
g1010
sg63
(lp1021
S':'
asbag56
(g77
g58
NtRp1022
(dp1023
g61
(dp1024
sg70
g1010
sg63
(lp1025
g56
(g57
g58
NtRp1026
(dp1027
g61
(dp1028
g69
I3
ssg70
g1022
sg63
(lp1029
S''
asbasbasbag56
(g72
g58
NtRp1030
(dp1031
g61
(dp1032
sg70
g1006
sg63
(lp1033
g56
(g77
g58
NtRp1034
(dp1035
g61
(dp1036
g81
g82
ssg70
g1030
sg63
(lp1037
g291
asbag56
(g77
g58
NtRp1038
(dp1039
g61
(dp1040
g88
g89
ssg70
g1030
sg63
(lp1041
S':'
asbag56
(g77
g58
NtRp1042
(dp1043
g61
(dp1044
sg70
g1030
sg63
(lp1045
g56
(g57
g58
NtRp1046
(dp1047
g61
(dp1048
g69
I3
ssg70
g1042
sg63
(lp1049
S''
asbasbasbag56
(g72
g58
NtRp1050
(dp1051
g61
(dp1052
sg70
g1006
sg63
(lp1053
g56
(g77
g58
NtRp1054
(dp1055
g61
(dp1056
g81
g82
ssg70
g1050
sg63
(lp1057
g312
asbag56
(g77
g58
NtRp1058
(dp1059
g61
(dp1060
g88
g89
ssg70
g1050
sg63
(lp1061
S':'
asbag56
(g77
g58
NtRp1062
(dp1063
g61
(dp1064
sg70
g1050
sg63
(lp1065
g56
(g57
g58
NtRp1066
(dp1067
g61
(dp1068
g69
I3
ssg70
g1062
sg63
(lp1069
S''
asbasbasbag56
(g72
g58
NtRp1070
(dp1071
g61
(dp1072
sg70
g1006
sg63
(lp1073
g56
(g77
g58
NtRp1074
(dp1075
g61
(dp1076
g81
g82
ssg70
g1070
sg63
(lp1077
g333
asbag56
(g77
g58
NtRp1078
(dp1079
g61
(dp1080
g88
g89
ssg70
g1070
sg63
(lp1081
S':'
asbag56
(g77
g58
NtRp1082
(dp1083
g61
(dp1084
sg70
g1070
sg63
(lp1085
g56
(g57
g58
NtRp1086
(dp1087
g61
(dp1088
g69
I3
ssg70
g1082
sg63
(lp1089
S''
asbasbasbag56
(g72
g58
NtRp1090
(dp1091
g61
(dp1092
sg70
g1006
sg63
(lp1093
g56
(g77
g58
NtRp1094
(dp1095
g61
(dp1096
g81
g82
ssg70
g1090
sg63
(lp1097
g354
asbag56
(g77
g58
NtRp1098
(dp1099
g61
(dp1100
g88
g89
ssg70
g1090
sg63
(lp1101
S':'
asbag56
(g77
g58
NtRp1102
(dp1103
g61
(dp1104
sg70
g1090
sg63
(lp1105
g56
(g57
g58
NtRp1106
(dp1107
g61
(dp1108
g69
I3
ssg70
g1102
sg63
(lp1109
S''
asbasbasbag56
(g72
g58
NtRp1110
(dp1111
g61
(dp1112
sg70
g1006
sg63
(lp1113
g56
(g77
g58
NtRp1114
(dp1115
g61
(dp1116
g81
g82
ssg70
g1110
sg63
(lp1117
g375
asbag56
(g77
g58
NtRp1118
(dp1119
g61
(dp1120
g88
g89
ssg70
g1110
sg63
(lp1121
S':'
asbag56
(g77
g58
NtRp1122
(dp1123
g61
(dp1124
sg70
g1110
sg63
(lp1125
g56
(g57
g58
NtRp1126
(dp1127
g61
(dp1128
g69
I3
ssg70
g1122
sg63
(lp1129
S''
asbasbasbag56
(g72
g58
NtRp1130
(dp1131
g61
(dp1132
sg70
g1006
sg63
(lp1133
g56
(g77
g58
NtRp1134
(dp1135
g61
(dp1136
g81
g82
ssg70
g1130
sg63
(lp1137
g396
asbag56
(g77
g58
NtRp1138
(dp1139
g61
(dp1140
g88
g89
ssg70
g1130
sg63
(lp1141
S':'
asbag56
(g77
g58
NtRp1142
(dp1143
g61
(dp1144
sg70
g1130
sg63
(lp1145
g56
(g57
g58
NtRp1146
(dp1147
g61
(dp1148
g69
I3
ssg70
g1142
sg63
(lp1149
S''
asbasbasbag56
(g72
g58
NtRp1150
(dp1151
g61
(dp1152
sg70
g1006
sg63
(lp1153
g56
(g77
g58
NtRp1154
(dp1155
g61
(dp1156
g81
g82
ssg70
g1150
sg63
(lp1157
g417
asbag56
(g77
g58
NtRp1158
(dp1159
g61
(dp1160
g88
g89
ssg70
g1150
sg63
(lp1161
S':'
asbag56
(g77
g58
NtRp1162
(dp1163
g61
(dp1164
sg70
g1150
sg63
(lp1165
g56
(g57
g58
NtRp1166
(dp1167
g61
(dp1168
g69
I3
ssg70
g1162
sg63
(lp1169
S''
asbasbasbasbasbasbasbasbasbasbasbag56
(g72
g58
NtRp1170
(dp1171
g61
(dp1172
sg70
g66
sg63
(lp1173
g56
(g77
g58
NtRp1174
(dp1175
g61
(dp1176
g81
g82
ssg70
g1170
sg63
(lp1177
S'env'
p1178
asbag56
(g77
g58
NtRp1179
(dp1180
g61
(dp1181
g88
g89
ssg70
g1170
sg63
(lp1182
S':'
asbag56
(g77
g58
NtRp1183
(dp1184
g61
(dp1185
sg70
g1170
sg63
(lp1186
g56
(g57
g58
NtRp1187
(dp1188
g61
(dp1189
g69
I5
ssg70
g1183
sg63
(lp1190
g56
(g65
g58
NtRp1191
(dp1192
g61
(dp1193
g69
I4
ssg70
Nsg63
(lp1194
g56
(g72
g58
NtRp1195
(dp1196
g61
(dp1197
sg70
g1191
sg63
(lp1198
g56
(g77
g58
NtRp1199
(dp1200
g61
(dp1201
g81
g82
ssg70
g1195
sg63
(lp1202
S'app_folders'
p1203
asbag56
(g77
g58
NtRp1204
(dp1205
g61
(dp1206
g88
g89
ssg70
g1195
sg63
(lp1207
S':'
asbag56
(g77
g58
NtRp1208
(dp1209
g61
(dp1210
sg70
g1195
sg63
(lp1211
g56
(g57
g58
NtRp1212
(dp1213
g61
(dp1214
g69
I4
ssg70
g1208
sg63
(lp1215
S"set(['/home/ian/Dropbox/Web_Pages/web2py-linux/applications/blog/', '/home/ian/Dropbox/Web_Pages/web2py-linux/applications/places/', '/home/ian/Dropbox/Web_Pages/web2py-linux/applications/Paideia/', '/home/ian/Dropbox/Web_Pages/web2py-linux/applications/admin/', '/home/ian/Dropbox/Web_Pages/web2py-linux/applications/welcome/'])"
p1216
asbasbasbag56
(g72
g58
NtRp1217
(dp1218
g61
(dp1219
sg70
g1191
sg63
(lp1220
g56
(g77
g58
NtRp1221
(dp1222
g61
(dp1223
g81
g82
ssg70
g1217
sg63
(lp1224
S'applications_parent'
p1225
asbag56
(g77
g58
NtRp1226
(dp1227
g61
(dp1228
g88
g89
ssg70
g1217
sg63
(lp1229
S':'
asbag56
(g77
g58
NtRp1230
(dp1231
g61
(dp1232
sg70
g1217
sg63
(lp1233
g56
(g57
g58
NtRp1234
(dp1235
g61
(dp1236
g69
I4
ssg70
g1230
sg63
(lp1237
S'/home/ian/Dropbox/Web_Pages/web2py-linux'
p1238
asbasbasbag56
(g72
g58
NtRp1239
(dp1240
g61
(dp1241
sg70
g1191
sg63
(lp1242
g56
(g77
g58
NtRp1243
(dp1244
g61
(dp1245
g81
g82
ssg70
g1239
sg63
(lp1246
S'cmd_args'
p1247
asbag56
(g77
g58
NtRp1248
(dp1249
g61
(dp1250
g88
g89
ssg70
g1239
sg63
(lp1251
S':'
asbag56
(g77
g58
NtRp1252
(dp1253
g61
(dp1254
sg70
g1239
sg63
(lp1255
g56
(g57
g58
NtRp1256
(dp1257
g61
(dp1258
g69
I4
ssg70
g1252
sg63
(lp1259
g56
(g65
g58
NtRp1260
(dp1261
g61
(dp1262
g69
I3
ssg70
Nsg63
(lp1263
sbasbasbasbag56
(g72
g58
NtRp1264
(dp1265
g61
(dp1266
sg70
g1191
sg63
(lp1267
g56
(g77
g58
NtRp1268
(dp1269
g61
(dp1270
g81
g82
ssg70
g1264
sg63
(lp1271
S'cmd_options'
p1272
asbag56
(g77
g58
NtRp1273
(dp1274
g61
(dp1275
g88
g89
ssg70
g1264
sg63
(lp1276
S':'
asbag56
(g77
g58
NtRp1277
(dp1278
g61
(dp1279
sg70
g1264
sg63
(lp1280
g56
(g57
g58
NtRp1281
(dp1282
g61
(dp1283
g69
I4
ssg70
g1277
sg63
(lp1284
S"<Values at 0x2723170: {'verbose': False, 'ip': '127.0.0.1', 'shutdown_timeout': 5, 'taskbar': False, 'nocron': False, 'pid_filename': 'httpserver.pid', 'maxthreads': None, 'softcron': False, 'server_name': 'uriel', 'bpython': False, 'nogui': False, 'port': 8000, 'extcron': False, 'debuglevel': 30, 'test': None, 'folder': '/home/ian/Dropbox/Web_Pages/web2py-linux', 'config': '', 'import_models': False, 'winservice': '', 'shell': None, 'run': '', 'log_filename': 'httpserver.log', 'args': [''], 'ssl_ca_certificate': None, 'scheduler': None, 'profiler_filename': None, 'ssl_private_key': '', 'password': '<ask>', 'request_queue_size': 5, 'ssl_certificate': '', 'cronjob': False, 'plain': False, 'quiet': False, 'interfaces': None, 'minthreads': None, 'timeout': 10, 'numthreads': None, 'nobanner': False}>"
p1285
asbasbasbag56
(g72
g58
NtRp1286
(dp1287
g61
(dp1288
sg70
g1191
sg63
(lp1289
g56
(g77
g58
NtRp1290
(dp1291
g61
(dp1292
g81
g82
ssg70
g1286
sg63
(lp1293
S'db_sessions'
p1294
asbag56
(g77
g58
NtRp1295
(dp1296
g61
(dp1297
g88
g89
ssg70
g1286
sg63
(lp1298
S':'
asbag56
(g77
g58
NtRp1299
(dp1300
g61
(dp1301
sg70
g1286
sg63
(lp1302
g56
(g57
g58
NtRp1303
(dp1304
g61
(dp1305
g69
I4
ssg70
g1299
sg63
(lp1306
S'set([])'
p1307
asbasbasbag56
(g72
g58
NtRp1308
(dp1309
g61
(dp1310
sg70
g1191
sg63
(lp1311
g56
(g77
g58
NtRp1312
(dp1313
g61
(dp1314
g81
g82
ssg70
g1308
sg63
(lp1315
S'debugging'
p1316
asbag56
(g77
g58
NtRp1317
(dp1318
g61
(dp1319
g88
g89
ssg70
g1308
sg63
(lp1320
S':'
asbag56
(g77
g58
NtRp1321
(dp1322
g61
(dp1323
sg70
g1308
sg63
(lp1324
g56
(g57
g58
NtRp1325
(dp1326
g61
(dp1327
g69
I4
ssg70
g1321
sg63
(lp1328
g99
asbasbasbag56
(g72
g58
NtRp1329
(dp1330
g61
(dp1331
sg70
g1191
sg63
(lp1332
g56
(g77
g58
NtRp1333
(dp1334
g61
(dp1335
g81
g82
ssg70
g1329
sg63
(lp1336
S'gluon_parent'
p1337
asbag56
(g77
g58
NtRp1338
(dp1339
g61
(dp1340
g88
g89
ssg70
g1329
sg63
(lp1341
S':'
asbag56
(g77
g58
NtRp1342
(dp1343
g61
(dp1344
sg70
g1329
sg63
(lp1345
g56
(g57
g58
NtRp1346
(dp1347
g61
(dp1348
g69
I4
ssg70
g1342
sg63
(lp1349
S'/home/ian/Dropbox/Web_Pages/web2py-linux'
p1350
asbasbasbag56
(g72
g58
NtRp1351
(dp1352
g61
(dp1353
sg70
g1191
sg63
(lp1354
g56
(g77
g58
NtRp1355
(dp1356
g61
(dp1357
g81
g82
ssg70
g1351
sg63
(lp1358
S'http_accept'
p1359
asbag56
(g77
g58
NtRp1360
(dp1361
g61
(dp1362
g88
g89
ssg70
g1351
sg63
(lp1363
S':'
asbag56
(g77
g58
NtRp1364
(dp1365
g61
(dp1366
sg70
g1351
sg63
(lp1367
g56
(g57
g58
NtRp1368
(dp1369
g61
(dp1370
g69
I4
ssg70
g1364
sg63
(lp1371
S'text/html,application/xhtml+xml,application/xml;q=0.9,*/*;q=0.8'
p1372
asbasbasbag56
(g72
g58
NtRp1373
(dp1374
g61
(dp1375
sg70
g1191
sg63
(lp1376
g56
(g77
g58
NtRp1377
(dp1378
g61
(dp1379
g81
g82
ssg70
g1373
sg63
(lp1380
S'http_accept_charset'
p1381
asbag56
(g77
g58
NtRp1382
(dp1383
g61
(dp1384
g88
g89
ssg70
g1373
sg63
(lp1385
S':'
asbag56
(g77
g58
NtRp1386
(dp1387
g61
(dp1388
sg70
g1373
sg63
(lp1389
g56
(g57
g58
NtRp1390
(dp1391
g61
(dp1392
g69
I4
ssg70
g1386
sg63
(lp1393
S'UTF-8,*'
p1394
asbasbasbag56
(g72
g58
NtRp1395
(dp1396
g61
(dp1397
sg70
g1191
sg63
(lp1398
g56
(g77
g58
NtRp1399
(dp1400
g61
(dp1401
g81
g82
ssg70
g1395
sg63
(lp1402
S'http_accept_encoding'
p1403
asbag56
(g77
g58
NtRp1404
(dp1405
g61
(dp1406
g88
g89
ssg70
g1395
sg63
(lp1407
S':'
asbag56
(g77
g58
NtRp1408
(dp1409
g61
(dp1410
sg70
g1395
sg63
(lp1411
g56
(g57
g58
NtRp1412
(dp1413
g61
(dp1414
g69
I4
ssg70
g1408
sg63
(lp1415
S'gzip, deflate'
p1416
asbasbasbag56
(g72
g58
NtRp1417
(dp1418
g61
(dp1419
sg70
g1191
sg63
(lp1420
g56
(g77
g58
NtRp1421
(dp1422
g61
(dp1423
g81
g82
ssg70
g1417
sg63
(lp1424
S'http_accept_language'
p1425
asbag56
(g77
g58
NtRp1426
(dp1427
g61
(dp1428
g88
g89
ssg70
g1417
sg63
(lp1429
S':'
asbag56
(g77
g58
NtRp1430
(dp1431
g61
(dp1432
sg70
g1417
sg63
(lp1433
g56
(g57
g58
NtRp1434
(dp1435
g61
(dp1436
g69
I4
ssg70
g1430
sg63
(lp1437
S'en-us,en;q=0.5'
p1438
asbasbasbag56
(g72
g58
NtRp1439
(dp1440
g61
(dp1441
sg70
g1191
sg63
(lp1442
g56
(g77
g58
NtRp1443
(dp1444
g61
(dp1445
g81
g82
ssg70
g1439
sg63
(lp1446
S'http_cache_control'
p1447
asbag56
(g77
g58
NtRp1448
(dp1449
g61
(dp1450
g88
g89
ssg70
g1439
sg63
(lp1451
S':'
asbag56
(g77
g58
NtRp1452
(dp1453
g61
(dp1454
sg70
g1439
sg63
(lp1455
g56
(g57
g58
NtRp1456
(dp1457
g61
(dp1458
g69
I4
ssg70
g1452
sg63
(lp1459
S'max-age=0'
p1460
asbasbasbag56
(g72
g58
NtRp1461
(dp1462
g61
(dp1463
sg70
g1191
sg63
(lp1464
g56
(g77
g58
NtRp1465
(dp1466
g61
(dp1467
g81
g82
ssg70
g1461
sg63
(lp1468
S'http_connection'
p1469
asbag56
(g77
g58
NtRp1470
(dp1471
g61
(dp1472
g88
g89
ssg70
g1461
sg63
(lp1473
S':'
asbag56
(g77
g58
NtRp1474
(dp1475
g61
(dp1476
sg70
g1461
sg63
(lp1477
g56
(g57
g58
NtRp1478
(dp1479
g61
(dp1480
g69
I4
ssg70
g1474
sg63
(lp1481
S'keep-alive'
p1482
asbasbasbag56
(g72
g58
NtRp1483
(dp1484
g61
(dp1485
sg70
g1191
sg63
(lp1486
g56
(g77
g58
NtRp1487
(dp1488
g61
(dp1489
g81
g82
ssg70
g1483
sg63
(lp1490
S'http_cookie'
p1491
asbag56
(g77
g58
NtRp1492
(dp1493
g61
(dp1494
g88
g89
ssg70
g1483
sg63
(lp1495
S':'
asbag56
(g77
g58
NtRp1496
(dp1497
g61
(dp1498
sg70
g1483
sg63
(lp1499
g56
(g57
g58
NtRp1500
(dp1501
g61
(dp1502
g69
I4
ssg70
g1496
sg63
(lp1503
S'session_id_blog=127.0.0.1-f221c588-e499-4b63-9882-f52e2f06907c; session_id_welcome=127.0.0.1-c5e18343-d06e-414a-bb07-23cb8cf7ceb8; session_id_paideia=127.0.0.1-81eff388-1cde-41fb-8887-06f0c09ce763; session_id_admin=127.0.0.1-f8ad7263-b87d-41ed-bbe2-215e5232b6dc; session_id_places=127.0.0.1-ae378f77-b944-4a55-be06-eed4ce913913'
p1504
asbasbasbag56
(g72
g58
NtRp1505
(dp1506
g61
(dp1507
sg70
g1191
sg63
(lp1508
g56
(g77
g58
NtRp1509
(dp1510
g61
(dp1511
g81
g82
ssg70
g1505
sg63
(lp1512
S'http_host'
p1513
asbag56
(g77
g58
NtRp1514
(dp1515
g61
(dp1516
g88
g89
ssg70
g1505
sg63
(lp1517
S':'
asbag56
(g77
g58
NtRp1518
(dp1519
g61
(dp1520
sg70
g1505
sg63
(lp1521
g56
(g57
g58
NtRp1522
(dp1523
g61
(dp1524
g69
I4
ssg70
g1518
sg63
(lp1525
S'127.0.0.1:8000'
p1526
asbasbasbag56
(g72
g58
NtRp1527
(dp1528
g61
(dp1529
sg70
g1191
sg63
(lp1530
g56
(g77
g58
NtRp1531
(dp1532
g61
(dp1533
g81
g82
ssg70
g1527
sg63
(lp1534
S'http_referer'
p1535
asbag56
(g77
g58
NtRp1536
(dp1537
g61
(dp1538
g88
g89
ssg70
g1527
sg63
(lp1539
S':'
asbag56
(g77
g58
NtRp1540
(dp1541
g61
(dp1542
sg70
g1527
sg63
(lp1543
g56
(g57
g58
NtRp1544
(dp1545
g61
(dp1546
g69
I4
ssg70
g1540
sg63
(lp1547
S'http://127.0.0.1:8000/places/'
p1548
asbasbasbag56
(g72
g58
NtRp1549
(dp1550
g61
(dp1551
sg70
g1191
sg63
(lp1552
g56
(g77
g58
NtRp1553
(dp1554
g61
(dp1555
g81
g82
ssg70
g1549
sg63
(lp1556
S'http_user_agent'
p1557
asbag56
(g77
g58
NtRp1558
(dp1559
g61
(dp1560
g88
g89
ssg70
g1549
sg63
(lp1561
S':'
asbag56
(g77
g58
NtRp1562
(dp1563
g61
(dp1564
sg70
g1549
sg63
(lp1565
g56
(g57
g58
NtRp1566
(dp1567
g61
(dp1568
g69
I4
ssg70
g1562
sg63
(lp1569
S'Mozilla/5.0 (X11; Linux x86_64; rv:7.0.1) Gecko/20100101 Firefox/7.0.1'
p1570
asbasbasbag56
(g72
g58
NtRp1571
(dp1572
g61
(dp1573
sg70
g1191
sg63
(lp1574
g56
(g77
g58
NtRp1575
(dp1576
g61
(dp1577
g81
g82
ssg70
g1571
sg63
(lp1578
S'is_jython'
p1579
asbag56
(g77
g58
NtRp1580
(dp1581
g61
(dp1582
g88
g89
ssg70
g1571
sg63
(lp1583
S':'
asbag56
(g77
g58
NtRp1584
(dp1585
g61
(dp1586
sg70
g1571
sg63
(lp1587
g56
(g57
g58
NtRp1588
(dp1589
g61
(dp1590
g69
I4
ssg70
g1584
sg63
(lp1591
g99
asbasbasbag56
(g72
g58
NtRp1592
(dp1593
g61
(dp1594
sg70
g1191
sg63
(lp1595
g56
(g77
g58
NtRp1596
(dp1597
g61
(dp1598
g81
g82
ssg70
g1592
sg63
(lp1599
S'path_info'
p1600
asbag56
(g77
g58
NtRp1601
(dp1602
g61
(dp1603
g88
g89
ssg70
g1592
sg63
(lp1604
S':'
asbag56
(g77
g58
NtRp1605
(dp1606
g61
(dp1607
sg70
g1592
sg63
(lp1608
g56
(g57
g58
NtRp1609
(dp1610
g61
(dp1611
g69
I4
ssg70
g1605
sg63
(lp1612
S'/places/default/index'
p1613
asbasbasbag56
(g72
g58
NtRp1614
(dp1615
g61
(dp1616
sg70
g1191
sg63
(lp1617
g56
(g77
g58
NtRp1618
(dp1619
g61
(dp1620
g81
g82
ssg70
g1614
sg63
(lp1621
S'query_string'
p1622
asbag56
(g77
g58
NtRp1623
(dp1624
g61
(dp1625
g88
g89
ssg70
g1614
sg63
(lp1626
S':'
asbag56
(g77
g58
NtRp1627
(dp1628
g61
(dp1629
sg70
g1614
sg63
(lp1630
g56
(g57
g58
NtRp1631
(dp1632
g61
(dp1633
g69
I4
ssg70
g1627
sg63
(lp1634
S''
asbasbasbag56
(g72
g58
NtRp1635
(dp1636
g61
(dp1637
sg70
g1191
sg63
(lp1638
g56
(g77
g58
NtRp1639
(dp1640
g61
(dp1641
g81
g82
ssg70
g1635
sg63
(lp1642
S'remote_addr'
p1643
asbag56
(g77
g58
NtRp1644
(dp1645
g61
(dp1646
g88
g89
ssg70
g1635
sg63
(lp1647
S':'
asbag56
(g77
g58
NtRp1648
(dp1649
g61
(dp1650
sg70
g1635
sg63
(lp1651
g56
(g57
g58
NtRp1652
(dp1653
g61
(dp1654
g69
I4
ssg70
g1648
sg63
(lp1655
g189
asbasbasbag56
(g72
g58
NtRp1656
(dp1657
g61
(dp1658
sg70
g1191
sg63
(lp1659
g56
(g77
g58
NtRp1660
(dp1661
g61
(dp1662
g81
g82
ssg70
g1656
sg63
(lp1663
S'remote_port'
p1664
asbag56
(g77
g58
NtRp1665
(dp1666
g61
(dp1667
g88
g89
ssg70
g1656
sg63
(lp1668
S':'
asbag56
(g77
g58
NtRp1669
(dp1670
g61
(dp1671
sg70
g1656
sg63
(lp1672
g56
(g57
g58
NtRp1673
(dp1674
g61
(dp1675
g69
I4
ssg70
g1669
sg63
(lp1676
S'45199'
p1677
asbasbasbag56
(g72
g58
NtRp1678
(dp1679
g61
(dp1680
sg70
g1191
sg63
(lp1681
g56
(g77
g58
NtRp1682
(dp1683
g61
(dp1684
g81
g82
ssg70
g1678
sg63
(lp1685
S'request_method'
p1686
asbag56
(g77
g58
NtRp1687
(dp1688
g61
(dp1689
g88
g89
ssg70
g1678
sg63
(lp1690
S':'
asbag56
(g77
g58
NtRp1691
(dp1692
g61
(dp1693
sg70
g1678
sg63
(lp1694
g56
(g57
g58
NtRp1695
(dp1696
g61
(dp1697
g69
I4
ssg70
g1691
sg63
(lp1698
S'GET'
p1699
asbasbasbag56
(g72
g58
NtRp1700
(dp1701
g61
(dp1702
sg70
g1191
sg63
(lp1703
g56
(g77
g58
NtRp1704
(dp1705
g61
(dp1706
g81
g82
ssg70
g1700
sg63
(lp1707
S'script_name'
p1708
asbag56
(g77
g58
NtRp1709
(dp1710
g61
(dp1711
g88
g89
ssg70
g1700
sg63
(lp1712
S':'
asbag56
(g77
g58
NtRp1713
(dp1714
g61
(dp1715
sg70
g1700
sg63
(lp1716
g56
(g57
g58
NtRp1717
(dp1718
g61
(dp1719
g69
I4
ssg70
g1713
sg63
(lp1720
S''
asbasbasbag56
(g72
g58
NtRp1721
(dp1722
g61
(dp1723
sg70
g1191
sg63
(lp1724
g56
(g77
g58
NtRp1725
(dp1726
g61
(dp1727
g81
g82
ssg70
g1721
sg63
(lp1728
S'server_name'
p1729
asbag56
(g77
g58
NtRp1730
(dp1731
g61
(dp1732
g88
g89
ssg70
g1721
sg63
(lp1733
S':'
asbag56
(g77
g58
NtRp1734
(dp1735
g61
(dp1736
sg70
g1721
sg63
(lp1737
g56
(g57
g58
NtRp1738
(dp1739
g61
(dp1740
g69
I4
ssg70
g1734
sg63
(lp1741
S'uriel'
p1742
asbasbasbag56
(g72
g58
NtRp1743
(dp1744
g61
(dp1745
sg70
g1191
sg63
(lp1746
g56
(g77
g58
NtRp1747
(dp1748
g61
(dp1749
g81
g82
ssg70
g1743
sg63
(lp1750
S'server_port'
p1751
asbag56
(g77
g58
NtRp1752
(dp1753
g61
(dp1754
g88
g89
ssg70
g1743
sg63
(lp1755
S':'
asbag56
(g77
g58
NtRp1756
(dp1757
g61
(dp1758
sg70
g1743
sg63
(lp1759
g56
(g57
g58
NtRp1760
(dp1761
g61
(dp1762
g69
I4
ssg70
g1756
sg63
(lp1763
S'8000'
p1764
asbasbasbag56
(g72
g58
NtRp1765
(dp1766
g61
(dp1767
sg70
g1191
sg63
(lp1768
g56
(g77
g58
NtRp1769
(dp1770
g61
(dp1771
g81
g82
ssg70
g1765
sg63
(lp1772
S'server_protocol'
p1773
asbag56
(g77
g58
NtRp1774
(dp1775
g61
(dp1776
g88
g89
ssg70
g1765
sg63
(lp1777
S':'
asbag56
(g77
g58
NtRp1778
(dp1779
g61
(dp1780
sg70
g1765
sg63
(lp1781
g56
(g57
g58
NtRp1782
(dp1783
g61
(dp1784
g69
I4
ssg70
g1778
sg63
(lp1785
S'HTTP/1.1'
p1786
asbasbasbag56
(g72
g58
NtRp1787
(dp1788
g61
(dp1789
sg70
g1191
sg63
(lp1790
g56
(g77
g58
NtRp1791
(dp1792
g61
(dp1793
g81
g82
ssg70
g1787
sg63
(lp1794
S'server_software'
p1795
asbag56
(g77
g58
NtRp1796
(dp1797
g61
(dp1798
g88
g89
ssg70
g1787
sg63
(lp1799
S':'
asbag56
(g77
g58
NtRp1800
(dp1801
g61
(dp1802
sg70
g1787
sg63
(lp1803
g56
(g57
g58
NtRp1804
(dp1805
g61
(dp1806
g69
I4
ssg70
g1800
sg63
(lp1807
S'Rocket 1.2.4'
p1808
asbasbasbag56
(g72
g58
NtRp1809
(dp1810
g61
(dp1811
sg70
g1191
sg63
(lp1812
g56
(g77
g58
NtRp1813
(dp1814
g61
(dp1815
g81
g82
ssg70
g1809
sg63
(lp1816
S'web2py_crontype'
p1817
asbag56
(g77
g58
NtRp1818
(dp1819
g61
(dp1820
g88
g89
ssg70
g1809
sg63
(lp1821
S':'
asbag56
(g77
g58
NtRp1822
(dp1823
g61
(dp1824
sg70
g1809
sg63
(lp1825
g56
(g57
g58
NtRp1826
(dp1827
g61
(dp1828
g69
I4
ssg70
g1822
sg63
(lp1829
S'hard'
p1830
asbasbasbag56
(g72
g58
NtRp1831
(dp1832
g61
(dp1833
sg70
g1191
sg63
(lp1834
g56
(g77
g58
NtRp1835
(dp1836
g61
(dp1837
g81
g82
ssg70
g1831
sg63
(lp1838
S'web2py_path'
p1839
asbag56
(g77
g58
NtRp1840
(dp1841
g61
(dp1842
g88
g89
ssg70
g1831
sg63
(lp1843
S':'
asbag56
(g77
g58
NtRp1844
(dp1845
g61
(dp1846
sg70
g1831
sg63
(lp1847
g56
(g57
g58
NtRp1848
(dp1849
g61
(dp1850
g69
I4
ssg70
g1844
sg63
(lp1851
g1238
asbasbasbag56
(g72
g58
NtRp1852
(dp1853
g61
(dp1854
sg70
g1191
sg63
(lp1855
g56
(g77
g58
NtRp1856
(dp1857
g61
(dp1858
g81
g82
ssg70
g1852
sg63
(lp1859
S'web2py_version'
p1860
asbag56
(g77
g58
NtRp1861
(dp1862
g61
(dp1863
g88
g89
ssg70
g1852
sg63
(lp1864
S':'
asbag56
(g77
g58
NtRp1865
(dp1866
g61
(dp1867
sg70
g1852
sg63
(lp1868
g56
(g57
g58
NtRp1869
(dp1870
g61
(dp1871
g69
I4
ssg70
g1865
sg63
(lp1872
g56
(g65
g58
NtRp1873
(dp1874
g61
(dp1875
g69
I3
ssg70
Nsg63
(lp1876
g56
(g72
g58
NtRp1877
(dp1878
g61
(dp1879
sg70
g1873
sg63
(lp1880
g56
(g77
g58
NtRp1881
(dp1882
g61
(dp1883
sg70
g1877
sg63
(lp1884
g56
(g57
g58
NtRp1885
(dp1886
g61
(dp1887
g69
I3
ssg70
g1881
sg63
(lp1888
S'1'
asbasbasbag56
(g72
g58
NtRp1889
(dp1890
g61
(dp1891
sg70
g1873
sg63
(lp1892
g56
(g77
g58
NtRp1893
(dp1894
g61
(dp1895
sg70
g1889
sg63
(lp1896
g56
(g57
g58
NtRp1897
(dp1898
g61
(dp1899
g69
I3
ssg70
g1893
sg63
(lp1900
S'99'
p1901
asbasbasbag56
(g72
g58
NtRp1902
(dp1903
g61
(dp1904
sg70
g1873
sg63
(lp1905
g56
(g77
g58
NtRp1906
(dp1907
g61
(dp1908
sg70
g1902
sg63
(lp1909
g56
(g57
g58
NtRp1910
(dp1911
g61
(dp1912
g69
I3
ssg70
g1906
sg63
(lp1913
S'2'
asbasbasbag56
(g72
g58
NtRp1914
(dp1915
g61
(dp1916
sg70
g1873
sg63
(lp1917
g56
(g77
g58
NtRp1918
(dp1919
g61
(dp1920
sg70
g1914
sg63
(lp1921
g56
(g57
g58
NtRp1922
(dp1923
g61
(dp1924
g69
I3
ssg70
g1918
sg63
(lp1925
S'datetime.datetime(2011, 9, 26, 6, 55, 33)'
p1926
asbasbasbag56
(g72
g58
NtRp1927
(dp1928
g61
(dp1929
sg70
g1873
sg63
(lp1930
g56
(g77
g58
NtRp1931
(dp1932
g61
(dp1933
sg70
g1927
sg63
(lp1934
g56
(g57
g58
NtRp1935
(dp1936
g61
(dp1937
g69
I3
ssg70
g1931
sg63
(lp1938
S'stable'
p1939
asbasbasbasbasbasbasbag56
(g72
g58
NtRp1940
(dp1941
g61
(dp1942
sg70
g1191
sg63
(lp1943
g56
(g77
g58
NtRp1944
(dp1945
g61
(dp1946
g81
g82
ssg70
g1940
sg63
(lp1947
S'wsgi_errors'
p1948
asbag56
(g77
g58
NtRp1949
(dp1950
g61
(dp1951
g88
g89
ssg70
g1940
sg63
(lp1952
S':'
asbag56
(g77
g58
NtRp1953
(dp1954
g61
(dp1955
sg70
g1940
sg63
(lp1956
g56
(g57
g58
NtRp1957
(dp1958
g61
(dp1959
g69
I4
ssg70
g1953
sg63
(lp1960
S"<open file '<stderr>', mode 'w' at 0x7f4a416fc270>"
p1961
asbasbasbag56
(g72
g58
NtRp1962
(dp1963
g61
(dp1964
sg70
g1191
sg63
(lp1965
g56
(g77
g58
NtRp1966
(dp1967
g61
(dp1968
g81
g82
ssg70
g1962
sg63
(lp1969
S'wsgi_file_wrapper'
p1970
asbag56
(g77
g58
NtRp1971
(dp1972
g61
(dp1973
g88
g89
ssg70
g1962
sg63
(lp1974
S':'
asbag56
(g77
g58
NtRp1975
(dp1976
g61
(dp1977
sg70
g1962
sg63
(lp1978
g56
(g57
g58
NtRp1979
(dp1980
g61
(dp1981
g69
I4
ssg70
g1975
sg63
(lp1982
S'<class wsgiref.util.FileWrapper at 0x24b4870>'
p1983
asbasbasbag56
(g72
g58
NtRp1984
(dp1985
g61
(dp1986
sg70
g1191
sg63
(lp1987
g56
(g77
g58
NtRp1988
(dp1989
g61
(dp1990
g81
g82
ssg70
g1984
sg63
(lp1991
S'wsgi_input'
p1992
asbag56
(g77
g58
NtRp1993
(dp1994
g61
(dp1995
g88
g89
ssg70
g1984
sg63
(lp1996
S':'
asbag56
(g77
g58
NtRp1997
(dp1998
g61
(dp1999
sg70
g1984
sg63
(lp2000
g56
(g57
g58
NtRp2001
(dp2002
g61
(dp2003
g69
I4
ssg70
g1997
sg63
(lp2004
S'<socket._fileobject object at 0x2fac4d0>'
p2005
asbasbasbag56
(g72
g58
NtRp2006
(dp2007
g61
(dp2008
sg70
g1191
sg63
(lp2009
g56
(g77
g58
NtRp2010
(dp2011
g61
(dp2012
g81
g82
ssg70
g2006
sg63
(lp2013
S'wsgi_multiprocess'
p2014
asbag56
(g77
g58
NtRp2015
(dp2016
g61
(dp2017
g88
g89
ssg70
g2006
sg63
(lp2018
S':'
asbag56
(g77
g58
NtRp2019
(dp2020
g61
(dp2021
sg70
g2006
sg63
(lp2022
g56
(g57
g58
NtRp2023
(dp2024
g61
(dp2025
g69
I4
ssg70
g2019
sg63
(lp2026
g99
asbasbasbag56
(g72
g58
NtRp2027
(dp2028
g61
(dp2029
sg70
g1191
sg63
(lp2030
g56
(g77
g58
NtRp2031
(dp2032
g61
(dp2033
g81
g82
ssg70
g2027
sg63
(lp2034
S'wsgi_multithread'
p2035
asbag56
(g77
g58
NtRp2036
(dp2037
g61
(dp2038
g88
g89
ssg70
g2027
sg63
(lp2039
S':'
asbag56
(g77
g58
NtRp2040
(dp2041
g61
(dp2042
sg70
g2027
sg63
(lp2043
g56
(g57
g58
NtRp2044
(dp2045
g61
(dp2046
g69
I4
ssg70
g2040
sg63
(lp2047
S'True'
p2048
asbasbasbag56
(g72
g58
NtRp2049
(dp2050
g61
(dp2051
sg70
g1191
sg63
(lp2052
g56
(g77
g58
NtRp2053
(dp2054
g61
(dp2055
g81
g82
ssg70
g2049
sg63
(lp2056
S'wsgi_run_once'
p2057
asbag56
(g77
g58
NtRp2058
(dp2059
g61
(dp2060
g88
g89
ssg70
g2049
sg63
(lp2061
S':'
asbag56
(g77
g58
NtRp2062
(dp2063
g61
(dp2064
sg70
g2049
sg63
(lp2065
g56
(g57
g58
NtRp2066
(dp2067
g61
(dp2068
g69
I4
ssg70
g2062
sg63
(lp2069
g99
asbasbasbag56
(g72
g58
NtRp2070
(dp2071
g61
(dp2072
sg70
g1191
sg63
(lp2073
g56
(g77
g58
NtRp2074
(dp2075
g61
(dp2076
g81
g82
ssg70
g2070
sg63
(lp2077
S'wsgi_url_scheme'
p2078
asbag56
(g77
g58
NtRp2079
(dp2080
g61
(dp2081
g88
g89
ssg70
g2070
sg63
(lp2082
S':'
asbag56
(g77
g58
NtRp2083
(dp2084
g61
(dp2085
sg70
g2070
sg63
(lp2086
g56
(g57
g58
NtRp2087
(dp2088
g61
(dp2089
g69
I4
ssg70
g2083
sg63
(lp2090
S'http'
p2091
asbasbasbag56
(g72
g58
NtRp2092
(dp2093
g61
(dp2094
sg70
g1191
sg63
(lp2095
g56
(g77
g58
NtRp2096
(dp2097
g61
(dp2098
g81
g82
ssg70
g2092
sg63
(lp2099
S'wsgi_version'
p2100
asbag56
(g77
g58
NtRp2101
(dp2102
g61
(dp2103
g88
g89
ssg70
g2092
sg63
(lp2104
S':'
asbag56
(g77
g58
NtRp2105
(dp2106
g61
(dp2107
sg70
g2092
sg63
(lp2108
g56
(g57
g58
NtRp2109
(dp2110
g61
(dp2111
g69
I4
ssg70
g2105
sg63
(lp2112
g56
(g65
g58
NtRp2113
(dp2114
g61
(dp2115
g69
I3
ssg70
Nsg63
(lp2116
g56
(g72
g58
NtRp2117
(dp2118
g61
(dp2119
sg70
g2113
sg63
(lp2120
g56
(g77
g58
NtRp2121
(dp2122
g61
(dp2123
sg70
g2117
sg63
(lp2124
g56
(g57
g58
NtRp2125
(dp2126
g61
(dp2127
g69
I3
ssg70
g2121
sg63
(lp2128
S'1'
asbasbasbag56
(g72
g58
NtRp2129
(dp2130
g61
(dp2131
sg70
g2113
sg63
(lp2132
g56
(g77
g58
NtRp2133
(dp2134
g61
(dp2135
sg70
g2129
sg63
(lp2136
g56
(g57
g58
NtRp2137
(dp2138
g61
(dp2139
g69
I3
ssg70
g2133
sg63
(lp2140
S'0'
asbasbasbasbasbasbasbasbasbasbasbag56
(g72
g58
NtRp2141
(dp2142
g61
(dp2143
sg70
g66
sg63
(lp2144
g56
(g77
g58
NtRp2145
(dp2146
g61
(dp2147
g81
g82
ssg70
g2141
sg63
(lp2148
S'extension'
p2149
asbag56
(g77
g58
NtRp2150
(dp2151
g61
(dp2152
g88
g89
ssg70
g2141
sg63
(lp2153
S':'
asbag56
(g77
g58
NtRp2154
(dp2155
g61
(dp2156
sg70
g2141
sg63
(lp2157
g56
(g57
g58
NtRp2158
(dp2159
g61
(dp2160
g69
I5
ssg70
g2154
sg63
(lp2161
S'html'
p2162
asbasbasbag56
(g72
g58
NtRp2163
(dp2164
g61
(dp2165
sg70
g66
sg63
(lp2166
g56
(g77
g58
NtRp2167
(dp2168
g61
(dp2169
g81
g82
ssg70
g2163
sg63
(lp2170
S'folder'
p2171
asbag56
(g77
g58
NtRp2172
(dp2173
g61
(dp2174
g88
g89
ssg70
g2163
sg63
(lp2175
S':'
asbag56
(g77
g58
NtRp2176
(dp2177
g61
(dp2178
sg70
g2163
sg63
(lp2179
g56
(g57
g58
NtRp2180
(dp2181
g61
(dp2182
g69
I5
ssg70
g2176
sg63
(lp2183
S'/home/ian/Dropbox/Web_Pages/web2py-linux/applications/places/'
p2184
asbasbasbag56
(g72
g58
NtRp2185
(dp2186
g61
(dp2187
sg70
g66
sg63
(lp2188
g56
(g77
g58
NtRp2189
(dp2190
g61
(dp2191
g81
g82
ssg70
g2185
sg63
(lp2192
S'function'
p2193
asbag56
(g77
g58
NtRp2194
(dp2195
g61
(dp2196
g88
g89
ssg70
g2185
sg63
(lp2197
S':'
asbag56
(g77
g58
NtRp2198
(dp2199
g61
(dp2200
sg70
g2185
sg63
(lp2201
g56
(g57
g58
NtRp2202
(dp2203
g61
(dp2204
g69
I5
ssg70
g2198
sg63
(lp2205
S'index'
p2206
asbasbasbag56
(g72
g58
NtRp2207
(dp2208
g61
(dp2209
sg70
g66
sg63
(lp2210
g56
(g77
g58
NtRp2211
(dp2212
g61
(dp2213
g81
g82
ssg70
g2207
sg63
(lp2214
S'get_vars'
p2215
asbag56
(g77
g58
NtRp2216
(dp2217
g61
(dp2218
g88
g89
ssg70
g2207
sg63
(lp2219
S':'
asbag56
(g77
g58
NtRp2220
(dp2221
g61
(dp2222
sg70
g2207
sg63
(lp2223
g56
(g57
g58
NtRp2224
(dp2225
g61
(dp2226
g69
I5
ssg70
g2220
sg63
(lp2227
g56
(g65
g58
NtRp2228
(dp2229
g61
(dp2230
g69
I4
ssg70
Nsg63
(lp2231
sbasbasbasbag56
(g72
g58
NtRp2232
(dp2233
g61
(dp2234
sg70
g66
sg63
(lp2235
g56
(g77
g58
NtRp2236
(dp2237
g61
(dp2238
g81
g82
ssg70
g2232
sg63
(lp2239
S'global_settings'
p2240
asbag56
(g77
g58
NtRp2241
(dp2242
g61
(dp2243
g88
g89
ssg70
g2232
sg63
(lp2244
S':'
asbag56
(g77
g58
NtRp2245
(dp2246
g61
(dp2247
sg70
g2232
sg63
(lp2248
g56
(g57
g58
NtRp2249
(dp2250
g61
(dp2251
g69
I5
ssg70
g2245
sg63
(lp2252
g56
(g65
g58
NtRp2253
(dp2254
g61
(dp2255
g69
I4
ssg70
Nsg63
(lp2256
g56
(g72
g58
NtRp2257
(dp2258
g61
(dp2259
sg70
g2253
sg63
(lp2260
g56
(g77
g58
NtRp2261
(dp2262
g61
(dp2263
g81
g82
ssg70
g2257
sg63
(lp2264
g1203
asbag56
(g77
g58
NtRp2265
(dp2266
g61
(dp2267
g88
g89
ssg70
g2257
sg63
(lp2268
S':'
asbag56
(g77
g58
NtRp2269
(dp2270
g61
(dp2271
sg70
g2257
sg63
(lp2272
g56
(g57
g58
NtRp2273
(dp2274
g61
(dp2275
g69
I4
ssg70
g2269
sg63
(lp2276
S"set(['/home/ian/Dropbox/Web_Pages/web2py-linux/applications/blog/', '/home/ian/Dropbox/Web_Pages/web2py-linux/applications/places/', '/home/ian/Dropbox/Web_Pages/web2py-linux/applications/Paideia/', '/home/ian/Dropbox/Web_Pages/web2py-linux/applications/admin/', '/home/ian/Dropbox/Web_Pages/web2py-linux/applications/welcome/'])"
p2277
asbasbasbag56
(g72
g58
NtRp2278
(dp2279
g61
(dp2280
sg70
g2253
sg63
(lp2281
g56
(g77
g58
NtRp2282
(dp2283
g61
(dp2284
g81
g82
ssg70
g2278
sg63
(lp2285
g1225
asbag56
(g77
g58
NtRp2286
(dp2287
g61
(dp2288
g88
g89
ssg70
g2278
sg63
(lp2289
S':'
asbag56
(g77
g58
NtRp2290
(dp2291
g61
(dp2292
sg70
g2278
sg63
(lp2293
g56
(g57
g58
NtRp2294
(dp2295
g61
(dp2296
g69
I4
ssg70
g2290
sg63
(lp2297
g1238
asbasbasbag56
(g72
g58
NtRp2298
(dp2299
g61
(dp2300
sg70
g2253
sg63
(lp2301
g56
(g77
g58
NtRp2302
(dp2303
g61
(dp2304
g81
g82
ssg70
g2298
sg63
(lp2305
g1247
asbag56
(g77
g58
NtRp2306
(dp2307
g61
(dp2308
g88
g89
ssg70
g2298
sg63
(lp2309
S':'
asbag56
(g77
g58
NtRp2310
(dp2311
g61
(dp2312
sg70
g2298
sg63
(lp2313
g56
(g57
g58
NtRp2314
(dp2315
g61
(dp2316
g69
I4
ssg70
g2310
sg63
(lp2317
g56
(g65
g58
NtRp2318
(dp2319
g61
(dp2320
g69
I3
ssg70
Nsg63
(lp2321
sbasbasbasbag56
(g72
g58
NtRp2322
(dp2323
g61
(dp2324
sg70
g2253
sg63
(lp2325
g56
(g77
g58
NtRp2326
(dp2327
g61
(dp2328
g81
g82
ssg70
g2322
sg63
(lp2329
g1272
asbag56
(g77
g58
NtRp2330
(dp2331
g61
(dp2332
g88
g89
ssg70
g2322
sg63
(lp2333
S':'
asbag56
(g77
g58
NtRp2334
(dp2335
g61
(dp2336
sg70
g2322
sg63
(lp2337
g56
(g57
g58
NtRp2338
(dp2339
g61
(dp2340
g69
I4
ssg70
g2334
sg63
(lp2341
S"<Values at 0x2723170: {'verbose': False, 'ip': '127.0.0.1', 'shutdown_timeout': 5, 'taskbar': False, 'nocron': False, 'pid_filename': 'httpserver.pid', 'maxthreads': None, 'softcron': False, 'server_name': 'uriel', 'bpython': False, 'nogui': False, 'port': 8000, 'extcron': False, 'debuglevel': 30, 'test': None, 'folder': '/home/ian/Dropbox/Web_Pages/web2py-linux', 'config': '', 'import_models': False, 'winservice': '', 'shell': None, 'run': '', 'log_filename': 'httpserver.log', 'args': [''], 'ssl_ca_certificate': None, 'scheduler': None, 'profiler_filename': None, 'ssl_private_key': '', 'password': '<ask>', 'request_queue_size': 5, 'ssl_certificate': '', 'cronjob': False, 'plain': False, 'quiet': False, 'interfaces': None, 'minthreads': None, 'timeout': 10, 'numthreads': None, 'nobanner': False}>"
p2342
asbasbasbag56
(g72
g58
NtRp2343
(dp2344
g61
(dp2345
sg70
g2253
sg63
(lp2346
g56
(g77
g58
NtRp2347
(dp2348
g61
(dp2349
g81
g82
ssg70
g2343
sg63
(lp2350
g1294
asbag56
(g77
g58
NtRp2351
(dp2352
g61
(dp2353
g88
g89
ssg70
g2343
sg63
(lp2354
S':'
asbag56
(g77
g58
NtRp2355
(dp2356
g61
(dp2357
sg70
g2343
sg63
(lp2358
g56
(g57
g58
NtRp2359
(dp2360
g61
(dp2361
g69
I4
ssg70
g2355
sg63
(lp2362
S'set([])'
p2363
asbasbasbag56
(g72
g58
NtRp2364
(dp2365
g61
(dp2366
sg70
g2253
sg63
(lp2367
g56
(g77
g58
NtRp2368
(dp2369
g61
(dp2370
g81
g82
ssg70
g2364
sg63
(lp2371
g1316
asbag56
(g77
g58
NtRp2372
(dp2373
g61
(dp2374
g88
g89
ssg70
g2364
sg63
(lp2375
S':'
asbag56
(g77
g58
NtRp2376
(dp2377
g61
(dp2378
sg70
g2364
sg63
(lp2379
g56
(g57
g58
NtRp2380
(dp2381
g61
(dp2382
g69
I4
ssg70
g2376
sg63
(lp2383
g99
asbasbasbag56
(g72
g58
NtRp2384
(dp2385
g61
(dp2386
sg70
g2253
sg63
(lp2387
g56
(g77
g58
NtRp2388
(dp2389
g61
(dp2390
g81
g82
ssg70
g2384
sg63
(lp2391
g1337
asbag56
(g77
g58
NtRp2392
(dp2393
g61
(dp2394
g88
g89
ssg70
g2384
sg63
(lp2395
S':'
asbag56
(g77
g58
NtRp2396
(dp2397
g61
(dp2398
sg70
g2384
sg63
(lp2399
g56
(g57
g58
NtRp2400
(dp2401
g61
(dp2402
g69
I4
ssg70
g2396
sg63
(lp2403
g1350
asbasbasbag56
(g72
g58
NtRp2404
(dp2405
g61
(dp2406
sg70
g2253
sg63
(lp2407
g56
(g77
g58
NtRp2408
(dp2409
g61
(dp2410
g81
g82
ssg70
g2404
sg63
(lp2411
g1579
asbag56
(g77
g58
NtRp2412
(dp2413
g61
(dp2414
g88
g89
ssg70
g2404
sg63
(lp2415
S':'
asbag56
(g77
g58
NtRp2416
(dp2417
g61
(dp2418
sg70
g2404
sg63
(lp2419
g56
(g57
g58
NtRp2420
(dp2421
g61
(dp2422
g69
I4
ssg70
g2416
sg63
(lp2423
g99
asbasbasbag56
(g72
g58
NtRp2424
(dp2425
g61
(dp2426
sg70
g2253
sg63
(lp2427
g56
(g77
g58
NtRp2428
(dp2429
g61
(dp2430
g81
g82
ssg70
g2424
sg63
(lp2431
g1817
asbag56
(g77
g58
NtRp2432
(dp2433
g61
(dp2434
g88
g89
ssg70
g2424
sg63
(lp2435
S':'
asbag56
(g77
g58
NtRp2436
(dp2437
g61
(dp2438
sg70
g2424
sg63
(lp2439
g56
(g57
g58
NtRp2440
(dp2441
g61
(dp2442
g69
I4
ssg70
g2436
sg63
(lp2443
g1830
asbasbasbag56
(g72
g58
NtRp2444
(dp2445
g61
(dp2446
sg70
g2253
sg63
(lp2447
g56
(g77
g58
NtRp2448
(dp2449
g61
(dp2450
g81
g82
ssg70
g2444
sg63
(lp2451
g1860
asbag56
(g77
g58
NtRp2452
(dp2453
g61
(dp2454
g88
g89
ssg70
g2444
sg63
(lp2455
S':'
asbag56
(g77
g58
NtRp2456
(dp2457
g61
(dp2458
sg70
g2444
sg63
(lp2459
g56
(g57
g58
NtRp2460
(dp2461
g61
(dp2462
g69
I4
ssg70
g2456
sg63
(lp2463
g56
(g65
g58
NtRp2464
(dp2465
g61
(dp2466
g69
I3
ssg70
Nsg63
(lp2467
g56
(g72
g58
NtRp2468
(dp2469
g61
(dp2470
sg70
g2464
sg63
(lp2471
g56
(g77
g58
NtRp2472
(dp2473
g61
(dp2474
sg70
g2468
sg63
(lp2475
g56
(g57
g58
NtRp2476
(dp2477
g61
(dp2478
g69
I3
ssg70
g2472
sg63
(lp2479
S'1'
asbasbasbag56
(g72
g58
NtRp2480
(dp2481
g61
(dp2482
sg70
g2464
sg63
(lp2483
g56
(g77
g58
NtRp2484
(dp2485
g61
(dp2486
sg70
g2480
sg63
(lp2487
g56
(g57
g58
NtRp2488
(dp2489
g61
(dp2490
g69
I3
ssg70
g2484
sg63
(lp2491
S'99'
p2492
asbasbasbag56
(g72
g58
NtRp2493
(dp2494
g61
(dp2495
sg70
g2464
sg63
(lp2496
g56
(g77
g58
NtRp2497
(dp2498
g61
(dp2499
sg70
g2493
sg63
(lp2500
g56
(g57
g58
NtRp2501
(dp2502
g61
(dp2503
g69
I3
ssg70
g2497
sg63
(lp2504
S'2'
asbasbasbag56
(g72
g58
NtRp2505
(dp2506
g61
(dp2507
sg70
g2464
sg63
(lp2508
g56
(g77
g58
NtRp2509
(dp2510
g61
(dp2511
sg70
g2505
sg63
(lp2512
g56
(g57
g58
NtRp2513
(dp2514
g61
(dp2515
g69
I3
ssg70
g2509
sg63
(lp2516
S'datetime.datetime(2011, 9, 26, 6, 55, 33)'
p2517
asbasbasbag56
(g72
g58
NtRp2518
(dp2519
g61
(dp2520
sg70
g2464
sg63
(lp2521
g56
(g77
g58
NtRp2522
(dp2523
g61
(dp2524
sg70
g2518
sg63
(lp2525
g56
(g57
g58
NtRp2526
(dp2527
g61
(dp2528
g69
I3
ssg70
g2522
sg63
(lp2529
g1939
asbasbasbasbasbasbasbasbasbasbasbag56
(g72
g58
NtRp2530
(dp2531
g61
(dp2532
sg70
g66
sg63
(lp2533
g56
(g77
g58
NtRp2534
(dp2535
g61
(dp2536
g81
g82
ssg70
g2530
sg63
(lp2537
S'is_https'
p2538
asbag56
(g77
g58
NtRp2539
(dp2540
g61
(dp2541
g88
g89
ssg70
g2530
sg63
(lp2542
S':'
asbag56
(g77
g58
NtRp2543
(dp2544
g61
(dp2545
sg70
g2530
sg63
(lp2546
g56
(g57
g58
NtRp2547
(dp2548
g61
(dp2549
g69
I5
ssg70
g2543
sg63
(lp2550
g99
asbasbasbag56
(g72
g58
NtRp2551
(dp2552
g61
(dp2553
sg70
g66
sg63
(lp2554
g56
(g77
g58
NtRp2555
(dp2556
g61
(dp2557
g81
g82
ssg70
g2551
sg63
(lp2558
S'is_local'
p2559
asbag56
(g77
g58
NtRp2560
(dp2561
g61
(dp2562
g88
g89
ssg70
g2551
sg63
(lp2563
S':'
asbag56
(g77
g58
NtRp2564
(dp2565
g61
(dp2566
sg70
g2551
sg63
(lp2567
g56
(g57
g58
NtRp2568
(dp2569
g61
(dp2570
g69
I5
ssg70
g2564
sg63
(lp2571
g2048
asbasbasbag56
(g72
g58
NtRp2572
(dp2573
g61
(dp2574
sg70
g66
sg63
(lp2575
g56
(g77
g58
NtRp2576
(dp2577
g61
(dp2578
g81
g82
ssg70
g2572
sg63
(lp2579
S'is_restful'
p2580
asbag56
(g77
g58
NtRp2581
(dp2582
g61
(dp2583
g88
g89
ssg70
g2572
sg63
(lp2584
S':'
asbag56
(g77
g58
NtRp2585
(dp2586
g61
(dp2587
sg70
g2572
sg63
(lp2588
g56
(g57
g58
NtRp2589
(dp2590
g61
(dp2591
g69
I5
ssg70
g2585
sg63
(lp2592
g99
asbasbasbag56
(g72
g58
NtRp2593
(dp2594
g61
(dp2595
sg70
g66
sg63
(lp2596
g56
(g77
g58
NtRp2597
(dp2598
g61
(dp2599
g81
g82
ssg70
g2593
sg63
(lp2600
S'now'
p2601
asbag56
(g77
g58
NtRp2602
(dp2603
g61
(dp2604
g88
g89
ssg70
g2593
sg63
(lp2605
S':'
asbag56
(g77
g58
NtRp2606
(dp2607
g61
(dp2608
sg70
g2593
sg63
(lp2609
g56
(g57
g58
NtRp2610
(dp2611
g61
(dp2612
g69
I5
ssg70
g2606
sg63
(lp2613
S'datetime.datetime(2011, 9, 30, 16, 28, 58, 956363)'
p2614
asbasbasbag56
(g72
g58
NtRp2615
(dp2616
g61
(dp2617
sg70
g66
sg63
(lp2618
g56
(g77
g58
NtRp2619
(dp2620
g61
(dp2621
g81
g82
ssg70
g2615
sg63
(lp2622
S'post_vars'
p2623
asbag56
(g77
g58
NtRp2624
(dp2625
g61
(dp2626
g88
g89
ssg70
g2615
sg63
(lp2627
S':'
asbag56
(g77
g58
NtRp2628
(dp2629
g61
(dp2630
sg70
g2615
sg63
(lp2631
g56
(g57
g58
NtRp2632
(dp2633
g61
(dp2634
g69
I5
ssg70
g2628
sg63
(lp2635
g56
(g65
g58
NtRp2636
(dp2637
g61
(dp2638
g69
I4
ssg70
Nsg63
(lp2639
sbasbasbasbag56
(g72
g58
NtRp2640
(dp2641
g61
(dp2642
sg70
g66
sg63
(lp2643
g56
(g77
g58
NtRp2644
(dp2645
g61
(dp2646
g81
g82
ssg70
g2640
sg63
(lp2647
S'url'
p2648
asbag56
(g77
g58
NtRp2649
(dp2650
g61
(dp2651
g88
g89
ssg70
g2640
sg63
(lp2652
S':'
asbag56
(g77
g58
NtRp2653
(dp2654
g61
(dp2655
sg70
g2640
sg63
(lp2656
g56
(g57
g58
NtRp2657
(dp2658
g61
(dp2659
g69
I5
ssg70
g2653
sg63
(lp2660
S'/places/default/index'
p2661
asbasbasbag56
(g72
g58
NtRp2662
(dp2663
g61
(dp2664
sg70
g66
sg63
(lp2665
g56
(g77
g58
NtRp2666
(dp2667
g61
(dp2668
g81
g82
ssg70
g2662
sg63
(lp2669
S'utcnow'
p2670
asbag56
(g77
g58
NtRp2671
(dp2672
g61
(dp2673
g88
g89
ssg70
g2662
sg63
(lp2674
S':'
asbag56
(g77
g58
NtRp2675
(dp2676
g61
(dp2677
sg70
g2662
sg63
(lp2678
g56
(g57
g58
NtRp2679
(dp2680
g61
(dp2681
g69
I5
ssg70
g2675
sg63
(lp2682
S'datetime.datetime(2011, 9, 30, 20, 28, 58, 956425)'
p2683
asbasbasbag56
(g72
g58
NtRp2684
(dp2685
g61
(dp2686
sg70
g66
sg63
(lp2687
g56
(g77
g58
NtRp2688
(dp2689
g61
(dp2690
g81
g82
ssg70
g2684
sg63
(lp2691
S'uuid'
p2692
asbag56
(g77
g58
NtRp2693
(dp2694
g61
(dp2695
g88
g89
ssg70
g2684
sg63
(lp2696
S':'
asbag56
(g77
g58
NtRp2697
(dp2698
g61
(dp2699
sg70
g2684
sg63
(lp2700
g56
(g57
g58
NtRp2701
(dp2702
g61
(dp2703
g69
I5
ssg70
g2697
sg63
(lp2704
S'places/127.0.0.1.2011-09-30.16-28-58.4411446c-edd4-4502-a4f8-65ccb57f0794'
p2705
asbasbasbag56
(g72
g58
NtRp2706
(dp2707
g61
(dp2708
sg70
g66
sg63
(lp2709
g56
(g77
g58
NtRp2710
(dp2711
g61
(dp2712
g81
g82
ssg70
g2706
sg63
(lp2713
S'vars'
p2714
asbag56
(g77
g58
NtRp2715
(dp2716
g61
(dp2717
g88
g89
ssg70
g2706
sg63
(lp2718
S':'
asbag56
(g77
g58
NtRp2719
(dp2720
g61
(dp2721
sg70
g2706
sg63
(lp2722
g56
(g57
g58
NtRp2723
(dp2724
g61
(dp2725
g69
I5
ssg70
g2719
sg63
(lp2726
g56
(g65
g58
NtRp2727
(dp2728
g61
(dp2729
g69
I4
ssg70
Nsg63
(lp2730
sbasbasbasbag56
(g72
g58
NtRp2731
(dp2732
g61
(dp2733
sg70
g66
sg63
(lp2734
g56
(g77
g58
NtRp2735
(dp2736
g61
(dp2737
g81
g82
ssg70
g2731
sg63
(lp2738
S'wsgi'
p2739
asbag56
(g77
g58
NtRp2740
(dp2741
g61
(dp2742
g88
g89
ssg70
g2731
sg63
(lp2743
S':'
asbag56
(g77
g58
NtRp2744
(dp2745
g61
(dp2746
sg70
g2731
sg63
(lp2747
g56
(g57
g58
NtRp2748
(dp2749
g61
(dp2750
g69
I5
ssg70
g2744
sg63
(lp2751
g56
(g65
g58
NtRp2752
(dp2753
g61
(dp2754
g69
I4
ssg70
Nsg63
(lp2755
g56
(g72
g58
NtRp2756
(dp2757
g61
(dp2758
sg70
g2752
sg63
(lp2759
g56
(g77
g58
NtRp2760
(dp2761
g61
(dp2762
g81
g82
ssg70
g2756
sg63
(lp2763
S'environ'
p2764
asbag56
(g77
g58
NtRp2765
(dp2766
g61
(dp2767
g88
g89
ssg70
g2756
sg63
(lp2768
S':'
asbag56
(g77
g58
NtRp2769
(dp2770
g61
(dp2771
sg70
g2756
sg63
(lp2772
g56
(g57
g58
NtRp2773
(dp2774
g61
(dp2775
g69
I4
ssg70
g2769
sg63
(lp2776
g56
(g65
g58
NtRp2777
(dp2778
g61
(dp2779
g69
I3
ssg70
Nsg63
(lp2780
g56
(g72
g58
NtRp2781
(dp2782
g61
(dp2783
sg70
g2777
sg63
(lp2784
g56
(g77
g58
NtRp2785
(dp2786
g61
(dp2787
g81
g82
ssg70
g2781
sg63
(lp2788
S'HTTP_ACCEPT'
p2789
asbag56
(g77
g58
NtRp2790
(dp2791
g61
(dp2792
g88
g89
ssg70
g2781
sg63
(lp2793
S':'
asbag56
(g77
g58
NtRp2794
(dp2795
g61
(dp2796
sg70
g2781
sg63
(lp2797
g56
(g57
g58
NtRp2798
(dp2799
g61
(dp2800
g69
I3
ssg70
g2794
sg63
(lp2801
g1372
asbasbasbag56
(g72
g58
NtRp2802
(dp2803
g61
(dp2804
sg70
g2777
sg63
(lp2805
g56
(g77
g58
NtRp2806
(dp2807
g61
(dp2808
g81
g82
ssg70
g2802
sg63
(lp2809
S'HTTP_ACCEPT_CHARSET'
p2810
asbag56
(g77
g58
NtRp2811
(dp2812
g61
(dp2813
g88
g89
ssg70
g2802
sg63
(lp2814
S':'
asbag56
(g77
g58
NtRp2815
(dp2816
g61
(dp2817
sg70
g2802
sg63
(lp2818
g56
(g57
g58
NtRp2819
(dp2820
g61
(dp2821
g69
I3
ssg70
g2815
sg63
(lp2822
g1394
asbasbasbag56
(g72
g58
NtRp2823
(dp2824
g61
(dp2825
sg70
g2777
sg63
(lp2826
g56
(g77
g58
NtRp2827
(dp2828
g61
(dp2829
g81
g82
ssg70
g2823
sg63
(lp2830
S'HTTP_ACCEPT_ENCODING'
p2831
asbag56
(g77
g58
NtRp2832
(dp2833
g61
(dp2834
g88
g89
ssg70
g2823
sg63
(lp2835
S':'
asbag56
(g77
g58
NtRp2836
(dp2837
g61
(dp2838
sg70
g2823
sg63
(lp2839
g56
(g57
g58
NtRp2840
(dp2841
g61
(dp2842
g69
I3
ssg70
g2836
sg63
(lp2843
g1416
asbasbasbag56
(g72
g58
NtRp2844
(dp2845
g61
(dp2846
sg70
g2777
sg63
(lp2847
g56
(g77
g58
NtRp2848
(dp2849
g61
(dp2850
g81
g82
ssg70
g2844
sg63
(lp2851
S'HTTP_ACCEPT_LANGUAGE'
p2852
asbag56
(g77
g58
NtRp2853
(dp2854
g61
(dp2855
g88
g89
ssg70
g2844
sg63
(lp2856
S':'
asbag56
(g77
g58
NtRp2857
(dp2858
g61
(dp2859
sg70
g2844
sg63
(lp2860
g56
(g57
g58
NtRp2861
(dp2862
g61
(dp2863
g69
I3
ssg70
g2857
sg63
(lp2864
g1438
asbasbasbag56
(g72
g58
NtRp2865
(dp2866
g61
(dp2867
sg70
g2777
sg63
(lp2868
g56
(g77
g58
NtRp2869
(dp2870
g61
(dp2871
g81
g82
ssg70
g2865
sg63
(lp2872
S'HTTP_CACHE_CONTROL'
p2873
asbag56
(g77
g58
NtRp2874
(dp2875
g61
(dp2876
g88
g89
ssg70
g2865
sg63
(lp2877
S':'
asbag56
(g77
g58
NtRp2878
(dp2879
g61
(dp2880
sg70
g2865
sg63
(lp2881
g56
(g57
g58
NtRp2882
(dp2883
g61
(dp2884
g69
I3
ssg70
g2878
sg63
(lp2885
g1460
asbasbasbag56
(g72
g58
NtRp2886
(dp2887
g61
(dp2888
sg70
g2777
sg63
(lp2889
g56
(g77
g58
NtRp2890
(dp2891
g61
(dp2892
g81
g82
ssg70
g2886
sg63
(lp2893
S'HTTP_CONNECTION'
p2894
asbag56
(g77
g58
NtRp2895
(dp2896
g61
(dp2897
g88
g89
ssg70
g2886
sg63
(lp2898
S':'
asbag56
(g77
g58
NtRp2899
(dp2900
g61
(dp2901
sg70
g2886
sg63
(lp2902
g56
(g57
g58
NtRp2903
(dp2904
g61
(dp2905
g69
I3
ssg70
g2899
sg63
(lp2906
g1482
asbasbasbag56
(g72
g58
NtRp2907
(dp2908
g61
(dp2909
sg70
g2777
sg63
(lp2910
g56
(g77
g58
NtRp2911
(dp2912
g61
(dp2913
g81
g82
ssg70
g2907
sg63
(lp2914
S'HTTP_COOKIE'
p2915
asbag56
(g77
g58
NtRp2916
(dp2917
g61
(dp2918
g88
g89
ssg70
g2907
sg63
(lp2919
S':'
asbag56
(g77
g58
NtRp2920
(dp2921
g61
(dp2922
sg70
g2907
sg63
(lp2923
g56
(g57
g58
NtRp2924
(dp2925
g61
(dp2926
g69
I3
ssg70
g2920
sg63
(lp2927
g1504
asbasbasbag56
(g72
g58
NtRp2928
(dp2929
g61
(dp2930
sg70
g2777
sg63
(lp2931
g56
(g77
g58
NtRp2932
(dp2933
g61
(dp2934
g81
g82
ssg70
g2928
sg63
(lp2935
S'HTTP_HOST'
p2936
asbag56
(g77
g58
NtRp2937
(dp2938
g61
(dp2939
g88
g89
ssg70
g2928
sg63
(lp2940
S':'
asbag56
(g77
g58
NtRp2941
(dp2942
g61
(dp2943
sg70
g2928
sg63
(lp2944
g56
(g57
g58
NtRp2945
(dp2946
g61
(dp2947
g69
I3
ssg70
g2941
sg63
(lp2948
g1526
asbasbasbag56
(g72
g58
NtRp2949
(dp2950
g61
(dp2951
sg70
g2777
sg63
(lp2952
g56
(g77
g58
NtRp2953
(dp2954
g61
(dp2955
g81
g82
ssg70
g2949
sg63
(lp2956
S'HTTP_REFERER'
p2957
asbag56
(g77
g58
NtRp2958
(dp2959
g61
(dp2960
g88
g89
ssg70
g2949
sg63
(lp2961
S':'
asbag56
(g77
g58
NtRp2962
(dp2963
g61
(dp2964
sg70
g2949
sg63
(lp2965
g56
(g57
g58
NtRp2966
(dp2967
g61
(dp2968
g69
I3
ssg70
g2962
sg63
(lp2969
g1548
asbasbasbag56
(g72
g58
NtRp2970
(dp2971
g61
(dp2972
sg70
g2777
sg63
(lp2973
g56
(g77
g58
NtRp2974
(dp2975
g61
(dp2976
g81
g82
ssg70
g2970
sg63
(lp2977
S'HTTP_USER_AGENT'
p2978
asbag56
(g77
g58
NtRp2979
(dp2980
g61
(dp2981
g88
g89
ssg70
g2970
sg63
(lp2982
S':'
asbag56
(g77
g58
NtRp2983
(dp2984
g61
(dp2985
sg70
g2970
sg63
(lp2986
g56
(g57
g58
NtRp2987
(dp2988
g61
(dp2989
g69
I3
ssg70
g2983
sg63
(lp2990
g1570
asbasbasbag56
(g72
g58
NtRp2991
(dp2992
g61
(dp2993
sg70
g2777
sg63
(lp2994
g56
(g77
g58
NtRp2995
(dp2996
g61
(dp2997
g81
g82
ssg70
g2991
sg63
(lp2998
S'PATH_INFO'
p2999
asbag56
(g77
g58
NtRp3000
(dp3001
g61
(dp3002
g88
g89
ssg70
g2991
sg63
(lp3003
S':'
asbag56
(g77
g58
NtRp3004
(dp3005
g61
(dp3006
sg70
g2991
sg63
(lp3007
g56
(g57
g58
NtRp3008
(dp3009
g61
(dp3010
g69
I3
ssg70
g3004
sg63
(lp3011
g1613
asbasbasbag56
(g72
g58
NtRp3012
(dp3013
g61
(dp3014
sg70
g2777
sg63
(lp3015
g56
(g77
g58
NtRp3016
(dp3017
g61
(dp3018
g81
g82
ssg70
g3012
sg63
(lp3019
S'QUERY_STRING'
p3020
asbag56
(g77
g58
NtRp3021
(dp3022
g61
(dp3023
g88
g89
ssg70
g3012
sg63
(lp3024
S':'
asbag56
(g77
g58
NtRp3025
(dp3026
g61
(dp3027
sg70
g3012
sg63
(lp3028
g56
(g57
g58
NtRp3029
(dp3030
g61
(dp3031
g69
I3
ssg70
g3025
sg63
(lp3032
S''
asbasbasbag56
(g72
g58
NtRp3033
(dp3034
g61
(dp3035
sg70
g2777
sg63
(lp3036
g56
(g77
g58
NtRp3037
(dp3038
g61
(dp3039
g81
g82
ssg70
g3033
sg63
(lp3040
S'REMOTE_ADDR'
p3041
asbag56
(g77
g58
NtRp3042
(dp3043
g61
(dp3044
g88
g89
ssg70
g3033
sg63
(lp3045
S':'
asbag56
(g77
g58
NtRp3046
(dp3047
g61
(dp3048
sg70
g3033
sg63
(lp3049
g56
(g57
g58
NtRp3050
(dp3051
g61
(dp3052
g69
I3
ssg70
g3046
sg63
(lp3053
g189
asbasbasbag56
(g72
g58
NtRp3054
(dp3055
g61
(dp3056
sg70
g2777
sg63
(lp3057
g56
(g77
g58
NtRp3058
(dp3059
g61
(dp3060
g81
g82
ssg70
g3054
sg63
(lp3061
S'REMOTE_PORT'
p3062
asbag56
(g77
g58
NtRp3063
(dp3064
g61
(dp3065
g88
g89
ssg70
g3054
sg63
(lp3066
S':'
asbag56
(g77
g58
NtRp3067
(dp3068
g61
(dp3069
sg70
g3054
sg63
(lp3070
g56
(g57
g58
NtRp3071
(dp3072
g61
(dp3073
g69
I3
ssg70
g3067
sg63
(lp3074
g1677
asbasbasbag56
(g72
g58
NtRp3075
(dp3076
g61
(dp3077
sg70
g2777
sg63
(lp3078
g56
(g77
g58
NtRp3079
(dp3080
g61
(dp3081
g81
g82
ssg70
g3075
sg63
(lp3082
S'REQUEST_METHOD'
p3083
asbag56
(g77
g58
NtRp3084
(dp3085
g61
(dp3086
g88
g89
ssg70
g3075
sg63
(lp3087
S':'
asbag56
(g77
g58
NtRp3088
(dp3089
g61
(dp3090
sg70
g3075
sg63
(lp3091
g56
(g57
g58
NtRp3092
(dp3093
g61
(dp3094
g69
I3
ssg70
g3088
sg63
(lp3095
g1699
asbasbasbag56
(g72
g58
NtRp3096
(dp3097
g61
(dp3098
sg70
g2777
sg63
(lp3099
g56
(g77
g58
NtRp3100
(dp3101
g61
(dp3102
g81
g82
ssg70
g3096
sg63
(lp3103
S'SCRIPT_NAME'
p3104
asbag56
(g77
g58
NtRp3105
(dp3106
g61
(dp3107
g88
g89
ssg70
g3096
sg63
(lp3108
S':'
asbag56
(g77
g58
NtRp3109
(dp3110
g61
(dp3111
sg70
g3096
sg63
(lp3112
g56
(g57
g58
NtRp3113
(dp3114
g61
(dp3115
g69
I3
ssg70
g3109
sg63
(lp3116
S''
asbasbasbag56
(g72
g58
NtRp3117
(dp3118
g61
(dp3119
sg70
g2777
sg63
(lp3120
g56
(g77
g58
NtRp3121
(dp3122
g61
(dp3123
g81
g82
ssg70
g3117
sg63
(lp3124
S'SERVER_NAME'
p3125
asbag56
(g77
g58
NtRp3126
(dp3127
g61
(dp3128
g88
g89
ssg70
g3117
sg63
(lp3129
S':'
asbag56
(g77
g58
NtRp3130
(dp3131
g61
(dp3132
sg70
g3117
sg63
(lp3133
g56
(g57
g58
NtRp3134
(dp3135
g61
(dp3136
g69
I3
ssg70
g3130
sg63
(lp3137
g1742
asbasbasbag56
(g72
g58
NtRp3138
(dp3139
g61
(dp3140
sg70
g2777
sg63
(lp3141
g56
(g77
g58
NtRp3142
(dp3143
g61
(dp3144
g81
g82
ssg70
g3138
sg63
(lp3145
S'SERVER_PORT'
p3146
asbag56
(g77
g58
NtRp3147
(dp3148
g61
(dp3149
g88
g89
ssg70
g3138
sg63
(lp3150
S':'
asbag56
(g77
g58
NtRp3151
(dp3152
g61
(dp3153
sg70
g3138
sg63
(lp3154
g56
(g57
g58
NtRp3155
(dp3156
g61
(dp3157
g69
I3
ssg70
g3151
sg63
(lp3158
g1764
asbasbasbag56
(g72
g58
NtRp3159
(dp3160
g61
(dp3161
sg70
g2777
sg63
(lp3162
g56
(g77
g58
NtRp3163
(dp3164
g61
(dp3165
g81
g82
ssg70
g3159
sg63
(lp3166
S'SERVER_PROTOCOL'
p3167
asbag56
(g77
g58
NtRp3168
(dp3169
g61
(dp3170
g88
g89
ssg70
g3159
sg63
(lp3171
S':'
asbag56
(g77
g58
NtRp3172
(dp3173
g61
(dp3174
sg70
g3159
sg63
(lp3175
g56
(g57
g58
NtRp3176
(dp3177
g61
(dp3178
g69
I3
ssg70
g3172
sg63
(lp3179
g1786
asbasbasbag56
(g72
g58
NtRp3180
(dp3181
g61
(dp3182
sg70
g2777
sg63
(lp3183
g56
(g77
g58
NtRp3184
(dp3185
g61
(dp3186
g81
g82
ssg70
g3180
sg63
(lp3187
S'SERVER_SOFTWARE'
p3188
asbag56
(g77
g58
NtRp3189
(dp3190
g61
(dp3191
g88
g89
ssg70
g3180
sg63
(lp3192
S':'
asbag56
(g77
g58
NtRp3193
(dp3194
g61
(dp3195
sg70
g3180
sg63
(lp3196
g56
(g57
g58
NtRp3197
(dp3198
g61
(dp3199
g69
I3
ssg70
g3193
sg63
(lp3200
g1808
asbasbasbag56
(g72
g58
NtRp3201
(dp3202
g61
(dp3203
sg70
g2777
sg63
(lp3204
g56
(g77
g58
NtRp3205
(dp3206
g61
(dp3207
g81
g82
ssg70
g3201
sg63
(lp3208
S'wsgi.errors'
p3209
asbag56
(g77
g58
NtRp3210
(dp3211
g61
(dp3212
g88
g89
ssg70
g3201
sg63
(lp3213
S':'
asbag56
(g77
g58
NtRp3214
(dp3215
g61
(dp3216
sg70
g3201
sg63
(lp3217
g56
(g57
g58
NtRp3218
(dp3219
g61
(dp3220
g69
I3
ssg70
g3214
sg63
(lp3221
S"<open file '<stderr>', mode 'w' at 0x7f4a416fc270>"
p3222
asbasbasbag56
(g72
g58
NtRp3223
(dp3224
g61
(dp3225
sg70
g2777
sg63
(lp3226
g56
(g77
g58
NtRp3227
(dp3228
g61
(dp3229
g81
g82
ssg70
g3223
sg63
(lp3230
S'wsgi.file_wrapper'
p3231
asbag56
(g77
g58
NtRp3232
(dp3233
g61
(dp3234
g88
g89
ssg70
g3223
sg63
(lp3235
S':'
asbag56
(g77
g58
NtRp3236
(dp3237
g61
(dp3238
sg70
g3223
sg63
(lp3239
g56
(g57
g58
NtRp3240
(dp3241
g61
(dp3242
g69
I3
ssg70
g3236
sg63
(lp3243
S'<class wsgiref.util.FileWrapper at 0x24b4870>'
p3244
asbasbasbag56
(g72
g58
NtRp3245
(dp3246
g61
(dp3247
sg70
g2777
sg63
(lp3248
g56
(g77
g58
NtRp3249
(dp3250
g61
(dp3251
g81
g82
ssg70
g3245
sg63
(lp3252
S'wsgi.input'
p3253
asbag56
(g77
g58
NtRp3254
(dp3255
g61
(dp3256
g88
g89
ssg70
g3245
sg63
(lp3257
S':'
asbag56
(g77
g58
NtRp3258
(dp3259
g61
(dp3260
sg70
g3245
sg63
(lp3261
g56
(g57
g58
NtRp3262
(dp3263
g61
(dp3264
g69
I3
ssg70
g3258
sg63
(lp3265
S'<cStringIO.StringO object at 0x3bc2848>'
p3266
asbasbasbag56
(g72
g58
NtRp3267
(dp3268
g61
(dp3269
sg70
g2777
sg63
(lp3270
g56
(g77
g58
NtRp3271
(dp3272
g61
(dp3273
g81
g82
ssg70
g3267
sg63
(lp3274
S'wsgi.multiprocess'
p3275
asbag56
(g77
g58
NtRp3276
(dp3277
g61
(dp3278
g88
g89
ssg70
g3267
sg63
(lp3279
S':'
asbag56
(g77
g58
NtRp3280
(dp3281
g61
(dp3282
sg70
g3267
sg63
(lp3283
g56
(g57
g58
NtRp3284
(dp3285
g61
(dp3286
g69
I3
ssg70
g3280
sg63
(lp3287
g99
asbasbasbag56
(g72
g58
NtRp3288
(dp3289
g61
(dp3290
sg70
g2777
sg63
(lp3291
g56
(g77
g58
NtRp3292
(dp3293
g61
(dp3294
g81
g82
ssg70
g3288
sg63
(lp3295
S'wsgi.multithread'
p3296
asbag56
(g77
g58
NtRp3297
(dp3298
g61
(dp3299
g88
g89
ssg70
g3288
sg63
(lp3300
S':'
asbag56
(g77
g58
NtRp3301
(dp3302
g61
(dp3303
sg70
g3288
sg63
(lp3304
g56
(g57
g58
NtRp3305
(dp3306
g61
(dp3307
g69
I3
ssg70
g3301
sg63
(lp3308
g2048
asbasbasbag56
(g72
g58
NtRp3309
(dp3310
g61
(dp3311
sg70
g2777
sg63
(lp3312
g56
(g77
g58
NtRp3313
(dp3314
g61
(dp3315
g81
g82
ssg70
g3309
sg63
(lp3316
S'wsgi.run_once'
p3317
asbag56
(g77
g58
NtRp3318
(dp3319
g61
(dp3320
g88
g89
ssg70
g3309
sg63
(lp3321
S':'
asbag56
(g77
g58
NtRp3322
(dp3323
g61
(dp3324
sg70
g3309
sg63
(lp3325
g56
(g57
g58
NtRp3326
(dp3327
g61
(dp3328
g69
I3
ssg70
g3322
sg63
(lp3329
g99
asbasbasbag56
(g72
g58
NtRp3330
(dp3331
g61
(dp3332
sg70
g2777
sg63
(lp3333
g56
(g77
g58
NtRp3334
(dp3335
g61
(dp3336
g81
g82
ssg70
g3330
sg63
(lp3337
S'wsgi.url_scheme'
p3338
asbag56
(g77
g58
NtRp3339
(dp3340
g61
(dp3341
g88
g89
ssg70
g3330
sg63
(lp3342
S':'
asbag56
(g77
g58
NtRp3343
(dp3344
g61
(dp3345
sg70
g3330
sg63
(lp3346
g56
(g57
g58
NtRp3347
(dp3348
g61
(dp3349
g69
I3
ssg70
g3343
sg63
(lp3350
g2091
asbasbasbag56
(g72
g58
NtRp3351
(dp3352
g61
(dp3353
sg70
g2777
sg63
(lp3354
g56
(g77
g58
NtRp3355
(dp3356
g61
(dp3357
g81
g82
ssg70
g3351
sg63
(lp3358
S'wsgi.version'
p3359
asbag56
(g77
g58
NtRp3360
(dp3361
g61
(dp3362
g88
g89
ssg70
g3351
sg63
(lp3363
S':'
asbag56
(g77
g58
NtRp3364
(dp3365
g61
(dp3366
sg70
g3351
sg63
(lp3367
g56
(g57
g58
NtRp3368
(dp3369
g61
(dp3370
g69
I3
ssg70
g3364
sg63
(lp3371
S'1'
asbasbasbasbasbasbasbasbasbasbasbasbasbsS'frames'
p3372
(lp3373
(dp3374
S'file'
p3375
S'/home/ian/Dropbox/Web_Pages/web2py-linux/gluon/restricted.py'
p3376
sS'dump'
p3377
(dp3378
S'environment'
p3379
S"{'A': <class 'gluon.html.A'>, 'Auth': <class 'gluon.tools.Auth'>, 'B': <class 'gluon.html.B'>, 'BEAUTIFY': <class 'gluon.html.BEAUTIFY'>, 'BODY': <class 'gluon.html.BODY'>, 'BR': <class 'gluon.html.BR'>, 'BUTTON': <class 'gluon.html.BUTTON'>, 'CAT': <class 'gluon.html.CAT'>, 'CENTER': <class 'gluon.html.CENTER'>, 'CLEANUP': <class 'gluon.validators.CLEANUP'>, ...}"
p3380
sS'ccode'
p3381
S'<code object <module> at 0x3bc0530, file "/home/...ications/places/controllers/default.py", line 12>'
p3382
ssS'lnum'
p3383
I194
sS'lines'
p3384
(dp3385
I192
S'        else:'
p3386
sI193
S'            ccode = compile2(code,layer)'
p3387
sI194
S'        exec ccode in environment'
p3388
sI195
S'    except HTTP:'
p3389
sI196
S'        raise'
p3390
sI197
S'    except Exception, error:'
p3391
sI198
S'        # XXX Show exception in Wing IDE if running in debugger'
p3392
sI189
S'    try:'
p3393
sI190
S'        if type(code) == types.CodeType:'
p3394
sI191
S'            ccode = code'
p3395
ssS'call'
p3396
S"(code='# -*- coding: utf-8 -*-\\n# this file is released ...=crud())\\n\\nresponse._vars=response._caller(index)\\n', environment={'A': <class 'gluon.html.A'>, 'Auth': <class 'gluon.tools.Auth'>, 'B': <class 'gluon.html.B'>, 'BEAUTIFY': <class 'gluon.html.BEAUTIFY'>, 'BODY': <class 'gluon.html.BODY'>, 'BR': <class 'gluon.html.BR'>, 'BUTTON': <class 'gluon.html.BUTTON'>, 'CAT': <class 'gluon.html.CAT'>, 'CENTER': <class 'gluon.html.CENTER'>, 'CLEANUP': <class 'gluon.validators.CLEANUP'>, ...}, layer='/home/ian/Dropbox/Web_Pages/web2py-linux/applications/places/controllers/default.py')"
p3397
sS'func'
p3398
S'restricted'
p3399
sa(dp3400
g3375
S'/home/ian/Dropbox/Web_Pages/web2py-linux/applications/places/controllers/default.py'
p3401
sg3377
(dp3402
sg3383
I83
sg3384
(dp3403
I72
S'    http://..../[app]/default/data/update/[table]/[id]'
p3404
sI73
S'    http://..../[app]/default/data/delete/[table]/[id]'
p3405
sI74
S'    http://..../[app]/default/data/select/[table]'
p3406
sI75
S'    http://..../[app]/default/data/search/[table]'
p3407
sI76
S'    but URLs bust be signed, i.e. linked with'
p3408
sI77
S"      A('table',_href=URL('data/tables',user_signature=True))"
p3409
sI78
S'    or with the signed load operator'
p3410
sI79
S"      LOAD('default','data.load',args='tables',ajax=True,user_signature=True)"
p3411
sI80
S'    """'
p3412
sI81
S'    return dict(form=crud())'
p3413
ssg3396
S'()'
p3414
sg3398
S'<module>'
p3415
sa(dp3416
g3375
S'/home/ian/Dropbox/Web_Pages/web2py-linux/gluon/globals.py'
p3417
sg3377
(dp3418
S'self'
p3419
S'undefined'
p3420
sS'f'
S'<function index>'
p3421
ssg3383
I149
sg3384
(dp3422
I144
S'        self.meta = Storage()      # used by web2py_ajax.html'
p3423
sI145
S'        self.menu = []             # used by the default view layout'
p3424
sI146
S'        self.files = []            # used by web2py_ajax.html'
p3425
sI147
S'        self.generic_patterns = [] # patterns to allow generic views'
p3426
sI148
S'        self._vars = None'
p3427
sI149
S'        self._caller = lambda f: f()'
p3428
sI150
S'        self._view_environment = None'
p3429
sI151
S'        self._custom_commit = None'
p3430
sI152
S'        self._custom_rollback = None'
p3431
sI153
S''
ssg3396
S'(f=<function index>)'
p3432
sg3398
S'<lambda>'
p3433
sa(dp3434
g3375
S'/home/ian/Dropbox/Web_Pages/web2py-linux/applications/places/controllers/default.py'
p3435
sg3377
(dp3436
S'current'
p3437
g3420
sS'current_row'
p3438
S'<gluon.dal.Rows object>'
p3439
sS'current_row.id'
p3440
g3420
ssg3383
I25
sg3384
(dp3441
I20
S'    elif not session.current:'
p3442
sI21
S'        the_row = db(db.tags.id == 1).select()'
p3443
sI22
S'        session.current = the_row.tag'
p3444
sI23
S''
sI24
S'    current_row = db(db.tags.tag == session.current).select()'
p3445
sI25
S'    current = current_row.id'
p3446
sI26
S''
sI27
S'    links = db(db.links.tags.contains(current)).select()'
p3447
sI28
S''
sI29
S'    return dict(links = links)'
p3448
ssg3396
S'()'
p3449
sg3398
S'index'
p3450
sasS'pyver'
p3451
S'Python 2.7.1+: /usr/bin/python2.7'
p3452
sS'session'
p3453
g56
(g57
g58
NtRp3454
(dp3455
g61
(dp3456
sg63
(lp3457
g56
(g65
g58
NtRp3458
(dp3459
g61
(dp3460
g69
I5
ssg70
Nsg63
(lp3461
g56
(g72
g58
NtRp3462
(dp3463
g61
(dp3464
sg70
g3458
sg63
(lp3465
g56
(g77
g58
NtRp3466
(dp3467
g61
(dp3468
g81
g82
ssg70
g3462
sg63
(lp3469
S'current'
p3470
asbag56
(g77
g58
NtRp3471
(dp3472
g61
(dp3473
g88
g89
ssg70
g3462
sg63
(lp3474
S':'
asbag56
(g77
g58
NtRp3475
(dp3476
g61
(dp3477
sg70
g3462
sg63
(lp3478
g56
(g57
g58
NtRp3479
(dp3480
g61
(dp3481
g69
I5
ssg70
g3475
sg63
(lp3482
S'kitchen'
p3483
asbasbasbag56
(g72
g58
NtRp3484
(dp3485
g61
(dp3486
sg70
g3458
sg63
(lp3487
g56
(g77
g58
NtRp3488
(dp3489
g61
(dp3490
g81
g82
ssg70
g3484
sg63
(lp3491
S'last_query'
p3492
asbag56
(g77
g58
NtRp3493
(dp3494
g61
(dp3495
g88
g89
ssg70
g3484
sg63
(lp3496
S':'
asbag56
(g77
g58
NtRp3497
(dp3498
g61
(dp3499
sg70
g3484
sg63
(lp3500
g56
(g57
g58
NtRp3501
(dp3502
g61
(dp3503
g69
I5
ssg70
g3497
sg63
(lp3504
S'db.tags.id>0'
p3505
asbasbasbag56
(g72
g58
NtRp3506
(dp3507
g61
(dp3508
sg70
g3458
sg63
(lp3509
g56
(g77
g58
NtRp3510
(dp3511
g61
(dp3512
g81
g82
ssg70
g3506
sg63
(lp3513
S'tags'
p3514
asbag56
(g77
g58
NtRp3515
(dp3516
g61
(dp3517
g88
g89
ssg70
g3506
sg63
(lp3518
S':'
asbag56
(g77
g58
NtRp3519
(dp3520
g61
(dp3521
sg70
g3506
sg63
(lp3522
g56
(g57
g58
NtRp3523
(dp3524
g61
(dp3525
g69
I5
ssg70
g3519
sg63
(lp3526
g56
(g65
g58
NtRp3527
(dp3528
g61
(dp3529
g69
I4
ssg70
Nsg63
(lp3530
g56
(g72
g58
NtRp3531
(dp3532
g61
(dp3533
sg70
g3527
sg63
(lp3534
g56
(g77
g58
NtRp3535
(dp3536
g61
(dp3537
sg70
g3531
sg63
(lp3538
g56
(g57
g58
NtRp3539
(dp3540
g61
(dp3541
g69
I4
ssg70
g3535
sg63
(lp3542
g56
(g65
g58
NtRp3543
(dp3544
g61
(dp3545
g69
I3
ssg70
Nsg63
(lp3546
g56
(g72
g58
NtRp3547
(dp3548
g61
(dp3549
sg70
g3543
sg63
(lp3550
g56
(g77
g58
NtRp3551
(dp3552
g61
(dp3553
g81
g82
ssg70
g3547
sg63
(lp3554
S'id'
p3555
asbag56
(g77
g58
NtRp3556
(dp3557
g61
(dp3558
g88
g89
ssg70
g3547
sg63
(lp3559
S':'
asbag56
(g77
g58
NtRp3560
(dp3561
g61
(dp3562
sg70
g3547
sg63
(lp3563
g56
(g57
g58
NtRp3564
(dp3565
g61
(dp3566
g69
I3
ssg70
g3560
sg63
(lp3567
S'1'
asbasbasbag56
(g72
g58
NtRp3568
(dp3569
g61
(dp3570
sg70
g3543
sg63
(lp3571
g56
(g77
g58
NtRp3572
(dp3573
g61
(dp3574
g81
g82
ssg70
g3568
sg63
(lp3575
S'tag'
p3576
asbag56
(g77
g58
NtRp3577
(dp3578
g61
(dp3579
g88
g89
ssg70
g3568
sg63
(lp3580
S':'
asbag56
(g77
g58
NtRp3581
(dp3582
g61
(dp3583
sg70
g3568
sg63
(lp3584
g56
(g57
g58
NtRp3585
(dp3586
g61
(dp3587
g69
I3
ssg70
g3581
sg63
(lp3588
S'kitchen'
p3589
asbasbasbasbasbasbasbag56
(g72
g58
NtRp3590
(dp3591
g61
(dp3592
sg70
g3527
sg63
(lp3593
g56
(g77
g58
NtRp3594
(dp3595
g61
(dp3596
sg70
g3590
sg63
(lp3597
g56
(g57
g58
NtRp3598
(dp3599
g61
(dp3600
g69
I4
ssg70
g3594
sg63
(lp3601
g56
(g65
g58
NtRp3602
(dp3603
g61
(dp3604
g69
I3
ssg70
Nsg63
(lp3605
g56
(g72
g58
NtRp3606
(dp3607
g61
(dp3608
sg70
g3602
sg63
(lp3609
g56
(g77
g58
NtRp3610
(dp3611
g61
(dp3612
g81
g82
ssg70
g3606
sg63
(lp3613
S'id'
p3614
asbag56
(g77
g58
NtRp3615
(dp3616
g61
(dp3617
g88
g89
ssg70
g3606
sg63
(lp3618
S':'
asbag56
(g77
g58
NtRp3619
(dp3620
g61
(dp3621
sg70
g3606
sg63
(lp3622
g56
(g57
g58
NtRp3623
(dp3624
g61
(dp3625
g69
I3
ssg70
g3619
sg63
(lp3626
S'2'
asbasbasbag56
(g72
g58
NtRp3627
(dp3628
g61
(dp3629
sg70
g3602
sg63
(lp3630
g56
(g77
g58
NtRp3631
(dp3632
g61
(dp3633
g81
g82
ssg70
g3627
sg63
(lp3634
S'tag'
p3635
asbag56
(g77
g58
NtRp3636
(dp3637
g61
(dp3638
g88
g89
ssg70
g3627
sg63
(lp3639
S':'
asbag56
(g77
g58
NtRp3640
(dp3641
g61
(dp3642
sg70
g3627
sg63
(lp3643
g56
(g57
g58
NtRp3644
(dp3645
g61
(dp3646
g69
I3
ssg70
g3640
sg63
(lp3647
S'kids'
p3648
asbasbasbasbasbasbasbag56
(g72
g58
NtRp3649
(dp3650
g61
(dp3651
sg70
g3527
sg63
(lp3652
g56
(g77
g58
NtRp3653
(dp3654
g61
(dp3655
sg70
g3649
sg63
(lp3656
g56
(g57
g58
NtRp3657
(dp3658
g61
(dp3659
g69
I4
ssg70
g3653
sg63
(lp3660
g56
(g65
g58
NtRp3661
(dp3662
g61
(dp3663
g69
I3
ssg70
Nsg63
(lp3664
g56
(g72
g58
NtRp3665
(dp3666
g61
(dp3667
sg70
g3661
sg63
(lp3668
g56
(g77
g58
NtRp3669
(dp3670
g61
(dp3671
g81
g82
ssg70
g3665
sg63
(lp3672
S'id'
p3673
asbag56
(g77
g58
NtRp3674
(dp3675
g61
(dp3676
g88
g89
ssg70
g3665
sg63
(lp3677
S':'
asbag56
(g77
g58
NtRp3678
(dp3679
g61
(dp3680
sg70
g3665
sg63
(lp3681
g56
(g57
g58
NtRp3682
(dp3683
g61
(dp3684
g69
I3
ssg70
g3678
sg63
(lp3685
S'3'
asbasbasbag56
(g72
g58
NtRp3686
(dp3687
g61
(dp3688
sg70
g3661
sg63
(lp3689
g56
(g77
g58
NtRp3690
(dp3691
g61
(dp3692
g81
g82
ssg70
g3686
sg63
(lp3693
S'tag'
p3694
asbag56
(g77
g58
NtRp3695
(dp3696
g61
(dp3697
g88
g89
ssg70
g3686
sg63
(lp3698
S':'
asbag56
(g77
g58
NtRp3699
(dp3700
g61
(dp3701
sg70
g3686
sg63
(lp3702
g56
(g57
g58
NtRp3703
(dp3704
g61
(dp3705
g69
I3
ssg70
g3699
sg63
(lp3706
S'research'
p3707
asbasbasbasbasbasbasbag56
(g72
g58
NtRp3708
(dp3709
g61
(dp3710
sg70
g3527
sg63
(lp3711
g56
(g77
g58
NtRp3712
(dp3713
g61
(dp3714
sg70
g3708
sg63
(lp3715
g56
(g57
g58
NtRp3716
(dp3717
g61
(dp3718
g69
I4
ssg70
g3712
sg63
(lp3719
g56
(g65
g58
NtRp3720
(dp3721
g61
(dp3722
g69
I3
ssg70
Nsg63
(lp3723
g56
(g72
g58
NtRp3724
(dp3725
g61
(dp3726
sg70
g3720
sg63
(lp3727
g56
(g77
g58
NtRp3728
(dp3729
g61
(dp3730
g81
g82
ssg70
g3724
sg63
(lp3731
S'id'
p3732
asbag56
(g77
g58
NtRp3733
(dp3734
g61
(dp3735
g88
g89
ssg70
g3724
sg63
(lp3736
S':'
asbag56
(g77
g58
NtRp3737
(dp3738
g61
(dp3739
sg70
g3724
sg63
(lp3740
g56
(g57
g58
NtRp3741
(dp3742
g61
(dp3743
g69
I3
ssg70
g3737
sg63
(lp3744
S'4'
asbasbasbag56
(g72
g58
NtRp3745
(dp3746
g61
(dp3747
sg70
g3720
sg63
(lp3748
g56
(g77
g58
NtRp3749
(dp3750
g61
(dp3751
g81
g82
ssg70
g3745
sg63
(lp3752
S'tag'
p3753
asbag56
(g77
g58
NtRp3754
(dp3755
g61
(dp3756
g88
g89
ssg70
g3745
sg63
(lp3757
S':'
asbag56
(g77
g58
NtRp3758
(dp3759
g61
(dp3760
sg70
g3745
sg63
(lp3761
g56
(g57
g58
NtRp3762
(dp3763
g61
(dp3764
g69
I3
ssg70
g3758
sg63
(lp3765
S'webdev'
p3766
asbasbasbasbasbasbasbag56
(g72
g58
NtRp3767
(dp3768
g61
(dp3769
sg70
g3527
sg63
(lp3770
g56
(g77
g58
NtRp3771
(dp3772
g61
(dp3773
sg70
g3767
sg63
(lp3774
g56
(g57
g58
NtRp3775
(dp3776
g61
(dp3777
g69
I4
ssg70
g3771
sg63
(lp3778
g56
(g65
g58
NtRp3779
(dp3780
g61
(dp3781
g69
I3
ssg70
Nsg63
(lp3782
g56
(g72
g58
NtRp3783
(dp3784
g61
(dp3785
sg70
g3779
sg63
(lp3786
g56
(g77
g58
NtRp3787
(dp3788
g61
(dp3789
g81
g82
ssg70
g3783
sg63
(lp3790
S'id'
p3791
asbag56
(g77
g58
NtRp3792
(dp3793
g61
(dp3794
g88
g89
ssg70
g3783
sg63
(lp3795
S':'
asbag56
(g77
g58
NtRp3796
(dp3797
g61
(dp3798
sg70
g3783
sg63
(lp3799
g56
(g57
g58
NtRp3800
(dp3801
g61
(dp3802
g69
I3
ssg70
g3796
sg63
(lp3803
S'5'
asbasbasbag56
(g72
g58
NtRp3804
(dp3805
g61
(dp3806
sg70
g3779
sg63
(lp3807
g56
(g77
g58
NtRp3808
(dp3809
g61
(dp3810
g81
g82
ssg70
g3804
sg63
(lp3811
S'tag'
p3812
asbag56
(g77
g58
NtRp3813
(dp3814
g61
(dp3815
g88
g89
ssg70
g3804
sg63
(lp3816
S':'
asbag56
(g77
g58
NtRp3817
(dp3818
g61
(dp3819
sg70
g3804
sg63
(lp3820
g56
(g57
g58
NtRp3821
(dp3822
g61
(dp3823
g69
I3
ssg70
g3817
sg63
(lp3824
S'photography'
p3825
asbasbasbasbasbasbasbag56
(g72
g58
NtRp3826
(dp3827
g61
(dp3828
sg70
g3527
sg63
(lp3829
g56
(g77
g58
NtRp3830
(dp3831
g61
(dp3832
sg70
g3826
sg63
(lp3833
g56
(g57
g58
NtRp3834
(dp3835
g61
(dp3836
g69
I4
ssg70
g3830
sg63
(lp3837
g56
(g65
g58
NtRp3838
(dp3839
g61
(dp3840
g69
I3
ssg70
Nsg63
(lp3841
g56
(g72
g58
NtRp3842
(dp3843
g61
(dp3844
sg70
g3838
sg63
(lp3845
g56
(g77
g58
NtRp3846
(dp3847
g61
(dp3848
g81
g82
ssg70
g3842
sg63
(lp3849
S'id'
p3850
asbag56
(g77
g58
NtRp3851
(dp3852
g61
(dp3853
g88
g89
ssg70
g3842
sg63
(lp3854
S':'
asbag56
(g77
g58
NtRp3855
(dp3856
g61
(dp3857
sg70
g3842
sg63
(lp3858
g56
(g57
g58
NtRp3859
(dp3860
g61
(dp3861
g69
I3
ssg70
g3855
sg63
(lp3862
S'6'
asbasbasbag56
(g72
g58
NtRp3863
(dp3864
g61
(dp3865
sg70
g3838
sg63
(lp3866
g56
(g77
g58
NtRp3867
(dp3868
g61
(dp3869
g81
g82
ssg70
g3863
sg63
(lp3870
S'tag'
p3871
asbag56
(g77
g58
NtRp3872
(dp3873
g61
(dp3874
g88
g89
ssg70
g3863
sg63
(lp3875
S':'
asbag56
(g77
g58
NtRp3876
(dp3877
g61
(dp3878
sg70
g3863
sg63
(lp3879
g56
(g57
g58
NtRp3880
(dp3881
g61
(dp3882
g69
I3
ssg70
g3876
sg63
(lp3883
S'entertainment'
p3884
asbasbasbasbasbasbasbag56
(g72
g58
NtRp3885
(dp3886
g61
(dp3887
sg70
g3527
sg63
(lp3888
g56
(g77
g58
NtRp3889
(dp3890
g61
(dp3891
sg70
g3885
sg63
(lp3892
g56
(g57
g58
NtRp3893
(dp3894
g61
(dp3895
g69
I4
ssg70
g3889
sg63
(lp3896
g56
(g65
g58
NtRp3897
(dp3898
g61
(dp3899
g69
I3
ssg70
Nsg63
(lp3900
g56
(g72
g58
NtRp3901
(dp3902
g61
(dp3903
sg70
g3897
sg63
(lp3904
g56
(g77
g58
NtRp3905
(dp3906
g61
(dp3907
g81
g82
ssg70
g3901
sg63
(lp3908
S'id'
p3909
asbag56
(g77
g58
NtRp3910
(dp3911
g61
(dp3912
g88
g89
ssg70
g3901
sg63
(lp3913
S':'
asbag56
(g77
g58
NtRp3914
(dp3915
g61
(dp3916
sg70
g3901
sg63
(lp3917
g56
(g57
g58
NtRp3918
(dp3919
g61
(dp3920
g69
I3
ssg70
g3914
sg63
(lp3921
S'7'
asbasbasbag56
(g72
g58
NtRp3922
(dp3923
g61
(dp3924
sg70
g3897
sg63
(lp3925
g56
(g77
g58
NtRp3926
(dp3927
g61
(dp3928
g81
g82
ssg70
g3922
sg63
(lp3929
S'tag'
p3930
asbag56
(g77
g58
NtRp3931
(dp3932
g61
(dp3933
g88
g89
ssg70
g3922
sg63
(lp3934
S':'
asbag56
(g77
g58
NtRp3935
(dp3936
g61
(dp3937
sg70
g3922
sg63
(lp3938
g56
(g57
g58
NtRp3939
(dp3940
g61
(dp3941
g69
I3
ssg70
g3935
sg63
(lp3942
S'games'
p3943
asbasbasbasbasbasbasbag56
(g72
g58
NtRp3944
(dp3945
g61
(dp3946
sg70
g3527
sg63
(lp3947
g56
(g77
g58
NtRp3948
(dp3949
g61
(dp3950
sg70
g3944
sg63
(lp3951
g56
(g57
g58
NtRp3952
(dp3953
g61
(dp3954
g69
I4
ssg70
g3948
sg63
(lp3955
g56
(g65
g58
NtRp3956
(dp3957
g61
(dp3958
g69
I3
ssg70
Nsg63
(lp3959
g56
(g72
g58
NtRp3960
(dp3961
g61
(dp3962
sg70
g3956
sg63
(lp3963
g56
(g77
g58
NtRp3964
(dp3965
g61
(dp3966
g81
g82
ssg70
g3960
sg63
(lp3967
S'id'
p3968
asbag56
(g77
g58
NtRp3969
(dp3970
g61
(dp3971
g88
g89
ssg70
g3960
sg63
(lp3972
S':'
asbag56
(g77
g58
NtRp3973
(dp3974
g61
(dp3975
sg70
g3960
sg63
(lp3976
g56
(g57
g58
NtRp3977
(dp3978
g61
(dp3979
g69
I3
ssg70
g3973
sg63
(lp3980
S'8'
asbasbasbag56
(g72
g58
NtRp3981
(dp3982
g61
(dp3983
sg70
g3956
sg63
(lp3984
g56
(g77
g58
NtRp3985
(dp3986
g61
(dp3987
g81
g82
ssg70
g3981
sg63
(lp3988
S'tag'
p3989
asbag56
(g77
g58
NtRp3990
(dp3991
g61
(dp3992
g88
g89
ssg70
g3981
sg63
(lp3993
S':'
asbag56
(g77
g58
NtRp3994
(dp3995
g61
(dp3996
sg70
g3981
sg63
(lp3997
g56
(g57
g58
NtRp3998
(dp3999
g61
(dp4000
g69
I3
ssg70
g3994
sg63
(lp4001
S'design'
p4002
asbasbasbasbasbasbasbag56
(g72
g58
NtRp4003
(dp4004
g61
(dp4005
sg70
g3527
sg63
(lp4006
g56
(g77
g58
NtRp4007
(dp4008
g61
(dp4009
sg70
g4003
sg63
(lp4010
g56
(g57
g58
NtRp4011
(dp4012
g61
(dp4013
g69
I4
ssg70
g4007
sg63
(lp4014
g56
(g65
g58
NtRp4015
(dp4016
g61
(dp4017
g69
I3
ssg70
Nsg63
(lp4018
g56
(g72
g58
NtRp4019
(dp4020
g61
(dp4021
sg70
g4015
sg63
(lp4022
g56
(g77
g58
NtRp4023
(dp4024
g61
(dp4025
g81
g82
ssg70
g4019
sg63
(lp4026
S'id'
p4027
asbag56
(g77
g58
NtRp4028
(dp4029
g61
(dp4030
g88
g89
ssg70
g4019
sg63
(lp4031
S':'
asbag56
(g77
g58
NtRp4032
(dp4033
g61
(dp4034
sg70
g4019
sg63
(lp4035
g56
(g57
g58
NtRp4036
(dp4037
g61
(dp4038
g69
I3
ssg70
g4032
sg63
(lp4039
S'9'
asbasbasbag56
(g72
g58
NtRp4040
(dp4041
g61
(dp4042
sg70
g4015
sg63
(lp4043
g56
(g77
g58
NtRp4044
(dp4045
g61
(dp4046
g81
g82
ssg70
g4040
sg63
(lp4047
S'tag'
p4048
asbag56
(g77
g58
NtRp4049
(dp4050
g61
(dp4051
g88
g89
ssg70
g4040
sg63
(lp4052
S':'
asbag56
(g77
g58
NtRp4053
(dp4054
g61
(dp4055
sg70
g4040
sg63
(lp4056
g56
(g57
g58
NtRp4057
(dp4058
g61
(dp4059
g69
I3
ssg70
g4053
sg63
(lp4060
S'research'
p4061
asbasbasbasbasbasbasbasbasbasbasbasbasbsS'etype'
p4062
S"<type 'exceptions.AttributeError'>"
p4063
sS'date'
p4064
S'Fri Sep 30 16:28:58 2011'
p4065
sS'response'
p4066
g56
(g57
g58
NtRp4067
(dp4068
g61
(dp4069
sg63
(lp4070
g56
(g65
g58
NtRp4071
(dp4072
g61
(dp4073
g69
I5
ssg70
Nsg63
(lp4074
g56
(g72
g58
NtRp4075
(dp4076
g61
(dp4077
sg70
g4071
sg63
(lp4078
g56
(g77
g58
NtRp4079
(dp4080
g61
(dp4081
g81
g82
ssg70
g4075
sg63
(lp4082
g154
asbag56
(g77
g58
NtRp4083
(dp4084
g61
(dp4085
g88
g89
ssg70
g4075
sg63
(lp4086
S':'
asbag56
(g77
g58
NtRp4087
(dp4088
g61
(dp4089
sg70
g4075
sg63
(lp4090
g56
(g57
g58
NtRp4091
(dp4092
g61
(dp4093
g69
I5
ssg70
g4087
sg63
(lp4094
S'<cStringIO.StringO object at 0x41b86f8>'
p4095
asbasbasbag56
(g72
g58
NtRp4096
(dp4097
g61
(dp4098
sg70
g4071
sg63
(lp4099
g56
(g77
g58
NtRp4100
(dp4101
g61
(dp4102
g81
g82
ssg70
g4096
sg63
(lp4103
g220
asbag56
(g77
g58
NtRp4104
(dp4105
g61
(dp4106
g88
g89
ssg70
g4096
sg63
(lp4107
S':'
asbag56
(g77
g58
NtRp4108
(dp4109
g61
(dp4110
sg70
g4096
sg63
(lp4111
g56
(g57
g58
NtRp4112
(dp4113
g61
(dp4114
g69
I5
ssg70
g4108
sg63
(lp4115
g56
(g65
g58
NtRp4116
(dp4117
g61
(dp4118
g69
I4
ssg70
Nsg63
(lp4119
g56
(g72
g58
NtRp4120
(dp4121
g61
(dp4122
sg70
g4116
sg63
(lp4123
g56
(g77
g58
NtRp4124
(dp4125
g61
(dp4126
g81
g82
ssg70
g4120
sg63
(lp4127
S'session_id_places'
p4128
asbag56
(g77
g58
NtRp4129
(dp4130
g61
(dp4131
g88
g89
ssg70
g4120
sg63
(lp4132
S':'
asbag56
(g77
g58
NtRp4133
(dp4134
g61
(dp4135
sg70
g4120
sg63
(lp4136
g56
(g57
g58
NtRp4137
(dp4138
g61
(dp4139
g69
I4
ssg70
g4133
sg63
(lp4140
g56
(g65
g58
NtRp4141
(dp4142
g61
(dp4143
g69
I3
ssg70
Nsg63
(lp4144
g56
(g72
g58
NtRp4145
(dp4146
g61
(dp4147
sg70
g4141
sg63
(lp4148
g56
(g77
g58
NtRp4149
(dp4150
g61
(dp4151
g81
g82
ssg70
g4145
sg63
(lp4152
g270
asbag56
(g77
g58
NtRp4153
(dp4154
g61
(dp4155
g88
g89
ssg70
g4145
sg63
(lp4156
S':'
asbag56
(g77
g58
NtRp4157
(dp4158
g61
(dp4159
sg70
g4145
sg63
(lp4160
g56
(g57
g58
NtRp4161
(dp4162
g61
(dp4163
g69
I3
ssg70
g4157
sg63
(lp4164
S''
asbasbasbag56
(g72
g58
NtRp4165
(dp4166
g61
(dp4167
sg70
g4141
sg63
(lp4168
g56
(g77
g58
NtRp4169
(dp4170
g61
(dp4171
g81
g82
ssg70
g4165
sg63
(lp4172
g291
asbag56
(g77
g58
NtRp4173
(dp4174
g61
(dp4175
g88
g89
ssg70
g4165
sg63
(lp4176
S':'
asbag56
(g77
g58
NtRp4177
(dp4178
g61
(dp4179
sg70
g4165
sg63
(lp4180
g56
(g57
g58
NtRp4181
(dp4182
g61
(dp4183
g69
I3
ssg70
g4177
sg63
(lp4184
S''
asbasbasbag56
(g72
g58
NtRp4185
(dp4186
g61
(dp4187
sg70
g4141
sg63
(lp4188
g56
(g77
g58
NtRp4189
(dp4190
g61
(dp4191
g81
g82
ssg70
g4185
sg63
(lp4192
g312
asbag56
(g77
g58
NtRp4193
(dp4194
g61
(dp4195
g88
g89
ssg70
g4185
sg63
(lp4196
S':'
asbag56
(g77
g58
NtRp4197
(dp4198
g61
(dp4199
sg70
g4185
sg63
(lp4200
g56
(g57
g58
NtRp4201
(dp4202
g61
(dp4203
g69
I3
ssg70
g4197
sg63
(lp4204
S''
asbasbasbag56
(g72
g58
NtRp4205
(dp4206
g61
(dp4207
sg70
g4141
sg63
(lp4208
g56
(g77
g58
NtRp4209
(dp4210
g61
(dp4211
g81
g82
ssg70
g4205
sg63
(lp4212
g333
asbag56
(g77
g58
NtRp4213
(dp4214
g61
(dp4215
g88
g89
ssg70
g4205
sg63
(lp4216
S':'
asbag56
(g77
g58
NtRp4217
(dp4218
g61
(dp4219
sg70
g4205
sg63
(lp4220
g56
(g57
g58
NtRp4221
(dp4222
g61
(dp4223
g69
I3
ssg70
g4217
sg63
(lp4224
S''
asbasbasbag56
(g72
g58
NtRp4225
(dp4226
g61
(dp4227
sg70
g4141
sg63
(lp4228
g56
(g77
g58
NtRp4229
(dp4230
g61
(dp4231
g81
g82
ssg70
g4225
sg63
(lp4232
g354
asbag56
(g77
g58
NtRp4233
(dp4234
g61
(dp4235
g88
g89
ssg70
g4225
sg63
(lp4236
S':'
asbag56
(g77
g58
NtRp4237
(dp4238
g61
(dp4239
sg70
g4225
sg63
(lp4240
g56
(g57
g58
NtRp4241
(dp4242
g61
(dp4243
g69
I3
ssg70
g4237
sg63
(lp4244
S''
asbasbasbag56
(g72
g58
NtRp4245
(dp4246
g61
(dp4247
sg70
g4141
sg63
(lp4248
g56
(g77
g58
NtRp4249
(dp4250
g61
(dp4251
g81
g82
ssg70
g4245
sg63
(lp4252
g375
asbag56
(g77
g58
NtRp4253
(dp4254
g61
(dp4255
g88
g89
ssg70
g4245
sg63
(lp4256
S':'
asbag56
(g77
g58
NtRp4257
(dp4258
g61
(dp4259
sg70
g4245
sg63
(lp4260
g56
(g57
g58
NtRp4261
(dp4262
g61
(dp4263
g69
I3
ssg70
g4257
sg63
(lp4264
S'/'
asbasbasbag56
(g72
g58
NtRp4265
(dp4266
g61
(dp4267
sg70
g4141
sg63
(lp4268
g56
(g77
g58
NtRp4269
(dp4270
g61
(dp4271
g81
g82
ssg70
g4265
sg63
(lp4272
g396
asbag56
(g77
g58
NtRp4273
(dp4274
g61
(dp4275
g88
g89
ssg70
g4265
sg63
(lp4276
S':'
asbag56
(g77
g58
NtRp4277
(dp4278
g61
(dp4279
sg70
g4265
sg63
(lp4280
g56
(g57
g58
NtRp4281
(dp4282
g61
(dp4283
g69
I3
ssg70
g4277
sg63
(lp4284
S''
asbasbasbag56
(g72
g58
NtRp4285
(dp4286
g61
(dp4287
sg70
g4141
sg63
(lp4288
g56
(g77
g58
NtRp4289
(dp4290
g61
(dp4291
g81
g82
ssg70
g4285
sg63
(lp4292
g417
asbag56
(g77
g58
NtRp4293
(dp4294
g61
(dp4295
g88
g89
ssg70
g4285
sg63
(lp4296
S':'
asbag56
(g77
g58
NtRp4297
(dp4298
g61
(dp4299
sg70
g4285
sg63
(lp4300
g56
(g57
g58
NtRp4301
(dp4302
g61
(dp4303
g69
I3
ssg70
g4297
sg63
(lp4304
S''
asbasbasbasbasbasbasbasbasbasbasbag56
(g72
g58
NtRp4305
(dp4306
g61
(dp4307
sg70
g4071
sg63
(lp4308
g56
(g77
g58
NtRp4309
(dp4310
g61
(dp4311
g81
g82
ssg70
g4305
sg63
(lp4312
S'files'
p4313
asbag56
(g77
g58
NtRp4314
(dp4315
g61
(dp4316
g88
g89
ssg70
g4305
sg63
(lp4317
S':'
asbag56
(g77
g58
NtRp4318
(dp4319
g61
(dp4320
sg70
g4305
sg63
(lp4321
g56
(g57
g58
NtRp4322
(dp4323
g61
(dp4324
g69
I5
ssg70
g4318
sg63
(lp4325
g56
(g65
g58
NtRp4326
(dp4327
g61
(dp4328
g69
I4
ssg70
Nsg63
(lp4329
sbasbasbasbag56
(g72
g58
NtRp4330
(dp4331
g61
(dp4332
sg70
g4071
sg63
(lp4333
g56
(g77
g58
NtRp4334
(dp4335
g61
(dp4336
g81
g82
ssg70
g4330
sg63
(lp4337
S'flash'
p4338
asbag56
(g77
g58
NtRp4339
(dp4340
g61
(dp4341
g88
g89
ssg70
g4330
sg63
(lp4342
S':'
asbag56
(g77
g58
NtRp4343
(dp4344
g61
(dp4345
sg70
g4330
sg63
(lp4346
g56
(g57
g58
NtRp4347
(dp4348
g61
(dp4349
g69
I5
ssg70
g4343
sg63
(lp4350
S''
asbasbasbag56
(g72
g58
NtRp4351
(dp4352
g61
(dp4353
sg70
g4071
sg63
(lp4354
g56
(g77
g58
NtRp4355
(dp4356
g61
(dp4357
g81
g82
ssg70
g4351
sg63
(lp4358
S'generic_patterns'
p4359
asbag56
(g77
g58
NtRp4360
(dp4361
g61
(dp4362
g88
g89
ssg70
g4351
sg63
(lp4363
S':'
asbag56
(g77
g58
NtRp4364
(dp4365
g61
(dp4366
sg70
g4351
sg63
(lp4367
g56
(g57
g58
NtRp4368
(dp4369
g61
(dp4370
g69
I5
ssg70
g4364
sg63
(lp4371
g56
(g65
g58
NtRp4372
(dp4373
g61
(dp4374
g69
I4
ssg70
Nsg63
(lp4375
g56
(g72
g58
NtRp4376
(dp4377
g61
(dp4378
sg70
g4372
sg63
(lp4379
g56
(g77
g58
NtRp4380
(dp4381
g61
(dp4382
sg70
g4376
sg63
(lp4383
g56
(g57
g58
NtRp4384
(dp4385
g61
(dp4386
g69
I4
ssg70
g4380
sg63
(lp4387
S'*'
asbasbasbasbasbasbasbag56
(g72
g58
NtRp4388
(dp4389
g61
(dp4390
sg70
g4071
sg63
(lp4391
g56
(g77
g58
NtRp4392
(dp4393
g61
(dp4394
g81
g82
ssg70
g4388
sg63
(lp4395
S'headers'
p4396
asbag56
(g77
g58
NtRp4397
(dp4398
g61
(dp4399
g88
g89
ssg70
g4388
sg63
(lp4400
S':'
asbag56
(g77
g58
NtRp4401
(dp4402
g61
(dp4403
sg70
g4388
sg63
(lp4404
g56
(g57
g58
NtRp4405
(dp4406
g61
(dp4407
g69
I5
ssg70
g4401
sg63
(lp4408
g56
(g65
g58
NtRp4409
(dp4410
g61
(dp4411
g69
I4
ssg70
Nsg63
(lp4412
g56
(g72
g58
NtRp4413
(dp4414
g61
(dp4415
sg70
g4409
sg63
(lp4416
g56
(g77
g58
NtRp4417
(dp4418
g61
(dp4419
g81
g82
ssg70
g4413
sg63
(lp4420
S'Cache-Control'
p4421
asbag56
(g77
g58
NtRp4422
(dp4423
g61
(dp4424
g88
g89
ssg70
g4413
sg63
(lp4425
S':'
asbag56
(g77
g58
NtRp4426
(dp4427
g61
(dp4428
sg70
g4413
sg63
(lp4429
g56
(g57
g58
NtRp4430
(dp4431
g61
(dp4432
g69
I4
ssg70
g4426
sg63
(lp4433
S'no-store, no-cache, must-revalidate, post-check=0, pre-check=0'
p4434
asbasbasbag56
(g72
g58
NtRp4435
(dp4436
g61
(dp4437
sg70
g4409
sg63
(lp4438
g56
(g77
g58
NtRp4439
(dp4440
g61
(dp4441
g81
g82
ssg70
g4435
sg63
(lp4442
S'Content-Type'
p4443
asbag56
(g77
g58
NtRp4444
(dp4445
g61
(dp4446
g88
g89
ssg70
g4435
sg63
(lp4447
S':'
asbag56
(g77
g58
NtRp4448
(dp4449
g61
(dp4450
sg70
g4435
sg63
(lp4451
g56
(g57
g58
NtRp4452
(dp4453
g61
(dp4454
g69
I4
ssg70
g4448
sg63
(lp4455
S'text/html; charset=utf-8'
p4456
asbasbasbag56
(g72
g58
NtRp4457
(dp4458
g61
(dp4459
sg70
g4409
sg63
(lp4460
g56
(g77
g58
NtRp4461
(dp4462
g61
(dp4463
g81
g82
ssg70
g4457
sg63
(lp4464
S'Expires'
p4465
asbag56
(g77
g58
NtRp4466
(dp4467
g61
(dp4468
g88
g89
ssg70
g4457
sg63
(lp4469
S':'
asbag56
(g77
g58
NtRp4470
(dp4471
g61
(dp4472
sg70
g4457
sg63
(lp4473
g56
(g57
g58
NtRp4474
(dp4475
g61
(dp4476
g69
I4
ssg70
g4470
sg63
(lp4477
S'Fri, 30 Sep 2011 20:28:58 GMT'
p4478
asbasbasbag56
(g72
g58
NtRp4479
(dp4480
g61
(dp4481
sg70
g4409
sg63
(lp4482
g56
(g77
g58
NtRp4483
(dp4484
g61
(dp4485
g81
g82
ssg70
g4479
sg63
(lp4486
S'Pragma'
p4487
asbag56
(g77
g58
NtRp4488
(dp4489
g61
(dp4490
g88
g89
ssg70
g4479
sg63
(lp4491
S':'
asbag56
(g77
g58
NtRp4492
(dp4493
g61
(dp4494
sg70
g4479
sg63
(lp4495
g56
(g57
g58
NtRp4496
(dp4497
g61
(dp4498
g69
I4
ssg70
g4492
sg63
(lp4499
S'no-cache'
p4500
asbasbasbag56
(g72
g58
NtRp4501
(dp4502
g61
(dp4503
sg70
g4409
sg63
(lp4504
g56
(g77
g58
NtRp4505
(dp4506
g61
(dp4507
g81
g82
ssg70
g4501
sg63
(lp4508
S'X-Powered-By'
p4509
asbag56
(g77
g58
NtRp4510
(dp4511
g61
(dp4512
g88
g89
ssg70
g4501
sg63
(lp4513
S':'
asbag56
(g77
g58
NtRp4514
(dp4515
g61
(dp4516
sg70
g4501
sg63
(lp4517
g56
(g57
g58
NtRp4518
(dp4519
g61
(dp4520
g69
I4
ssg70
g4514
sg63
(lp4521
S'web2py'
p4522
asbasbasbasbasbasbasbag56
(g72
g58
NtRp4523
(dp4524
g61
(dp4525
sg70
g4071
sg63
(lp4526
g56
(g77
g58
NtRp4527
(dp4528
g61
(dp4529
g81
g82
ssg70
g4523
sg63
(lp4530
S'menu'
p4531
asbag56
(g77
g58
NtRp4532
(dp4533
g61
(dp4534
g88
g89
ssg70
g4523
sg63
(lp4535
S':'
asbag56
(g77
g58
NtRp4536
(dp4537
g61
(dp4538
sg70
g4523
sg63
(lp4539
g56
(g57
g58
NtRp4540
(dp4541
g61
(dp4542
g69
I5
ssg70
g4536
sg63
(lp4543
g56
(g65
g58
NtRp4544
(dp4545
g61
(dp4546
g69
I4
ssg70
Nsg63
(lp4547
g56
(g72
g58
NtRp4548
(dp4549
g61
(dp4550
sg70
g4544
sg63
(lp4551
g56
(g77
g58
NtRp4552
(dp4553
g61
(dp4554
sg70
g4548
sg63
(lp4555
g56
(g57
g58
NtRp4556
(dp4557
g61
(dp4558
g69
I4
ssg70
g4552
sg63
(lp4559
g56
(g65
g58
NtRp4560
(dp4561
g61
(dp4562
g69
I3
ssg70
Nsg63
(lp4563
g56
(g72
g58
NtRp4564
(dp4565
g61
(dp4566
sg70
g4560
sg63
(lp4567
g56
(g77
g58
NtRp4568
(dp4569
g61
(dp4570
sg70
g4564
sg63
(lp4571
g56
(g57
g58
NtRp4572
(dp4573
g61
(dp4574
g69
I3
ssg70
g4568
sg63
(lp4575
cgluon.languages
lazyT_unpickle
p4576
(S't\x04\x00\x00\x00Home'
tRp4577
asbasbasbag56
(g72
g58
NtRp4578
(dp4579
g61
(dp4580
sg70
g4560
sg63
(lp4581
g56
(g77
g58
NtRp4582
(dp4583
g61
(dp4584
sg70
g4578
sg63
(lp4585
g56
(g57
g58
NtRp4586
(dp4587
g61
(dp4588
g69
I3
ssg70
g4582
sg63
(lp4589
g99
asbasbasbag56
(g72
g58
NtRp4590
(dp4591
g61
(dp4592
sg70
g4560
sg63
(lp4593
g56
(g77
g58
NtRp4594
(dp4595
g61
(dp4596
sg70
g4590
sg63
(lp4597
g56
(g57
g58
NtRp4598
(dp4599
g61
(dp4600
g69
I3
ssg70
g4594
sg63
(lp4601
S'/places/default/index'
p4602
asbasbasbag56
(g72
g58
NtRp4603
(dp4604
g61
(dp4605
sg70
g4560
sg63
(lp4606
g56
(g77
g58
NtRp4607
(dp4608
g61
(dp4609
sg70
g4603
sg63
(lp4610
g56
(g57
g58
NtRp4611
(dp4612
g61
(dp4613
g69
I3
ssg70
g4607
sg63
(lp4614
g56
(g65
g58
NtRp4615
(dp4616
g61
(dp4617
g69
I2
ssg70
Nsg63
(lp4618
sbasbasbasbasbasbasbasbag56
(g72
g58
NtRp4619
(dp4620
g61
(dp4621
sg70
g4544
sg63
(lp4622
g56
(g77
g58
NtRp4623
(dp4624
g61
(dp4625
sg70
g4619
sg63
(lp4626
g56
(g57
g58
NtRp4627
(dp4628
g61
(dp4629
g69
I4
ssg70
g4623
sg63
(lp4630
g56
(g65
g58
NtRp4631
(dp4632
g61
(dp4633
g69
I3
ssg70
Nsg63
(lp4634
g56
(g72
g58
NtRp4635
(dp4636
g61
(dp4637
sg70
g4631
sg63
(lp4638
g56
(g77
g58
NtRp4639
(dp4640
g61
(dp4641
sg70
g4635
sg63
(lp4642
g56
(g57
g58
NtRp4643
(dp4644
g61
(dp4645
g69
I3
ssg70
g4639
sg63
(lp4646
g4576
(S's\x08\x00\x00\x00This App'
tRp4647
asbasbasbag56
(g72
g58
NtRp4648
(dp4649
g61
(dp4650
sg70
g4631
sg63
(lp4651
g56
(g77
g58
NtRp4652
(dp4653
g61
(dp4654
sg70
g4648
sg63
(lp4655
g56
(g57
g58
NtRp4656
(dp4657
g61
(dp4658
g69
I3
ssg70
g4652
sg63
(lp4659
g99
asbasbasbag56
(g72
g58
NtRp4660
(dp4661
g61
(dp4662
sg70
g4631
sg63
(lp4663
g56
(g77
g58
NtRp4664
(dp4665
g61
(dp4666
sg70
g4660
sg63
(lp4667
g56
(g57
g58
NtRp4668
(dp4669
g61
(dp4670
g69
I3
ssg70
g4664
sg63
(lp4671
S'/admin/default/design/places'
p4672
asbasbasbag56
(g72
g58
NtRp4673
(dp4674
g61
(dp4675
sg70
g4631
sg63
(lp4676
g56
(g77
g58
NtRp4677
(dp4678
g61
(dp4679
sg70
g4673
sg63
(lp4680
g56
(g57
g58
NtRp4681
(dp4682
g61
(dp4683
g69
I3
ssg70
g4677
sg63
(lp4684
g56
(g65
g58
NtRp4685
(dp4686
g61
(dp4687
g69
I2
ssg70
Nsg63
(lp4688
g56
(g72
g58
NtRp4689
(dp4690
g61
(dp4691
sg70
g4685
sg63
(lp4692
g56
(g77
g58
NtRp4693
(dp4694
g61
(dp4695
sg70
g4689
sg63
(lp4696
g56
(g57
g58
NtRp4697
(dp4698
g61
(dp4699
g69
I2
ssg70
g4693
sg63
(lp4700
g56
(g65
g58
NtRp4701
(dp4702
g61
(dp4703
g69
I1
ssg70
Nsg63
(lp4704
g56
(g72
g58
NtRp4705
(dp4706
g61
(dp4707
sg70
g4701
sg63
(lp4708
g56
(g77
g58
NtRp4709
(dp4710
g61
(dp4711
sg70
g4705
sg63
(lp4712
g56
(g57
g58
NtRp4713
(dp4714
g61
(dp4715
g69
I1
ssg70
g4709
sg63
(lp4716
g4576
(S't\n\x00\x00\x00Controller'
tRp4717
asbasbasbag56
(g72
g58
NtRp4718
(dp4719
g61
(dp4720
sg70
g4701
sg63
(lp4721
g56
(g77
g58
NtRp4722
(dp4723
g61
(dp4724
sg70
g4718
sg63
(lp4725
g56
(g57
g58
NtRp4726
(dp4727
g61
(dp4728
g69
I1
ssg70
g4722
sg63
(lp4729
I00
asbasbasbag56
(g72
g58
NtRp4730
(dp4731
g61
(dp4732
sg70
g4701
sg63
(lp4733
g56
(g77
g58
NtRp4734
(dp4735
g61
(dp4736
sg70
g4730
sg63
(lp4737
g56
(g57
g58
NtRp4738
(dp4739
g61
(dp4740
g69
I1
ssg70
g4734
sg63
(lp4741
S'/admin/default/edit/places/controllers/default.py'
p4742
asbasbasbasbasbasbasbag56
(g72
g58
NtRp4743
(dp4744
g61
(dp4745
sg70
g4685
sg63
(lp4746
g56
(g77
g58
NtRp4747
(dp4748
g61
(dp4749
sg70
g4743
sg63
(lp4750
g56
(g57
g58
NtRp4751
(dp4752
g61
(dp4753
g69
I2
ssg70
g4747
sg63
(lp4754
g56
(g65
g58
NtRp4755
(dp4756
g61
(dp4757
g69
I1
ssg70
Nsg63
(lp4758
g56
(g72
g58
NtRp4759
(dp4760
g61
(dp4761
sg70
g4755
sg63
(lp4762
g56
(g77
g58
NtRp4763
(dp4764
g61
(dp4765
sg70
g4759
sg63
(lp4766
g56
(g57
g58
NtRp4767
(dp4768
g61
(dp4769
g69
I1
ssg70
g4763
sg63
(lp4770
g4576
(S't\x04\x00\x00\x00View'
tRp4771
asbasbasbag56
(g72
g58
NtRp4772
(dp4773
g61
(dp4774
sg70
g4755
sg63
(lp4775
g56
(g77
g58
NtRp4776
(dp4777
g61
(dp4778
sg70
g4772
sg63
(lp4779
g56
(g57
g58
NtRp4780
(dp4781
g61
(dp4782
g69
I1
ssg70
g4776
sg63
(lp4783
I00
asbasbasbag56
(g72
g58
NtRp4784
(dp4785
g61
(dp4786
sg70
g4755
sg63
(lp4787
g56
(g77
g58
NtRp4788
(dp4789
g61
(dp4790
sg70
g4784
sg63
(lp4791
g56
(g57
g58
NtRp4792
(dp4793
g61
(dp4794
g69
I1
ssg70
g4788
sg63
(lp4795
S'/admin/default/edit/places/views/default/index.html'
p4796
asbasbasbasbasbasbasbag56
(g72
g58
NtRp4797
(dp4798
g61
(dp4799
sg70
g4685
sg63
(lp4800
g56
(g77
g58
NtRp4801
(dp4802
g61
(dp4803
sg70
g4797
sg63
(lp4804
g56
(g57
g58
NtRp4805
(dp4806
g61
(dp4807
g69
I2
ssg70
g4801
sg63
(lp4808
g56
(g65
g58
NtRp4809
(dp4810
g61
(dp4811
g69
I1
ssg70
Nsg63
(lp4812
g56
(g72
g58
NtRp4813
(dp4814
g61
(dp4815
sg70
g4809
sg63
(lp4816
g56
(g77
g58
NtRp4817
(dp4818
g61
(dp4819
sg70
g4813
sg63
(lp4820
g56
(g57
g58
NtRp4821
(dp4822
g61
(dp4823
g69
I1
ssg70
g4817
sg63
(lp4824
g4576
(S't\x06\x00\x00\x00Layout'
tRp4825
asbasbasbag56
(g72
g58
NtRp4826
(dp4827
g61
(dp4828
sg70
g4809
sg63
(lp4829
g56
(g77
g58
NtRp4830
(dp4831
g61
(dp4832
sg70
g4826
sg63
(lp4833
g56
(g57
g58
NtRp4834
(dp4835
g61
(dp4836
g69
I1
ssg70
g4830
sg63
(lp4837
I00
asbasbasbag56
(g72
g58
NtRp4838
(dp4839
g61
(dp4840
sg70
g4809
sg63
(lp4841
g56
(g77
g58
NtRp4842
(dp4843
g61
(dp4844
sg70
g4838
sg63
(lp4845
g56
(g57
g58
NtRp4846
(dp4847
g61
(dp4848
g69
I1
ssg70
g4842
sg63
(lp4849
S'/admin/default/edit/places/views/layout.html'
p4850
asbasbasbasbasbasbasbag56
(g72
g58
NtRp4851
(dp4852
g61
(dp4853
sg70
g4685
sg63
(lp4854
g56
(g77
g58
NtRp4855
(dp4856
g61
(dp4857
sg70
g4851
sg63
(lp4858
g56
(g57
g58
NtRp4859
(dp4860
g61
(dp4861
g69
I2
ssg70
g4855
sg63
(lp4862
g56
(g65
g58
NtRp4863
(dp4864
g61
(dp4865
g69
I1
ssg70
Nsg63
(lp4866
g56
(g72
g58
NtRp4867
(dp4868
g61
(dp4869
sg70
g4863
sg63
(lp4870
g56
(g77
g58
NtRp4871
(dp4872
g61
(dp4873
sg70
g4867
sg63
(lp4874
g56
(g57
g58
NtRp4875
(dp4876
g61
(dp4877
g69
I1
ssg70
g4871
sg63
(lp4878
g4576
(S't\n\x00\x00\x00Stylesheet'
tRp4879
asbasbasbag56
(g72
g58
NtRp4880
(dp4881
g61
(dp4882
sg70
g4863
sg63
(lp4883
g56
(g77
g58
NtRp4884
(dp4885
g61
(dp4886
sg70
g4880
sg63
(lp4887
g56
(g57
g58
NtRp4888
(dp4889
g61
(dp4890
g69
I1
ssg70
g4884
sg63
(lp4891
I00
asbasbasbag56
(g72
g58
NtRp4892
(dp4893
g61
(dp4894
sg70
g4863
sg63
(lp4895
g56
(g77
g58
NtRp4896
(dp4897
g61
(dp4898
sg70
g4892
sg63
(lp4899
g56
(g57
g58
NtRp4900
(dp4901
g61
(dp4902
g69
I1
ssg70
g4896
sg63
(lp4903
S'/admin/default/edit/places/static/base.css'
p4904
asbasbasbasbasbasbasbag56
(g72
g58
NtRp4905
(dp4906
g61
(dp4907
sg70
g4685
sg63
(lp4908
g56
(g77
g58
NtRp4909
(dp4910
g61
(dp4911
sg70
g4905
sg63
(lp4912
g56
(g57
g58
NtRp4913
(dp4914
g61
(dp4915
g69
I2
ssg70
g4909
sg63
(lp4916
g56
(g65
g58
NtRp4917
(dp4918
g61
(dp4919
g69
I1
ssg70
Nsg63
(lp4920
g56
(g72
g58
NtRp4921
(dp4922
g61
(dp4923
sg70
g4917
sg63
(lp4924
g56
(g77
g58
NtRp4925
(dp4926
g61
(dp4927
sg70
g4921
sg63
(lp4928
g56
(g57
g58
NtRp4929
(dp4930
g61
(dp4931
g69
I1
ssg70
g4925
sg63
(lp4932
g4576
(S's\x08\x00\x00\x00DB Model'
tRp4933
asbasbasbag56
(g72
g58
NtRp4934
(dp4935
g61
(dp4936
sg70
g4917
sg63
(lp4937
g56
(g77
g58
NtRp4938
(dp4939
g61
(dp4940
sg70
g4934
sg63
(lp4941
g56
(g57
g58
NtRp4942
(dp4943
g61
(dp4944
g69
I1
ssg70
g4938
sg63
(lp4945
I00
asbasbasbag56
(g72
g58
NtRp4946
(dp4947
g61
(dp4948
sg70
g4917
sg63
(lp4949
g56
(g77
g58
NtRp4950
(dp4951
g61
(dp4952
sg70
g4946
sg63
(lp4953
g56
(g57
g58
NtRp4954
(dp4955
g61
(dp4956
g69
I1
ssg70
g4950
sg63
(lp4957
S'/admin/default/edit/places/models/db.py'
p4958
asbasbasbasbasbasbasbag56
(g72
g58
NtRp4959
(dp4960
g61
(dp4961
sg70
g4685
sg63
(lp4962
g56
(g77
g58
NtRp4963
(dp4964
g61
(dp4965
sg70
g4959
sg63
(lp4966
g56
(g57
g58
NtRp4967
(dp4968
g61
(dp4969
g69
I2
ssg70
g4963
sg63
(lp4970
g56
(g65
g58
NtRp4971
(dp4972
g61
(dp4973
g69
I1
ssg70
Nsg63
(lp4974
g56
(g72
g58
NtRp4975
(dp4976
g61
(dp4977
sg70
g4971
sg63
(lp4978
g56
(g77
g58
NtRp4979
(dp4980
g61
(dp4981
sg70
g4975
sg63
(lp4982
g56
(g57
g58
NtRp4983
(dp4984
g61
(dp4985
g69
I1
ssg70
g4979
sg63
(lp4986
g4576
(S's\n\x00\x00\x00Menu Model'
tRp4987
asbasbasbag56
(g72
g58
NtRp4988
(dp4989
g61
(dp4990
sg70
g4971
sg63
(lp4991
g56
(g77
g58
NtRp4992
(dp4993
g61
(dp4994
sg70
g4988
sg63
(lp4995
g56
(g57
g58
NtRp4996
(dp4997
g61
(dp4998
g69
I1
ssg70
g4992
sg63
(lp4999
I00
asbasbasbag56
(g72
g58
NtRp5000
(dp5001
g61
(dp5002
sg70
g4971
sg63
(lp5003
g56
(g77
g58
NtRp5004
(dp5005
g61
(dp5006
sg70
g5000
sg63
(lp5007
g56
(g57
g58
NtRp5008
(dp5009
g61
(dp5010
g69
I1
ssg70
g5004
sg63
(lp5011
S'/admin/default/edit/places/models/menu.py'
p5012
asbasbasbasbasbasbasbag56
(g72
g58
NtRp5013
(dp5014
g61
(dp5015
sg70
g4685
sg63
(lp5016
g56
(g77
g58
NtRp5017
(dp5018
g61
(dp5019
sg70
g5013
sg63
(lp5020
g56
(g57
g58
NtRp5021
(dp5022
g61
(dp5023
g69
I2
ssg70
g5017
sg63
(lp5024
g56
(g65
g58
NtRp5025
(dp5026
g61
(dp5027
g69
I1
ssg70
Nsg63
(lp5028
g56
(g72
g58
NtRp5029
(dp5030
g61
(dp5031
sg70
g5025
sg63
(lp5032
g56
(g77
g58
NtRp5033
(dp5034
g61
(dp5035
sg70
g5029
sg63
(lp5036
g56
(g57
g58
NtRp5037
(dp5038
g61
(dp5039
g69
I1
ssg70
g5033
sg63
(lp5040
g4576
(S't\x08\x00\x00\x00Database'
tRp5041
asbasbasbag56
(g72
g58
NtRp5042
(dp5043
g61
(dp5044
sg70
g5025
sg63
(lp5045
g56
(g77
g58
NtRp5046
(dp5047
g61
(dp5048
sg70
g5042
sg63
(lp5049
g56
(g57
g58
NtRp5050
(dp5051
g61
(dp5052
g69
I1
ssg70
g5046
sg63
(lp5053
I00
asbasbasbag56
(g72
g58
NtRp5054
(dp5055
g61
(dp5056
sg70
g5025
sg63
(lp5057
g56
(g77
g58
NtRp5058
(dp5059
g61
(dp5060
sg70
g5054
sg63
(lp5061
g56
(g57
g58
NtRp5062
(dp5063
g61
(dp5064
g69
I1
ssg70
g5058
sg63
(lp5065
S'/places/appadmin/index'
p5066
asbasbasbasbasbasbasbag56
(g72
g58
NtRp5067
(dp5068
g61
(dp5069
sg70
g4685
sg63
(lp5070
g56
(g77
g58
NtRp5071
(dp5072
g61
(dp5073
sg70
g5067
sg63
(lp5074
g56
(g57
g58
NtRp5075
(dp5076
g61
(dp5077
g69
I2
ssg70
g5071
sg63
(lp5078
g56
(g65
g58
NtRp5079
(dp5080
g61
(dp5081
g69
I1
ssg70
Nsg63
(lp5082
g56
(g72
g58
NtRp5083
(dp5084
g61
(dp5085
sg70
g5079
sg63
(lp5086
g56
(g77
g58
NtRp5087
(dp5088
g61
(dp5089
sg70
g5083
sg63
(lp5090
g56
(g57
g58
NtRp5091
(dp5092
g61
(dp5093
g69
I1
ssg70
g5087
sg63
(lp5094
g4576
(S't\x06\x00\x00\x00Errors'
tRp5095
asbasbasbag56
(g72
g58
NtRp5096
(dp5097
g61
(dp5098
sg70
g5079
sg63
(lp5099
g56
(g77
g58
NtRp5100
(dp5101
g61
(dp5102
sg70
g5096
sg63
(lp5103
g56
(g57
g58
NtRp5104
(dp5105
g61
(dp5106
g69
I1
ssg70
g5100
sg63
(lp5107
I00
asbasbasbag56
(g72
g58
NtRp5108
(dp5109
g61
(dp5110
sg70
g5079
sg63
(lp5111
g56
(g77
g58
NtRp5112
(dp5113
g61
(dp5114
sg70
g5108
sg63
(lp5115
g56
(g57
g58
NtRp5116
(dp5117
g61
(dp5118
g69
I1
ssg70
g5112
sg63
(lp5119
S'/admin/default/errors/places'
p5120
asbasbasbasbasbasbasbag56
(g72
g58
NtRp5121
(dp5122
g61
(dp5123
sg70
g4685
sg63
(lp5124
g56
(g77
g58
NtRp5125
(dp5126
g61
(dp5127
sg70
g5121
sg63
(lp5128
g56
(g57
g58
NtRp5129
(dp5130
g61
(dp5131
g69
I2
ssg70
g5125
sg63
(lp5132
g56
(g65
g58
NtRp5133
(dp5134
g61
(dp5135
g69
I1
ssg70
Nsg63
(lp5136
g56
(g72
g58
NtRp5137
(dp5138
g61
(dp5139
sg70
g5133
sg63
(lp5140
g56
(g77
g58
NtRp5141
(dp5142
g61
(dp5143
sg70
g5137
sg63
(lp5144
g56
(g57
g58
NtRp5145
(dp5146
g61
(dp5147
g69
I1
ssg70
g5141
sg63
(lp5148
g4576
(S't\x05\x00\x00\x00About'
tRp5149
asbasbasbag56
(g72
g58
NtRp5150
(dp5151
g61
(dp5152
sg70
g5133
sg63
(lp5153
g56
(g77
g58
NtRp5154
(dp5155
g61
(dp5156
sg70
g5150
sg63
(lp5157
g56
(g57
g58
NtRp5158
(dp5159
g61
(dp5160
g69
I1
ssg70
g5154
sg63
(lp5161
I00
asbasbasbag56
(g72
g58
NtRp5162
(dp5163
g61
(dp5164
sg70
g5133
sg63
(lp5165
g56
(g77
g58
NtRp5166
(dp5167
g61
(dp5168
sg70
g5162
sg63
(lp5169
g56
(g57
g58
NtRp5170
(dp5171
g61
(dp5172
g69
I1
ssg70
g5166
sg63
(lp5173
S'/admin/default/about/places'
p5174
asbasbasbasbasbasbasbasbasbasbasbasbasbasbasbag56
(g72
g58
NtRp5175
(dp5176
g61
(dp5177
sg70
g4544
sg63
(lp5178
g56
(g77
g58
NtRp5179
(dp5180
g61
(dp5181
sg70
g5175
sg63
(lp5182
g56
(g57
g58
NtRp5183
(dp5184
g61
(dp5185
g69
I4
ssg70
g5179
sg63
(lp5186
g56
(g65
g58
NtRp5187
(dp5188
g61
(dp5189
g69
I3
ssg70
Nsg63
(lp5190
g56
(g72
g58
NtRp5191
(dp5192
g61
(dp5193
sg70
g5187
sg63
(lp5194
g56
(g77
g58
NtRp5195
(dp5196
g61
(dp5197
sg70
g5191
sg63
(lp5198
g56
(g57
g58
NtRp5199
(dp5200
g61
(dp5201
g69
I3
ssg70
g5195
sg63
(lp5202
g4576
(S't\t\x00\x00\x00Resources'
tRp5203
asbasbasbag56
(g72
g58
NtRp5204
(dp5205
g61
(dp5206
sg70
g5187
sg63
(lp5207
g56
(g77
g58
NtRp5208
(dp5209
g61
(dp5210
sg70
g5204
sg63
(lp5211
g56
(g57
g58
NtRp5212
(dp5213
g61
(dp5214
g69
I3
ssg70
g5208
sg63
(lp5215
g99
asbasbasbag56
(g72
g58
NtRp5216
(dp5217
g61
(dp5218
sg70
g5187
sg63
(lp5219
g56
(g77
g58
NtRp5220
(dp5221
g61
(dp5222
sg70
g5216
sg63
(lp5223
g56
(g57
g58
NtRp5224
(dp5225
g61
(dp5226
g69
I3
ssg70
g5220
sg63
(lp5227
S'None'
p5228
asbasbasbag56
(g72
g58
NtRp5229
(dp5230
g61
(dp5231
sg70
g5187
sg63
(lp5232
g56
(g77
g58
NtRp5233
(dp5234
g61
(dp5235
sg70
g5229
sg63
(lp5236
g56
(g57
g58
NtRp5237
(dp5238
g61
(dp5239
g69
I3
ssg70
g5233
sg63
(lp5240
g56
(g65
g58
NtRp5241
(dp5242
g61
(dp5243
g69
I2
ssg70
Nsg63
(lp5244
g56
(g72
g58
NtRp5245
(dp5246
g61
(dp5247
sg70
g5241
sg63
(lp5248
g56
(g77
g58
NtRp5249
(dp5250
g61
(dp5251
sg70
g5245
sg63
(lp5252
g56
(g57
g58
NtRp5253
(dp5254
g61
(dp5255
g69
I2
ssg70
g5249
sg63
(lp5256
g56
(g65
g58
NtRp5257
(dp5258
g61
(dp5259
g69
I1
ssg70
Nsg63
(lp5260
g56
(g72
g58
NtRp5261
(dp5262
g61
(dp5263
sg70
g5257
sg63
(lp5264
g56
(g77
g58
NtRp5265
(dp5266
g61
(dp5267
sg70
g5261
sg63
(lp5268
g56
(g57
g58
NtRp5269
(dp5270
g61
(dp5271
g69
I1
ssg70
g5265
sg63
(lp5272
g4576
(S't\r\x00\x00\x00Documentation'
tRp5273
asbasbasbag56
(g72
g58
NtRp5274
(dp5275
g61
(dp5276
sg70
g5257
sg63
(lp5277
g56
(g77
g58
NtRp5278
(dp5279
g61
(dp5280
sg70
g5274
sg63
(lp5281
g56
(g57
g58
NtRp5282
(dp5283
g61
(dp5284
g69
I1
ssg70
g5278
sg63
(lp5285
I00
asbasbasbag56
(g72
g58
NtRp5286
(dp5287
g61
(dp5288
sg70
g5257
sg63
(lp5289
g56
(g77
g58
NtRp5290
(dp5291
g61
(dp5292
sg70
g5286
sg63
(lp5293
g56
(g57
g58
NtRp5294
(dp5295
g61
(dp5296
g69
I1
ssg70
g5290
sg63
(lp5297
S'http://www.web2py.com/book'
p5298
asbasbasbag56
(g72
g58
NtRp5299
(dp5300
g61
(dp5301
sg70
g5257
sg63
(lp5302
g56
(g77
g58
NtRp5303
(dp5304
g61
(dp5305
sg70
g5299
sg63
(lp5306
g56
(g57
g58
NtRp5307
(dp5308
g61
(dp5309
g69
I1
ssg70
g5303
sg63
(lp5310
(lp5311
(g4576
(S't\x07\x00\x00\x00Preface'
tRp5312
I00
S'http://www.web2py.com/book/default/chapter/00'
p5313
tp5314
a(g4576
(S't\x0c\x00\x00\x00Introduction'
tRp5315
I00
S'http://www.web2py.com/book/default/chapter/01'
p5316
tp5317
a(g4576
(S't\x06\x00\x00\x00Python'
tRp5318
I00
S'http://www.web2py.com/book/default/chapter/02'
p5319
tp5320
a(g4576
(S't\x08\x00\x00\x00Overview'
tRp5321
I00
S'http://www.web2py.com/book/default/chapter/03'
p5322
tp5323
a(g4576
(S's\x08\x00\x00\x00The Core'
tRp5324
I00
S'http://www.web2py.com/book/default/chapter/04'
p5325
tp5326
a(g4576
(S's\t\x00\x00\x00The Views'
tRp5327
I00
S'http://www.web2py.com/book/default/chapter/05'
p5328
tp5329
a(g4576
(S't\x08\x00\x00\x00Database'
tRp5330
I00
S'http://www.web2py.com/book/default/chapter/06'
p5331
tp5332
a(g4576
(S's\x14\x00\x00\x00Forms and Validators'
tRp5333
I00
S'http://www.web2py.com/book/default/chapter/07'
p5334
tp5335
a(g4576
(S's\x0e\x00\x00\x00Access Control'
tRp5336
I00
S'http://www.web2py.com/book/default/chapter/08'
p5337
tp5338
a(g4576
(S't\x08\x00\x00\x00Services'
tRp5339
I00
S'http://www.web2py.com/book/default/chapter/09'
p5340
tp5341
a(g4576
(S's\x0c\x00\x00\x00Ajax Recipes'
tRp5342
I00
S'http://www.web2py.com/book/default/chapter/10'
p5343
tp5344
a(g4576
(S's\x12\x00\x00\x00Deployment Recipes'
tRp5345
I00
S'http://www.web2py.com/book/default/chapter/11'
p5346
tp5347
a(g4576
(S's\r\x00\x00\x00Other Recipes'
tRp5348
I00
S'http://www.web2py.com/book/default/chapter/12'
p5349
tp5350
a(g4576
(S's\r\x00\x00\x00Buy this book'
tRp5351
I00
S'http://stores.lulu.com/web2py'
p5352
tp5353
aasbasbasbasbasbasbasbag56
(g72
g58
NtRp5354
(dp5355
g61
(dp5356
sg70
g5241
sg63
(lp5357
g56
(g77
g58
NtRp5358
(dp5359
g61
(dp5360
sg70
g5354
sg63
(lp5361
g56
(g57
g58
NtRp5362
(dp5363
g61
(dp5364
g69
I2
ssg70
g5358
sg63
(lp5365
g56
(g65
g58
NtRp5366
(dp5367
g61
(dp5368
g69
I1
ssg70
Nsg63
(lp5369
g56
(g72
g58
NtRp5370
(dp5371
g61
(dp5372
sg70
g5366
sg63
(lp5373
g56
(g77
g58
NtRp5374
(dp5375
g61
(dp5376
sg70
g5370
sg63
(lp5377
g56
(g57
g58
NtRp5378
(dp5379
g61
(dp5380
g69
I1
ssg70
g5374
sg63
(lp5381
g4576
(S't\t\x00\x00\x00Community'
tRp5382
asbasbasbag56
(g72
g58
NtRp5383
(dp5384
g61
(dp5385
sg70
g5366
sg63
(lp5386
g56
(g77
g58
NtRp5387
(dp5388
g61
(dp5389
sg70
g5383
sg63
(lp5390
g56
(g57
g58
NtRp5391
(dp5392
g61
(dp5393
g69
I1
ssg70
g5387
sg63
(lp5394
I00
asbasbasbag56
(g72
g58
NtRp5395
(dp5396
g61
(dp5397
sg70
g5366
sg63
(lp5398
g56
(g77
g58
NtRp5399
(dp5400
g61
(dp5401
sg70
g5395
sg63
(lp5402
g56
(g57
g58
NtRp5403
(dp5404
g61
(dp5405
g69
I1
ssg70
g5399
sg63
(lp5406
Nasbasbasbag56
(g72
g58
NtRp5407
(dp5408
g61
(dp5409
sg70
g5366
sg63
(lp5410
g56
(g77
g58
NtRp5411
(dp5412
g61
(dp5413
sg70
g5407
sg63
(lp5414
g56
(g57
g58
NtRp5415
(dp5416
g61
(dp5417
g69
I1
ssg70
g5411
sg63
(lp5418
(lp5419
(g4576
(S't\x06\x00\x00\x00Groups'
tRp5420
I00
S'http://www.web2py.com/examples/default/usergroups'
p5421
tp5422
a(g4576
(S't\x07\x00\x00\x00Twitter'
tRp5423
I00
S'http://twitter.com/web2py'
p5424
tp5425
a(g4576
(S's\t\x00\x00\x00Live chat'
tRp5426
I00
S'http://mibbit.com/?channel=%23web2py&server=irc.mibbit.net'
p5427
tp5428
a(g4576
(S's\n\x00\x00\x00User Voice'
tRp5429
I00
S'http://web2py.uservoice.com/'
p5430
tp5431
aasbasbasbasbasbasbasbag56
(g72
g58
NtRp5432
(dp5433
g61
(dp5434
sg70
g5241
sg63
(lp5435
g56
(g77
g58
NtRp5436
(dp5437
g61
(dp5438
sg70
g5432
sg63
(lp5439
g56
(g57
g58
NtRp5440
(dp5441
g61
(dp5442
g69
I2
ssg70
g5436
sg63
(lp5443
g56
(g65
g58
NtRp5444
(dp5445
g61
(dp5446
g69
I1
ssg70
Nsg63
(lp5447
g56
(g72
g58
NtRp5448
(dp5449
g61
(dp5450
sg70
g5444
sg63
(lp5451
g56
(g77
g58
NtRp5452
(dp5453
g61
(dp5454
sg70
g5448
sg63
(lp5455
g56
(g57
g58
NtRp5456
(dp5457
g61
(dp5458
g69
I1
ssg70
g5452
sg63
(lp5459
g4576
(S't\x06\x00\x00\x00Web2py'
tRp5460
asbasbasbag56
(g72
g58
NtRp5461
(dp5462
g61
(dp5463
sg70
g5444
sg63
(lp5464
g56
(g77
g58
NtRp5465
(dp5466
g61
(dp5467
sg70
g5461
sg63
(lp5468
g56
(g57
g58
NtRp5469
(dp5470
g61
(dp5471
g69
I1
ssg70
g5465
sg63
(lp5472
I00
asbasbasbag56
(g72
g58
NtRp5473
(dp5474
g61
(dp5475
sg70
g5444
sg63
(lp5476
g56
(g77
g58
NtRp5477
(dp5478
g61
(dp5479
sg70
g5473
sg63
(lp5480
g56
(g57
g58
NtRp5481
(dp5482
g61
(dp5483
g69
I1
ssg70
g5477
sg63
(lp5484
S'http://www.web2py.com'
p5485
asbasbasbag56
(g72
g58
NtRp5486
(dp5487
g61
(dp5488
sg70
g5444
sg63
(lp5489
g56
(g77
g58
NtRp5490
(dp5491
g61
(dp5492
sg70
g5486
sg63
(lp5493
g56
(g57
g58
NtRp5494
(dp5495
g61
(dp5496
g69
I1
ssg70
g5490
sg63
(lp5497
(lp5498
(g4576
(S't\x08\x00\x00\x00Download'
tRp5499
I00
S'http://www.web2py.com/examples/default/download'
p5500
tp5501
a(g4576
(S't\x07\x00\x00\x00Support'
tRp5502
I00
S'http://www.web2py.com/examples/default/support'
p5503
tp5504
a(g4576
(S's\x0e\x00\x00\x00Quick Examples'
tRp5505
I00
S'http://web2py.com/examples/default/examples'
p5506
tp5507
a(g4576
(S't\x03\x00\x00\x00FAQ'
tRp5508
I00
S'http://web2py.com/AlterEgo'
p5509
tp5510
a(g4576
(S's\x11\x00\x00\x00Free Applications'
tRp5511
I00
S'http://web2py.com/appliances'
p5512
tp5513
a(g4576
(S't\x07\x00\x00\x00Plugins'
tRp5514
I00
S'http://web2py.com/plugins'
p5515
tp5516
a(g4576
(S't\x07\x00\x00\x00Recipes'
tRp5517
I00
S'http://web2pyslices.com/'
p5518
tp5519
a(g4576
(S't\x04\x00\x00\x00Demo'
tRp5520
I00
S'http://web2py.com/demo_admin'
p5521
tp5522
a(g4576
(S't\x08\x00\x00\x00Semantic'
tRp5523
I00
S'http://web2py.com/semantic'
p5524
tp5525
a(g4576
(S't\x07\x00\x00\x00Layouts'
tRp5526
I00
S'http://web2py.com/layouts'
p5527
tp5528
a(g4576
(S't\x06\x00\x00\x00Videos'
tRp5529
I00
S'http://www.web2py.com/examples/default/videos/'
p5530
tp5531
aasbasbasbasbasbasbasbasbasbasbasbasbasbasbasbasbasbasbasbag56
(g72
g58
NtRp5532
(dp5533
g61
(dp5534
sg70
g4071
sg63
(lp5535
g56
(g77
g58
NtRp5536
(dp5537
g61
(dp5538
g81
g82
ssg70
g5532
sg63
(lp5539
S'meta'
p5540
asbag56
(g77
g58
NtRp5541
(dp5542
g61
(dp5543
g88
g89
ssg70
g5532
sg63
(lp5544
S':'
asbag56
(g77
g58
NtRp5545
(dp5546
g61
(dp5547
sg70
g5532
sg63
(lp5548
g56
(g57
g58
NtRp5549
(dp5550
g61
(dp5551
g69
I5
ssg70
g5545
sg63
(lp5552
g56
(g65
g58
NtRp5553
(dp5554
g61
(dp5555
g69
I4
ssg70
Nsg63
(lp5556
g56
(g72
g58
NtRp5557
(dp5558
g61
(dp5559
sg70
g5553
sg63
(lp5560
g56
(g77
g58
NtRp5561
(dp5562
g61
(dp5563
g81
g82
ssg70
g5557
sg63
(lp5564
S'author'
p5565
asbag56
(g77
g58
NtRp5566
(dp5567
g61
(dp5568
g88
g89
ssg70
g5557
sg63
(lp5569
S':'
asbag56
(g77
g58
NtRp5570
(dp5571
g61
(dp5572
sg70
g5557
sg63
(lp5573
g56
(g57
g58
NtRp5574
(dp5575
g61
(dp5576
g69
I4
ssg70
g5570
sg63
(lp5577
S'Your Name <you@example.com>'
p5578
asbasbasbag56
(g72
g58
NtRp5579
(dp5580
g61
(dp5581
sg70
g5553
sg63
(lp5582
g56
(g77
g58
NtRp5583
(dp5584
g61
(dp5585
g81
g82
ssg70
g5579
sg63
(lp5586
S'copyright'
p5587
asbag56
(g77
g58
NtRp5588
(dp5589
g61
(dp5590
g88
g89
ssg70
g5579
sg63
(lp5591
S':'
asbag56
(g77
g58
NtRp5592
(dp5593
g61
(dp5594
sg70
g5579
sg63
(lp5595
g56
(g57
g58
NtRp5596
(dp5597
g61
(dp5598
g69
I4
ssg70
g5592
sg63
(lp5599
S'Copyright 2011'
p5600
asbasbasbag56
(g72
g58
NtRp5601
(dp5602
g61
(dp5603
sg70
g5553
sg63
(lp5604
g56
(g77
g58
NtRp5605
(dp5606
g61
(dp5607
g81
g82
ssg70
g5601
sg63
(lp5608
S'description'
p5609
asbag56
(g77
g58
NtRp5610
(dp5611
g61
(dp5612
g88
g89
ssg70
g5601
sg63
(lp5613
S':'
asbag56
(g77
g58
NtRp5614
(dp5615
g61
(dp5616
sg70
g5601
sg63
(lp5617
g56
(g57
g58
NtRp5618
(dp5619
g61
(dp5620
g69
I4
ssg70
g5614
sg63
(lp5621
S'a cool new app'
p5622
asbasbasbag56
(g72
g58
NtRp5623
(dp5624
g61
(dp5625
sg70
g5553
sg63
(lp5626
g56
(g77
g58
NtRp5627
(dp5628
g61
(dp5629
g81
g82
ssg70
g5623
sg63
(lp5630
S'generator'
p5631
asbag56
(g77
g58
NtRp5632
(dp5633
g61
(dp5634
g88
g89
ssg70
g5623
sg63
(lp5635
S':'
asbag56
(g77
g58
NtRp5636
(dp5637
g61
(dp5638
sg70
g5623
sg63
(lp5639
g56
(g57
g58
NtRp5640
(dp5641
g61
(dp5642
g69
I4
ssg70
g5636
sg63
(lp5643
S'Web2py Web Framework'
p5644
asbasbasbag56
(g72
g58
NtRp5645
(dp5646
g61
(dp5647
sg70
g5553
sg63
(lp5648
g56
(g77
g58
NtRp5649
(dp5650
g61
(dp5651
g81
g82
ssg70
g5645
sg63
(lp5652
S'keywords'
p5653
asbag56
(g77
g58
NtRp5654
(dp5655
g61
(dp5656
g88
g89
ssg70
g5645
sg63
(lp5657
S':'
asbag56
(g77
g58
NtRp5658
(dp5659
g61
(dp5660
sg70
g5645
sg63
(lp5661
g56
(g57
g58
NtRp5662
(dp5663
g61
(dp5664
g69
I4
ssg70
g5658
sg63
(lp5665
S'web2py, python, framework'
p5666
asbasbasbasbasbasbasbag56
(g72
g58
NtRp5667
(dp5668
g61
(dp5669
sg70
g4071
sg63
(lp5670
g56
(g77
g58
NtRp5671
(dp5672
g61
(dp5673
g81
g82
ssg70
g5667
sg63
(lp5674
S'postprocessing'
p5675
asbag56
(g77
g58
NtRp5676
(dp5677
g61
(dp5678
g88
g89
ssg70
g5667
sg63
(lp5679
S':'
asbag56
(g77
g58
NtRp5680
(dp5681
g61
(dp5682
sg70
g5667
sg63
(lp5683
g56
(g57
g58
NtRp5684
(dp5685
g61
(dp5686
g69
I5
ssg70
g5680
sg63
(lp5687
g56
(g65
g58
NtRp5688
(dp5689
g61
(dp5690
g69
I4
ssg70
Nsg63
(lp5691
sbasbasbasbag56
(g72
g58
NtRp5692
(dp5693
g61
(dp5694
sg70
g4071
sg63
(lp5695
g56
(g77
g58
NtRp5696
(dp5697
g61
(dp5698
g81
g82
ssg70
g5692
sg63
(lp5699
S'session_file'
p5700
asbag56
(g77
g58
NtRp5701
(dp5702
g61
(dp5703
g88
g89
ssg70
g5692
sg63
(lp5704
S':'
asbag56
(g77
g58
NtRp5705
(dp5706
g61
(dp5707
sg70
g5692
sg63
(lp5708
g56
(g57
g58
NtRp5709
(dp5710
g61
(dp5711
g69
I5
ssg70
g5705
sg63
(lp5712
S"<open file '/home/ian/Dropbox/Web_Pages/web2py-linux/applications/places/sessions/127.0.0.1-ae378f77-b944-4a55-be06-eed4ce913913', mode 'rb+' at 0x2cd30c0>"
p5713
asbasbasbag56
(g72
g58
NtRp5714
(dp5715
g61
(dp5716
sg70
g4071
sg63
(lp5717
g56
(g77
g58
NtRp5718
(dp5719
g61
(dp5720
g81
g82
ssg70
g5714
sg63
(lp5721
S'session_filename'
p5722
asbag56
(g77
g58
NtRp5723
(dp5724
g61
(dp5725
g88
g89
ssg70
g5714
sg63
(lp5726
S':'
asbag56
(g77
g58
NtRp5727
(dp5728
g61
(dp5729
sg70
g5714
sg63
(lp5730
g56
(g57
g58
NtRp5731
(dp5732
g61
(dp5733
g69
I5
ssg70
g5727
sg63
(lp5734
S'/home/ian/Dropbox/Web_Pages/web2py-linux/applications/places/sessions/127.0.0.1-ae378f77-b944-4a55-be06-eed4ce913913'
p5735
asbasbasbag56
(g72
g58
NtRp5736
(dp5737
g61
(dp5738
sg70
g4071
sg63
(lp5739
g56
(g77
g58
NtRp5740
(dp5741
g61
(dp5742
g81
g82
ssg70
g5736
sg63
(lp5743
S'session_id'
p5744
asbag56
(g77
g58
NtRp5745
(dp5746
g61
(dp5747
g88
g89
ssg70
g5736
sg63
(lp5748
S':'
asbag56
(g77
g58
NtRp5749
(dp5750
g61
(dp5751
sg70
g5736
sg63
(lp5752
g56
(g57
g58
NtRp5753
(dp5754
g61
(dp5755
g69
I5
ssg70
g5749
sg63
(lp5756
S'127.0.0.1-ae378f77-b944-4a55-be06-eed4ce913913'
p5757
asbasbasbag56
(g72
g58
NtRp5758
(dp5759
g61
(dp5760
sg70
g4071
sg63
(lp5761
g56
(g77
g58
NtRp5762
(dp5763
g61
(dp5764
g81
g82
ssg70
g5758
sg63
(lp5765
S'session_id_name'
p5766
asbag56
(g77
g58
NtRp5767
(dp5768
g61
(dp5769
g88
g89
ssg70
g5758
sg63
(lp5770
S':'
asbag56
(g77
g58
NtRp5771
(dp5772
g61
(dp5773
sg70
g5758
sg63
(lp5774
g56
(g57
g58
NtRp5775
(dp5776
g61
(dp5777
g69
I5
ssg70
g5771
sg63
(lp5778
g4128
asbasbasbag56
(g72
g58
NtRp5779
(dp5780
g61
(dp5781
sg70
g4071
sg63
(lp5782
g56
(g77
g58
NtRp5783
(dp5784
g61
(dp5785
g81
g82
ssg70
g5779
sg63
(lp5786
S'session_locked'
p5787
asbag56
(g77
g58
NtRp5788
(dp5789
g61
(dp5790
g88
g89
ssg70
g5779
sg63
(lp5791
S':'
asbag56
(g77
g58
NtRp5792
(dp5793
g61
(dp5794
sg70
g5779
sg63
(lp5795
g56
(g57
g58
NtRp5796
(dp5797
g61
(dp5798
g69
I5
ssg70
g5792
sg63
(lp5799
g2048
asbasbasbag56
(g72
g58
NtRp5800
(dp5801
g61
(dp5802
sg70
g4071
sg63
(lp5803
g56
(g77
g58
NtRp5804
(dp5805
g61
(dp5806
g81
g82
ssg70
g5800
sg63
(lp5807
S'session_new'
p5808
asbag56
(g77
g58
NtRp5809
(dp5810
g61
(dp5811
g88
g89
ssg70
g5800
sg63
(lp5812
S':'
asbag56
(g77
g58
NtRp5813
(dp5814
g61
(dp5815
sg70
g5800
sg63
(lp5816
g56
(g57
g58
NtRp5817
(dp5818
g61
(dp5819
g69
I5
ssg70
g5813
sg63
(lp5820
g99
asbasbasbag56
(g72
g58
NtRp5821
(dp5822
g61
(dp5823
sg70
g4071
sg63
(lp5824
g56
(g77
g58
NtRp5825
(dp5826
g61
(dp5827
g81
g82
ssg70
g5821
sg63
(lp5828
S'status'
p5829
asbag56
(g77
g58
NtRp5830
(dp5831
g61
(dp5832
g88
g89
ssg70
g5821
sg63
(lp5833
S':'
asbag56
(g77
g58
NtRp5834
(dp5835
g61
(dp5836
sg70
g5821
sg63
(lp5837
g56
(g57
g58
NtRp5838
(dp5839
g61
(dp5840
g69
I5
ssg70
g5834
sg63
(lp5841
S'200'
p5842
asbasbasbag56
(g72
g58
NtRp5843
(dp5844
g61
(dp5845
sg70
g4071
sg63
(lp5846
g56
(g77
g58
NtRp5847
(dp5848
g61
(dp5849
g81
g82
ssg70
g5843
sg63
(lp5850
S'subtitle'
p5851
asbag56
(g77
g58
NtRp5852
(dp5853
g61
(dp5854
g88
g89
ssg70
g5843
sg63
(lp5855
S':'
asbag56
(g77
g58
NtRp5856
(dp5857
g61
(dp5858
sg70
g5843
sg63
(lp5859
g56
(g57
g58
NtRp5860
(dp5861
g61
(dp5862
g69
I5
ssg70
g5856
sg63
(lp5863
g4576
(S's\r\x00\x00\x00customize me!'
tRp5864
asbasbasbag56
(g72
g58
NtRp5865
(dp5866
g61
(dp5867
sg70
g4071
sg63
(lp5868
g56
(g77
g58
NtRp5869
(dp5870
g61
(dp5871
g81
g82
ssg70
g5865
sg63
(lp5872
S'title'
p5873
asbag56
(g77
g58
NtRp5874
(dp5875
g61
(dp5876
g88
g89
ssg70
g5865
sg63
(lp5877
S':'
asbag56
(g77
g58
NtRp5878
(dp5879
g61
(dp5880
sg70
g5865
sg63
(lp5881
g56
(g57
g58
NtRp5882
(dp5883
g61
(dp5884
g69
I5
ssg70
g5878
sg63
(lp5885
g121
asbasbasbag56
(g72
g58
NtRp5886
(dp5887
g61
(dp5888
sg70
g4071
sg63
(lp5889
g56
(g77
g58
NtRp5890
(dp5891
g61
(dp5892
g81
g82
ssg70
g5886
sg63
(lp5893
g2692
asbag56
(g77
g58
NtRp5894
(dp5895
g61
(dp5896
g88
g89
ssg70
g5886
sg63
(lp5897
S':'
asbag56
(g77
g58
NtRp5898
(dp5899
g61
(dp5900
sg70
g5886
sg63
(lp5901
g56
(g57
g58
NtRp5902
(dp5903
g61
(dp5904
g69
I5
ssg70
g5898
sg63
(lp5905
g2705
asbasbasbag56
(g72
g58
NtRp5906
(dp5907
g61
(dp5908
sg70
g4071
sg63
(lp5909
g56
(g77
g58
NtRp5910
(dp5911
g61
(dp5912
g81
g82
ssg70
g5906
sg63
(lp5913
S'view'
p5914
asbag56
(g77
g58
NtRp5915
(dp5916
g61
(dp5917
g88
g89
ssg70
g5906
sg63
(lp5918
S':'
asbag56
(g77
g58
NtRp5919
(dp5920
g61
(dp5921
sg70
g5906
sg63
(lp5922
g56
(g57
g58
NtRp5923
(dp5924
g61
(dp5925
g69
I5
ssg70
g5919
sg63
(lp5926
S'default/index.html'
p5927
asbasbasbasbasbsS'locals'
p5928
(dp5929
S'current_row'
p5930
S'<gluon.dal.Rows object>'
p5931
sssS'traceback'
p5932
S'Traceback (most recent call last):\n  File "/home/ian/Dropbox/Web_Pages/web2py-linux/gluon/restricted.py", line 194, in restricted\n    exec ccode in environment\n  File "/home/ian/Dropbox/Web_Pages/web2py-linux/applications/places/controllers/default.py", line 83, in <module>\n  File "/home/ian/Dropbox/Web_Pages/web2py-linux/gluon/globals.py", line 149, in <lambda>\n    self._caller = lambda f: f()\n  File "/home/ian/Dropbox/Web_Pages/web2py-linux/applications/places/controllers/default.py", line 25, in index\n    current = current_row.id\nAttributeError: \'Rows\' object has no attribute \'id\'\n'
p5933
s.