(dp1
S'output'
p2
S''
sS'layer'
p3
S'/home/ian/web2py/applications/places/controllers/default.py'
p4
sS'code'
p5
S'# -*- coding: utf-8 -*-\n# this file is released under public domain and you can use without limitations\n\n#########################################################################\n## This is a samples controller\n## - index is the default action of any application\n## - user is required for authentication and authorization\n## - download is for downloading files uploaded in the db (does streaming)\n## - call exposes all registered services (none by default)\n#########################################################################\n\ndef index():\n    """\n    example action using the internationalization operator T and flash\n    rendered by views/default/index.html or views/generic.html\n    """   \n        \n    if request.vars.the_view:\n\t\tcurrent_view = request.vars.the_view\n        session.the_view = request.vars.the_view\n    elif session.the_view:\n        current_view = session.the_view    \n    else:\n        current_view = "kitchen"\n    \n    current_row = db(db.tags.tag == current_view).select()    \n    current_tag = current_row[0].id\n            \n    links = db(db.links.tags.contains(current_tag)).select()\n    \n    return dict(links = links)\n\ndef user():\n    """\n    exposes:\n    http://..../[app]/default/user/login\n    http://..../[app]/default/user/logout\n    http://..../[app]/default/user/register\n    http://..../[app]/default/user/profile\n    http://..../[app]/default/user/retrieve_password\n    http://..../[app]/default/user/change_password\n    use @auth.requires_login()\n        @auth.requires_membership(\'group name\')\n        @auth.requires_permission(\'read\',\'table name\',record_id)\n    to decorate functions that need access control\n    """\n    return dict(form=auth())\n\n\ndef download():\n    """\n    allows downloading of uploaded files\n    http://..../[app]/default/download/[filename]\n    """\n    return response.download(request,db)\n\n\ndef call():\n    """\n    exposes services. for example:\n    http://..../[app]/default/call/jsonrpc\n    decorate with @services.jsonrpc the functions to expose\n    supports xml, json, xmlrpc, jsonrpc, amfrpc, rss, csv\n    """\n    return service()\n\n\n@auth.requires_signature()\ndef data():\n    """\n    http://..../[app]/default/data/tables\n    http://..../[app]/default/data/create/[table]\n    http://..../[app]/default/data/read/[table]/[id]\n    http://..../[app]/default/data/update/[table]/[id]\n    http://..../[app]/default/data/delete/[table]/[id]\n    http://..../[app]/default/data/select/[table]\n    http://..../[app]/default/data/search/[table]\n    but URLs bust be signed, i.e. linked with\n      A(\'table\',_href=URL(\'data/tables\',user_signature=True))\n    or with the signed load operator\n      LOAD(\'default\',\'data.load\',args=\'tables\',ajax=True,user_signature=True)\n    """\n    return dict(form=crud())\n\n@auth.requires_membership(\'administrators\')\ndef edit():\n    edit_form = crud.update(db.links, request.args[0])\n    closer = A(\'close\', _href=URL(\'#\'), _class=\'close_link\')\n    the_title = H3(\'Edit this Place\')\n    \n    return dict(form = edit_form, closer=closer, the_title=the_title)\n\t\n@auth.requires_membership(\'administrators\')\ndef create():\n\tform = crud.create(db.links)\n\tcloser = A(\'close\', _href=URL(\'#\'), _class=\'close_link\')\n\tthe_title = H3(\'Link to a New Place\')\n\t\t\n\treturn dict(form = form, closer=closer, the_title=the_title)\n\nresponse._vars=response._caller(index)\n'
p6
sS'snapshot'
p7
(dp8
S'exception'
p9
(dp10
S'__getslice__'
p11
S"<method-wrapper '__getslice__' of exceptions.IndentationError object>"
p12
sS'text'
p13
S"'        session.the_view = request.vars.the_view\\n'"
p14
sS'__str__'
p15
S"<method-wrapper '__str__' of exceptions.IndentationError object>"
p16
sS'__reduce__'
p17
S'<built-in method __reduce__ of exceptions.IndentationError object>'
p18
sS'__dict__'
p19
S'{}'
p20
sS'__sizeof__'
p21
S'<built-in method __sizeof__ of exceptions.IndentationError object>'
p22
sS'__init__'
p23
S"<method-wrapper '__init__' of exceptions.IndentationError object>"
p24
sS'__setattr__'
p25
S"<method-wrapper '__setattr__' of exceptions.IndentationError object>"
p26
sS'__reduce_ex__'
p27
S'<built-in method __reduce_ex__ of exceptions.IndentationError object>'
p28
sS'__new__'
p29
S'<built-in method __new__ of type object>'
p30
sS'__format__'
p31
S'<built-in method __format__ of exceptions.IndentationError object>'
p32
sS'__class__'
p33
S"<type 'exceptions.IndentationError'>"
p34
sS'filename'
p35
S"'/home/ian/web2py/applications/places/controllers/default.py'"
p36
sS'lineno'
p37
S'20'
p38
sS'msg'
p39
S"'unindent does not match any outer indentation level'"
p40
sS'__doc__'
p41
S"'Improper indentation.'"
p42
sS'__getitem__'
p43
S"<method-wrapper '__getitem__' of exceptions.IndentationError object>"
p44
sS'__setstate__'
p45
S'<built-in method __setstate__ of exceptions.IndentationError object>'
p46
sS'__getattribute__'
p47
S"<method-wrapper '__getattribute__' of exceptions.IndentationError object>"
p48
sS'print_file_and_line'
p49
S'None'
p50
sS'args'
p51
S"('unindent does not match any outer indentation level', ('/home/ian/web2py/applications/places/controllers/default.py', 20, 49, '        session.the_view = request.vars.the_view\\n'))"
p52
sS'__subclasshook__'
p53
S'<built-in method __subclasshook__ of type object>'
p54
sS'offset'
p55
S'49'
p56
sS'__unicode__'
p57
S'<built-in method __unicode__ of exceptions.IndentationError object>'
p58
sS'__delattr__'
p59
S"<method-wrapper '__delattr__' of exceptions.IndentationError object>"
p60
sS'__repr__'
p61
S"<method-wrapper '__repr__' of exceptions.IndentationError object>"
p62
sS'__hash__'
p63
S"<method-wrapper '__hash__' of exceptions.IndentationError object>"
p64
ssS'evalue'
p65
S'unindent does not match any outer indentation level (default.py, line 20)'
p66
sS'request'
p67
ccopy_reg
_reconstructor
p68
(cgluon.html
BEAUTIFY
p69
c__builtin__
object
p70
NtRp71
(dp72
S'attributes'
p73
(dp74
sS'components'
p75
(lp76
g68
(cgluon.html
TABLE
p77
g70
NtRp78
(dp79
g73
(dp80
S'level'
p81
I5
ssS'parent'
p82
Nsg75
(lp83
g68
(cgluon.html
TR
p84
g70
NtRp85
(dp86
g73
(dp87
sg82
g78
sg75
(lp88
g68
(cgluon.html
TD
p89
g70
NtRp90
(dp91
g73
(dp92
S'_style'
p93
S'font-weight:bold;'
p94
ssg82
g85
sg75
(lp95
S'ajax'
p96
asbag68
(g89
g70
NtRp97
(dp98
g73
(dp99
S'_valign'
p100
S'top'
p101
ssg82
g85
sg75
(lp102
S':'
asbag68
(g89
g70
NtRp103
(dp104
g73
(dp105
sg82
g85
sg75
(lp106
g68
(g69
g70
NtRp107
(dp108
g73
(dp109
g81
I5
ssg82
g103
sg75
(lp110
S'False'
p111
asbasbasbag68
(g84
g70
NtRp112
(dp113
g73
(dp114
sg82
g78
sg75
(lp115
g68
(g89
g70
NtRp116
(dp117
g73
(dp118
g93
g94
ssg82
g112
sg75
(lp119
S'application'
p120
asbag68
(g89
g70
NtRp121
(dp122
g73
(dp123
g100
g101
ssg82
g112
sg75
(lp124
S':'
asbag68
(g89
g70
NtRp125
(dp126
g73
(dp127
sg82
g112
sg75
(lp128
g68
(g69
g70
NtRp129
(dp130
g73
(dp131
g81
I5
ssg82
g125
sg75
(lp132
S'places'
p133
asbasbasbag68
(g84
g70
NtRp134
(dp135
g73
(dp136
sg82
g78
sg75
(lp137
g68
(g89
g70
NtRp138
(dp139
g73
(dp140
g93
g94
ssg82
g134
sg75
(lp141
g51
asbag68
(g89
g70
NtRp142
(dp143
g73
(dp144
g100
g101
ssg82
g134
sg75
(lp145
S':'
asbag68
(g89
g70
NtRp146
(dp147
g73
(dp148
sg82
g134
sg75
(lp149
g68
(g69
g70
NtRp150
(dp151
g73
(dp152
g81
I5
ssg82
g146
sg75
(lp153
g68
(g77
g70
NtRp154
(dp155
g73
(dp156
g81
I4
ssg82
Nsg75
(lp157
sbasbasbasbag68
(g84
g70
NtRp158
(dp159
g73
(dp160
sg82
g78
sg75
(lp161
g68
(g89
g70
NtRp162
(dp163
g73
(dp164
g93
g94
ssg82
g158
sg75
(lp165
S'body'
p166
asbag68
(g89
g70
NtRp167
(dp168
g73
(dp169
g100
g101
ssg82
g158
sg75
(lp170
S':'
asbag68
(g89
g70
NtRp171
(dp172
g73
(dp173
sg82
g158
sg75
(lp174
g68
(g69
g70
NtRp175
(dp176
g73
(dp177
g81
I5
ssg82
g171
sg75
(lp178
S'<cStringIO.StringO object at 0x3597570>'
p179
asbasbasbag68
(g84
g70
NtRp180
(dp181
g73
(dp182
sg82
g78
sg75
(lp183
g68
(g89
g70
NtRp184
(dp185
g73
(dp186
g93
g94
ssg82
g180
sg75
(lp187
S'client'
p188
asbag68
(g89
g70
NtRp189
(dp190
g73
(dp191
g100
g101
ssg82
g180
sg75
(lp192
S':'
asbag68
(g89
g70
NtRp193
(dp194
g73
(dp195
sg82
g180
sg75
(lp196
g68
(g69
g70
NtRp197
(dp198
g73
(dp199
g81
I5
ssg82
g193
sg75
(lp200
S'127.0.0.1'
p201
asbasbasbag68
(g84
g70
NtRp202
(dp203
g73
(dp204
sg82
g78
sg75
(lp205
g68
(g89
g70
NtRp206
(dp207
g73
(dp208
g93
g94
ssg82
g202
sg75
(lp209
S'controller'
p210
asbag68
(g89
g70
NtRp211
(dp212
g73
(dp213
g100
g101
ssg82
g202
sg75
(lp214
S':'
asbag68
(g89
g70
NtRp215
(dp216
g73
(dp217
sg82
g202
sg75
(lp218
g68
(g69
g70
NtRp219
(dp220
g73
(dp221
g81
I5
ssg82
g215
sg75
(lp222
S'default'
p223
asbasbasbag68
(g84
g70
NtRp224
(dp225
g73
(dp226
sg82
g78
sg75
(lp227
g68
(g89
g70
NtRp228
(dp229
g73
(dp230
g93
g94
ssg82
g224
sg75
(lp231
S'cookies'
p232
asbag68
(g89
g70
NtRp233
(dp234
g73
(dp235
g100
g101
ssg82
g224
sg75
(lp236
S':'
asbag68
(g89
g70
NtRp237
(dp238
g73
(dp239
sg82
g224
sg75
(lp240
g68
(g69
g70
NtRp241
(dp242
g73
(dp243
g81
I5
ssg82
g237
sg75
(lp244
g68
(g77
g70
NtRp245
(dp246
g73
(dp247
g81
I4
ssg82
Nsg75
(lp248
g68
(g84
g70
NtRp249
(dp250
g73
(dp251
sg82
g245
sg75
(lp252
g68
(g89
g70
NtRp253
(dp254
g73
(dp255
g93
g94
ssg82
g249
sg75
(lp256
S'session_id_admin'
p257
asbag68
(g89
g70
NtRp258
(dp259
g73
(dp260
g100
g101
ssg82
g249
sg75
(lp261
S':'
asbag68
(g89
g70
NtRp262
(dp263
g73
(dp264
sg82
g249
sg75
(lp265
g68
(g69
g70
NtRp266
(dp267
g73
(dp268
g81
I4
ssg82
g262
sg75
(lp269
g68
(g77
g70
NtRp270
(dp271
g73
(dp272
g81
I3
ssg82
Nsg75
(lp273
g68
(g84
g70
NtRp274
(dp275
g73
(dp276
sg82
g270
sg75
(lp277
g68
(g89
g70
NtRp278
(dp279
g73
(dp280
g93
g94
ssg82
g274
sg75
(lp281
S'comment'
p282
asbag68
(g89
g70
NtRp283
(dp284
g73
(dp285
g100
g101
ssg82
g274
sg75
(lp286
S':'
asbag68
(g89
g70
NtRp287
(dp288
g73
(dp289
sg82
g274
sg75
(lp290
g68
(g69
g70
NtRp291
(dp292
g73
(dp293
g81
I3
ssg82
g287
sg75
(lp294
S''
asbasbasbag68
(g84
g70
NtRp295
(dp296
g73
(dp297
sg82
g270
sg75
(lp298
g68
(g89
g70
NtRp299
(dp300
g73
(dp301
g93
g94
ssg82
g295
sg75
(lp302
S'domain'
p303
asbag68
(g89
g70
NtRp304
(dp305
g73
(dp306
g100
g101
ssg82
g295
sg75
(lp307
S':'
asbag68
(g89
g70
NtRp308
(dp309
g73
(dp310
sg82
g295
sg75
(lp311
g68
(g69
g70
NtRp312
(dp313
g73
(dp314
g81
I3
ssg82
g308
sg75
(lp315
S''
asbasbasbag68
(g84
g70
NtRp316
(dp317
g73
(dp318
sg82
g270
sg75
(lp319
g68
(g89
g70
NtRp320
(dp321
g73
(dp322
g93
g94
ssg82
g316
sg75
(lp323
S'expires'
p324
asbag68
(g89
g70
NtRp325
(dp326
g73
(dp327
g100
g101
ssg82
g316
sg75
(lp328
S':'
asbag68
(g89
g70
NtRp329
(dp330
g73
(dp331
sg82
g316
sg75
(lp332
g68
(g69
g70
NtRp333
(dp334
g73
(dp335
g81
I3
ssg82
g329
sg75
(lp336
S''
asbasbasbag68
(g84
g70
NtRp337
(dp338
g73
(dp339
sg82
g270
sg75
(lp340
g68
(g89
g70
NtRp341
(dp342
g73
(dp343
g93
g94
ssg82
g337
sg75
(lp344
S'httponly'
p345
asbag68
(g89
g70
NtRp346
(dp347
g73
(dp348
g100
g101
ssg82
g337
sg75
(lp349
S':'
asbag68
(g89
g70
NtRp350
(dp351
g73
(dp352
sg82
g337
sg75
(lp353
g68
(g69
g70
NtRp354
(dp355
g73
(dp356
g81
I3
ssg82
g350
sg75
(lp357
S''
asbasbasbag68
(g84
g70
NtRp358
(dp359
g73
(dp360
sg82
g270
sg75
(lp361
g68
(g89
g70
NtRp362
(dp363
g73
(dp364
g93
g94
ssg82
g358
sg75
(lp365
S'max-age'
p366
asbag68
(g89
g70
NtRp367
(dp368
g73
(dp369
g100
g101
ssg82
g358
sg75
(lp370
S':'
asbag68
(g89
g70
NtRp371
(dp372
g73
(dp373
sg82
g358
sg75
(lp374
g68
(g69
g70
NtRp375
(dp376
g73
(dp377
g81
I3
ssg82
g371
sg75
(lp378
S''
asbasbasbag68
(g84
g70
NtRp379
(dp380
g73
(dp381
sg82
g270
sg75
(lp382
g68
(g89
g70
NtRp383
(dp384
g73
(dp385
g93
g94
ssg82
g379
sg75
(lp386
S'path'
p387
asbag68
(g89
g70
NtRp388
(dp389
g73
(dp390
g100
g101
ssg82
g379
sg75
(lp391
S':'
asbag68
(g89
g70
NtRp392
(dp393
g73
(dp394
sg82
g379
sg75
(lp395
g68
(g69
g70
NtRp396
(dp397
g73
(dp398
g81
I3
ssg82
g392
sg75
(lp399
S''
asbasbasbag68
(g84
g70
NtRp400
(dp401
g73
(dp402
sg82
g270
sg75
(lp403
g68
(g89
g70
NtRp404
(dp405
g73
(dp406
g93
g94
ssg82
g400
sg75
(lp407
S'secure'
p408
asbag68
(g89
g70
NtRp409
(dp410
g73
(dp411
g100
g101
ssg82
g400
sg75
(lp412
S':'
asbag68
(g89
g70
NtRp413
(dp414
g73
(dp415
sg82
g400
sg75
(lp416
g68
(g69
g70
NtRp417
(dp418
g73
(dp419
g81
I3
ssg82
g413
sg75
(lp420
S''
asbasbasbag68
(g84
g70
NtRp421
(dp422
g73
(dp423
sg82
g270
sg75
(lp424
g68
(g89
g70
NtRp425
(dp426
g73
(dp427
g93
g94
ssg82
g421
sg75
(lp428
S'version'
p429
asbag68
(g89
g70
NtRp430
(dp431
g73
(dp432
g100
g101
ssg82
g421
sg75
(lp433
S':'
asbag68
(g89
g70
NtRp434
(dp435
g73
(dp436
sg82
g421
sg75
(lp437
g68
(g69
g70
NtRp438
(dp439
g73
(dp440
g81
I3
ssg82
g434
sg75
(lp441
S''
asbasbasbasbasbasbasbag68
(g84
g70
NtRp442
(dp443
g73
(dp444
sg82
g245
sg75
(lp445
g68
(g89
g70
NtRp446
(dp447
g73
(dp448
g93
g94
ssg82
g442
sg75
(lp449
S'session_id_places'
p450
asbag68
(g89
g70
NtRp451
(dp452
g73
(dp453
g100
g101
ssg82
g442
sg75
(lp454
S':'
asbag68
(g89
g70
NtRp455
(dp456
g73
(dp457
sg82
g442
sg75
(lp458
g68
(g69
g70
NtRp459
(dp460
g73
(dp461
g81
I4
ssg82
g455
sg75
(lp462
g68
(g77
g70
NtRp463
(dp464
g73
(dp465
g81
I3
ssg82
Nsg75
(lp466
g68
(g84
g70
NtRp467
(dp468
g73
(dp469
sg82
g463
sg75
(lp470
g68
(g89
g70
NtRp471
(dp472
g73
(dp473
g93
g94
ssg82
g467
sg75
(lp474
g282
asbag68
(g89
g70
NtRp475
(dp476
g73
(dp477
g100
g101
ssg82
g467
sg75
(lp478
S':'
asbag68
(g89
g70
NtRp479
(dp480
g73
(dp481
sg82
g467
sg75
(lp482
g68
(g69
g70
NtRp483
(dp484
g73
(dp485
g81
I3
ssg82
g479
sg75
(lp486
S''
asbasbasbag68
(g84
g70
NtRp487
(dp488
g73
(dp489
sg82
g463
sg75
(lp490
g68
(g89
g70
NtRp491
(dp492
g73
(dp493
g93
g94
ssg82
g487
sg75
(lp494
g303
asbag68
(g89
g70
NtRp495
(dp496
g73
(dp497
g100
g101
ssg82
g487
sg75
(lp498
S':'
asbag68
(g89
g70
NtRp499
(dp500
g73
(dp501
sg82
g487
sg75
(lp502
g68
(g69
g70
NtRp503
(dp504
g73
(dp505
g81
I3
ssg82
g499
sg75
(lp506
S''
asbasbasbag68
(g84
g70
NtRp507
(dp508
g73
(dp509
sg82
g463
sg75
(lp510
g68
(g89
g70
NtRp511
(dp512
g73
(dp513
g93
g94
ssg82
g507
sg75
(lp514
g324
asbag68
(g89
g70
NtRp515
(dp516
g73
(dp517
g100
g101
ssg82
g507
sg75
(lp518
S':'
asbag68
(g89
g70
NtRp519
(dp520
g73
(dp521
sg82
g507
sg75
(lp522
g68
(g69
g70
NtRp523
(dp524
g73
(dp525
g81
I3
ssg82
g519
sg75
(lp526
S''
asbasbasbag68
(g84
g70
NtRp527
(dp528
g73
(dp529
sg82
g463
sg75
(lp530
g68
(g89
g70
NtRp531
(dp532
g73
(dp533
g93
g94
ssg82
g527
sg75
(lp534
g345
asbag68
(g89
g70
NtRp535
(dp536
g73
(dp537
g100
g101
ssg82
g527
sg75
(lp538
S':'
asbag68
(g89
g70
NtRp539
(dp540
g73
(dp541
sg82
g527
sg75
(lp542
g68
(g69
g70
NtRp543
(dp544
g73
(dp545
g81
I3
ssg82
g539
sg75
(lp546
S''
asbasbasbag68
(g84
g70
NtRp547
(dp548
g73
(dp549
sg82
g463
sg75
(lp550
g68
(g89
g70
NtRp551
(dp552
g73
(dp553
g93
g94
ssg82
g547
sg75
(lp554
g366
asbag68
(g89
g70
NtRp555
(dp556
g73
(dp557
g100
g101
ssg82
g547
sg75
(lp558
S':'
asbag68
(g89
g70
NtRp559
(dp560
g73
(dp561
sg82
g547
sg75
(lp562
g68
(g69
g70
NtRp563
(dp564
g73
(dp565
g81
I3
ssg82
g559
sg75
(lp566
S''
asbasbasbag68
(g84
g70
NtRp567
(dp568
g73
(dp569
sg82
g463
sg75
(lp570
g68
(g89
g70
NtRp571
(dp572
g73
(dp573
g93
g94
ssg82
g567
sg75
(lp574
g387
asbag68
(g89
g70
NtRp575
(dp576
g73
(dp577
g100
g101
ssg82
g567
sg75
(lp578
S':'
asbag68
(g89
g70
NtRp579
(dp580
g73
(dp581
sg82
g567
sg75
(lp582
g68
(g69
g70
NtRp583
(dp584
g73
(dp585
g81
I3
ssg82
g579
sg75
(lp586
S''
asbasbasbag68
(g84
g70
NtRp587
(dp588
g73
(dp589
sg82
g463
sg75
(lp590
g68
(g89
g70
NtRp591
(dp592
g73
(dp593
g93
g94
ssg82
g587
sg75
(lp594
g408
asbag68
(g89
g70
NtRp595
(dp596
g73
(dp597
g100
g101
ssg82
g587
sg75
(lp598
S':'
asbag68
(g89
g70
NtRp599
(dp600
g73
(dp601
sg82
g587
sg75
(lp602
g68
(g69
g70
NtRp603
(dp604
g73
(dp605
g81
I3
ssg82
g599
sg75
(lp606
S''
asbasbasbag68
(g84
g70
NtRp607
(dp608
g73
(dp609
sg82
g463
sg75
(lp610
g68
(g89
g70
NtRp611
(dp612
g73
(dp613
g93
g94
ssg82
g607
sg75
(lp614
g429
asbag68
(g89
g70
NtRp615
(dp616
g73
(dp617
g100
g101
ssg82
g607
sg75
(lp618
S':'
asbag68
(g89
g70
NtRp619
(dp620
g73
(dp621
sg82
g607
sg75
(lp622
g68
(g69
g70
NtRp623
(dp624
g73
(dp625
g81
I3
ssg82
g619
sg75
(lp626
S''
asbasbasbasbasbasbasbag68
(g84
g70
NtRp627
(dp628
g73
(dp629
sg82
g245
sg75
(lp630
g68
(g89
g70
NtRp631
(dp632
g73
(dp633
g93
g94
ssg82
g627
sg75
(lp634
S'session_id_welcome'
p635
asbag68
(g89
g70
NtRp636
(dp637
g73
(dp638
g100
g101
ssg82
g627
sg75
(lp639
S':'
asbag68
(g89
g70
NtRp640
(dp641
g73
(dp642
sg82
g627
sg75
(lp643
g68
(g69
g70
NtRp644
(dp645
g73
(dp646
g81
I4
ssg82
g640
sg75
(lp647
g68
(g77
g70
NtRp648
(dp649
g73
(dp650
g81
I3
ssg82
Nsg75
(lp651
g68
(g84
g70
NtRp652
(dp653
g73
(dp654
sg82
g648
sg75
(lp655
g68
(g89
g70
NtRp656
(dp657
g73
(dp658
g93
g94
ssg82
g652
sg75
(lp659
g282
asbag68
(g89
g70
NtRp660
(dp661
g73
(dp662
g100
g101
ssg82
g652
sg75
(lp663
S':'
asbag68
(g89
g70
NtRp664
(dp665
g73
(dp666
sg82
g652
sg75
(lp667
g68
(g69
g70
NtRp668
(dp669
g73
(dp670
g81
I3
ssg82
g664
sg75
(lp671
S''
asbasbasbag68
(g84
g70
NtRp672
(dp673
g73
(dp674
sg82
g648
sg75
(lp675
g68
(g89
g70
NtRp676
(dp677
g73
(dp678
g93
g94
ssg82
g672
sg75
(lp679
g303
asbag68
(g89
g70
NtRp680
(dp681
g73
(dp682
g100
g101
ssg82
g672
sg75
(lp683
S':'
asbag68
(g89
g70
NtRp684
(dp685
g73
(dp686
sg82
g672
sg75
(lp687
g68
(g69
g70
NtRp688
(dp689
g73
(dp690
g81
I3
ssg82
g684
sg75
(lp691
S''
asbasbasbag68
(g84
g70
NtRp692
(dp693
g73
(dp694
sg82
g648
sg75
(lp695
g68
(g89
g70
NtRp696
(dp697
g73
(dp698
g93
g94
ssg82
g692
sg75
(lp699
g324
asbag68
(g89
g70
NtRp700
(dp701
g73
(dp702
g100
g101
ssg82
g692
sg75
(lp703
S':'
asbag68
(g89
g70
NtRp704
(dp705
g73
(dp706
sg82
g692
sg75
(lp707
g68
(g69
g70
NtRp708
(dp709
g73
(dp710
g81
I3
ssg82
g704
sg75
(lp711
S''
asbasbasbag68
(g84
g70
NtRp712
(dp713
g73
(dp714
sg82
g648
sg75
(lp715
g68
(g89
g70
NtRp716
(dp717
g73
(dp718
g93
g94
ssg82
g712
sg75
(lp719
g345
asbag68
(g89
g70
NtRp720
(dp721
g73
(dp722
g100
g101
ssg82
g712
sg75
(lp723
S':'
asbag68
(g89
g70
NtRp724
(dp725
g73
(dp726
sg82
g712
sg75
(lp727
g68
(g69
g70
NtRp728
(dp729
g73
(dp730
g81
I3
ssg82
g724
sg75
(lp731
S''
asbasbasbag68
(g84
g70
NtRp732
(dp733
g73
(dp734
sg82
g648
sg75
(lp735
g68
(g89
g70
NtRp736
(dp737
g73
(dp738
g93
g94
ssg82
g732
sg75
(lp739
g366
asbag68
(g89
g70
NtRp740
(dp741
g73
(dp742
g100
g101
ssg82
g732
sg75
(lp743
S':'
asbag68
(g89
g70
NtRp744
(dp745
g73
(dp746
sg82
g732
sg75
(lp747
g68
(g69
g70
NtRp748
(dp749
g73
(dp750
g81
I3
ssg82
g744
sg75
(lp751
S''
asbasbasbag68
(g84
g70
NtRp752
(dp753
g73
(dp754
sg82
g648
sg75
(lp755
g68
(g89
g70
NtRp756
(dp757
g73
(dp758
g93
g94
ssg82
g752
sg75
(lp759
g387
asbag68
(g89
g70
NtRp760
(dp761
g73
(dp762
g100
g101
ssg82
g752
sg75
(lp763
S':'
asbag68
(g89
g70
NtRp764
(dp765
g73
(dp766
sg82
g752
sg75
(lp767
g68
(g69
g70
NtRp768
(dp769
g73
(dp770
g81
I3
ssg82
g764
sg75
(lp771
S''
asbasbasbag68
(g84
g70
NtRp772
(dp773
g73
(dp774
sg82
g648
sg75
(lp775
g68
(g89
g70
NtRp776
(dp777
g73
(dp778
g93
g94
ssg82
g772
sg75
(lp779
g408
asbag68
(g89
g70
NtRp780
(dp781
g73
(dp782
g100
g101
ssg82
g772
sg75
(lp783
S':'
asbag68
(g89
g70
NtRp784
(dp785
g73
(dp786
sg82
g772
sg75
(lp787
g68
(g69
g70
NtRp788
(dp789
g73
(dp790
g81
I3
ssg82
g784
sg75
(lp791
S''
asbasbasbag68
(g84
g70
NtRp792
(dp793
g73
(dp794
sg82
g648
sg75
(lp795
g68
(g89
g70
NtRp796
(dp797
g73
(dp798
g93
g94
ssg82
g792
sg75
(lp799
g429
asbag68
(g89
g70
NtRp800
(dp801
g73
(dp802
g100
g101
ssg82
g792
sg75
(lp803
S':'
asbag68
(g89
g70
NtRp804
(dp805
g73
(dp806
sg82
g792
sg75
(lp807
g68
(g69
g70
NtRp808
(dp809
g73
(dp810
g81
I3
ssg82
g804
sg75
(lp811
S''
asbasbasbasbasbasbasbasbasbasbasbag68
(g84
g70
NtRp812
(dp813
g73
(dp814
sg82
g78
sg75
(lp815
g68
(g89
g70
NtRp816
(dp817
g73
(dp818
g93
g94
ssg82
g812
sg75
(lp819
S'env'
p820
asbag68
(g89
g70
NtRp821
(dp822
g73
(dp823
g100
g101
ssg82
g812
sg75
(lp824
S':'
asbag68
(g89
g70
NtRp825
(dp826
g73
(dp827
sg82
g812
sg75
(lp828
g68
(g69
g70
NtRp829
(dp830
g73
(dp831
g81
I5
ssg82
g825
sg75
(lp832
g68
(g77
g70
NtRp833
(dp834
g73
(dp835
g81
I4
ssg82
Nsg75
(lp836
g68
(g84
g70
NtRp837
(dp838
g73
(dp839
sg82
g833
sg75
(lp840
g68
(g89
g70
NtRp841
(dp842
g73
(dp843
g93
g94
ssg82
g837
sg75
(lp844
S'app_folders'
p845
asbag68
(g89
g70
NtRp846
(dp847
g73
(dp848
g100
g101
ssg82
g837
sg75
(lp849
S':'
asbag68
(g89
g70
NtRp850
(dp851
g73
(dp852
sg82
g837
sg75
(lp853
g68
(g69
g70
NtRp854
(dp855
g73
(dp856
g81
I4
ssg82
g850
sg75
(lp857
S"set(['/home/ian/web2py/applications/welcome/', '/home/ian/web2py/applications/places/', '/home/ian/web2py/applications/admin/'])"
p858
asbasbasbag68
(g84
g70
NtRp859
(dp860
g73
(dp861
sg82
g833
sg75
(lp862
g68
(g89
g70
NtRp863
(dp864
g73
(dp865
g93
g94
ssg82
g859
sg75
(lp866
S'applications_parent'
p867
asbag68
(g89
g70
NtRp868
(dp869
g73
(dp870
g100
g101
ssg82
g859
sg75
(lp871
S':'
asbag68
(g89
g70
NtRp872
(dp873
g73
(dp874
sg82
g859
sg75
(lp875
g68
(g69
g70
NtRp876
(dp877
g73
(dp878
g81
I4
ssg82
g872
sg75
(lp879
S'/home/ian/web2py'
p880
asbasbasbag68
(g84
g70
NtRp881
(dp882
g73
(dp883
sg82
g833
sg75
(lp884
g68
(g89
g70
NtRp885
(dp886
g73
(dp887
g93
g94
ssg82
g881
sg75
(lp888
S'cmd_args'
p889
asbag68
(g89
g70
NtRp890
(dp891
g73
(dp892
g100
g101
ssg82
g881
sg75
(lp893
S':'
asbag68
(g89
g70
NtRp894
(dp895
g73
(dp896
sg82
g881
sg75
(lp897
g68
(g69
g70
NtRp898
(dp899
g73
(dp900
g81
I4
ssg82
g894
sg75
(lp901
g68
(g77
g70
NtRp902
(dp903
g73
(dp904
g81
I3
ssg82
Nsg75
(lp905
sbasbasbasbag68
(g84
g70
NtRp906
(dp907
g73
(dp908
sg82
g833
sg75
(lp909
g68
(g89
g70
NtRp910
(dp911
g73
(dp912
g93
g94
ssg82
g906
sg75
(lp913
S'cmd_options'
p914
asbag68
(g89
g70
NtRp915
(dp916
g73
(dp917
g100
g101
ssg82
g906
sg75
(lp918
S':'
asbag68
(g89
g70
NtRp919
(dp920
g73
(dp921
sg82
g906
sg75
(lp922
g68
(g69
g70
NtRp923
(dp924
g73
(dp925
g81
I4
ssg82
g919
sg75
(lp926
S"<Values at 0x2be17e8: {'verbose': False, 'ip': '127.0.0.1', 'shutdown_timeout': 5, 'taskbar': False, 'nocron': False, 'pid_filename': 'httpserver.pid', 'maxthreads': None, 'softcron': False, 'server_name': 'Ariel-ubuntu', 'bpython': False, 'nogui': False, 'port': 8000, 'extcron': False, 'debuglevel': 30, 'test': None, 'folder': '/home/ian/web2py', 'config': '', 'import_models': False, 'winservice': '', 'shell': None, 'run': '', 'log_filename': 'httpserver.log', 'args': [''], 'ssl_ca_certificate': None, 'scheduler': None, 'profiler_filename': None, 'ssl_private_key': '', 'password': '<ask>', 'request_queue_size': 5, 'ssl_certificate': '', 'cronjob': False, 'plain': False, 'quiet': False, 'interfaces': None, 'minthreads': None, 'timeout': 10, 'numthreads': None, 'nobanner': False}>"
p927
asbasbasbag68
(g84
g70
NtRp928
(dp929
g73
(dp930
sg82
g833
sg75
(lp931
g68
(g89
g70
NtRp932
(dp933
g73
(dp934
g93
g94
ssg82
g928
sg75
(lp935
S'db_sessions'
p936
asbag68
(g89
g70
NtRp937
(dp938
g73
(dp939
g100
g101
ssg82
g928
sg75
(lp940
S':'
asbag68
(g89
g70
NtRp941
(dp942
g73
(dp943
sg82
g928
sg75
(lp944
g68
(g69
g70
NtRp945
(dp946
g73
(dp947
g81
I4
ssg82
g941
sg75
(lp948
S'set([])'
p949
asbasbasbag68
(g84
g70
NtRp950
(dp951
g73
(dp952
sg82
g833
sg75
(lp953
g68
(g89
g70
NtRp954
(dp955
g73
(dp956
g93
g94
ssg82
g950
sg75
(lp957
S'debugging'
p958
asbag68
(g89
g70
NtRp959
(dp960
g73
(dp961
g100
g101
ssg82
g950
sg75
(lp962
S':'
asbag68
(g89
g70
NtRp963
(dp964
g73
(dp965
sg82
g950
sg75
(lp966
g68
(g69
g70
NtRp967
(dp968
g73
(dp969
g81
I4
ssg82
g963
sg75
(lp970
g111
asbasbasbag68
(g84
g70
NtRp971
(dp972
g73
(dp973
sg82
g833
sg75
(lp974
g68
(g89
g70
NtRp975
(dp976
g73
(dp977
g93
g94
ssg82
g971
sg75
(lp978
S'gluon_parent'
p979
asbag68
(g89
g70
NtRp980
(dp981
g73
(dp982
g100
g101
ssg82
g971
sg75
(lp983
S':'
asbag68
(g89
g70
NtRp984
(dp985
g73
(dp986
sg82
g971
sg75
(lp987
g68
(g69
g70
NtRp988
(dp989
g73
(dp990
g81
I4
ssg82
g984
sg75
(lp991
S'/home/ian/web2py'
p992
asbasbasbag68
(g84
g70
NtRp993
(dp994
g73
(dp995
sg82
g833
sg75
(lp996
g68
(g89
g70
NtRp997
(dp998
g73
(dp999
g93
g94
ssg82
g993
sg75
(lp1000
S'http_accept'
p1001
asbag68
(g89
g70
NtRp1002
(dp1003
g73
(dp1004
g100
g101
ssg82
g993
sg75
(lp1005
S':'
asbag68
(g89
g70
NtRp1006
(dp1007
g73
(dp1008
sg82
g993
sg75
(lp1009
g68
(g69
g70
NtRp1010
(dp1011
g73
(dp1012
g81
I4
ssg82
g1006
sg75
(lp1013
S'text/html,application/xhtml+xml,application/xml;q=0.9,*/*;q=0.8'
p1014
asbasbasbag68
(g84
g70
NtRp1015
(dp1016
g73
(dp1017
sg82
g833
sg75
(lp1018
g68
(g89
g70
NtRp1019
(dp1020
g73
(dp1021
g93
g94
ssg82
g1015
sg75
(lp1022
S'http_accept_encoding'
p1023
asbag68
(g89
g70
NtRp1024
(dp1025
g73
(dp1026
g100
g101
ssg82
g1015
sg75
(lp1027
S':'
asbag68
(g89
g70
NtRp1028
(dp1029
g73
(dp1030
sg82
g1015
sg75
(lp1031
g68
(g69
g70
NtRp1032
(dp1033
g73
(dp1034
g81
I4
ssg82
g1028
sg75
(lp1035
S'gzip, deflate'
p1036
asbasbasbag68
(g84
g70
NtRp1037
(dp1038
g73
(dp1039
sg82
g833
sg75
(lp1040
g68
(g89
g70
NtRp1041
(dp1042
g73
(dp1043
g93
g94
ssg82
g1037
sg75
(lp1044
S'http_accept_language'
p1045
asbag68
(g89
g70
NtRp1046
(dp1047
g73
(dp1048
g100
g101
ssg82
g1037
sg75
(lp1049
S':'
asbag68
(g89
g70
NtRp1050
(dp1051
g73
(dp1052
sg82
g1037
sg75
(lp1053
g68
(g69
g70
NtRp1054
(dp1055
g73
(dp1056
g81
I4
ssg82
g1050
sg75
(lp1057
S'en-us,en;q=0.5'
p1058
asbasbasbag68
(g84
g70
NtRp1059
(dp1060
g73
(dp1061
sg82
g833
sg75
(lp1062
g68
(g89
g70
NtRp1063
(dp1064
g73
(dp1065
g93
g94
ssg82
g1059
sg75
(lp1066
S'http_cache_control'
p1067
asbag68
(g89
g70
NtRp1068
(dp1069
g73
(dp1070
g100
g101
ssg82
g1059
sg75
(lp1071
S':'
asbag68
(g89
g70
NtRp1072
(dp1073
g73
(dp1074
sg82
g1059
sg75
(lp1075
g68
(g69
g70
NtRp1076
(dp1077
g73
(dp1078
g81
I4
ssg82
g1072
sg75
(lp1079
S'max-age=0'
p1080
asbasbasbag68
(g84
g70
NtRp1081
(dp1082
g73
(dp1083
sg82
g833
sg75
(lp1084
g68
(g89
g70
NtRp1085
(dp1086
g73
(dp1087
g93
g94
ssg82
g1081
sg75
(lp1088
S'http_connection'
p1089
asbag68
(g89
g70
NtRp1090
(dp1091
g73
(dp1092
g100
g101
ssg82
g1081
sg75
(lp1093
S':'
asbag68
(g89
g70
NtRp1094
(dp1095
g73
(dp1096
sg82
g1081
sg75
(lp1097
g68
(g69
g70
NtRp1098
(dp1099
g73
(dp1100
g81
I4
ssg82
g1094
sg75
(lp1101
S'keep-alive'
p1102
asbasbasbag68
(g84
g70
NtRp1103
(dp1104
g73
(dp1105
sg82
g833
sg75
(lp1106
g68
(g89
g70
NtRp1107
(dp1108
g73
(dp1109
g93
g94
ssg82
g1103
sg75
(lp1110
S'http_cookie'
p1111
asbag68
(g89
g70
NtRp1112
(dp1113
g73
(dp1114
g100
g101
ssg82
g1103
sg75
(lp1115
S':'
asbag68
(g89
g70
NtRp1116
(dp1117
g73
(dp1118
sg82
g1103
sg75
(lp1119
g68
(g69
g70
NtRp1120
(dp1121
g73
(dp1122
g81
I4
ssg82
g1116
sg75
(lp1123
S'session_id_welcome=127.0.0.1-c4eb98f9-5401-448e-a44d-71e8e40d32b1; session_id_places=127.0.0.1-2ef81ebd-a463-477a-899c-f99f9f905f36; session_id_admin=127.0.0.1-8c0ae9df-55f2-42e4-b2ef-4fefeea6e498'
p1124
asbasbasbag68
(g84
g70
NtRp1125
(dp1126
g73
(dp1127
sg82
g833
sg75
(lp1128
g68
(g89
g70
NtRp1129
(dp1130
g73
(dp1131
g93
g94
ssg82
g1125
sg75
(lp1132
S'http_host'
p1133
asbag68
(g89
g70
NtRp1134
(dp1135
g73
(dp1136
g100
g101
ssg82
g1125
sg75
(lp1137
S':'
asbag68
(g89
g70
NtRp1138
(dp1139
g73
(dp1140
sg82
g1125
sg75
(lp1141
g68
(g69
g70
NtRp1142
(dp1143
g73
(dp1144
g81
I4
ssg82
g1138
sg75
(lp1145
S'127.0.0.1:8000'
p1146
asbasbasbag68
(g84
g70
NtRp1147
(dp1148
g73
(dp1149
sg82
g833
sg75
(lp1150
g68
(g89
g70
NtRp1151
(dp1152
g73
(dp1153
g93
g94
ssg82
g1147
sg75
(lp1154
S'http_user_agent'
p1155
asbag68
(g89
g70
NtRp1156
(dp1157
g73
(dp1158
g100
g101
ssg82
g1147
sg75
(lp1159
S':'
asbag68
(g89
g70
NtRp1160
(dp1161
g73
(dp1162
sg82
g1147
sg75
(lp1163
g68
(g69
g70
NtRp1164
(dp1165
g73
(dp1166
g81
I4
ssg82
g1160
sg75
(lp1167
S'Mozilla/5.0 (Ubuntu; X11; Linux x86_64; rv:9.0a2) Gecko/20111020 Firefox/9.0a2'
p1168
asbasbasbag68
(g84
g70
NtRp1169
(dp1170
g73
(dp1171
sg82
g833
sg75
(lp1172
g68
(g89
g70
NtRp1173
(dp1174
g73
(dp1175
g93
g94
ssg82
g1169
sg75
(lp1176
S'is_jython'
p1177
asbag68
(g89
g70
NtRp1178
(dp1179
g73
(dp1180
g100
g101
ssg82
g1169
sg75
(lp1181
S':'
asbag68
(g89
g70
NtRp1182
(dp1183
g73
(dp1184
sg82
g1169
sg75
(lp1185
g68
(g69
g70
NtRp1186
(dp1187
g73
(dp1188
g81
I4
ssg82
g1182
sg75
(lp1189
g111
asbasbasbag68
(g84
g70
NtRp1190
(dp1191
g73
(dp1192
sg82
g833
sg75
(lp1193
g68
(g89
g70
NtRp1194
(dp1195
g73
(dp1196
g93
g94
ssg82
g1190
sg75
(lp1197
S'path_info'
p1198
asbag68
(g89
g70
NtRp1199
(dp1200
g73
(dp1201
g100
g101
ssg82
g1190
sg75
(lp1202
S':'
asbag68
(g89
g70
NtRp1203
(dp1204
g73
(dp1205
sg82
g1190
sg75
(lp1206
g68
(g69
g70
NtRp1207
(dp1208
g73
(dp1209
g81
I4
ssg82
g1203
sg75
(lp1210
S'/places'
p1211
asbasbasbag68
(g84
g70
NtRp1212
(dp1213
g73
(dp1214
sg82
g833
sg75
(lp1215
g68
(g89
g70
NtRp1216
(dp1217
g73
(dp1218
g93
g94
ssg82
g1212
sg75
(lp1219
S'query_string'
p1220
asbag68
(g89
g70
NtRp1221
(dp1222
g73
(dp1223
g100
g101
ssg82
g1212
sg75
(lp1224
S':'
asbag68
(g89
g70
NtRp1225
(dp1226
g73
(dp1227
sg82
g1212
sg75
(lp1228
g68
(g69
g70
NtRp1229
(dp1230
g73
(dp1231
g81
I4
ssg82
g1225
sg75
(lp1232
S''
asbasbasbag68
(g84
g70
NtRp1233
(dp1234
g73
(dp1235
sg82
g833
sg75
(lp1236
g68
(g89
g70
NtRp1237
(dp1238
g73
(dp1239
g93
g94
ssg82
g1233
sg75
(lp1240
S'remote_addr'
p1241
asbag68
(g89
g70
NtRp1242
(dp1243
g73
(dp1244
g100
g101
ssg82
g1233
sg75
(lp1245
S':'
asbag68
(g89
g70
NtRp1246
(dp1247
g73
(dp1248
sg82
g1233
sg75
(lp1249
g68
(g69
g70
NtRp1250
(dp1251
g73
(dp1252
g81
I4
ssg82
g1246
sg75
(lp1253
g201
asbasbasbag68
(g84
g70
NtRp1254
(dp1255
g73
(dp1256
sg82
g833
sg75
(lp1257
g68
(g89
g70
NtRp1258
(dp1259
g73
(dp1260
g93
g94
ssg82
g1254
sg75
(lp1261
S'remote_port'
p1262
asbag68
(g89
g70
NtRp1263
(dp1264
g73
(dp1265
g100
g101
ssg82
g1254
sg75
(lp1266
S':'
asbag68
(g89
g70
NtRp1267
(dp1268
g73
(dp1269
sg82
g1254
sg75
(lp1270
g68
(g69
g70
NtRp1271
(dp1272
g73
(dp1273
g81
I4
ssg82
g1267
sg75
(lp1274
S'44300'
p1275
asbasbasbag68
(g84
g70
NtRp1276
(dp1277
g73
(dp1278
sg82
g833
sg75
(lp1279
g68
(g89
g70
NtRp1280
(dp1281
g73
(dp1282
g93
g94
ssg82
g1276
sg75
(lp1283
S'request_method'
p1284
asbag68
(g89
g70
NtRp1285
(dp1286
g73
(dp1287
g100
g101
ssg82
g1276
sg75
(lp1288
S':'
asbag68
(g89
g70
NtRp1289
(dp1290
g73
(dp1291
sg82
g1276
sg75
(lp1292
g68
(g69
g70
NtRp1293
(dp1294
g73
(dp1295
g81
I4
ssg82
g1289
sg75
(lp1296
S'GET'
p1297
asbasbasbag68
(g84
g70
NtRp1298
(dp1299
g73
(dp1300
sg82
g833
sg75
(lp1301
g68
(g89
g70
NtRp1302
(dp1303
g73
(dp1304
g93
g94
ssg82
g1298
sg75
(lp1305
S'script_name'
p1306
asbag68
(g89
g70
NtRp1307
(dp1308
g73
(dp1309
g100
g101
ssg82
g1298
sg75
(lp1310
S':'
asbag68
(g89
g70
NtRp1311
(dp1312
g73
(dp1313
sg82
g1298
sg75
(lp1314
g68
(g69
g70
NtRp1315
(dp1316
g73
(dp1317
g81
I4
ssg82
g1311
sg75
(lp1318
S''
asbasbasbag68
(g84
g70
NtRp1319
(dp1320
g73
(dp1321
sg82
g833
sg75
(lp1322
g68
(g89
g70
NtRp1323
(dp1324
g73
(dp1325
g93
g94
ssg82
g1319
sg75
(lp1326
S'server_name'
p1327
asbag68
(g89
g70
NtRp1328
(dp1329
g73
(dp1330
g100
g101
ssg82
g1319
sg75
(lp1331
S':'
asbag68
(g89
g70
NtRp1332
(dp1333
g73
(dp1334
sg82
g1319
sg75
(lp1335
g68
(g69
g70
NtRp1336
(dp1337
g73
(dp1338
g81
I4
ssg82
g1332
sg75
(lp1339
S'Ariel-ubuntu'
p1340
asbasbasbag68
(g84
g70
NtRp1341
(dp1342
g73
(dp1343
sg82
g833
sg75
(lp1344
g68
(g89
g70
NtRp1345
(dp1346
g73
(dp1347
g93
g94
ssg82
g1341
sg75
(lp1348
S'server_port'
p1349
asbag68
(g89
g70
NtRp1350
(dp1351
g73
(dp1352
g100
g101
ssg82
g1341
sg75
(lp1353
S':'
asbag68
(g89
g70
NtRp1354
(dp1355
g73
(dp1356
sg82
g1341
sg75
(lp1357
g68
(g69
g70
NtRp1358
(dp1359
g73
(dp1360
g81
I4
ssg82
g1354
sg75
(lp1361
S'8000'
p1362
asbasbasbag68
(g84
g70
NtRp1363
(dp1364
g73
(dp1365
sg82
g833
sg75
(lp1366
g68
(g89
g70
NtRp1367
(dp1368
g73
(dp1369
g93
g94
ssg82
g1363
sg75
(lp1370
S'server_protocol'
p1371
asbag68
(g89
g70
NtRp1372
(dp1373
g73
(dp1374
g100
g101
ssg82
g1363
sg75
(lp1375
S':'
asbag68
(g89
g70
NtRp1376
(dp1377
g73
(dp1378
sg82
g1363
sg75
(lp1379
g68
(g69
g70
NtRp1380
(dp1381
g73
(dp1382
g81
I4
ssg82
g1376
sg75
(lp1383
S'HTTP/1.1'
p1384
asbasbasbag68
(g84
g70
NtRp1385
(dp1386
g73
(dp1387
sg82
g833
sg75
(lp1388
g68
(g89
g70
NtRp1389
(dp1390
g73
(dp1391
g93
g94
ssg82
g1385
sg75
(lp1392
S'server_software'
p1393
asbag68
(g89
g70
NtRp1394
(dp1395
g73
(dp1396
g100
g101
ssg82
g1385
sg75
(lp1397
S':'
asbag68
(g89
g70
NtRp1398
(dp1399
g73
(dp1400
sg82
g1385
sg75
(lp1401
g68
(g69
g70
NtRp1402
(dp1403
g73
(dp1404
g81
I4
ssg82
g1398
sg75
(lp1405
S'Rocket 1.2.4'
p1406
asbasbasbag68
(g84
g70
NtRp1407
(dp1408
g73
(dp1409
sg82
g833
sg75
(lp1410
g68
(g89
g70
NtRp1411
(dp1412
g73
(dp1413
g93
g94
ssg82
g1407
sg75
(lp1414
S'web2py_crontype'
p1415
asbag68
(g89
g70
NtRp1416
(dp1417
g73
(dp1418
g100
g101
ssg82
g1407
sg75
(lp1419
S':'
asbag68
(g89
g70
NtRp1420
(dp1421
g73
(dp1422
sg82
g1407
sg75
(lp1423
g68
(g69
g70
NtRp1424
(dp1425
g73
(dp1426
g81
I4
ssg82
g1420
sg75
(lp1427
S'hard'
p1428
asbasbasbag68
(g84
g70
NtRp1429
(dp1430
g73
(dp1431
sg82
g833
sg75
(lp1432
g68
(g89
g70
NtRp1433
(dp1434
g73
(dp1435
g93
g94
ssg82
g1429
sg75
(lp1436
S'web2py_path'
p1437
asbag68
(g89
g70
NtRp1438
(dp1439
g73
(dp1440
g100
g101
ssg82
g1429
sg75
(lp1441
S':'
asbag68
(g89
g70
NtRp1442
(dp1443
g73
(dp1444
sg82
g1429
sg75
(lp1445
g68
(g69
g70
NtRp1446
(dp1447
g73
(dp1448
g81
I4
ssg82
g1442
sg75
(lp1449
g880
asbasbasbag68
(g84
g70
NtRp1450
(dp1451
g73
(dp1452
sg82
g833
sg75
(lp1453
g68
(g89
g70
NtRp1454
(dp1455
g73
(dp1456
g93
g94
ssg82
g1450
sg75
(lp1457
S'web2py_version'
p1458
asbag68
(g89
g70
NtRp1459
(dp1460
g73
(dp1461
g100
g101
ssg82
g1450
sg75
(lp1462
S':'
asbag68
(g89
g70
NtRp1463
(dp1464
g73
(dp1465
sg82
g1450
sg75
(lp1466
g68
(g69
g70
NtRp1467
(dp1468
g73
(dp1469
g81
I4
ssg82
g1463
sg75
(lp1470
g68
(g77
g70
NtRp1471
(dp1472
g73
(dp1473
g81
I3
ssg82
Nsg75
(lp1474
g68
(g84
g70
NtRp1475
(dp1476
g73
(dp1477
sg82
g1471
sg75
(lp1478
g68
(g89
g70
NtRp1479
(dp1480
g73
(dp1481
sg82
g1475
sg75
(lp1482
g68
(g69
g70
NtRp1483
(dp1484
g73
(dp1485
g81
I3
ssg82
g1479
sg75
(lp1486
S'1'
asbasbasbag68
(g84
g70
NtRp1487
(dp1488
g73
(dp1489
sg82
g1471
sg75
(lp1490
g68
(g89
g70
NtRp1491
(dp1492
g73
(dp1493
sg82
g1487
sg75
(lp1494
g68
(g69
g70
NtRp1495
(dp1496
g73
(dp1497
g81
I3
ssg82
g1491
sg75
(lp1498
S'99'
p1499
asbasbasbag68
(g84
g70
NtRp1500
(dp1501
g73
(dp1502
sg82
g1471
sg75
(lp1503
g68
(g89
g70
NtRp1504
(dp1505
g73
(dp1506
sg82
g1500
sg75
(lp1507
g68
(g69
g70
NtRp1508
(dp1509
g73
(dp1510
g81
I3
ssg82
g1504
sg75
(lp1511
S'2'
asbasbasbag68
(g84
g70
NtRp1512
(dp1513
g73
(dp1514
sg82
g1471
sg75
(lp1515
g68
(g89
g70
NtRp1516
(dp1517
g73
(dp1518
sg82
g1512
sg75
(lp1519
g68
(g69
g70
NtRp1520
(dp1521
g73
(dp1522
g81
I3
ssg82
g1516
sg75
(lp1523
S'datetime.datetime(2011, 9, 26, 6, 55, 33)'
p1524
asbasbasbag68
(g84
g70
NtRp1525
(dp1526
g73
(dp1527
sg82
g1471
sg75
(lp1528
g68
(g89
g70
NtRp1529
(dp1530
g73
(dp1531
sg82
g1525
sg75
(lp1532
g68
(g69
g70
NtRp1533
(dp1534
g73
(dp1535
g81
I3
ssg82
g1529
sg75
(lp1536
S'stable'
p1537
asbasbasbasbasbasbasbag68
(g84
g70
NtRp1538
(dp1539
g73
(dp1540
sg82
g833
sg75
(lp1541
g68
(g89
g70
NtRp1542
(dp1543
g73
(dp1544
g93
g94
ssg82
g1538
sg75
(lp1545
S'wsgi_errors'
p1546
asbag68
(g89
g70
NtRp1547
(dp1548
g73
(dp1549
g100
g101
ssg82
g1538
sg75
(lp1550
S':'
asbag68
(g89
g70
NtRp1551
(dp1552
g73
(dp1553
sg82
g1538
sg75
(lp1554
g68
(g69
g70
NtRp1555
(dp1556
g73
(dp1557
g81
I4
ssg82
g1551
sg75
(lp1558
S"<open file '<stderr>', mode 'w' at 0x7f7d1bc23270>"
p1559
asbasbasbag68
(g84
g70
NtRp1560
(dp1561
g73
(dp1562
sg82
g833
sg75
(lp1563
g68
(g89
g70
NtRp1564
(dp1565
g73
(dp1566
g93
g94
ssg82
g1560
sg75
(lp1567
S'wsgi_file_wrapper'
p1568
asbag68
(g89
g70
NtRp1569
(dp1570
g73
(dp1571
g100
g101
ssg82
g1560
sg75
(lp1572
S':'
asbag68
(g89
g70
NtRp1573
(dp1574
g73
(dp1575
sg82
g1560
sg75
(lp1576
g68
(g69
g70
NtRp1577
(dp1578
g73
(dp1579
g81
I4
ssg82
g1573
sg75
(lp1580
S'<class wsgiref.util.FileWrapper at 0x2aaa808>'
p1581
asbasbasbag68
(g84
g70
NtRp1582
(dp1583
g73
(dp1584
sg82
g833
sg75
(lp1585
g68
(g89
g70
NtRp1586
(dp1587
g73
(dp1588
g93
g94
ssg82
g1582
sg75
(lp1589
S'wsgi_input'
p1590
asbag68
(g89
g70
NtRp1591
(dp1592
g73
(dp1593
g100
g101
ssg82
g1582
sg75
(lp1594
S':'
asbag68
(g89
g70
NtRp1595
(dp1596
g73
(dp1597
sg82
g1582
sg75
(lp1598
g68
(g69
g70
NtRp1599
(dp1600
g73
(dp1601
g81
I4
ssg82
g1595
sg75
(lp1602
S'<socket._fileobject object at 0x358cad0>'
p1603
asbasbasbag68
(g84
g70
NtRp1604
(dp1605
g73
(dp1606
sg82
g833
sg75
(lp1607
g68
(g89
g70
NtRp1608
(dp1609
g73
(dp1610
g93
g94
ssg82
g1604
sg75
(lp1611
S'wsgi_multiprocess'
p1612
asbag68
(g89
g70
NtRp1613
(dp1614
g73
(dp1615
g100
g101
ssg82
g1604
sg75
(lp1616
S':'
asbag68
(g89
g70
NtRp1617
(dp1618
g73
(dp1619
sg82
g1604
sg75
(lp1620
g68
(g69
g70
NtRp1621
(dp1622
g73
(dp1623
g81
I4
ssg82
g1617
sg75
(lp1624
g111
asbasbasbag68
(g84
g70
NtRp1625
(dp1626
g73
(dp1627
sg82
g833
sg75
(lp1628
g68
(g89
g70
NtRp1629
(dp1630
g73
(dp1631
g93
g94
ssg82
g1625
sg75
(lp1632
S'wsgi_multithread'
p1633
asbag68
(g89
g70
NtRp1634
(dp1635
g73
(dp1636
g100
g101
ssg82
g1625
sg75
(lp1637
S':'
asbag68
(g89
g70
NtRp1638
(dp1639
g73
(dp1640
sg82
g1625
sg75
(lp1641
g68
(g69
g70
NtRp1642
(dp1643
g73
(dp1644
g81
I4
ssg82
g1638
sg75
(lp1645
S'True'
p1646
asbasbasbag68
(g84
g70
NtRp1647
(dp1648
g73
(dp1649
sg82
g833
sg75
(lp1650
g68
(g89
g70
NtRp1651
(dp1652
g73
(dp1653
g93
g94
ssg82
g1647
sg75
(lp1654
S'wsgi_run_once'
p1655
asbag68
(g89
g70
NtRp1656
(dp1657
g73
(dp1658
g100
g101
ssg82
g1647
sg75
(lp1659
S':'
asbag68
(g89
g70
NtRp1660
(dp1661
g73
(dp1662
sg82
g1647
sg75
(lp1663
g68
(g69
g70
NtRp1664
(dp1665
g73
(dp1666
g81
I4
ssg82
g1660
sg75
(lp1667
g111
asbasbasbag68
(g84
g70
NtRp1668
(dp1669
g73
(dp1670
sg82
g833
sg75
(lp1671
g68
(g89
g70
NtRp1672
(dp1673
g73
(dp1674
g93
g94
ssg82
g1668
sg75
(lp1675
S'wsgi_url_scheme'
p1676
asbag68
(g89
g70
NtRp1677
(dp1678
g73
(dp1679
g100
g101
ssg82
g1668
sg75
(lp1680
S':'
asbag68
(g89
g70
NtRp1681
(dp1682
g73
(dp1683
sg82
g1668
sg75
(lp1684
g68
(g69
g70
NtRp1685
(dp1686
g73
(dp1687
g81
I4
ssg82
g1681
sg75
(lp1688
S'http'
p1689
asbasbasbag68
(g84
g70
NtRp1690
(dp1691
g73
(dp1692
sg82
g833
sg75
(lp1693
g68
(g89
g70
NtRp1694
(dp1695
g73
(dp1696
g93
g94
ssg82
g1690
sg75
(lp1697
S'wsgi_version'
p1698
asbag68
(g89
g70
NtRp1699
(dp1700
g73
(dp1701
g100
g101
ssg82
g1690
sg75
(lp1702
S':'
asbag68
(g89
g70
NtRp1703
(dp1704
g73
(dp1705
sg82
g1690
sg75
(lp1706
g68
(g69
g70
NtRp1707
(dp1708
g73
(dp1709
g81
I4
ssg82
g1703
sg75
(lp1710
g68
(g77
g70
NtRp1711
(dp1712
g73
(dp1713
g81
I3
ssg82
Nsg75
(lp1714
g68
(g84
g70
NtRp1715
(dp1716
g73
(dp1717
sg82
g1711
sg75
(lp1718
g68
(g89
g70
NtRp1719
(dp1720
g73
(dp1721
sg82
g1715
sg75
(lp1722
g68
(g69
g70
NtRp1723
(dp1724
g73
(dp1725
g81
I3
ssg82
g1719
sg75
(lp1726
S'1'
asbasbasbag68
(g84
g70
NtRp1727
(dp1728
g73
(dp1729
sg82
g1711
sg75
(lp1730
g68
(g89
g70
NtRp1731
(dp1732
g73
(dp1733
sg82
g1727
sg75
(lp1734
g68
(g69
g70
NtRp1735
(dp1736
g73
(dp1737
g81
I3
ssg82
g1731
sg75
(lp1738
S'0'
asbasbasbasbasbasbasbasbasbasbasbag68
(g84
g70
NtRp1739
(dp1740
g73
(dp1741
sg82
g78
sg75
(lp1742
g68
(g89
g70
NtRp1743
(dp1744
g73
(dp1745
g93
g94
ssg82
g1739
sg75
(lp1746
S'extension'
p1747
asbag68
(g89
g70
NtRp1748
(dp1749
g73
(dp1750
g100
g101
ssg82
g1739
sg75
(lp1751
S':'
asbag68
(g89
g70
NtRp1752
(dp1753
g73
(dp1754
sg82
g1739
sg75
(lp1755
g68
(g69
g70
NtRp1756
(dp1757
g73
(dp1758
g81
I5
ssg82
g1752
sg75
(lp1759
S'html'
p1760
asbasbasbag68
(g84
g70
NtRp1761
(dp1762
g73
(dp1763
sg82
g78
sg75
(lp1764
g68
(g89
g70
NtRp1765
(dp1766
g73
(dp1767
g93
g94
ssg82
g1761
sg75
(lp1768
S'folder'
p1769
asbag68
(g89
g70
NtRp1770
(dp1771
g73
(dp1772
g100
g101
ssg82
g1761
sg75
(lp1773
S':'
asbag68
(g89
g70
NtRp1774
(dp1775
g73
(dp1776
sg82
g1761
sg75
(lp1777
g68
(g69
g70
NtRp1778
(dp1779
g73
(dp1780
g81
I5
ssg82
g1774
sg75
(lp1781
S'/home/ian/web2py/applications/places/'
p1782
asbasbasbag68
(g84
g70
NtRp1783
(dp1784
g73
(dp1785
sg82
g78
sg75
(lp1786
g68
(g89
g70
NtRp1787
(dp1788
g73
(dp1789
g93
g94
ssg82
g1783
sg75
(lp1790
S'function'
p1791
asbag68
(g89
g70
NtRp1792
(dp1793
g73
(dp1794
g100
g101
ssg82
g1783
sg75
(lp1795
S':'
asbag68
(g89
g70
NtRp1796
(dp1797
g73
(dp1798
sg82
g1783
sg75
(lp1799
g68
(g69
g70
NtRp1800
(dp1801
g73
(dp1802
g81
I5
ssg82
g1796
sg75
(lp1803
S'index'
p1804
asbasbasbag68
(g84
g70
NtRp1805
(dp1806
g73
(dp1807
sg82
g78
sg75
(lp1808
g68
(g89
g70
NtRp1809
(dp1810
g73
(dp1811
g93
g94
ssg82
g1805
sg75
(lp1812
S'get_vars'
p1813
asbag68
(g89
g70
NtRp1814
(dp1815
g73
(dp1816
g100
g101
ssg82
g1805
sg75
(lp1817
S':'
asbag68
(g89
g70
NtRp1818
(dp1819
g73
(dp1820
sg82
g1805
sg75
(lp1821
g68
(g69
g70
NtRp1822
(dp1823
g73
(dp1824
g81
I5
ssg82
g1818
sg75
(lp1825
g68
(g77
g70
NtRp1826
(dp1827
g73
(dp1828
g81
I4
ssg82
Nsg75
(lp1829
sbasbasbasbag68
(g84
g70
NtRp1830
(dp1831
g73
(dp1832
sg82
g78
sg75
(lp1833
g68
(g89
g70
NtRp1834
(dp1835
g73
(dp1836
g93
g94
ssg82
g1830
sg75
(lp1837
S'global_settings'
p1838
asbag68
(g89
g70
NtRp1839
(dp1840
g73
(dp1841
g100
g101
ssg82
g1830
sg75
(lp1842
S':'
asbag68
(g89
g70
NtRp1843
(dp1844
g73
(dp1845
sg82
g1830
sg75
(lp1846
g68
(g69
g70
NtRp1847
(dp1848
g73
(dp1849
g81
I5
ssg82
g1843
sg75
(lp1850
g68
(g77
g70
NtRp1851
(dp1852
g73
(dp1853
g81
I4
ssg82
Nsg75
(lp1854
g68
(g84
g70
NtRp1855
(dp1856
g73
(dp1857
sg82
g1851
sg75
(lp1858
g68
(g89
g70
NtRp1859
(dp1860
g73
(dp1861
g93
g94
ssg82
g1855
sg75
(lp1862
g845
asbag68
(g89
g70
NtRp1863
(dp1864
g73
(dp1865
g100
g101
ssg82
g1855
sg75
(lp1866
S':'
asbag68
(g89
g70
NtRp1867
(dp1868
g73
(dp1869
sg82
g1855
sg75
(lp1870
g68
(g69
g70
NtRp1871
(dp1872
g73
(dp1873
g81
I4
ssg82
g1867
sg75
(lp1874
S"set(['/home/ian/web2py/applications/welcome/', '/home/ian/web2py/applications/places/', '/home/ian/web2py/applications/admin/'])"
p1875
asbasbasbag68
(g84
g70
NtRp1876
(dp1877
g73
(dp1878
sg82
g1851
sg75
(lp1879
g68
(g89
g70
NtRp1880
(dp1881
g73
(dp1882
g93
g94
ssg82
g1876
sg75
(lp1883
g867
asbag68
(g89
g70
NtRp1884
(dp1885
g73
(dp1886
g100
g101
ssg82
g1876
sg75
(lp1887
S':'
asbag68
(g89
g70
NtRp1888
(dp1889
g73
(dp1890
sg82
g1876
sg75
(lp1891
g68
(g69
g70
NtRp1892
(dp1893
g73
(dp1894
g81
I4
ssg82
g1888
sg75
(lp1895
g880
asbasbasbag68
(g84
g70
NtRp1896
(dp1897
g73
(dp1898
sg82
g1851
sg75
(lp1899
g68
(g89
g70
NtRp1900
(dp1901
g73
(dp1902
g93
g94
ssg82
g1896
sg75
(lp1903
g889
asbag68
(g89
g70
NtRp1904
(dp1905
g73
(dp1906
g100
g101
ssg82
g1896
sg75
(lp1907
S':'
asbag68
(g89
g70
NtRp1908
(dp1909
g73
(dp1910
sg82
g1896
sg75
(lp1911
g68
(g69
g70
NtRp1912
(dp1913
g73
(dp1914
g81
I4
ssg82
g1908
sg75
(lp1915
g68
(g77
g70
NtRp1916
(dp1917
g73
(dp1918
g81
I3
ssg82
Nsg75
(lp1919
sbasbasbasbag68
(g84
g70
NtRp1920
(dp1921
g73
(dp1922
sg82
g1851
sg75
(lp1923
g68
(g89
g70
NtRp1924
(dp1925
g73
(dp1926
g93
g94
ssg82
g1920
sg75
(lp1927
g914
asbag68
(g89
g70
NtRp1928
(dp1929
g73
(dp1930
g100
g101
ssg82
g1920
sg75
(lp1931
S':'
asbag68
(g89
g70
NtRp1932
(dp1933
g73
(dp1934
sg82
g1920
sg75
(lp1935
g68
(g69
g70
NtRp1936
(dp1937
g73
(dp1938
g81
I4
ssg82
g1932
sg75
(lp1939
S"<Values at 0x2be17e8: {'verbose': False, 'ip': '127.0.0.1', 'shutdown_timeout': 5, 'taskbar': False, 'nocron': False, 'pid_filename': 'httpserver.pid', 'maxthreads': None, 'softcron': False, 'server_name': 'Ariel-ubuntu', 'bpython': False, 'nogui': False, 'port': 8000, 'extcron': False, 'debuglevel': 30, 'test': None, 'folder': '/home/ian/web2py', 'config': '', 'import_models': False, 'winservice': '', 'shell': None, 'run': '', 'log_filename': 'httpserver.log', 'args': [''], 'ssl_ca_certificate': None, 'scheduler': None, 'profiler_filename': None, 'ssl_private_key': '', 'password': '<ask>', 'request_queue_size': 5, 'ssl_certificate': '', 'cronjob': False, 'plain': False, 'quiet': False, 'interfaces': None, 'minthreads': None, 'timeout': 10, 'numthreads': None, 'nobanner': False}>"
p1940
asbasbasbag68
(g84
g70
NtRp1941
(dp1942
g73
(dp1943
sg82
g1851
sg75
(lp1944
g68
(g89
g70
NtRp1945
(dp1946
g73
(dp1947
g93
g94
ssg82
g1941
sg75
(lp1948
g936
asbag68
(g89
g70
NtRp1949
(dp1950
g73
(dp1951
g100
g101
ssg82
g1941
sg75
(lp1952
S':'
asbag68
(g89
g70
NtRp1953
(dp1954
g73
(dp1955
sg82
g1941
sg75
(lp1956
g68
(g69
g70
NtRp1957
(dp1958
g73
(dp1959
g81
I4
ssg82
g1953
sg75
(lp1960
S'set([])'
p1961
asbasbasbag68
(g84
g70
NtRp1962
(dp1963
g73
(dp1964
sg82
g1851
sg75
(lp1965
g68
(g89
g70
NtRp1966
(dp1967
g73
(dp1968
g93
g94
ssg82
g1962
sg75
(lp1969
g958
asbag68
(g89
g70
NtRp1970
(dp1971
g73
(dp1972
g100
g101
ssg82
g1962
sg75
(lp1973
S':'
asbag68
(g89
g70
NtRp1974
(dp1975
g73
(dp1976
sg82
g1962
sg75
(lp1977
g68
(g69
g70
NtRp1978
(dp1979
g73
(dp1980
g81
I4
ssg82
g1974
sg75
(lp1981
g111
asbasbasbag68
(g84
g70
NtRp1982
(dp1983
g73
(dp1984
sg82
g1851
sg75
(lp1985
g68
(g89
g70
NtRp1986
(dp1987
g73
(dp1988
g93
g94
ssg82
g1982
sg75
(lp1989
g979
asbag68
(g89
g70
NtRp1990
(dp1991
g73
(dp1992
g100
g101
ssg82
g1982
sg75
(lp1993
S':'
asbag68
(g89
g70
NtRp1994
(dp1995
g73
(dp1996
sg82
g1982
sg75
(lp1997
g68
(g69
g70
NtRp1998
(dp1999
g73
(dp2000
g81
I4
ssg82
g1994
sg75
(lp2001
g992
asbasbasbag68
(g84
g70
NtRp2002
(dp2003
g73
(dp2004
sg82
g1851
sg75
(lp2005
g68
(g89
g70
NtRp2006
(dp2007
g73
(dp2008
g93
g94
ssg82
g2002
sg75
(lp2009
g1177
asbag68
(g89
g70
NtRp2010
(dp2011
g73
(dp2012
g100
g101
ssg82
g2002
sg75
(lp2013
S':'
asbag68
(g89
g70
NtRp2014
(dp2015
g73
(dp2016
sg82
g2002
sg75
(lp2017
g68
(g69
g70
NtRp2018
(dp2019
g73
(dp2020
g81
I4
ssg82
g2014
sg75
(lp2021
g111
asbasbasbag68
(g84
g70
NtRp2022
(dp2023
g73
(dp2024
sg82
g1851
sg75
(lp2025
g68
(g89
g70
NtRp2026
(dp2027
g73
(dp2028
g93
g94
ssg82
g2022
sg75
(lp2029
g1415
asbag68
(g89
g70
NtRp2030
(dp2031
g73
(dp2032
g100
g101
ssg82
g2022
sg75
(lp2033
S':'
asbag68
(g89
g70
NtRp2034
(dp2035
g73
(dp2036
sg82
g2022
sg75
(lp2037
g68
(g69
g70
NtRp2038
(dp2039
g73
(dp2040
g81
I4
ssg82
g2034
sg75
(lp2041
g1428
asbasbasbag68
(g84
g70
NtRp2042
(dp2043
g73
(dp2044
sg82
g1851
sg75
(lp2045
g68
(g89
g70
NtRp2046
(dp2047
g73
(dp2048
g93
g94
ssg82
g2042
sg75
(lp2049
g1458
asbag68
(g89
g70
NtRp2050
(dp2051
g73
(dp2052
g100
g101
ssg82
g2042
sg75
(lp2053
S':'
asbag68
(g89
g70
NtRp2054
(dp2055
g73
(dp2056
sg82
g2042
sg75
(lp2057
g68
(g69
g70
NtRp2058
(dp2059
g73
(dp2060
g81
I4
ssg82
g2054
sg75
(lp2061
g68
(g77
g70
NtRp2062
(dp2063
g73
(dp2064
g81
I3
ssg82
Nsg75
(lp2065
g68
(g84
g70
NtRp2066
(dp2067
g73
(dp2068
sg82
g2062
sg75
(lp2069
g68
(g89
g70
NtRp2070
(dp2071
g73
(dp2072
sg82
g2066
sg75
(lp2073
g68
(g69
g70
NtRp2074
(dp2075
g73
(dp2076
g81
I3
ssg82
g2070
sg75
(lp2077
S'1'
asbasbasbag68
(g84
g70
NtRp2078
(dp2079
g73
(dp2080
sg82
g2062
sg75
(lp2081
g68
(g89
g70
NtRp2082
(dp2083
g73
(dp2084
sg82
g2078
sg75
(lp2085
g68
(g69
g70
NtRp2086
(dp2087
g73
(dp2088
g81
I3
ssg82
g2082
sg75
(lp2089
S'99'
p2090
asbasbasbag68
(g84
g70
NtRp2091
(dp2092
g73
(dp2093
sg82
g2062
sg75
(lp2094
g68
(g89
g70
NtRp2095
(dp2096
g73
(dp2097
sg82
g2091
sg75
(lp2098
g68
(g69
g70
NtRp2099
(dp2100
g73
(dp2101
g81
I3
ssg82
g2095
sg75
(lp2102
S'2'
asbasbasbag68
(g84
g70
NtRp2103
(dp2104
g73
(dp2105
sg82
g2062
sg75
(lp2106
g68
(g89
g70
NtRp2107
(dp2108
g73
(dp2109
sg82
g2103
sg75
(lp2110
g68
(g69
g70
NtRp2111
(dp2112
g73
(dp2113
g81
I3
ssg82
g2107
sg75
(lp2114
S'datetime.datetime(2011, 9, 26, 6, 55, 33)'
p2115
asbasbasbag68
(g84
g70
NtRp2116
(dp2117
g73
(dp2118
sg82
g2062
sg75
(lp2119
g68
(g89
g70
NtRp2120
(dp2121
g73
(dp2122
sg82
g2116
sg75
(lp2123
g68
(g69
g70
NtRp2124
(dp2125
g73
(dp2126
g81
I3
ssg82
g2120
sg75
(lp2127
g1537
asbasbasbasbasbasbasbasbasbasbasbag68
(g84
g70
NtRp2128
(dp2129
g73
(dp2130
sg82
g78
sg75
(lp2131
g68
(g89
g70
NtRp2132
(dp2133
g73
(dp2134
g93
g94
ssg82
g2128
sg75
(lp2135
S'is_https'
p2136
asbag68
(g89
g70
NtRp2137
(dp2138
g73
(dp2139
g100
g101
ssg82
g2128
sg75
(lp2140
S':'
asbag68
(g89
g70
NtRp2141
(dp2142
g73
(dp2143
sg82
g2128
sg75
(lp2144
g68
(g69
g70
NtRp2145
(dp2146
g73
(dp2147
g81
I5
ssg82
g2141
sg75
(lp2148
g111
asbasbasbag68
(g84
g70
NtRp2149
(dp2150
g73
(dp2151
sg82
g78
sg75
(lp2152
g68
(g89
g70
NtRp2153
(dp2154
g73
(dp2155
g93
g94
ssg82
g2149
sg75
(lp2156
S'is_local'
p2157
asbag68
(g89
g70
NtRp2158
(dp2159
g73
(dp2160
g100
g101
ssg82
g2149
sg75
(lp2161
S':'
asbag68
(g89
g70
NtRp2162
(dp2163
g73
(dp2164
sg82
g2149
sg75
(lp2165
g68
(g69
g70
NtRp2166
(dp2167
g73
(dp2168
g81
I5
ssg82
g2162
sg75
(lp2169
g1646
asbasbasbag68
(g84
g70
NtRp2170
(dp2171
g73
(dp2172
sg82
g78
sg75
(lp2173
g68
(g89
g70
NtRp2174
(dp2175
g73
(dp2176
g93
g94
ssg82
g2170
sg75
(lp2177
S'is_restful'
p2178
asbag68
(g89
g70
NtRp2179
(dp2180
g73
(dp2181
g100
g101
ssg82
g2170
sg75
(lp2182
S':'
asbag68
(g89
g70
NtRp2183
(dp2184
g73
(dp2185
sg82
g2170
sg75
(lp2186
g68
(g69
g70
NtRp2187
(dp2188
g73
(dp2189
g81
I5
ssg82
g2183
sg75
(lp2190
g111
asbasbasbag68
(g84
g70
NtRp2191
(dp2192
g73
(dp2193
sg82
g78
sg75
(lp2194
g68
(g89
g70
NtRp2195
(dp2196
g73
(dp2197
g93
g94
ssg82
g2191
sg75
(lp2198
S'now'
p2199
asbag68
(g89
g70
NtRp2200
(dp2201
g73
(dp2202
g100
g101
ssg82
g2191
sg75
(lp2203
S':'
asbag68
(g89
g70
NtRp2204
(dp2205
g73
(dp2206
sg82
g2191
sg75
(lp2207
g68
(g69
g70
NtRp2208
(dp2209
g73
(dp2210
g81
I5
ssg82
g2204
sg75
(lp2211
S'datetime.datetime(2011, 10, 20, 17, 58, 37, 341710)'
p2212
asbasbasbag68
(g84
g70
NtRp2213
(dp2214
g73
(dp2215
sg82
g78
sg75
(lp2216
g68
(g89
g70
NtRp2217
(dp2218
g73
(dp2219
g93
g94
ssg82
g2213
sg75
(lp2220
S'post_vars'
p2221
asbag68
(g89
g70
NtRp2222
(dp2223
g73
(dp2224
g100
g101
ssg82
g2213
sg75
(lp2225
S':'
asbag68
(g89
g70
NtRp2226
(dp2227
g73
(dp2228
sg82
g2213
sg75
(lp2229
g68
(g69
g70
NtRp2230
(dp2231
g73
(dp2232
g81
I5
ssg82
g2226
sg75
(lp2233
g68
(g77
g70
NtRp2234
(dp2235
g73
(dp2236
g81
I4
ssg82
Nsg75
(lp2237
sbasbasbasbag68
(g84
g70
NtRp2238
(dp2239
g73
(dp2240
sg82
g78
sg75
(lp2241
g68
(g89
g70
NtRp2242
(dp2243
g73
(dp2244
g93
g94
ssg82
g2238
sg75
(lp2245
S'url'
p2246
asbag68
(g89
g70
NtRp2247
(dp2248
g73
(dp2249
g100
g101
ssg82
g2238
sg75
(lp2250
S':'
asbag68
(g89
g70
NtRp2251
(dp2252
g73
(dp2253
sg82
g2238
sg75
(lp2254
g68
(g69
g70
NtRp2255
(dp2256
g73
(dp2257
g81
I5
ssg82
g2251
sg75
(lp2258
S'/places/default/index'
p2259
asbasbasbag68
(g84
g70
NtRp2260
(dp2261
g73
(dp2262
sg82
g78
sg75
(lp2263
g68
(g89
g70
NtRp2264
(dp2265
g73
(dp2266
g93
g94
ssg82
g2260
sg75
(lp2267
S'utcnow'
p2268
asbag68
(g89
g70
NtRp2269
(dp2270
g73
(dp2271
g100
g101
ssg82
g2260
sg75
(lp2272
S':'
asbag68
(g89
g70
NtRp2273
(dp2274
g73
(dp2275
sg82
g2260
sg75
(lp2276
g68
(g69
g70
NtRp2277
(dp2278
g73
(dp2279
g81
I5
ssg82
g2273
sg75
(lp2280
S'datetime.datetime(2011, 10, 20, 21, 58, 37, 341751)'
p2281
asbasbasbag68
(g84
g70
NtRp2282
(dp2283
g73
(dp2284
sg82
g78
sg75
(lp2285
g68
(g89
g70
NtRp2286
(dp2287
g73
(dp2288
g93
g94
ssg82
g2282
sg75
(lp2289
S'uuid'
p2290
asbag68
(g89
g70
NtRp2291
(dp2292
g73
(dp2293
g100
g101
ssg82
g2282
sg75
(lp2294
S':'
asbag68
(g89
g70
NtRp2295
(dp2296
g73
(dp2297
sg82
g2282
sg75
(lp2298
g68
(g69
g70
NtRp2299
(dp2300
g73
(dp2301
g81
I5
ssg82
g2295
sg75
(lp2302
S'places/127.0.0.1.2011-10-20.17-58-37.7a211b67-066e-4d04-b8f1-fcc4d8ea8d0b'
p2303
asbasbasbag68
(g84
g70
NtRp2304
(dp2305
g73
(dp2306
sg82
g78
sg75
(lp2307
g68
(g89
g70
NtRp2308
(dp2309
g73
(dp2310
g93
g94
ssg82
g2304
sg75
(lp2311
S'vars'
p2312
asbag68
(g89
g70
NtRp2313
(dp2314
g73
(dp2315
g100
g101
ssg82
g2304
sg75
(lp2316
S':'
asbag68
(g89
g70
NtRp2317
(dp2318
g73
(dp2319
sg82
g2304
sg75
(lp2320
g68
(g69
g70
NtRp2321
(dp2322
g73
(dp2323
g81
I5
ssg82
g2317
sg75
(lp2324
g68
(g77
g70
NtRp2325
(dp2326
g73
(dp2327
g81
I4
ssg82
Nsg75
(lp2328
sbasbasbasbag68
(g84
g70
NtRp2329
(dp2330
g73
(dp2331
sg82
g78
sg75
(lp2332
g68
(g89
g70
NtRp2333
(dp2334
g73
(dp2335
g93
g94
ssg82
g2329
sg75
(lp2336
S'wsgi'
p2337
asbag68
(g89
g70
NtRp2338
(dp2339
g73
(dp2340
g100
g101
ssg82
g2329
sg75
(lp2341
S':'
asbag68
(g89
g70
NtRp2342
(dp2343
g73
(dp2344
sg82
g2329
sg75
(lp2345
g68
(g69
g70
NtRp2346
(dp2347
g73
(dp2348
g81
I5
ssg82
g2342
sg75
(lp2349
g68
(g77
g70
NtRp2350
(dp2351
g73
(dp2352
g81
I4
ssg82
Nsg75
(lp2353
g68
(g84
g70
NtRp2354
(dp2355
g73
(dp2356
sg82
g2350
sg75
(lp2357
g68
(g89
g70
NtRp2358
(dp2359
g73
(dp2360
g93
g94
ssg82
g2354
sg75
(lp2361
S'environ'
p2362
asbag68
(g89
g70
NtRp2363
(dp2364
g73
(dp2365
g100
g101
ssg82
g2354
sg75
(lp2366
S':'
asbag68
(g89
g70
NtRp2367
(dp2368
g73
(dp2369
sg82
g2354
sg75
(lp2370
g68
(g69
g70
NtRp2371
(dp2372
g73
(dp2373
g81
I4
ssg82
g2367
sg75
(lp2374
g68
(g77
g70
NtRp2375
(dp2376
g73
(dp2377
g81
I3
ssg82
Nsg75
(lp2378
g68
(g84
g70
NtRp2379
(dp2380
g73
(dp2381
sg82
g2375
sg75
(lp2382
g68
(g89
g70
NtRp2383
(dp2384
g73
(dp2385
g93
g94
ssg82
g2379
sg75
(lp2386
S'HTTP_ACCEPT'
p2387
asbag68
(g89
g70
NtRp2388
(dp2389
g73
(dp2390
g100
g101
ssg82
g2379
sg75
(lp2391
S':'
asbag68
(g89
g70
NtRp2392
(dp2393
g73
(dp2394
sg82
g2379
sg75
(lp2395
g68
(g69
g70
NtRp2396
(dp2397
g73
(dp2398
g81
I3
ssg82
g2392
sg75
(lp2399
g1014
asbasbasbag68
(g84
g70
NtRp2400
(dp2401
g73
(dp2402
sg82
g2375
sg75
(lp2403
g68
(g89
g70
NtRp2404
(dp2405
g73
(dp2406
g93
g94
ssg82
g2400
sg75
(lp2407
S'HTTP_ACCEPT_ENCODING'
p2408
asbag68
(g89
g70
NtRp2409
(dp2410
g73
(dp2411
g100
g101
ssg82
g2400
sg75
(lp2412
S':'
asbag68
(g89
g70
NtRp2413
(dp2414
g73
(dp2415
sg82
g2400
sg75
(lp2416
g68
(g69
g70
NtRp2417
(dp2418
g73
(dp2419
g81
I3
ssg82
g2413
sg75
(lp2420
g1036
asbasbasbag68
(g84
g70
NtRp2421
(dp2422
g73
(dp2423
sg82
g2375
sg75
(lp2424
g68
(g89
g70
NtRp2425
(dp2426
g73
(dp2427
g93
g94
ssg82
g2421
sg75
(lp2428
S'HTTP_ACCEPT_LANGUAGE'
p2429
asbag68
(g89
g70
NtRp2430
(dp2431
g73
(dp2432
g100
g101
ssg82
g2421
sg75
(lp2433
S':'
asbag68
(g89
g70
NtRp2434
(dp2435
g73
(dp2436
sg82
g2421
sg75
(lp2437
g68
(g69
g70
NtRp2438
(dp2439
g73
(dp2440
g81
I3
ssg82
g2434
sg75
(lp2441
g1058
asbasbasbag68
(g84
g70
NtRp2442
(dp2443
g73
(dp2444
sg82
g2375
sg75
(lp2445
g68
(g89
g70
NtRp2446
(dp2447
g73
(dp2448
g93
g94
ssg82
g2442
sg75
(lp2449
S'HTTP_CACHE_CONTROL'
p2450
asbag68
(g89
g70
NtRp2451
(dp2452
g73
(dp2453
g100
g101
ssg82
g2442
sg75
(lp2454
S':'
asbag68
(g89
g70
NtRp2455
(dp2456
g73
(dp2457
sg82
g2442
sg75
(lp2458
g68
(g69
g70
NtRp2459
(dp2460
g73
(dp2461
g81
I3
ssg82
g2455
sg75
(lp2462
g1080
asbasbasbag68
(g84
g70
NtRp2463
(dp2464
g73
(dp2465
sg82
g2375
sg75
(lp2466
g68
(g89
g70
NtRp2467
(dp2468
g73
(dp2469
g93
g94
ssg82
g2463
sg75
(lp2470
S'HTTP_CONNECTION'
p2471
asbag68
(g89
g70
NtRp2472
(dp2473
g73
(dp2474
g100
g101
ssg82
g2463
sg75
(lp2475
S':'
asbag68
(g89
g70
NtRp2476
(dp2477
g73
(dp2478
sg82
g2463
sg75
(lp2479
g68
(g69
g70
NtRp2480
(dp2481
g73
(dp2482
g81
I3
ssg82
g2476
sg75
(lp2483
g1102
asbasbasbag68
(g84
g70
NtRp2484
(dp2485
g73
(dp2486
sg82
g2375
sg75
(lp2487
g68
(g89
g70
NtRp2488
(dp2489
g73
(dp2490
g93
g94
ssg82
g2484
sg75
(lp2491
S'HTTP_COOKIE'
p2492
asbag68
(g89
g70
NtRp2493
(dp2494
g73
(dp2495
g100
g101
ssg82
g2484
sg75
(lp2496
S':'
asbag68
(g89
g70
NtRp2497
(dp2498
g73
(dp2499
sg82
g2484
sg75
(lp2500
g68
(g69
g70
NtRp2501
(dp2502
g73
(dp2503
g81
I3
ssg82
g2497
sg75
(lp2504
g1124
asbasbasbag68
(g84
g70
NtRp2505
(dp2506
g73
(dp2507
sg82
g2375
sg75
(lp2508
g68
(g89
g70
NtRp2509
(dp2510
g73
(dp2511
g93
g94
ssg82
g2505
sg75
(lp2512
S'HTTP_HOST'
p2513
asbag68
(g89
g70
NtRp2514
(dp2515
g73
(dp2516
g100
g101
ssg82
g2505
sg75
(lp2517
S':'
asbag68
(g89
g70
NtRp2518
(dp2519
g73
(dp2520
sg82
g2505
sg75
(lp2521
g68
(g69
g70
NtRp2522
(dp2523
g73
(dp2524
g81
I3
ssg82
g2518
sg75
(lp2525
g1146
asbasbasbag68
(g84
g70
NtRp2526
(dp2527
g73
(dp2528
sg82
g2375
sg75
(lp2529
g68
(g89
g70
NtRp2530
(dp2531
g73
(dp2532
g93
g94
ssg82
g2526
sg75
(lp2533
S'HTTP_USER_AGENT'
p2534
asbag68
(g89
g70
NtRp2535
(dp2536
g73
(dp2537
g100
g101
ssg82
g2526
sg75
(lp2538
S':'
asbag68
(g89
g70
NtRp2539
(dp2540
g73
(dp2541
sg82
g2526
sg75
(lp2542
g68
(g69
g70
NtRp2543
(dp2544
g73
(dp2545
g81
I3
ssg82
g2539
sg75
(lp2546
g1168
asbasbasbag68
(g84
g70
NtRp2547
(dp2548
g73
(dp2549
sg82
g2375
sg75
(lp2550
g68
(g89
g70
NtRp2551
(dp2552
g73
(dp2553
g93
g94
ssg82
g2547
sg75
(lp2554
S'PATH_INFO'
p2555
asbag68
(g89
g70
NtRp2556
(dp2557
g73
(dp2558
g100
g101
ssg82
g2547
sg75
(lp2559
S':'
asbag68
(g89
g70
NtRp2560
(dp2561
g73
(dp2562
sg82
g2547
sg75
(lp2563
g68
(g69
g70
NtRp2564
(dp2565
g73
(dp2566
g81
I3
ssg82
g2560
sg75
(lp2567
g1211
asbasbasbag68
(g84
g70
NtRp2568
(dp2569
g73
(dp2570
sg82
g2375
sg75
(lp2571
g68
(g89
g70
NtRp2572
(dp2573
g73
(dp2574
g93
g94
ssg82
g2568
sg75
(lp2575
S'QUERY_STRING'
p2576
asbag68
(g89
g70
NtRp2577
(dp2578
g73
(dp2579
g100
g101
ssg82
g2568
sg75
(lp2580
S':'
asbag68
(g89
g70
NtRp2581
(dp2582
g73
(dp2583
sg82
g2568
sg75
(lp2584
g68
(g69
g70
NtRp2585
(dp2586
g73
(dp2587
g81
I3
ssg82
g2581
sg75
(lp2588
S''
asbasbasbag68
(g84
g70
NtRp2589
(dp2590
g73
(dp2591
sg82
g2375
sg75
(lp2592
g68
(g89
g70
NtRp2593
(dp2594
g73
(dp2595
g93
g94
ssg82
g2589
sg75
(lp2596
S'REMOTE_ADDR'
p2597
asbag68
(g89
g70
NtRp2598
(dp2599
g73
(dp2600
g100
g101
ssg82
g2589
sg75
(lp2601
S':'
asbag68
(g89
g70
NtRp2602
(dp2603
g73
(dp2604
sg82
g2589
sg75
(lp2605
g68
(g69
g70
NtRp2606
(dp2607
g73
(dp2608
g81
I3
ssg82
g2602
sg75
(lp2609
g201
asbasbasbag68
(g84
g70
NtRp2610
(dp2611
g73
(dp2612
sg82
g2375
sg75
(lp2613
g68
(g89
g70
NtRp2614
(dp2615
g73
(dp2616
g93
g94
ssg82
g2610
sg75
(lp2617
S'REMOTE_PORT'
p2618
asbag68
(g89
g70
NtRp2619
(dp2620
g73
(dp2621
g100
g101
ssg82
g2610
sg75
(lp2622
S':'
asbag68
(g89
g70
NtRp2623
(dp2624
g73
(dp2625
sg82
g2610
sg75
(lp2626
g68
(g69
g70
NtRp2627
(dp2628
g73
(dp2629
g81
I3
ssg82
g2623
sg75
(lp2630
g1275
asbasbasbag68
(g84
g70
NtRp2631
(dp2632
g73
(dp2633
sg82
g2375
sg75
(lp2634
g68
(g89
g70
NtRp2635
(dp2636
g73
(dp2637
g93
g94
ssg82
g2631
sg75
(lp2638
S'REQUEST_METHOD'
p2639
asbag68
(g89
g70
NtRp2640
(dp2641
g73
(dp2642
g100
g101
ssg82
g2631
sg75
(lp2643
S':'
asbag68
(g89
g70
NtRp2644
(dp2645
g73
(dp2646
sg82
g2631
sg75
(lp2647
g68
(g69
g70
NtRp2648
(dp2649
g73
(dp2650
g81
I3
ssg82
g2644
sg75
(lp2651
g1297
asbasbasbag68
(g84
g70
NtRp2652
(dp2653
g73
(dp2654
sg82
g2375
sg75
(lp2655
g68
(g89
g70
NtRp2656
(dp2657
g73
(dp2658
g93
g94
ssg82
g2652
sg75
(lp2659
S'SCRIPT_NAME'
p2660
asbag68
(g89
g70
NtRp2661
(dp2662
g73
(dp2663
g100
g101
ssg82
g2652
sg75
(lp2664
S':'
asbag68
(g89
g70
NtRp2665
(dp2666
g73
(dp2667
sg82
g2652
sg75
(lp2668
g68
(g69
g70
NtRp2669
(dp2670
g73
(dp2671
g81
I3
ssg82
g2665
sg75
(lp2672
S''
asbasbasbag68
(g84
g70
NtRp2673
(dp2674
g73
(dp2675
sg82
g2375
sg75
(lp2676
g68
(g89
g70
NtRp2677
(dp2678
g73
(dp2679
g93
g94
ssg82
g2673
sg75
(lp2680
S'SERVER_NAME'
p2681
asbag68
(g89
g70
NtRp2682
(dp2683
g73
(dp2684
g100
g101
ssg82
g2673
sg75
(lp2685
S':'
asbag68
(g89
g70
NtRp2686
(dp2687
g73
(dp2688
sg82
g2673
sg75
(lp2689
g68
(g69
g70
NtRp2690
(dp2691
g73
(dp2692
g81
I3
ssg82
g2686
sg75
(lp2693
g1340
asbasbasbag68
(g84
g70
NtRp2694
(dp2695
g73
(dp2696
sg82
g2375
sg75
(lp2697
g68
(g89
g70
NtRp2698
(dp2699
g73
(dp2700
g93
g94
ssg82
g2694
sg75
(lp2701
S'SERVER_PORT'
p2702
asbag68
(g89
g70
NtRp2703
(dp2704
g73
(dp2705
g100
g101
ssg82
g2694
sg75
(lp2706
S':'
asbag68
(g89
g70
NtRp2707
(dp2708
g73
(dp2709
sg82
g2694
sg75
(lp2710
g68
(g69
g70
NtRp2711
(dp2712
g73
(dp2713
g81
I3
ssg82
g2707
sg75
(lp2714
g1362
asbasbasbag68
(g84
g70
NtRp2715
(dp2716
g73
(dp2717
sg82
g2375
sg75
(lp2718
g68
(g89
g70
NtRp2719
(dp2720
g73
(dp2721
g93
g94
ssg82
g2715
sg75
(lp2722
S'SERVER_PROTOCOL'
p2723
asbag68
(g89
g70
NtRp2724
(dp2725
g73
(dp2726
g100
g101
ssg82
g2715
sg75
(lp2727
S':'
asbag68
(g89
g70
NtRp2728
(dp2729
g73
(dp2730
sg82
g2715
sg75
(lp2731
g68
(g69
g70
NtRp2732
(dp2733
g73
(dp2734
g81
I3
ssg82
g2728
sg75
(lp2735
g1384
asbasbasbag68
(g84
g70
NtRp2736
(dp2737
g73
(dp2738
sg82
g2375
sg75
(lp2739
g68
(g89
g70
NtRp2740
(dp2741
g73
(dp2742
g93
g94
ssg82
g2736
sg75
(lp2743
S'SERVER_SOFTWARE'
p2744
asbag68
(g89
g70
NtRp2745
(dp2746
g73
(dp2747
g100
g101
ssg82
g2736
sg75
(lp2748
S':'
asbag68
(g89
g70
NtRp2749
(dp2750
g73
(dp2751
sg82
g2736
sg75
(lp2752
g68
(g69
g70
NtRp2753
(dp2754
g73
(dp2755
g81
I3
ssg82
g2749
sg75
(lp2756
g1406
asbasbasbag68
(g84
g70
NtRp2757
(dp2758
g73
(dp2759
sg82
g2375
sg75
(lp2760
g68
(g89
g70
NtRp2761
(dp2762
g73
(dp2763
g93
g94
ssg82
g2757
sg75
(lp2764
S'wsgi.errors'
p2765
asbag68
(g89
g70
NtRp2766
(dp2767
g73
(dp2768
g100
g101
ssg82
g2757
sg75
(lp2769
S':'
asbag68
(g89
g70
NtRp2770
(dp2771
g73
(dp2772
sg82
g2757
sg75
(lp2773
g68
(g69
g70
NtRp2774
(dp2775
g73
(dp2776
g81
I3
ssg82
g2770
sg75
(lp2777
S"<open file '<stderr>', mode 'w' at 0x7f7d1bc23270>"
p2778
asbasbasbag68
(g84
g70
NtRp2779
(dp2780
g73
(dp2781
sg82
g2375
sg75
(lp2782
g68
(g89
g70
NtRp2783
(dp2784
g73
(dp2785
g93
g94
ssg82
g2779
sg75
(lp2786
S'wsgi.file_wrapper'
p2787
asbag68
(g89
g70
NtRp2788
(dp2789
g73
(dp2790
g100
g101
ssg82
g2779
sg75
(lp2791
S':'
asbag68
(g89
g70
NtRp2792
(dp2793
g73
(dp2794
sg82
g2779
sg75
(lp2795
g68
(g69
g70
NtRp2796
(dp2797
g73
(dp2798
g81
I3
ssg82
g2792
sg75
(lp2799
S'<class wsgiref.util.FileWrapper at 0x2aaa808>'
p2800
asbasbasbag68
(g84
g70
NtRp2801
(dp2802
g73
(dp2803
sg82
g2375
sg75
(lp2804
g68
(g89
g70
NtRp2805
(dp2806
g73
(dp2807
g93
g94
ssg82
g2801
sg75
(lp2808
S'wsgi.input'
p2809
asbag68
(g89
g70
NtRp2810
(dp2811
g73
(dp2812
g100
g101
ssg82
g2801
sg75
(lp2813
S':'
asbag68
(g89
g70
NtRp2814
(dp2815
g73
(dp2816
sg82
g2801
sg75
(lp2817
g68
(g69
g70
NtRp2818
(dp2819
g73
(dp2820
g81
I3
ssg82
g2814
sg75
(lp2821
S'<cStringIO.StringO object at 0x3597570>'
p2822
asbasbasbag68
(g84
g70
NtRp2823
(dp2824
g73
(dp2825
sg82
g2375
sg75
(lp2826
g68
(g89
g70
NtRp2827
(dp2828
g73
(dp2829
g93
g94
ssg82
g2823
sg75
(lp2830
S'wsgi.multiprocess'
p2831
asbag68
(g89
g70
NtRp2832
(dp2833
g73
(dp2834
g100
g101
ssg82
g2823
sg75
(lp2835
S':'
asbag68
(g89
g70
NtRp2836
(dp2837
g73
(dp2838
sg82
g2823
sg75
(lp2839
g68
(g69
g70
NtRp2840
(dp2841
g73
(dp2842
g81
I3
ssg82
g2836
sg75
(lp2843
g111
asbasbasbag68
(g84
g70
NtRp2844
(dp2845
g73
(dp2846
sg82
g2375
sg75
(lp2847
g68
(g89
g70
NtRp2848
(dp2849
g73
(dp2850
g93
g94
ssg82
g2844
sg75
(lp2851
S'wsgi.multithread'
p2852
asbag68
(g89
g70
NtRp2853
(dp2854
g73
(dp2855
g100
g101
ssg82
g2844
sg75
(lp2856
S':'
asbag68
(g89
g70
NtRp2857
(dp2858
g73
(dp2859
sg82
g2844
sg75
(lp2860
g68
(g69
g70
NtRp2861
(dp2862
g73
(dp2863
g81
I3
ssg82
g2857
sg75
(lp2864
g1646
asbasbasbag68
(g84
g70
NtRp2865
(dp2866
g73
(dp2867
sg82
g2375
sg75
(lp2868
g68
(g89
g70
NtRp2869
(dp2870
g73
(dp2871
g93
g94
ssg82
g2865
sg75
(lp2872
S'wsgi.run_once'
p2873
asbag68
(g89
g70
NtRp2874
(dp2875
g73
(dp2876
g100
g101
ssg82
g2865
sg75
(lp2877
S':'
asbag68
(g89
g70
NtRp2878
(dp2879
g73
(dp2880
sg82
g2865
sg75
(lp2881
g68
(g69
g70
NtRp2882
(dp2883
g73
(dp2884
g81
I3
ssg82
g2878
sg75
(lp2885
g111
asbasbasbag68
(g84
g70
NtRp2886
(dp2887
g73
(dp2888
sg82
g2375
sg75
(lp2889
g68
(g89
g70
NtRp2890
(dp2891
g73
(dp2892
g93
g94
ssg82
g2886
sg75
(lp2893
S'wsgi.url_scheme'
p2894
asbag68
(g89
g70
NtRp2895
(dp2896
g73
(dp2897
g100
g101
ssg82
g2886
sg75
(lp2898
S':'
asbag68
(g89
g70
NtRp2899
(dp2900
g73
(dp2901
sg82
g2886
sg75
(lp2902
g68
(g69
g70
NtRp2903
(dp2904
g73
(dp2905
g81
I3
ssg82
g2899
sg75
(lp2906
g1689
asbasbasbag68
(g84
g70
NtRp2907
(dp2908
g73
(dp2909
sg82
g2375
sg75
(lp2910
g68
(g89
g70
NtRp2911
(dp2912
g73
(dp2913
g93
g94
ssg82
g2907
sg75
(lp2914
S'wsgi.version'
p2915
asbag68
(g89
g70
NtRp2916
(dp2917
g73
(dp2918
g100
g101
ssg82
g2907
sg75
(lp2919
S':'
asbag68
(g89
g70
NtRp2920
(dp2921
g73
(dp2922
sg82
g2907
sg75
(lp2923
g68
(g69
g70
NtRp2924
(dp2925
g73
(dp2926
g81
I3
ssg82
g2920
sg75
(lp2927
S'1'
asbasbasbasbasbasbasbasbasbasbasbasbasbsS'frames'
p2928
(lp2929
(dp2930
S'file'
p2931
S'/home/ian/web2py/gluon/restricted.py'
p2932
sS'dump'
p2933
(dp2934
S'code'
p2935
S"'# -*- coding: utf-8 -*-\\n# this file is released ...e_title)\\n\\nresponse._vars=response._caller(index)\\n'"
p2936
sS'layer'
p2937
S"'/home/ian/web2py/applications/places/controllers/default.py'"
p2938
sS'global compile2'
p2939
S'<function compile2>'
p2940
sS'ccode'
p2941
S'undefined'
p2942
ssS'lnum'
p2943
I193
sS'lines'
p2944
(dp2945
I192
S'        else:'
p2946
sI193
S'            ccode = compile2(code,layer)'
p2947
sI194
S'        exec ccode in environment'
p2948
sI195
S'    except HTTP:'
p2949
sI196
S'        raise'
p2950
sI197
S'    except Exception, error:'
p2951
sI188
S"    environment['__file__'] = layer"
p2952
sI189
S'    try:'
p2953
sI190
S'        if type(code) == types.CodeType:'
p2954
sI191
S'            ccode = code'
p2955
ssS'call'
p2956
S"(code='# -*- coding: utf-8 -*-\\n# this file is released ...e_title)\\n\\nresponse._vars=response._caller(index)\\n', environment={'A': <class 'gluon.html.A'>, 'Auth': <class 'gluon.tools.Auth'>, 'B': <class 'gluon.html.B'>, 'BEAUTIFY': <class 'gluon.html.BEAUTIFY'>, 'BODY': <class 'gluon.html.BODY'>, 'BR': <class 'gluon.html.BR'>, 'BUTTON': <class 'gluon.html.BUTTON'>, 'CAT': <class 'gluon.html.CAT'>, 'CENTER': <class 'gluon.html.CENTER'>, 'CLEANUP': <class 'gluon.validators.CLEANUP'>, ...}, layer='/home/ian/web2py/applications/places/controllers/default.py')"
p2957
sS'func'
p2958
S'restricted'
p2959
sa(dp2960
g2931
S'/home/ian/web2py/gluon/restricted.py'
p2961
sg2933
(dp2962
S'builtincompile'
p2963
S'<built-in function compile>'
p2964
sS'code'
p2965
S"'# -*- coding: utf-8 -*-\\n# this file is released ...e_title)\\n\\nresponse._vars=response._caller(index)\\n'"
p2966
sS'code.rstrip'
p2967
S'<built-in method rstrip of str object>'
p2968
sS').replace'
p2969
g2942
sS'layer'
p2970
S"'/home/ian/web2py/applications/places/controllers/default.py'"
p2971
ssg2943
I179
sg2944
(dp2972
I174
S''
sI175
S'def compile2(code,layer):'
p2973
sI176
S'    """'
p2974
sI177
S"    The +'\\n' is necessary else compile fails when code ends in a comment."
p2975
sI178
S'    """'
p2976
sI179
S"    return compile(code.rstrip().replace('\\r\\n','\\n')+'\\n', layer, 'exec')"
p2977
sI180
S''
sI181
S"def restricted(code, environment=None, layer='Unknown'):"
p2978
sI182
S'    """'
p2979
sI183
S'    runs code in environment and returns the output. if an exception occurs'
p2980
ssg2956
S"(code='# -*- coding: utf-8 -*-\\n# this file is released ...e_title)\\n\\nresponse._vars=response._caller(index)\\n', layer='/home/ian/web2py/applications/places/controllers/default.py')"
p2981
sg2958
S'compile2'
p2982
sasS'pyver'
p2983
S'Python 2.7.2+: /usr/bin/python2.7'
p2984
sS'session'
p2985
g68
(g69
g70
NtRp2986
(dp2987
g73
(dp2988
sg75
(lp2989
g68
(g77
g70
NtRp2990
(dp2991
g73
(dp2992
g81
I5
ssg82
Nsg75
(lp2993
sbasbsS'etype'
p2994
S"<type 'exceptions.IndentationError'>"
p2995
sS'date'
p2996
S'Thu Oct 20 17:58:37 2011'
p2997
sS'response'
p2998
g68
(g69
g70
NtRp2999
(dp3000
g73
(dp3001
sg75
(lp3002
g68
(g77
g70
NtRp3003
(dp3004
g73
(dp3005
g81
I5
ssg82
Nsg75
(lp3006
g68
(g84
g70
NtRp3007
(dp3008
g73
(dp3009
sg82
g3003
sg75
(lp3010
g68
(g89
g70
NtRp3011
(dp3012
g73
(dp3013
g93
g94
ssg82
g3007
sg75
(lp3014
g166
asbag68
(g89
g70
NtRp3015
(dp3016
g73
(dp3017
g100
g101
ssg82
g3007
sg75
(lp3018
S':'
asbag68
(g89
g70
NtRp3019
(dp3020
g73
(dp3021
sg82
g3007
sg75
(lp3022
g68
(g69
g70
NtRp3023
(dp3024
g73
(dp3025
g81
I5
ssg82
g3019
sg75
(lp3026
S'<cStringIO.StringO object at 0x344f7d8>'
p3027
asbasbasbag68
(g84
g70
NtRp3028
(dp3029
g73
(dp3030
sg82
g3003
sg75
(lp3031
g68
(g89
g70
NtRp3032
(dp3033
g73
(dp3034
g93
g94
ssg82
g3028
sg75
(lp3035
g232
asbag68
(g89
g70
NtRp3036
(dp3037
g73
(dp3038
g100
g101
ssg82
g3028
sg75
(lp3039
S':'
asbag68
(g89
g70
NtRp3040
(dp3041
g73
(dp3042
sg82
g3028
sg75
(lp3043
g68
(g69
g70
NtRp3044
(dp3045
g73
(dp3046
g81
I5
ssg82
g3040
sg75
(lp3047
g68
(g77
g70
NtRp3048
(dp3049
g73
(dp3050
g81
I4
ssg82
Nsg75
(lp3051
g68
(g84
g70
NtRp3052
(dp3053
g73
(dp3054
sg82
g3048
sg75
(lp3055
g68
(g89
g70
NtRp3056
(dp3057
g73
(dp3058
g93
g94
ssg82
g3052
sg75
(lp3059
S'session_id_places'
p3060
asbag68
(g89
g70
NtRp3061
(dp3062
g73
(dp3063
g100
g101
ssg82
g3052
sg75
(lp3064
S':'
asbag68
(g89
g70
NtRp3065
(dp3066
g73
(dp3067
sg82
g3052
sg75
(lp3068
g68
(g69
g70
NtRp3069
(dp3070
g73
(dp3071
g81
I4
ssg82
g3065
sg75
(lp3072
g68
(g77
g70
NtRp3073
(dp3074
g73
(dp3075
g81
I3
ssg82
Nsg75
(lp3076
g68
(g84
g70
NtRp3077
(dp3078
g73
(dp3079
sg82
g3073
sg75
(lp3080
g68
(g89
g70
NtRp3081
(dp3082
g73
(dp3083
g93
g94
ssg82
g3077
sg75
(lp3084
g282
asbag68
(g89
g70
NtRp3085
(dp3086
g73
(dp3087
g100
g101
ssg82
g3077
sg75
(lp3088
S':'
asbag68
(g89
g70
NtRp3089
(dp3090
g73
(dp3091
sg82
g3077
sg75
(lp3092
g68
(g69
g70
NtRp3093
(dp3094
g73
(dp3095
g81
I3
ssg82
g3089
sg75
(lp3096
S''
asbasbasbag68
(g84
g70
NtRp3097
(dp3098
g73
(dp3099
sg82
g3073
sg75
(lp3100
g68
(g89
g70
NtRp3101
(dp3102
g73
(dp3103
g93
g94
ssg82
g3097
sg75
(lp3104
g303
asbag68
(g89
g70
NtRp3105
(dp3106
g73
(dp3107
g100
g101
ssg82
g3097
sg75
(lp3108
S':'
asbag68
(g89
g70
NtRp3109
(dp3110
g73
(dp3111
sg82
g3097
sg75
(lp3112
g68
(g69
g70
NtRp3113
(dp3114
g73
(dp3115
g81
I3
ssg82
g3109
sg75
(lp3116
S''
asbasbasbag68
(g84
g70
NtRp3117
(dp3118
g73
(dp3119
sg82
g3073
sg75
(lp3120
g68
(g89
g70
NtRp3121
(dp3122
g73
(dp3123
g93
g94
ssg82
g3117
sg75
(lp3124
g324
asbag68
(g89
g70
NtRp3125
(dp3126
g73
(dp3127
g100
g101
ssg82
g3117
sg75
(lp3128
S':'
asbag68
(g89
g70
NtRp3129
(dp3130
g73
(dp3131
sg82
g3117
sg75
(lp3132
g68
(g69
g70
NtRp3133
(dp3134
g73
(dp3135
g81
I3
ssg82
g3129
sg75
(lp3136
S''
asbasbasbag68
(g84
g70
NtRp3137
(dp3138
g73
(dp3139
sg82
g3073
sg75
(lp3140
g68
(g89
g70
NtRp3141
(dp3142
g73
(dp3143
g93
g94
ssg82
g3137
sg75
(lp3144
g345
asbag68
(g89
g70
NtRp3145
(dp3146
g73
(dp3147
g100
g101
ssg82
g3137
sg75
(lp3148
S':'
asbag68
(g89
g70
NtRp3149
(dp3150
g73
(dp3151
sg82
g3137
sg75
(lp3152
g68
(g69
g70
NtRp3153
(dp3154
g73
(dp3155
g81
I3
ssg82
g3149
sg75
(lp3156
S''
asbasbasbag68
(g84
g70
NtRp3157
(dp3158
g73
(dp3159
sg82
g3073
sg75
(lp3160
g68
(g89
g70
NtRp3161
(dp3162
g73
(dp3163
g93
g94
ssg82
g3157
sg75
(lp3164
g366
asbag68
(g89
g70
NtRp3165
(dp3166
g73
(dp3167
g100
g101
ssg82
g3157
sg75
(lp3168
S':'
asbag68
(g89
g70
NtRp3169
(dp3170
g73
(dp3171
sg82
g3157
sg75
(lp3172
g68
(g69
g70
NtRp3173
(dp3174
g73
(dp3175
g81
I3
ssg82
g3169
sg75
(lp3176
S''
asbasbasbag68
(g84
g70
NtRp3177
(dp3178
g73
(dp3179
sg82
g3073
sg75
(lp3180
g68
(g89
g70
NtRp3181
(dp3182
g73
(dp3183
g93
g94
ssg82
g3177
sg75
(lp3184
g387
asbag68
(g89
g70
NtRp3185
(dp3186
g73
(dp3187
g100
g101
ssg82
g3177
sg75
(lp3188
S':'
asbag68
(g89
g70
NtRp3189
(dp3190
g73
(dp3191
sg82
g3177
sg75
(lp3192
g68
(g69
g70
NtRp3193
(dp3194
g73
(dp3195
g81
I3
ssg82
g3189
sg75
(lp3196
S'/'
asbasbasbag68
(g84
g70
NtRp3197
(dp3198
g73
(dp3199
sg82
g3073
sg75
(lp3200
g68
(g89
g70
NtRp3201
(dp3202
g73
(dp3203
g93
g94
ssg82
g3197
sg75
(lp3204
g408
asbag68
(g89
g70
NtRp3205
(dp3206
g73
(dp3207
g100
g101
ssg82
g3197
sg75
(lp3208
S':'
asbag68
(g89
g70
NtRp3209
(dp3210
g73
(dp3211
sg82
g3197
sg75
(lp3212
g68
(g69
g70
NtRp3213
(dp3214
g73
(dp3215
g81
I3
ssg82
g3209
sg75
(lp3216
S''
asbasbasbag68
(g84
g70
NtRp3217
(dp3218
g73
(dp3219
sg82
g3073
sg75
(lp3220
g68
(g89
g70
NtRp3221
(dp3222
g73
(dp3223
g93
g94
ssg82
g3217
sg75
(lp3224
g429
asbag68
(g89
g70
NtRp3225
(dp3226
g73
(dp3227
g100
g101
ssg82
g3217
sg75
(lp3228
S':'
asbag68
(g89
g70
NtRp3229
(dp3230
g73
(dp3231
sg82
g3217
sg75
(lp3232
g68
(g69
g70
NtRp3233
(dp3234
g73
(dp3235
g81
I3
ssg82
g3229
sg75
(lp3236
S''
asbasbasbasbasbasbasbasbasbasbasbag68
(g84
g70
NtRp3237
(dp3238
g73
(dp3239
sg82
g3003
sg75
(lp3240
g68
(g89
g70
NtRp3241
(dp3242
g73
(dp3243
g93
g94
ssg82
g3237
sg75
(lp3244
S'files'
p3245
asbag68
(g89
g70
NtRp3246
(dp3247
g73
(dp3248
g100
g101
ssg82
g3237
sg75
(lp3249
S':'
asbag68
(g89
g70
NtRp3250
(dp3251
g73
(dp3252
sg82
g3237
sg75
(lp3253
g68
(g69
g70
NtRp3254
(dp3255
g73
(dp3256
g81
I5
ssg82
g3250
sg75
(lp3257
g68
(g77
g70
NtRp3258
(dp3259
g73
(dp3260
g81
I4
ssg82
Nsg75
(lp3261
sbasbasbasbag68
(g84
g70
NtRp3262
(dp3263
g73
(dp3264
sg82
g3003
sg75
(lp3265
g68
(g89
g70
NtRp3266
(dp3267
g73
(dp3268
g93
g94
ssg82
g3262
sg75
(lp3269
S'flash'
p3270
asbag68
(g89
g70
NtRp3271
(dp3272
g73
(dp3273
g100
g101
ssg82
g3262
sg75
(lp3274
S':'
asbag68
(g89
g70
NtRp3275
(dp3276
g73
(dp3277
sg82
g3262
sg75
(lp3278
g68
(g69
g70
NtRp3279
(dp3280
g73
(dp3281
g81
I5
ssg82
g3275
sg75
(lp3282
S''
asbasbasbag68
(g84
g70
NtRp3283
(dp3284
g73
(dp3285
sg82
g3003
sg75
(lp3286
g68
(g89
g70
NtRp3287
(dp3288
g73
(dp3289
g93
g94
ssg82
g3283
sg75
(lp3290
S'generic_patterns'
p3291
asbag68
(g89
g70
NtRp3292
(dp3293
g73
(dp3294
g100
g101
ssg82
g3283
sg75
(lp3295
S':'
asbag68
(g89
g70
NtRp3296
(dp3297
g73
(dp3298
sg82
g3283
sg75
(lp3299
g68
(g69
g70
NtRp3300
(dp3301
g73
(dp3302
g81
I5
ssg82
g3296
sg75
(lp3303
g68
(g77
g70
NtRp3304
(dp3305
g73
(dp3306
g81
I4
ssg82
Nsg75
(lp3307
g68
(g84
g70
NtRp3308
(dp3309
g73
(dp3310
sg82
g3304
sg75
(lp3311
g68
(g89
g70
NtRp3312
(dp3313
g73
(dp3314
sg82
g3308
sg75
(lp3315
g68
(g69
g70
NtRp3316
(dp3317
g73
(dp3318
g81
I4
ssg82
g3312
sg75
(lp3319
S'*'
asbasbasbasbasbasbasbag68
(g84
g70
NtRp3320
(dp3321
g73
(dp3322
sg82
g3003
sg75
(lp3323
g68
(g89
g70
NtRp3324
(dp3325
g73
(dp3326
g93
g94
ssg82
g3320
sg75
(lp3327
S'headers'
p3328
asbag68
(g89
g70
NtRp3329
(dp3330
g73
(dp3331
g100
g101
ssg82
g3320
sg75
(lp3332
S':'
asbag68
(g89
g70
NtRp3333
(dp3334
g73
(dp3335
sg82
g3320
sg75
(lp3336
g68
(g69
g70
NtRp3337
(dp3338
g73
(dp3339
g81
I5
ssg82
g3333
sg75
(lp3340
g68
(g77
g70
NtRp3341
(dp3342
g73
(dp3343
g81
I4
ssg82
Nsg75
(lp3344
g68
(g84
g70
NtRp3345
(dp3346
g73
(dp3347
sg82
g3341
sg75
(lp3348
g68
(g89
g70
NtRp3349
(dp3350
g73
(dp3351
g93
g94
ssg82
g3345
sg75
(lp3352
S'Cache-Control'
p3353
asbag68
(g89
g70
NtRp3354
(dp3355
g73
(dp3356
g100
g101
ssg82
g3345
sg75
(lp3357
S':'
asbag68
(g89
g70
NtRp3358
(dp3359
g73
(dp3360
sg82
g3345
sg75
(lp3361
g68
(g69
g70
NtRp3362
(dp3363
g73
(dp3364
g81
I4
ssg82
g3358
sg75
(lp3365
S'no-store, no-cache, must-revalidate, post-check=0, pre-check=0'
p3366
asbasbasbag68
(g84
g70
NtRp3367
(dp3368
g73
(dp3369
sg82
g3341
sg75
(lp3370
g68
(g89
g70
NtRp3371
(dp3372
g73
(dp3373
g93
g94
ssg82
g3367
sg75
(lp3374
S'Content-Type'
p3375
asbag68
(g89
g70
NtRp3376
(dp3377
g73
(dp3378
g100
g101
ssg82
g3367
sg75
(lp3379
S':'
asbag68
(g89
g70
NtRp3380
(dp3381
g73
(dp3382
sg82
g3367
sg75
(lp3383
g68
(g69
g70
NtRp3384
(dp3385
g73
(dp3386
g81
I4
ssg82
g3380
sg75
(lp3387
S'text/html; charset=utf-8'
p3388
asbasbasbag68
(g84
g70
NtRp3389
(dp3390
g73
(dp3391
sg82
g3341
sg75
(lp3392
g68
(g89
g70
NtRp3393
(dp3394
g73
(dp3395
g93
g94
ssg82
g3389
sg75
(lp3396
S'Expires'
p3397
asbag68
(g89
g70
NtRp3398
(dp3399
g73
(dp3400
g100
g101
ssg82
g3389
sg75
(lp3401
S':'
asbag68
(g89
g70
NtRp3402
(dp3403
g73
(dp3404
sg82
g3389
sg75
(lp3405
g68
(g69
g70
NtRp3406
(dp3407
g73
(dp3408
g81
I4
ssg82
g3402
sg75
(lp3409
S'Thu, 20 Oct 2011 21:58:37 GMT'
p3410
asbasbasbag68
(g84
g70
NtRp3411
(dp3412
g73
(dp3413
sg82
g3341
sg75
(lp3414
g68
(g89
g70
NtRp3415
(dp3416
g73
(dp3417
g93
g94
ssg82
g3411
sg75
(lp3418
S'Pragma'
p3419
asbag68
(g89
g70
NtRp3420
(dp3421
g73
(dp3422
g100
g101
ssg82
g3411
sg75
(lp3423
S':'
asbag68
(g89
g70
NtRp3424
(dp3425
g73
(dp3426
sg82
g3411
sg75
(lp3427
g68
(g69
g70
NtRp3428
(dp3429
g73
(dp3430
g81
I4
ssg82
g3424
sg75
(lp3431
S'no-cache'
p3432
asbasbasbag68
(g84
g70
NtRp3433
(dp3434
g73
(dp3435
sg82
g3341
sg75
(lp3436
g68
(g89
g70
NtRp3437
(dp3438
g73
(dp3439
g93
g94
ssg82
g3433
sg75
(lp3440
S'X-Powered-By'
p3441
asbag68
(g89
g70
NtRp3442
(dp3443
g73
(dp3444
g100
g101
ssg82
g3433
sg75
(lp3445
S':'
asbag68
(g89
g70
NtRp3446
(dp3447
g73
(dp3448
sg82
g3433
sg75
(lp3449
g68
(g69
g70
NtRp3450
(dp3451
g73
(dp3452
g81
I4
ssg82
g3446
sg75
(lp3453
S'web2py'
p3454
asbasbasbasbasbasbasbag68
(g84
g70
NtRp3455
(dp3456
g73
(dp3457
sg82
g3003
sg75
(lp3458
g68
(g89
g70
NtRp3459
(dp3460
g73
(dp3461
g93
g94
ssg82
g3455
sg75
(lp3462
S'menu'
p3463
asbag68
(g89
g70
NtRp3464
(dp3465
g73
(dp3466
g100
g101
ssg82
g3455
sg75
(lp3467
S':'
asbag68
(g89
g70
NtRp3468
(dp3469
g73
(dp3470
sg82
g3455
sg75
(lp3471
g68
(g69
g70
NtRp3472
(dp3473
g73
(dp3474
g81
I5
ssg82
g3468
sg75
(lp3475
g68
(g77
g70
NtRp3476
(dp3477
g73
(dp3478
g81
I4
ssg82
Nsg75
(lp3479
g68
(g84
g70
NtRp3480
(dp3481
g73
(dp3482
sg82
g3476
sg75
(lp3483
g68
(g89
g70
NtRp3484
(dp3485
g73
(dp3486
sg82
g3480
sg75
(lp3487
g68
(g69
g70
NtRp3488
(dp3489
g73
(dp3490
g81
I4
ssg82
g3484
sg75
(lp3491
g68
(g77
g70
NtRp3492
(dp3493
g73
(dp3494
g81
I3
ssg82
Nsg75
(lp3495
g68
(g84
g70
NtRp3496
(dp3497
g73
(dp3498
sg82
g3492
sg75
(lp3499
g68
(g89
g70
NtRp3500
(dp3501
g73
(dp3502
sg82
g3496
sg75
(lp3503
g68
(g69
g70
NtRp3504
(dp3505
g73
(dp3506
g81
I3
ssg82
g3500
sg75
(lp3507
cgluon.languages
lazyT_unpickle
p3508
(S't\x04\x00\x00\x00Home'
tRp3509
asbasbasbag68
(g84
g70
NtRp3510
(dp3511
g73
(dp3512
sg82
g3492
sg75
(lp3513
g68
(g89
g70
NtRp3514
(dp3515
g73
(dp3516
sg82
g3510
sg75
(lp3517
g68
(g69
g70
NtRp3518
(dp3519
g73
(dp3520
g81
I3
ssg82
g3514
sg75
(lp3521
g111
asbasbasbag68
(g84
g70
NtRp3522
(dp3523
g73
(dp3524
sg82
g3492
sg75
(lp3525
g68
(g89
g70
NtRp3526
(dp3527
g73
(dp3528
sg82
g3522
sg75
(lp3529
g68
(g69
g70
NtRp3530
(dp3531
g73
(dp3532
g81
I3
ssg82
g3526
sg75
(lp3533
S'/places/default/index'
p3534
asbasbasbag68
(g84
g70
NtRp3535
(dp3536
g73
(dp3537
sg82
g3492
sg75
(lp3538
g68
(g89
g70
NtRp3539
(dp3540
g73
(dp3541
sg82
g3535
sg75
(lp3542
g68
(g69
g70
NtRp3543
(dp3544
g73
(dp3545
g81
I3
ssg82
g3539
sg75
(lp3546
g68
(g77
g70
NtRp3547
(dp3548
g73
(dp3549
g81
I2
ssg82
Nsg75
(lp3550
sbasbasbasbasbasbasbasbag68
(g84
g70
NtRp3551
(dp3552
g73
(dp3553
sg82
g3476
sg75
(lp3554
g68
(g89
g70
NtRp3555
(dp3556
g73
(dp3557
sg82
g3551
sg75
(lp3558
g68
(g69
g70
NtRp3559
(dp3560
g73
(dp3561
g81
I4
ssg82
g3555
sg75
(lp3562
g68
(g77
g70
NtRp3563
(dp3564
g73
(dp3565
g81
I3
ssg82
Nsg75
(lp3566
g68
(g84
g70
NtRp3567
(dp3568
g73
(dp3569
sg82
g3563
sg75
(lp3570
g68
(g89
g70
NtRp3571
(dp3572
g73
(dp3573
sg82
g3567
sg75
(lp3574
g68
(g69
g70
NtRp3575
(dp3576
g73
(dp3577
g81
I3
ssg82
g3571
sg75
(lp3578
g3508
(S's\x08\x00\x00\x00This App'
tRp3579
asbasbasbag68
(g84
g70
NtRp3580
(dp3581
g73
(dp3582
sg82
g3563
sg75
(lp3583
g68
(g89
g70
NtRp3584
(dp3585
g73
(dp3586
sg82
g3580
sg75
(lp3587
g68
(g69
g70
NtRp3588
(dp3589
g73
(dp3590
g81
I3
ssg82
g3584
sg75
(lp3591
g111
asbasbasbag68
(g84
g70
NtRp3592
(dp3593
g73
(dp3594
sg82
g3563
sg75
(lp3595
g68
(g89
g70
NtRp3596
(dp3597
g73
(dp3598
sg82
g3592
sg75
(lp3599
g68
(g69
g70
NtRp3600
(dp3601
g73
(dp3602
g81
I3
ssg82
g3596
sg75
(lp3603
S'/admin/default/design/places'
p3604
asbasbasbag68
(g84
g70
NtRp3605
(dp3606
g73
(dp3607
sg82
g3563
sg75
(lp3608
g68
(g89
g70
NtRp3609
(dp3610
g73
(dp3611
sg82
g3605
sg75
(lp3612
g68
(g69
g70
NtRp3613
(dp3614
g73
(dp3615
g81
I3
ssg82
g3609
sg75
(lp3616
g68
(g77
g70
NtRp3617
(dp3618
g73
(dp3619
g81
I2
ssg82
Nsg75
(lp3620
g68
(g84
g70
NtRp3621
(dp3622
g73
(dp3623
sg82
g3617
sg75
(lp3624
g68
(g89
g70
NtRp3625
(dp3626
g73
(dp3627
sg82
g3621
sg75
(lp3628
g68
(g69
g70
NtRp3629
(dp3630
g73
(dp3631
g81
I2
ssg82
g3625
sg75
(lp3632
g68
(g77
g70
NtRp3633
(dp3634
g73
(dp3635
g81
I1
ssg82
Nsg75
(lp3636
g68
(g84
g70
NtRp3637
(dp3638
g73
(dp3639
sg82
g3633
sg75
(lp3640
g68
(g89
g70
NtRp3641
(dp3642
g73
(dp3643
sg82
g3637
sg75
(lp3644
g68
(g69
g70
NtRp3645
(dp3646
g73
(dp3647
g81
I1
ssg82
g3641
sg75
(lp3648
g3508
(S't\n\x00\x00\x00Controller'
tRp3649
asbasbasbag68
(g84
g70
NtRp3650
(dp3651
g73
(dp3652
sg82
g3633
sg75
(lp3653
g68
(g89
g70
NtRp3654
(dp3655
g73
(dp3656
sg82
g3650
sg75
(lp3657
g68
(g69
g70
NtRp3658
(dp3659
g73
(dp3660
g81
I1
ssg82
g3654
sg75
(lp3661
I00
asbasbasbag68
(g84
g70
NtRp3662
(dp3663
g73
(dp3664
sg82
g3633
sg75
(lp3665
g68
(g89
g70
NtRp3666
(dp3667
g73
(dp3668
sg82
g3662
sg75
(lp3669
g68
(g69
g70
NtRp3670
(dp3671
g73
(dp3672
g81
I1
ssg82
g3666
sg75
(lp3673
S'/admin/default/edit/places/controllers/default.py'
p3674
asbasbasbasbasbasbasbag68
(g84
g70
NtRp3675
(dp3676
g73
(dp3677
sg82
g3617
sg75
(lp3678
g68
(g89
g70
NtRp3679
(dp3680
g73
(dp3681
sg82
g3675
sg75
(lp3682
g68
(g69
g70
NtRp3683
(dp3684
g73
(dp3685
g81
I2
ssg82
g3679
sg75
(lp3686
g68
(g77
g70
NtRp3687
(dp3688
g73
(dp3689
g81
I1
ssg82
Nsg75
(lp3690
g68
(g84
g70
NtRp3691
(dp3692
g73
(dp3693
sg82
g3687
sg75
(lp3694
g68
(g89
g70
NtRp3695
(dp3696
g73
(dp3697
sg82
g3691
sg75
(lp3698
g68
(g69
g70
NtRp3699
(dp3700
g73
(dp3701
g81
I1
ssg82
g3695
sg75
(lp3702
g3508
(S't\x04\x00\x00\x00View'
tRp3703
asbasbasbag68
(g84
g70
NtRp3704
(dp3705
g73
(dp3706
sg82
g3687
sg75
(lp3707
g68
(g89
g70
NtRp3708
(dp3709
g73
(dp3710
sg82
g3704
sg75
(lp3711
g68
(g69
g70
NtRp3712
(dp3713
g73
(dp3714
g81
I1
ssg82
g3708
sg75
(lp3715
I00
asbasbasbag68
(g84
g70
NtRp3716
(dp3717
g73
(dp3718
sg82
g3687
sg75
(lp3719
g68
(g89
g70
NtRp3720
(dp3721
g73
(dp3722
sg82
g3716
sg75
(lp3723
g68
(g69
g70
NtRp3724
(dp3725
g73
(dp3726
g81
I1
ssg82
g3720
sg75
(lp3727
S'/admin/default/edit/places/views/default/index.html'
p3728
asbasbasbasbasbasbasbag68
(g84
g70
NtRp3729
(dp3730
g73
(dp3731
sg82
g3617
sg75
(lp3732
g68
(g89
g70
NtRp3733
(dp3734
g73
(dp3735
sg82
g3729
sg75
(lp3736
g68
(g69
g70
NtRp3737
(dp3738
g73
(dp3739
g81
I2
ssg82
g3733
sg75
(lp3740
g68
(g77
g70
NtRp3741
(dp3742
g73
(dp3743
g81
I1
ssg82
Nsg75
(lp3744
g68
(g84
g70
NtRp3745
(dp3746
g73
(dp3747
sg82
g3741
sg75
(lp3748
g68
(g89
g70
NtRp3749
(dp3750
g73
(dp3751
sg82
g3745
sg75
(lp3752
g68
(g69
g70
NtRp3753
(dp3754
g73
(dp3755
g81
I1
ssg82
g3749
sg75
(lp3756
g3508
(S't\x06\x00\x00\x00Layout'
tRp3757
asbasbasbag68
(g84
g70
NtRp3758
(dp3759
g73
(dp3760
sg82
g3741
sg75
(lp3761
g68
(g89
g70
NtRp3762
(dp3763
g73
(dp3764
sg82
g3758
sg75
(lp3765
g68
(g69
g70
NtRp3766
(dp3767
g73
(dp3768
g81
I1
ssg82
g3762
sg75
(lp3769
I00
asbasbasbag68
(g84
g70
NtRp3770
(dp3771
g73
(dp3772
sg82
g3741
sg75
(lp3773
g68
(g89
g70
NtRp3774
(dp3775
g73
(dp3776
sg82
g3770
sg75
(lp3777
g68
(g69
g70
NtRp3778
(dp3779
g73
(dp3780
g81
I1
ssg82
g3774
sg75
(lp3781
S'/admin/default/edit/places/views/layout.html'
p3782
asbasbasbasbasbasbasbag68
(g84
g70
NtRp3783
(dp3784
g73
(dp3785
sg82
g3617
sg75
(lp3786
g68
(g89
g70
NtRp3787
(dp3788
g73
(dp3789
sg82
g3783
sg75
(lp3790
g68
(g69
g70
NtRp3791
(dp3792
g73
(dp3793
g81
I2
ssg82
g3787
sg75
(lp3794
g68
(g77
g70
NtRp3795
(dp3796
g73
(dp3797
g81
I1
ssg82
Nsg75
(lp3798
g68
(g84
g70
NtRp3799
(dp3800
g73
(dp3801
sg82
g3795
sg75
(lp3802
g68
(g89
g70
NtRp3803
(dp3804
g73
(dp3805
sg82
g3799
sg75
(lp3806
g68
(g69
g70
NtRp3807
(dp3808
g73
(dp3809
g81
I1
ssg82
g3803
sg75
(lp3810
g3508
(S't\n\x00\x00\x00Stylesheet'
tRp3811
asbasbasbag68
(g84
g70
NtRp3812
(dp3813
g73
(dp3814
sg82
g3795
sg75
(lp3815
g68
(g89
g70
NtRp3816
(dp3817
g73
(dp3818
sg82
g3812
sg75
(lp3819
g68
(g69
g70
NtRp3820
(dp3821
g73
(dp3822
g81
I1
ssg82
g3816
sg75
(lp3823
I00
asbasbasbag68
(g84
g70
NtRp3824
(dp3825
g73
(dp3826
sg82
g3795
sg75
(lp3827
g68
(g89
g70
NtRp3828
(dp3829
g73
(dp3830
sg82
g3824
sg75
(lp3831
g68
(g69
g70
NtRp3832
(dp3833
g73
(dp3834
g81
I1
ssg82
g3828
sg75
(lp3835
S'/admin/default/edit/places/static/base.css'
p3836
asbasbasbasbasbasbasbag68
(g84
g70
NtRp3837
(dp3838
g73
(dp3839
sg82
g3617
sg75
(lp3840
g68
(g89
g70
NtRp3841
(dp3842
g73
(dp3843
sg82
g3837
sg75
(lp3844
g68
(g69
g70
NtRp3845
(dp3846
g73
(dp3847
g81
I2
ssg82
g3841
sg75
(lp3848
g68
(g77
g70
NtRp3849
(dp3850
g73
(dp3851
g81
I1
ssg82
Nsg75
(lp3852
g68
(g84
g70
NtRp3853
(dp3854
g73
(dp3855
sg82
g3849
sg75
(lp3856
g68
(g89
g70
NtRp3857
(dp3858
g73
(dp3859
sg82
g3853
sg75
(lp3860
g68
(g69
g70
NtRp3861
(dp3862
g73
(dp3863
g81
I1
ssg82
g3857
sg75
(lp3864
g3508
(S's\x08\x00\x00\x00DB Model'
tRp3865
asbasbasbag68
(g84
g70
NtRp3866
(dp3867
g73
(dp3868
sg82
g3849
sg75
(lp3869
g68
(g89
g70
NtRp3870
(dp3871
g73
(dp3872
sg82
g3866
sg75
(lp3873
g68
(g69
g70
NtRp3874
(dp3875
g73
(dp3876
g81
I1
ssg82
g3870
sg75
(lp3877
I00
asbasbasbag68
(g84
g70
NtRp3878
(dp3879
g73
(dp3880
sg82
g3849
sg75
(lp3881
g68
(g89
g70
NtRp3882
(dp3883
g73
(dp3884
sg82
g3878
sg75
(lp3885
g68
(g69
g70
NtRp3886
(dp3887
g73
(dp3888
g81
I1
ssg82
g3882
sg75
(lp3889
S'/admin/default/edit/places/models/db.py'
p3890
asbasbasbasbasbasbasbag68
(g84
g70
NtRp3891
(dp3892
g73
(dp3893
sg82
g3617
sg75
(lp3894
g68
(g89
g70
NtRp3895
(dp3896
g73
(dp3897
sg82
g3891
sg75
(lp3898
g68
(g69
g70
NtRp3899
(dp3900
g73
(dp3901
g81
I2
ssg82
g3895
sg75
(lp3902
g68
(g77
g70
NtRp3903
(dp3904
g73
(dp3905
g81
I1
ssg82
Nsg75
(lp3906
g68
(g84
g70
NtRp3907
(dp3908
g73
(dp3909
sg82
g3903
sg75
(lp3910
g68
(g89
g70
NtRp3911
(dp3912
g73
(dp3913
sg82
g3907
sg75
(lp3914
g68
(g69
g70
NtRp3915
(dp3916
g73
(dp3917
g81
I1
ssg82
g3911
sg75
(lp3918
g3508
(S's\n\x00\x00\x00Menu Model'
tRp3919
asbasbasbag68
(g84
g70
NtRp3920
(dp3921
g73
(dp3922
sg82
g3903
sg75
(lp3923
g68
(g89
g70
NtRp3924
(dp3925
g73
(dp3926
sg82
g3920
sg75
(lp3927
g68
(g69
g70
NtRp3928
(dp3929
g73
(dp3930
g81
I1
ssg82
g3924
sg75
(lp3931
I00
asbasbasbag68
(g84
g70
NtRp3932
(dp3933
g73
(dp3934
sg82
g3903
sg75
(lp3935
g68
(g89
g70
NtRp3936
(dp3937
g73
(dp3938
sg82
g3932
sg75
(lp3939
g68
(g69
g70
NtRp3940
(dp3941
g73
(dp3942
g81
I1
ssg82
g3936
sg75
(lp3943
S'/admin/default/edit/places/models/menu.py'
p3944
asbasbasbasbasbasbasbag68
(g84
g70
NtRp3945
(dp3946
g73
(dp3947
sg82
g3617
sg75
(lp3948
g68
(g89
g70
NtRp3949
(dp3950
g73
(dp3951
sg82
g3945
sg75
(lp3952
g68
(g69
g70
NtRp3953
(dp3954
g73
(dp3955
g81
I2
ssg82
g3949
sg75
(lp3956
g68
(g77
g70
NtRp3957
(dp3958
g73
(dp3959
g81
I1
ssg82
Nsg75
(lp3960
g68
(g84
g70
NtRp3961
(dp3962
g73
(dp3963
sg82
g3957
sg75
(lp3964
g68
(g89
g70
NtRp3965
(dp3966
g73
(dp3967
sg82
g3961
sg75
(lp3968
g68
(g69
g70
NtRp3969
(dp3970
g73
(dp3971
g81
I1
ssg82
g3965
sg75
(lp3972
g3508
(S't\x08\x00\x00\x00Database'
tRp3973
asbasbasbag68
(g84
g70
NtRp3974
(dp3975
g73
(dp3976
sg82
g3957
sg75
(lp3977
g68
(g89
g70
NtRp3978
(dp3979
g73
(dp3980
sg82
g3974
sg75
(lp3981
g68
(g69
g70
NtRp3982
(dp3983
g73
(dp3984
g81
I1
ssg82
g3978
sg75
(lp3985
I00
asbasbasbag68
(g84
g70
NtRp3986
(dp3987
g73
(dp3988
sg82
g3957
sg75
(lp3989
g68
(g89
g70
NtRp3990
(dp3991
g73
(dp3992
sg82
g3986
sg75
(lp3993
g68
(g69
g70
NtRp3994
(dp3995
g73
(dp3996
g81
I1
ssg82
g3990
sg75
(lp3997
S'/places/appadmin/index'
p3998
asbasbasbasbasbasbasbag68
(g84
g70
NtRp3999
(dp4000
g73
(dp4001
sg82
g3617
sg75
(lp4002
g68
(g89
g70
NtRp4003
(dp4004
g73
(dp4005
sg82
g3999
sg75
(lp4006
g68
(g69
g70
NtRp4007
(dp4008
g73
(dp4009
g81
I2
ssg82
g4003
sg75
(lp4010
g68
(g77
g70
NtRp4011
(dp4012
g73
(dp4013
g81
I1
ssg82
Nsg75
(lp4014
g68
(g84
g70
NtRp4015
(dp4016
g73
(dp4017
sg82
g4011
sg75
(lp4018
g68
(g89
g70
NtRp4019
(dp4020
g73
(dp4021
sg82
g4015
sg75
(lp4022
g68
(g69
g70
NtRp4023
(dp4024
g73
(dp4025
g81
I1
ssg82
g4019
sg75
(lp4026
g3508
(S't\x06\x00\x00\x00Errors'
tRp4027
asbasbasbag68
(g84
g70
NtRp4028
(dp4029
g73
(dp4030
sg82
g4011
sg75
(lp4031
g68
(g89
g70
NtRp4032
(dp4033
g73
(dp4034
sg82
g4028
sg75
(lp4035
g68
(g69
g70
NtRp4036
(dp4037
g73
(dp4038
g81
I1
ssg82
g4032
sg75
(lp4039
I00
asbasbasbag68
(g84
g70
NtRp4040
(dp4041
g73
(dp4042
sg82
g4011
sg75
(lp4043
g68
(g89
g70
NtRp4044
(dp4045
g73
(dp4046
sg82
g4040
sg75
(lp4047
g68
(g69
g70
NtRp4048
(dp4049
g73
(dp4050
g81
I1
ssg82
g4044
sg75
(lp4051
S'/admin/default/errors/places'
p4052
asbasbasbasbasbasbasbag68
(g84
g70
NtRp4053
(dp4054
g73
(dp4055
sg82
g3617
sg75
(lp4056
g68
(g89
g70
NtRp4057
(dp4058
g73
(dp4059
sg82
g4053
sg75
(lp4060
g68
(g69
g70
NtRp4061
(dp4062
g73
(dp4063
g81
I2
ssg82
g4057
sg75
(lp4064
g68
(g77
g70
NtRp4065
(dp4066
g73
(dp4067
g81
I1
ssg82
Nsg75
(lp4068
g68
(g84
g70
NtRp4069
(dp4070
g73
(dp4071
sg82
g4065
sg75
(lp4072
g68
(g89
g70
NtRp4073
(dp4074
g73
(dp4075
sg82
g4069
sg75
(lp4076
g68
(g69
g70
NtRp4077
(dp4078
g73
(dp4079
g81
I1
ssg82
g4073
sg75
(lp4080
g3508
(S't\x05\x00\x00\x00About'
tRp4081
asbasbasbag68
(g84
g70
NtRp4082
(dp4083
g73
(dp4084
sg82
g4065
sg75
(lp4085
g68
(g89
g70
NtRp4086
(dp4087
g73
(dp4088
sg82
g4082
sg75
(lp4089
g68
(g69
g70
NtRp4090
(dp4091
g73
(dp4092
g81
I1
ssg82
g4086
sg75
(lp4093
I00
asbasbasbag68
(g84
g70
NtRp4094
(dp4095
g73
(dp4096
sg82
g4065
sg75
(lp4097
g68
(g89
g70
NtRp4098
(dp4099
g73
(dp4100
sg82
g4094
sg75
(lp4101
g68
(g69
g70
NtRp4102
(dp4103
g73
(dp4104
g81
I1
ssg82
g4098
sg75
(lp4105
S'/admin/default/about/places'
p4106
asbasbasbasbasbasbasbasbasbasbasbasbasbasbasbag68
(g84
g70
NtRp4107
(dp4108
g73
(dp4109
sg82
g3476
sg75
(lp4110
g68
(g89
g70
NtRp4111
(dp4112
g73
(dp4113
sg82
g4107
sg75
(lp4114
g68
(g69
g70
NtRp4115
(dp4116
g73
(dp4117
g81
I4
ssg82
g4111
sg75
(lp4118
g68
(g77
g70
NtRp4119
(dp4120
g73
(dp4121
g81
I3
ssg82
Nsg75
(lp4122
g68
(g84
g70
NtRp4123
(dp4124
g73
(dp4125
sg82
g4119
sg75
(lp4126
g68
(g89
g70
NtRp4127
(dp4128
g73
(dp4129
sg82
g4123
sg75
(lp4130
g68
(g69
g70
NtRp4131
(dp4132
g73
(dp4133
g81
I3
ssg82
g4127
sg75
(lp4134
g3508
(S't\t\x00\x00\x00Resources'
tRp4135
asbasbasbag68
(g84
g70
NtRp4136
(dp4137
g73
(dp4138
sg82
g4119
sg75
(lp4139
g68
(g89
g70
NtRp4140
(dp4141
g73
(dp4142
sg82
g4136
sg75
(lp4143
g68
(g69
g70
NtRp4144
(dp4145
g73
(dp4146
g81
I3
ssg82
g4140
sg75
(lp4147
g111
asbasbasbag68
(g84
g70
NtRp4148
(dp4149
g73
(dp4150
sg82
g4119
sg75
(lp4151
g68
(g89
g70
NtRp4152
(dp4153
g73
(dp4154
sg82
g4148
sg75
(lp4155
g68
(g69
g70
NtRp4156
(dp4157
g73
(dp4158
g81
I3
ssg82
g4152
sg75
(lp4159
S'None'
p4160
asbasbasbag68
(g84
g70
NtRp4161
(dp4162
g73
(dp4163
sg82
g4119
sg75
(lp4164
g68
(g89
g70
NtRp4165
(dp4166
g73
(dp4167
sg82
g4161
sg75
(lp4168
g68
(g69
g70
NtRp4169
(dp4170
g73
(dp4171
g81
I3
ssg82
g4165
sg75
(lp4172
g68
(g77
g70
NtRp4173
(dp4174
g73
(dp4175
g81
I2
ssg82
Nsg75
(lp4176
g68
(g84
g70
NtRp4177
(dp4178
g73
(dp4179
sg82
g4173
sg75
(lp4180
g68
(g89
g70
NtRp4181
(dp4182
g73
(dp4183
sg82
g4177
sg75
(lp4184
g68
(g69
g70
NtRp4185
(dp4186
g73
(dp4187
g81
I2
ssg82
g4181
sg75
(lp4188
g68
(g77
g70
NtRp4189
(dp4190
g73
(dp4191
g81
I1
ssg82
Nsg75
(lp4192
g68
(g84
g70
NtRp4193
(dp4194
g73
(dp4195
sg82
g4189
sg75
(lp4196
g68
(g89
g70
NtRp4197
(dp4198
g73
(dp4199
sg82
g4193
sg75
(lp4200
g68
(g69
g70
NtRp4201
(dp4202
g73
(dp4203
g81
I1
ssg82
g4197
sg75
(lp4204
g3508
(S't\r\x00\x00\x00Documentation'
tRp4205
asbasbasbag68
(g84
g70
NtRp4206
(dp4207
g73
(dp4208
sg82
g4189
sg75
(lp4209
g68
(g89
g70
NtRp4210
(dp4211
g73
(dp4212
sg82
g4206
sg75
(lp4213
g68
(g69
g70
NtRp4214
(dp4215
g73
(dp4216
g81
I1
ssg82
g4210
sg75
(lp4217
I00
asbasbasbag68
(g84
g70
NtRp4218
(dp4219
g73
(dp4220
sg82
g4189
sg75
(lp4221
g68
(g89
g70
NtRp4222
(dp4223
g73
(dp4224
sg82
g4218
sg75
(lp4225
g68
(g69
g70
NtRp4226
(dp4227
g73
(dp4228
g81
I1
ssg82
g4222
sg75
(lp4229
S'http://www.web2py.com/book'
p4230
asbasbasbag68
(g84
g70
NtRp4231
(dp4232
g73
(dp4233
sg82
g4189
sg75
(lp4234
g68
(g89
g70
NtRp4235
(dp4236
g73
(dp4237
sg82
g4231
sg75
(lp4238
g68
(g69
g70
NtRp4239
(dp4240
g73
(dp4241
g81
I1
ssg82
g4235
sg75
(lp4242
(lp4243
(g3508
(S't\x07\x00\x00\x00Preface'
tRp4244
I00
S'http://www.web2py.com/book/default/chapter/00'
p4245
tp4246
a(g3508
(S't\x0c\x00\x00\x00Introduction'
tRp4247
I00
S'http://www.web2py.com/book/default/chapter/01'
p4248
tp4249
a(g3508
(S't\x06\x00\x00\x00Python'
tRp4250
I00
S'http://www.web2py.com/book/default/chapter/02'
p4251
tp4252
a(g3508
(S't\x08\x00\x00\x00Overview'
tRp4253
I00
S'http://www.web2py.com/book/default/chapter/03'
p4254
tp4255
a(g3508
(S's\x08\x00\x00\x00The Core'
tRp4256
I00
S'http://www.web2py.com/book/default/chapter/04'
p4257
tp4258
a(g3508
(S's\t\x00\x00\x00The Views'
tRp4259
I00
S'http://www.web2py.com/book/default/chapter/05'
p4260
tp4261
a(g3508
(S't\x08\x00\x00\x00Database'
tRp4262
I00
S'http://www.web2py.com/book/default/chapter/06'
p4263
tp4264
a(g3508
(S's\x14\x00\x00\x00Forms and Validators'
tRp4265
I00
S'http://www.web2py.com/book/default/chapter/07'
p4266
tp4267
a(g3508
(S's\x0e\x00\x00\x00Access Control'
tRp4268
I00
S'http://www.web2py.com/book/default/chapter/08'
p4269
tp4270
a(g3508
(S't\x08\x00\x00\x00Services'
tRp4271
I00
S'http://www.web2py.com/book/default/chapter/09'
p4272
tp4273
a(g3508
(S's\x0c\x00\x00\x00Ajax Recipes'
tRp4274
I00
S'http://www.web2py.com/book/default/chapter/10'
p4275
tp4276
a(g3508
(S's\x12\x00\x00\x00Deployment Recipes'
tRp4277
I00
S'http://www.web2py.com/book/default/chapter/11'
p4278
tp4279
a(g3508
(S's\r\x00\x00\x00Other Recipes'
tRp4280
I00
S'http://www.web2py.com/book/default/chapter/12'
p4281
tp4282
a(g3508
(S's\r\x00\x00\x00Buy this book'
tRp4283
I00
S'http://stores.lulu.com/web2py'
p4284
tp4285
aasbasbasbasbasbasbasbag68
(g84
g70
NtRp4286
(dp4287
g73
(dp4288
sg82
g4173
sg75
(lp4289
g68
(g89
g70
NtRp4290
(dp4291
g73
(dp4292
sg82
g4286
sg75
(lp4293
g68
(g69
g70
NtRp4294
(dp4295
g73
(dp4296
g81
I2
ssg82
g4290
sg75
(lp4297
g68
(g77
g70
NtRp4298
(dp4299
g73
(dp4300
g81
I1
ssg82
Nsg75
(lp4301
g68
(g84
g70
NtRp4302
(dp4303
g73
(dp4304
sg82
g4298
sg75
(lp4305
g68
(g89
g70
NtRp4306
(dp4307
g73
(dp4308
sg82
g4302
sg75
(lp4309
g68
(g69
g70
NtRp4310
(dp4311
g73
(dp4312
g81
I1
ssg82
g4306
sg75
(lp4313
g3508
(S't\t\x00\x00\x00Community'
tRp4314
asbasbasbag68
(g84
g70
NtRp4315
(dp4316
g73
(dp4317
sg82
g4298
sg75
(lp4318
g68
(g89
g70
NtRp4319
(dp4320
g73
(dp4321
sg82
g4315
sg75
(lp4322
g68
(g69
g70
NtRp4323
(dp4324
g73
(dp4325
g81
I1
ssg82
g4319
sg75
(lp4326
I00
asbasbasbag68
(g84
g70
NtRp4327
(dp4328
g73
(dp4329
sg82
g4298
sg75
(lp4330
g68
(g89
g70
NtRp4331
(dp4332
g73
(dp4333
sg82
g4327
sg75
(lp4334
g68
(g69
g70
NtRp4335
(dp4336
g73
(dp4337
g81
I1
ssg82
g4331
sg75
(lp4338
Nasbasbasbag68
(g84
g70
NtRp4339
(dp4340
g73
(dp4341
sg82
g4298
sg75
(lp4342
g68
(g89
g70
NtRp4343
(dp4344
g73
(dp4345
sg82
g4339
sg75
(lp4346
g68
(g69
g70
NtRp4347
(dp4348
g73
(dp4349
g81
I1
ssg82
g4343
sg75
(lp4350
(lp4351
(g3508
(S't\x06\x00\x00\x00Groups'
tRp4352
I00
S'http://www.web2py.com/examples/default/usergroups'
p4353
tp4354
a(g3508
(S't\x07\x00\x00\x00Twitter'
tRp4355
I00
S'http://twitter.com/web2py'
p4356
tp4357
a(g3508
(S's\t\x00\x00\x00Live chat'
tRp4358
I00
S'http://mibbit.com/?channel=%23web2py&server=irc.mibbit.net'
p4359
tp4360
a(g3508
(S's\n\x00\x00\x00User Voice'
tRp4361
I00
S'http://web2py.uservoice.com/'
p4362
tp4363
aasbasbasbasbasbasbasbag68
(g84
g70
NtRp4364
(dp4365
g73
(dp4366
sg82
g4173
sg75
(lp4367
g68
(g89
g70
NtRp4368
(dp4369
g73
(dp4370
sg82
g4364
sg75
(lp4371
g68
(g69
g70
NtRp4372
(dp4373
g73
(dp4374
g81
I2
ssg82
g4368
sg75
(lp4375
g68
(g77
g70
NtRp4376
(dp4377
g73
(dp4378
g81
I1
ssg82
Nsg75
(lp4379
g68
(g84
g70
NtRp4380
(dp4381
g73
(dp4382
sg82
g4376
sg75
(lp4383
g68
(g89
g70
NtRp4384
(dp4385
g73
(dp4386
sg82
g4380
sg75
(lp4387
g68
(g69
g70
NtRp4388
(dp4389
g73
(dp4390
g81
I1
ssg82
g4384
sg75
(lp4391
g3508
(S't\x06\x00\x00\x00Web2py'
tRp4392
asbasbasbag68
(g84
g70
NtRp4393
(dp4394
g73
(dp4395
sg82
g4376
sg75
(lp4396
g68
(g89
g70
NtRp4397
(dp4398
g73
(dp4399
sg82
g4393
sg75
(lp4400
g68
(g69
g70
NtRp4401
(dp4402
g73
(dp4403
g81
I1
ssg82
g4397
sg75
(lp4404
I00
asbasbasbag68
(g84
g70
NtRp4405
(dp4406
g73
(dp4407
sg82
g4376
sg75
(lp4408
g68
(g89
g70
NtRp4409
(dp4410
g73
(dp4411
sg82
g4405
sg75
(lp4412
g68
(g69
g70
NtRp4413
(dp4414
g73
(dp4415
g81
I1
ssg82
g4409
sg75
(lp4416
S'http://www.web2py.com'
p4417
asbasbasbag68
(g84
g70
NtRp4418
(dp4419
g73
(dp4420
sg82
g4376
sg75
(lp4421
g68
(g89
g70
NtRp4422
(dp4423
g73
(dp4424
sg82
g4418
sg75
(lp4425
g68
(g69
g70
NtRp4426
(dp4427
g73
(dp4428
g81
I1
ssg82
g4422
sg75
(lp4429
(lp4430
(g3508
(S't\x08\x00\x00\x00Download'
tRp4431
I00
S'http://www.web2py.com/examples/default/download'
p4432
tp4433
a(g3508
(S't\x07\x00\x00\x00Support'
tRp4434
I00
S'http://www.web2py.com/examples/default/support'
p4435
tp4436
a(g3508
(S's\x0e\x00\x00\x00Quick Examples'
tRp4437
I00
S'http://web2py.com/examples/default/examples'
p4438
tp4439
a(g3508
(S't\x03\x00\x00\x00FAQ'
tRp4440
I00
S'http://web2py.com/AlterEgo'
p4441
tp4442
a(g3508
(S's\x11\x00\x00\x00Free Applications'
tRp4443
I00
S'http://web2py.com/appliances'
p4444
tp4445
a(g3508
(S't\x07\x00\x00\x00Plugins'
tRp4446
I00
S'http://web2py.com/plugins'
p4447
tp4448
a(g3508
(S't\x07\x00\x00\x00Recipes'
tRp4449
I00
S'http://web2pyslices.com/'
p4450
tp4451
a(g3508
(S't\x04\x00\x00\x00Demo'
tRp4452
I00
S'http://web2py.com/demo_admin'
p4453
tp4454
a(g3508
(S't\x08\x00\x00\x00Semantic'
tRp4455
I00
S'http://web2py.com/semantic'
p4456
tp4457
a(g3508
(S't\x07\x00\x00\x00Layouts'
tRp4458
I00
S'http://web2py.com/layouts'
p4459
tp4460
a(g3508
(S't\x06\x00\x00\x00Videos'
tRp4461
I00
S'http://www.web2py.com/examples/default/videos/'
p4462
tp4463
aasbasbasbasbasbasbasbasbasbasbasbasbasbasbasbasbasbasbasbag68
(g84
g70
NtRp4464
(dp4465
g73
(dp4466
sg82
g3003
sg75
(lp4467
g68
(g89
g70
NtRp4468
(dp4469
g73
(dp4470
g93
g94
ssg82
g4464
sg75
(lp4471
S'meta'
p4472
asbag68
(g89
g70
NtRp4473
(dp4474
g73
(dp4475
g100
g101
ssg82
g4464
sg75
(lp4476
S':'
asbag68
(g89
g70
NtRp4477
(dp4478
g73
(dp4479
sg82
g4464
sg75
(lp4480
g68
(g69
g70
NtRp4481
(dp4482
g73
(dp4483
g81
I5
ssg82
g4477
sg75
(lp4484
g68
(g77
g70
NtRp4485
(dp4486
g73
(dp4487
g81
I4
ssg82
Nsg75
(lp4488
g68
(g84
g70
NtRp4489
(dp4490
g73
(dp4491
sg82
g4485
sg75
(lp4492
g68
(g89
g70
NtRp4493
(dp4494
g73
(dp4495
g93
g94
ssg82
g4489
sg75
(lp4496
S'author'
p4497
asbag68
(g89
g70
NtRp4498
(dp4499
g73
(dp4500
g100
g101
ssg82
g4489
sg75
(lp4501
S':'
asbag68
(g89
g70
NtRp4502
(dp4503
g73
(dp4504
sg82
g4489
sg75
(lp4505
g68
(g69
g70
NtRp4506
(dp4507
g73
(dp4508
g81
I4
ssg82
g4502
sg75
(lp4509
S'Your Name <you@example.com>'
p4510
asbasbasbag68
(g84
g70
NtRp4511
(dp4512
g73
(dp4513
sg82
g4485
sg75
(lp4514
g68
(g89
g70
NtRp4515
(dp4516
g73
(dp4517
g93
g94
ssg82
g4511
sg75
(lp4518
S'copyright'
p4519
asbag68
(g89
g70
NtRp4520
(dp4521
g73
(dp4522
g100
g101
ssg82
g4511
sg75
(lp4523
S':'
asbag68
(g89
g70
NtRp4524
(dp4525
g73
(dp4526
sg82
g4511
sg75
(lp4527
g68
(g69
g70
NtRp4528
(dp4529
g73
(dp4530
g81
I4
ssg82
g4524
sg75
(lp4531
S'Copyright 2011'
p4532
asbasbasbag68
(g84
g70
NtRp4533
(dp4534
g73
(dp4535
sg82
g4485
sg75
(lp4536
g68
(g89
g70
NtRp4537
(dp4538
g73
(dp4539
g93
g94
ssg82
g4533
sg75
(lp4540
S'description'
p4541
asbag68
(g89
g70
NtRp4542
(dp4543
g73
(dp4544
g100
g101
ssg82
g4533
sg75
(lp4545
S':'
asbag68
(g89
g70
NtRp4546
(dp4547
g73
(dp4548
sg82
g4533
sg75
(lp4549
g68
(g69
g70
NtRp4550
(dp4551
g73
(dp4552
g81
I4
ssg82
g4546
sg75
(lp4553
S'a cool new app'
p4554
asbasbasbag68
(g84
g70
NtRp4555
(dp4556
g73
(dp4557
sg82
g4485
sg75
(lp4558
g68
(g89
g70
NtRp4559
(dp4560
g73
(dp4561
g93
g94
ssg82
g4555
sg75
(lp4562
S'generator'
p4563
asbag68
(g89
g70
NtRp4564
(dp4565
g73
(dp4566
g100
g101
ssg82
g4555
sg75
(lp4567
S':'
asbag68
(g89
g70
NtRp4568
(dp4569
g73
(dp4570
sg82
g4555
sg75
(lp4571
g68
(g69
g70
NtRp4572
(dp4573
g73
(dp4574
g81
I4
ssg82
g4568
sg75
(lp4575
S'Web2py Web Framework'
p4576
asbasbasbag68
(g84
g70
NtRp4577
(dp4578
g73
(dp4579
sg82
g4485
sg75
(lp4580
g68
(g89
g70
NtRp4581
(dp4582
g73
(dp4583
g93
g94
ssg82
g4577
sg75
(lp4584
S'keywords'
p4585
asbag68
(g89
g70
NtRp4586
(dp4587
g73
(dp4588
g100
g101
ssg82
g4577
sg75
(lp4589
S':'
asbag68
(g89
g70
NtRp4590
(dp4591
g73
(dp4592
sg82
g4577
sg75
(lp4593
g68
(g69
g70
NtRp4594
(dp4595
g73
(dp4596
g81
I4
ssg82
g4590
sg75
(lp4597
S'web2py, python, framework'
p4598
asbasbasbasbasbasbasbag68
(g84
g70
NtRp4599
(dp4600
g73
(dp4601
sg82
g3003
sg75
(lp4602
g68
(g89
g70
NtRp4603
(dp4604
g73
(dp4605
g93
g94
ssg82
g4599
sg75
(lp4606
S'postprocessing'
p4607
asbag68
(g89
g70
NtRp4608
(dp4609
g73
(dp4610
g100
g101
ssg82
g4599
sg75
(lp4611
S':'
asbag68
(g89
g70
NtRp4612
(dp4613
g73
(dp4614
sg82
g4599
sg75
(lp4615
g68
(g69
g70
NtRp4616
(dp4617
g73
(dp4618
g81
I5
ssg82
g4612
sg75
(lp4619
g68
(g77
g70
NtRp4620
(dp4621
g73
(dp4622
g81
I4
ssg82
Nsg75
(lp4623
sbasbasbasbag68
(g84
g70
NtRp4624
(dp4625
g73
(dp4626
sg82
g3003
sg75
(lp4627
g68
(g89
g70
NtRp4628
(dp4629
g73
(dp4630
g93
g94
ssg82
g4624
sg75
(lp4631
S'session_filename'
p4632
asbag68
(g89
g70
NtRp4633
(dp4634
g73
(dp4635
g100
g101
ssg82
g4624
sg75
(lp4636
S':'
asbag68
(g89
g70
NtRp4637
(dp4638
g73
(dp4639
sg82
g4624
sg75
(lp4640
g68
(g69
g70
NtRp4641
(dp4642
g73
(dp4643
g81
I5
ssg82
g4637
sg75
(lp4644
S'/home/ian/web2py/applications/places/sessions/127.0.0.1-aa4f12e4-1efb-478c-bc3f-dff4ac742b2e'
p4645
asbasbasbag68
(g84
g70
NtRp4646
(dp4647
g73
(dp4648
sg82
g3003
sg75
(lp4649
g68
(g89
g70
NtRp4650
(dp4651
g73
(dp4652
g93
g94
ssg82
g4646
sg75
(lp4653
S'session_id'
p4654
asbag68
(g89
g70
NtRp4655
(dp4656
g73
(dp4657
g100
g101
ssg82
g4646
sg75
(lp4658
S':'
asbag68
(g89
g70
NtRp4659
(dp4660
g73
(dp4661
sg82
g4646
sg75
(lp4662
g68
(g69
g70
NtRp4663
(dp4664
g73
(dp4665
g81
I5
ssg82
g4659
sg75
(lp4666
S'127.0.0.1-aa4f12e4-1efb-478c-bc3f-dff4ac742b2e'
p4667
asbasbasbag68
(g84
g70
NtRp4668
(dp4669
g73
(dp4670
sg82
g3003
sg75
(lp4671
g68
(g89
g70
NtRp4672
(dp4673
g73
(dp4674
g93
g94
ssg82
g4668
sg75
(lp4675
S'session_id_name'
p4676
asbag68
(g89
g70
NtRp4677
(dp4678
g73
(dp4679
g100
g101
ssg82
g4668
sg75
(lp4680
S':'
asbag68
(g89
g70
NtRp4681
(dp4682
g73
(dp4683
sg82
g4668
sg75
(lp4684
g68
(g69
g70
NtRp4685
(dp4686
g73
(dp4687
g81
I5
ssg82
g4681
sg75
(lp4688
g3060
asbasbasbag68
(g84
g70
NtRp4689
(dp4690
g73
(dp4691
sg82
g3003
sg75
(lp4692
g68
(g89
g70
NtRp4693
(dp4694
g73
(dp4695
g93
g94
ssg82
g4689
sg75
(lp4696
S'session_new'
p4697
asbag68
(g89
g70
NtRp4698
(dp4699
g73
(dp4700
g100
g101
ssg82
g4689
sg75
(lp4701
S':'
asbag68
(g89
g70
NtRp4702
(dp4703
g73
(dp4704
sg82
g4689
sg75
(lp4705
g68
(g69
g70
NtRp4706
(dp4707
g73
(dp4708
g81
I5
ssg82
g4702
sg75
(lp4709
g1646
asbasbasbag68
(g84
g70
NtRp4710
(dp4711
g73
(dp4712
sg82
g3003
sg75
(lp4713
g68
(g89
g70
NtRp4714
(dp4715
g73
(dp4716
g93
g94
ssg82
g4710
sg75
(lp4717
S'status'
p4718
asbag68
(g89
g70
NtRp4719
(dp4720
g73
(dp4721
g100
g101
ssg82
g4710
sg75
(lp4722
S':'
asbag68
(g89
g70
NtRp4723
(dp4724
g73
(dp4725
sg82
g4710
sg75
(lp4726
g68
(g69
g70
NtRp4727
(dp4728
g73
(dp4729
g81
I5
ssg82
g4723
sg75
(lp4730
S'200'
p4731
asbasbasbag68
(g84
g70
NtRp4732
(dp4733
g73
(dp4734
sg82
g3003
sg75
(lp4735
g68
(g89
g70
NtRp4736
(dp4737
g73
(dp4738
g93
g94
ssg82
g4732
sg75
(lp4739
S'subtitle'
p4740
asbag68
(g89
g70
NtRp4741
(dp4742
g73
(dp4743
g100
g101
ssg82
g4732
sg75
(lp4744
S':'
asbag68
(g89
g70
NtRp4745
(dp4746
g73
(dp4747
sg82
g4732
sg75
(lp4748
g68
(g69
g70
NtRp4749
(dp4750
g73
(dp4751
g81
I5
ssg82
g4745
sg75
(lp4752
g3508
(S's\r\x00\x00\x00customize me!'
tRp4753
asbasbasbag68
(g84
g70
NtRp4754
(dp4755
g73
(dp4756
sg82
g3003
sg75
(lp4757
g68
(g89
g70
NtRp4758
(dp4759
g73
(dp4760
g93
g94
ssg82
g4754
sg75
(lp4761
S'title'
p4762
asbag68
(g89
g70
NtRp4763
(dp4764
g73
(dp4765
g100
g101
ssg82
g4754
sg75
(lp4766
S':'
asbag68
(g89
g70
NtRp4767
(dp4768
g73
(dp4769
sg82
g4754
sg75
(lp4770
g68
(g69
g70
NtRp4771
(dp4772
g73
(dp4773
g81
I5
ssg82
g4767
sg75
(lp4774
g133
asbasbasbag68
(g84
g70
NtRp4775
(dp4776
g73
(dp4777
sg82
g3003
sg75
(lp4778
g68
(g89
g70
NtRp4779
(dp4780
g73
(dp4781
g93
g94
ssg82
g4775
sg75
(lp4782
g2290
asbag68
(g89
g70
NtRp4783
(dp4784
g73
(dp4785
g100
g101
ssg82
g4775
sg75
(lp4786
S':'
asbag68
(g89
g70
NtRp4787
(dp4788
g73
(dp4789
sg82
g4775
sg75
(lp4790
g68
(g69
g70
NtRp4791
(dp4792
g73
(dp4793
g81
I5
ssg82
g4787
sg75
(lp4794
g2303
asbasbasbag68
(g84
g70
NtRp4795
(dp4796
g73
(dp4797
sg82
g3003
sg75
(lp4798
g68
(g89
g70
NtRp4799
(dp4800
g73
(dp4801
g93
g94
ssg82
g4795
sg75
(lp4802
S'view'
p4803
asbag68
(g89
g70
NtRp4804
(dp4805
g73
(dp4806
g100
g101
ssg82
g4795
sg75
(lp4807
S':'
asbag68
(g89
g70
NtRp4808
(dp4809
g73
(dp4810
sg82
g4795
sg75
(lp4811
g68
(g69
g70
NtRp4812
(dp4813
g73
(dp4814
g81
I5
ssg82
g4808
sg75
(lp4815
S'default/index.html'
p4816
asbasbasbasbasbsS'locals'
p4817
(dp4818
g3
S"'/home/ian/web2py/applications/places/controllers/default.py'"
p4819
sg5
S"'# -*- coding: utf-8 -*-\\n# this file is released ...e_title)\\n\\nresponse._vars=response._caller(index)\\n'"
p4820
sssS'traceback'
p4821
S'Traceback (most recent call last):\n  File "/home/ian/web2py/gluon/restricted.py", line 193, in restricted\n    ccode = compile2(code,layer)\n  File "/home/ian/web2py/gluon/restricted.py", line 179, in compile2\n    return compile(code.rstrip().replace(\'\\r\\n\',\'\\n\')+\'\\n\', layer, \'exec\')\n  File "/home/ian/web2py/applications/places/controllers/default.py", line 20\n    session.the_view = request.vars.the_view\n                                           ^\nIndentationError: unindent does not match any outer indentation level\n'
p4822
s.