(dp1
S'output'
p2
S''
sS'layer'
p3
S'/home/ian/web2py/applications/places/views/default/index.html'
p4
sS'code'
p5
S'left_sidebar_enabled=right_sidebar_enabled=False\nresponse.write(\'\\n\', escape=False)\nresponse.write(\'<!DOCTYPE html>\\n<html lang="\', escape=False)\nresponse.write(T.accepted_language or \'en\')\nresponse.write(\'" class="no-js"><!-- no-js need it for modernzr -->\\n  <head>\\n    \\n    <meta charset="utf-8" />        \\n    <!-- www.phpied.com/conditional-comments-block-downloads/ -->\\n    <!--[if IE]><![endif]-->    \\n    <!-- Always force latest IE rendering engine \\n     (even in intranet) & Chrome Frame \\n     Remove this if you use the .htaccess -->\\n    <meta http-equiv="X-UA-Compatible" content="IE=edge,chrome=1">\\n    \\n    <title>\', escape=False)\nresponse.write(response.title or request.application)\nresponse.write(\'</title>\\n    \\n    <!-- http://dev.w3.org/html5/markup/meta.name.html -->\\n    <meta name="application-name" content="\', escape=False)\nresponse.write(request.application)\nresponse.write(\'" /> \\n    \\n    <!-- Speaking of Google, don\\\'t forget to set your site up: \\n     http://google.com/webmasters -->\\n    <meta name="google-site-verification" content="" />\\n    \\n    <!--  Mobile Viewport Fix\\n      j.mp/mobileviewport & davidbcalhoun.com/2010/viewport-metatag \\n      device-width: Occupy full width of the screen in its current orientation\\n      initial-scale = 1.0 retains dimensions instead of zooming out if page height > device height\\n      maximum-scale = 1.0 retains dimensions instead of zooming in if page width < device width\\n      -->\\n    <meta name="viewport" content="width=device-width, initial-scale=1.0, maximum-scale=1.0">\\n    \\n    <!-- Place favicon.ico and apple-touch-icon.png in the root of your domain and delete these references -->\\n    <link rel="shortcut icon" href="\', escape=False)\nresponse.write(URL(\'static\',\'favicon.ico\'))\nresponse.write(\'" type="image/x-icon">\\n    <link rel="apple-touch-icon" href="\', escape=False)\nresponse.write(URL(\'static\',\'favicon.png\'))\nresponse.write(\'">\\n\\n    <!-- For the less-enabled mobile browsers like Opera Mini -->\\n    <link rel="stylesheet" media="handheld" href="\', escape=False)\nresponse.write(URL(\'static\',\'css/handheld.css\'))\nresponse.write(\'">\\n    \\n    <!-- All JavaScript at the bottom, except for Modernizr which enables HTML5 elements & feature detects -->\\n    <script src="\', escape=False)\nresponse.write(URL(\'static\',\'js/modernizr-1.7.min.js\'))\nresponse.write(\'"></script>\\n    \\n    \', escape=False)\n#------  require CSS and JS files for this page (read info in base.css) ------\nresponse.write(\'\\n    \', escape=False)\nresponse.files.append(URL(\'static\',\'css/base.css\'))\nresponse.write(\'\\n    \', escape=False)\nresponse.files.append(URL(\'static\',\'css/superfish.css\'))\nresponse.write(\'\\n    \', escape=False)\nresponse.files.append(URL(\'static\',\'js/superfish.js\'))\nresponse.write(\'\\n    \', escape=False)\n#------ include web2py specific js code (jquery, calendar, form stuff) ------\nresponse.write(\'\\n    \', escape=False)\nresponse.files.insert(0,URL(\'static\',\'js/jquery.js\'))\nresponse.files.insert(1,URL(\'static\',\'css/anytime.css\'))\nresponse.files.insert(2,URL(\'static\',\'js/anytime.js\'))\nresponse.include_meta()\nresponse.include_files()\nresponse.write(\'\\n<script type="text/javascript"><!--\\n    // These variables are used by the web2py_ajax_init function in web2py_ajax.js (which is loaded below).\\n    var w2p_ajax_confirm_message = "\', escape=False)\nresponse.write(T(\'Are you sure you want to delete this object?\'))\nresponse.write(\'";\\n    var w2p_ajax_date_format = "\', escape=False)\nresponse.write(T(\'%Y-%m-%d\'))\nresponse.write(\'";\\n    var w2p_ajax_datetime_format = "\', escape=False)\nresponse.write(T(\'%Y-%m-%d %H:%M:%S\'))\nresponse.write(\'";\\n    //--></script>\\n    <script src="\', escape=False)\nresponse.write(URL(\'static\',\'js/web2py_ajax.js\'))\nresponse.write(\'" type="text/javascript"></script>\\n\', escape=False)\nresponse.write(\'\\n\\n    \', escape=False)\n#using sidebars need to know what sidebar you want to use\n#prior of using it, because of static width size of content, you can use\n#left_sidebar, right_sidebar, both or none (False left and right)\nleft_sidebar_enabled = globals().get(\'left_sidebar_enabled\',False)\nright_sidebar_enabled = globals().get(\'right_sidebar_enabled\',False)\nif left_sidebar_enabled and right_sidebar_enabled: width_content=\'63%\'\nelif left_sidebar_enabled != right_sidebar_enabled: width_content=\'740px\'\nelse: width_content=\'100%\'\nif left_sidebar_enabled: left_sidebar_style = \'style="display: block;"\'\nelse: left_sidebar_style = \'style="display: none;"\'\nif right_sidebar_enabled: right_sidebar_style = \'style="display: block;"\'\nelse: right_sidebar_style = \'style="display: none;"\'\nstyle_content = \'style="width: %s"\' % width_content\nresponse.write(\'\\n    \\n    <!--use html5shiv to let IE see new html entities and give them block style so that they are treated properly--> \\n    <!--[if IE]>\\n        <script src="http://html5shiv.googlecode.com/svn/trunk/html5.js"></script>\\n    <![endif]-->\\n    <style>\\n      article, aside, details, figcaption, figure, footer, header,\\n      hgroup, menu, nav, section { display: block; }\\n    </style>\\n      \\n    \\n  </head>\\n  \\n  <!-- paulirish.com/2008/conditional-stylesheets-vs-css-hacks-answer-neither/ -->  \\n  <!--[if lt IE 7 ]> <body class="ie6"> <![endif]-->\\n  <!--[if IE 7 ]>    <body class="ie7"> <![endif]-->\\n  <!--[if IE 8 ]>    <body class="ie8"> <![endif]-->\\n  <!--[if IE 9 ]>    <body class="ie9"> <![endif]-->\\n  <!--[if (gt IE 9)|!(IE)]><!--> <body> <!--<![endif]-->\\n    \\n    <div class="flash">\', escape=False)\nresponse.write(response.flash or \'\')\nresponse.write(\'</div> <!-- notification div -->                           \\n    \\n    <header>\\n        \\n      \', escape=False)\nresponse.write(\' <!-- this is default header -->\\n      \', escape=False)\ntry:\n    response.write(auth.navbar(action=URL(\'default\',\'user\')))\nexcept:pass\nresponse.write(\'               \\n      <h1 id="appname">\', escape=False)\nresponse.write(A(request.application.capitalize(), _href=URL(\'default\', \'index\')))\nresponse.write(\'</h1>\\n      <div style="clear: both;"></div><!-- Clear the divs -->\\n      \', escape=False)\nresponse.write(\'                \\n                             \\n    </header>\\n    \\n    <div id="page" class="\', escape=False)\nresponse.write(request.controller)\nresponse.write(\' \', escape=False)\nresponse.write(request.function)\nresponse.write(\'">    \\n\\n      \', escape=False)\nif left_sidebar_enabled:\n    response.write(\'\\n          <div id="left_sidebar" \', escape=False)\n    response.write(XML(left_sidebar_style))\n    response.write(\' >\\n            <div style="padding: 4px;">\\n          \', escape=False)\n    response.write(\'New Left Sidebar Content\', escape=False)\n    response.write(\'       \\n            </div>\\n          </div><!-- left_sidebar -->\\n      \', escape=False)\n    pass\nresponse.write(\'\\n\\n      <!-- content of other views-->\\n      \', escape=False)\nresponse.write("\\n\\n<ul id=\'menu\' class=\'clearfix\'>\\n", escape=False)\nfor tag in db(db.tags).select():\n    response.write(\'\\n\\n\', escape=False)\n    response.write(LI(A(tag.tag, _href=URL(\'index.load\', args=[tag.tag]), cid="links")))\n    response.write(\'\\n\\n\', escape=False)\n    pass\nresponse.write("\\n<li class=\'adder\'>", escape=False)\nresponse.write(A(\'+\', _href=URL(\'create.load\'), cid="modal_frame")\nresponse.write(\'</li>\\n</ul>\\n\\n<section id="links">\\n\\n\', escape=False)\nresponse.write(LOAD(\'index.load\',ajax=True))\nresponse.write(\'\\n\\n</section>\\n\\n\', escape=False)\n#=BEAUTIFY(response._vars)\nresponse.write(\'\\n\\n\', escape=False)\nresponse.write(\'\\n\', escape=False)\nresponse.write(\'\\n\', escape=False)\nresponse.write(\' \\n      <!-- content -->\\n\\n      \', escape=False)\nif right_sidebar_enabled:\n    response.write(\'\\n          <div id="right_sidebar" \', escape=False)\n    response.write(XML(right_sidebar_style))\n    response.write(\' >\\n            <div style="padding: 4px;">\\n              \', escape=False)\n    response.write(\'New Right Sidebar Content\', escape=False)\n    response.write(\'\\n            </div>\\n          </div><!-- right_sidebar -->\\n      \', escape=False)\n    pass\nresponse.write(\'\\n       \\n      <div style="clear: both;"></div><!-- Clear the divs -->                         \\n    \\n    </div><!--page-->\\n    \\n    <footer>\\n      \', escape=False)\nresponse.write(\' <!-- this is default footer -->\\n      <a href="http://www.web2py.com/" >\\n        <img src="\', escape=False)\nresponse.write(URL(\'static\',\'images/poweredby.png\'))\nresponse.write(\'"/>\\n      </a>\\n      \', escape=False)\nresponse.write(T(\'Copyright\'))\nresponse.write(\' &#169; Ian W. Scott 2011 (licensed under GPL 3.0)               \\n      <div style="clear: both;"></div><!-- Clear the divs -->\\n      \', escape=False)\nresponse.write(\'\\n    </footer>           \\n\\n\\t<div id=\\\'modal_frame\\\'></div>\\n\\n    <!--[if lt IE 7 ]>\\n    <script src="\', escape=False)\nresponse.write(URL(\'static\',\'js/dd_belatedpng.js\'))\nresponse.write(\'"></script>\\n    <script> DD_belatedPNG.fix(\\\'img, .png_bg\\\'); //fix any <img> or .png_bg background-images </script>\\n    <![endif]-->\\n    \\n    <!-- asynchronous google analytics: mathiasbynens.be/notes/async-analytics-snippet \\n     change the UA-XXXXX-X to be your site\\\'s ID -->\\n    <!--   \\n       <script>\\n         var _gaq = [[\\\'_setAccount\\\', \\\'UA-XXXXX-X\\\'], [\\\'_trackPageview\\\']];\\n         (function(d, t) {\\n         var g = d.createElement(t),\\n         s = d.getElementsByTagName(t)[0];\\n         g.async = true;\\n         g.src = \\\'//www.google-analytics.com/ga.js\\\';\\n         s.parentNode.insertBefore(g, s);\\n         })(document, \\\'script\\\');\\n       </script>\\n       -->    \\n  </body>\\n</html>\\n\', escape=False)'
p6
sS'snapshot'
p7
(dp8
S'exception'
p9
(dp10
S'__getslice__'
p11
S"<method-wrapper '__getslice__' of exceptions.SyntaxError object>"
p12
sS'text'
p13
S'\'response.write(\\\'</li>\\\\n</ul>\\\\n\\\\n<section id="links">\\\\n\\\\n\\\', escape=False)\\n\''
p14
sS'__str__'
p15
S"<method-wrapper '__str__' of exceptions.SyntaxError object>"
p16
sS'__reduce__'
p17
S'<built-in method __reduce__ of exceptions.SyntaxError object>'
p18
sS'__dict__'
p19
S'{}'
p20
sS'__sizeof__'
p21
S'<built-in method __sizeof__ of exceptions.SyntaxError object>'
p22
sS'__init__'
p23
S"<method-wrapper '__init__' of exceptions.SyntaxError object>"
p24
sS'__setattr__'
p25
S"<method-wrapper '__setattr__' of exceptions.SyntaxError object>"
p26
sS'__reduce_ex__'
p27
S'<built-in method __reduce_ex__ of exceptions.SyntaxError object>'
p28
sS'__new__'
p29
S'<built-in method __new__ of type object>'
p30
sS'__format__'
p31
S'<built-in method __format__ of exceptions.SyntaxError object>'
p32
sS'__class__'
p33
S"<type 'exceptions.SyntaxError'>"
p34
sS'filename'
p35
S"'/home/ian/web2py/applications/places/views/default/index.html'"
p36
sS'lineno'
p37
S'87'
p38
sS'msg'
p39
S"'invalid syntax'"
p40
sS'__doc__'
p41
S"'Invalid syntax.'"
p42
sS'__getitem__'
p43
S"<method-wrapper '__getitem__' of exceptions.SyntaxError object>"
p44
sS'__setstate__'
p45
S'<built-in method __setstate__ of exceptions.SyntaxError object>'
p46
sS'__getattribute__'
p47
S"<method-wrapper '__getattribute__' of exceptions.SyntaxError object>"
p48
sS'print_file_and_line'
p49
S'None'
p50
sS'args'
p51
S'(\'invalid syntax\', (\'/home/ian/web2py/applications/places/views/default/index.html\', 87, 8, \'response.write(\\\'</li>\\\\n</ul>\\\\n\\\\n<section id="links">\\\\n\\\\n\\\', escape=False)\\n\'))'
p52
sS'__subclasshook__'
p53
S'<built-in method __subclasshook__ of type object>'
p54
sS'offset'
p55
S'8'
sS'__unicode__'
p56
S'<built-in method __unicode__ of exceptions.SyntaxError object>'
p57
sS'__delattr__'
p58
S"<method-wrapper '__delattr__' of exceptions.SyntaxError object>"
p59
sS'__repr__'
p60
S"<method-wrapper '__repr__' of exceptions.SyntaxError object>"
p61
sS'__hash__'
p62
S"<method-wrapper '__hash__' of exceptions.SyntaxError object>"
p63
ssS'evalue'
p64
S'invalid syntax (index.html, line 87)'
p65
sS'request'
p66
ccopy_reg
_reconstructor
p67
(cgluon.html
BEAUTIFY
p68
c__builtin__
object
p69
NtRp70
(dp71
S'attributes'
p72
(dp73
sS'components'
p74
(lp75
g67
(cgluon.html
TABLE
p76
g69
NtRp77
(dp78
g72
(dp79
S'level'
p80
I5
ssS'parent'
p81
Nsg74
(lp82
g67
(cgluon.html
TR
p83
g69
NtRp84
(dp85
g72
(dp86
sg81
g77
sg74
(lp87
g67
(cgluon.html
TD
p88
g69
NtRp89
(dp90
g72
(dp91
S'_style'
p92
S'font-weight:bold;'
p93
ssg81
g84
sg74
(lp94
S'ajax'
p95
asbag67
(g88
g69
NtRp96
(dp97
g72
(dp98
S'_valign'
p99
S'top'
p100
ssg81
g84
sg74
(lp101
S':'
asbag67
(g88
g69
NtRp102
(dp103
g72
(dp104
sg81
g84
sg74
(lp105
g67
(g68
g69
NtRp106
(dp107
g72
(dp108
g80
I5
ssg81
g102
sg74
(lp109
S'False'
p110
asbasbasbag67
(g83
g69
NtRp111
(dp112
g72
(dp113
sg81
g77
sg74
(lp114
g67
(g88
g69
NtRp115
(dp116
g72
(dp117
g92
g93
ssg81
g111
sg74
(lp118
S'application'
p119
asbag67
(g88
g69
NtRp120
(dp121
g72
(dp122
g99
g100
ssg81
g111
sg74
(lp123
S':'
asbag67
(g88
g69
NtRp124
(dp125
g72
(dp126
sg81
g111
sg74
(lp127
g67
(g68
g69
NtRp128
(dp129
g72
(dp130
g80
I5
ssg81
g124
sg74
(lp131
S'places'
p132
asbasbasbag67
(g83
g69
NtRp133
(dp134
g72
(dp135
sg81
g77
sg74
(lp136
g67
(g88
g69
NtRp137
(dp138
g72
(dp139
g92
g93
ssg81
g133
sg74
(lp140
g51
asbag67
(g88
g69
NtRp141
(dp142
g72
(dp143
g99
g100
ssg81
g133
sg74
(lp144
S':'
asbag67
(g88
g69
NtRp145
(dp146
g72
(dp147
sg81
g133
sg74
(lp148
g67
(g68
g69
NtRp149
(dp150
g72
(dp151
g80
I5
ssg81
g145
sg74
(lp152
g67
(g76
g69
NtRp153
(dp154
g72
(dp155
g80
I4
ssg81
Nsg74
(lp156
sbasbasbasbag67
(g83
g69
NtRp157
(dp158
g72
(dp159
sg81
g77
sg74
(lp160
g67
(g88
g69
NtRp161
(dp162
g72
(dp163
g92
g93
ssg81
g157
sg74
(lp164
S'body'
p165
asbag67
(g88
g69
NtRp166
(dp167
g72
(dp168
g99
g100
ssg81
g157
sg74
(lp169
S':'
asbag67
(g88
g69
NtRp170
(dp171
g72
(dp172
sg81
g157
sg74
(lp173
g67
(g68
g69
NtRp174
(dp175
g72
(dp176
g80
I5
ssg81
g170
sg74
(lp177
S'<cStringIO.StringO object at 0x301fdf8>'
p178
asbasbasbag67
(g83
g69
NtRp179
(dp180
g72
(dp181
sg81
g77
sg74
(lp182
g67
(g88
g69
NtRp183
(dp184
g72
(dp185
g92
g93
ssg81
g179
sg74
(lp186
S'client'
p187
asbag67
(g88
g69
NtRp188
(dp189
g72
(dp190
g99
g100
ssg81
g179
sg74
(lp191
S':'
asbag67
(g88
g69
NtRp192
(dp193
g72
(dp194
sg81
g179
sg74
(lp195
g67
(g68
g69
NtRp196
(dp197
g72
(dp198
g80
I5
ssg81
g192
sg74
(lp199
S'127.0.0.1'
p200
asbasbasbag67
(g83
g69
NtRp201
(dp202
g72
(dp203
sg81
g77
sg74
(lp204
g67
(g88
g69
NtRp205
(dp206
g72
(dp207
g92
g93
ssg81
g201
sg74
(lp208
S'controller'
p209
asbag67
(g88
g69
NtRp210
(dp211
g72
(dp212
g99
g100
ssg81
g201
sg74
(lp213
S':'
asbag67
(g88
g69
NtRp214
(dp215
g72
(dp216
sg81
g201
sg74
(lp217
g67
(g68
g69
NtRp218
(dp219
g72
(dp220
g80
I5
ssg81
g214
sg74
(lp221
S'default'
p222
asbasbasbag67
(g83
g69
NtRp223
(dp224
g72
(dp225
sg81
g77
sg74
(lp226
g67
(g88
g69
NtRp227
(dp228
g72
(dp229
g92
g93
ssg81
g223
sg74
(lp230
S'cookies'
p231
asbag67
(g88
g69
NtRp232
(dp233
g72
(dp234
g99
g100
ssg81
g223
sg74
(lp235
S':'
asbag67
(g88
g69
NtRp236
(dp237
g72
(dp238
sg81
g223
sg74
(lp239
g67
(g68
g69
NtRp240
(dp241
g72
(dp242
g80
I5
ssg81
g236
sg74
(lp243
g67
(g76
g69
NtRp244
(dp245
g72
(dp246
g80
I4
ssg81
Nsg74
(lp247
g67
(g83
g69
NtRp248
(dp249
g72
(dp250
sg81
g244
sg74
(lp251
g67
(g88
g69
NtRp252
(dp253
g72
(dp254
g92
g93
ssg81
g248
sg74
(lp255
S'session_id_admin'
p256
asbag67
(g88
g69
NtRp257
(dp258
g72
(dp259
g99
g100
ssg81
g248
sg74
(lp260
S':'
asbag67
(g88
g69
NtRp261
(dp262
g72
(dp263
sg81
g248
sg74
(lp264
g67
(g68
g69
NtRp265
(dp266
g72
(dp267
g80
I4
ssg81
g261
sg74
(lp268
g67
(g76
g69
NtRp269
(dp270
g72
(dp271
g80
I3
ssg81
Nsg74
(lp272
g67
(g83
g69
NtRp273
(dp274
g72
(dp275
sg81
g269
sg74
(lp276
g67
(g88
g69
NtRp277
(dp278
g72
(dp279
g92
g93
ssg81
g273
sg74
(lp280
S'comment'
p281
asbag67
(g88
g69
NtRp282
(dp283
g72
(dp284
g99
g100
ssg81
g273
sg74
(lp285
S':'
asbag67
(g88
g69
NtRp286
(dp287
g72
(dp288
sg81
g273
sg74
(lp289
g67
(g68
g69
NtRp290
(dp291
g72
(dp292
g80
I3
ssg81
g286
sg74
(lp293
S''
asbasbasbag67
(g83
g69
NtRp294
(dp295
g72
(dp296
sg81
g269
sg74
(lp297
g67
(g88
g69
NtRp298
(dp299
g72
(dp300
g92
g93
ssg81
g294
sg74
(lp301
S'domain'
p302
asbag67
(g88
g69
NtRp303
(dp304
g72
(dp305
g99
g100
ssg81
g294
sg74
(lp306
S':'
asbag67
(g88
g69
NtRp307
(dp308
g72
(dp309
sg81
g294
sg74
(lp310
g67
(g68
g69
NtRp311
(dp312
g72
(dp313
g80
I3
ssg81
g307
sg74
(lp314
S''
asbasbasbag67
(g83
g69
NtRp315
(dp316
g72
(dp317
sg81
g269
sg74
(lp318
g67
(g88
g69
NtRp319
(dp320
g72
(dp321
g92
g93
ssg81
g315
sg74
(lp322
S'expires'
p323
asbag67
(g88
g69
NtRp324
(dp325
g72
(dp326
g99
g100
ssg81
g315
sg74
(lp327
S':'
asbag67
(g88
g69
NtRp328
(dp329
g72
(dp330
sg81
g315
sg74
(lp331
g67
(g68
g69
NtRp332
(dp333
g72
(dp334
g80
I3
ssg81
g328
sg74
(lp335
S''
asbasbasbag67
(g83
g69
NtRp336
(dp337
g72
(dp338
sg81
g269
sg74
(lp339
g67
(g88
g69
NtRp340
(dp341
g72
(dp342
g92
g93
ssg81
g336
sg74
(lp343
S'httponly'
p344
asbag67
(g88
g69
NtRp345
(dp346
g72
(dp347
g99
g100
ssg81
g336
sg74
(lp348
S':'
asbag67
(g88
g69
NtRp349
(dp350
g72
(dp351
sg81
g336
sg74
(lp352
g67
(g68
g69
NtRp353
(dp354
g72
(dp355
g80
I3
ssg81
g349
sg74
(lp356
S''
asbasbasbag67
(g83
g69
NtRp357
(dp358
g72
(dp359
sg81
g269
sg74
(lp360
g67
(g88
g69
NtRp361
(dp362
g72
(dp363
g92
g93
ssg81
g357
sg74
(lp364
S'max-age'
p365
asbag67
(g88
g69
NtRp366
(dp367
g72
(dp368
g99
g100
ssg81
g357
sg74
(lp369
S':'
asbag67
(g88
g69
NtRp370
(dp371
g72
(dp372
sg81
g357
sg74
(lp373
g67
(g68
g69
NtRp374
(dp375
g72
(dp376
g80
I3
ssg81
g370
sg74
(lp377
S''
asbasbasbag67
(g83
g69
NtRp378
(dp379
g72
(dp380
sg81
g269
sg74
(lp381
g67
(g88
g69
NtRp382
(dp383
g72
(dp384
g92
g93
ssg81
g378
sg74
(lp385
S'path'
p386
asbag67
(g88
g69
NtRp387
(dp388
g72
(dp389
g99
g100
ssg81
g378
sg74
(lp390
S':'
asbag67
(g88
g69
NtRp391
(dp392
g72
(dp393
sg81
g378
sg74
(lp394
g67
(g68
g69
NtRp395
(dp396
g72
(dp397
g80
I3
ssg81
g391
sg74
(lp398
S''
asbasbasbag67
(g83
g69
NtRp399
(dp400
g72
(dp401
sg81
g269
sg74
(lp402
g67
(g88
g69
NtRp403
(dp404
g72
(dp405
g92
g93
ssg81
g399
sg74
(lp406
S'secure'
p407
asbag67
(g88
g69
NtRp408
(dp409
g72
(dp410
g99
g100
ssg81
g399
sg74
(lp411
S':'
asbag67
(g88
g69
NtRp412
(dp413
g72
(dp414
sg81
g399
sg74
(lp415
g67
(g68
g69
NtRp416
(dp417
g72
(dp418
g80
I3
ssg81
g412
sg74
(lp419
S''
asbasbasbag67
(g83
g69
NtRp420
(dp421
g72
(dp422
sg81
g269
sg74
(lp423
g67
(g88
g69
NtRp424
(dp425
g72
(dp426
g92
g93
ssg81
g420
sg74
(lp427
S'version'
p428
asbag67
(g88
g69
NtRp429
(dp430
g72
(dp431
g99
g100
ssg81
g420
sg74
(lp432
S':'
asbag67
(g88
g69
NtRp433
(dp434
g72
(dp435
sg81
g420
sg74
(lp436
g67
(g68
g69
NtRp437
(dp438
g72
(dp439
g80
I3
ssg81
g433
sg74
(lp440
S''
asbasbasbasbasbasbasbag67
(g83
g69
NtRp441
(dp442
g72
(dp443
sg81
g244
sg74
(lp444
g67
(g88
g69
NtRp445
(dp446
g72
(dp447
g92
g93
ssg81
g441
sg74
(lp448
S'session_id_places'
p449
asbag67
(g88
g69
NtRp450
(dp451
g72
(dp452
g99
g100
ssg81
g441
sg74
(lp453
S':'
asbag67
(g88
g69
NtRp454
(dp455
g72
(dp456
sg81
g441
sg74
(lp457
g67
(g68
g69
NtRp458
(dp459
g72
(dp460
g80
I4
ssg81
g454
sg74
(lp461
g67
(g76
g69
NtRp462
(dp463
g72
(dp464
g80
I3
ssg81
Nsg74
(lp465
g67
(g83
g69
NtRp466
(dp467
g72
(dp468
sg81
g462
sg74
(lp469
g67
(g88
g69
NtRp470
(dp471
g72
(dp472
g92
g93
ssg81
g466
sg74
(lp473
g281
asbag67
(g88
g69
NtRp474
(dp475
g72
(dp476
g99
g100
ssg81
g466
sg74
(lp477
S':'
asbag67
(g88
g69
NtRp478
(dp479
g72
(dp480
sg81
g466
sg74
(lp481
g67
(g68
g69
NtRp482
(dp483
g72
(dp484
g80
I3
ssg81
g478
sg74
(lp485
S''
asbasbasbag67
(g83
g69
NtRp486
(dp487
g72
(dp488
sg81
g462
sg74
(lp489
g67
(g88
g69
NtRp490
(dp491
g72
(dp492
g92
g93
ssg81
g486
sg74
(lp493
g302
asbag67
(g88
g69
NtRp494
(dp495
g72
(dp496
g99
g100
ssg81
g486
sg74
(lp497
S':'
asbag67
(g88
g69
NtRp498
(dp499
g72
(dp500
sg81
g486
sg74
(lp501
g67
(g68
g69
NtRp502
(dp503
g72
(dp504
g80
I3
ssg81
g498
sg74
(lp505
S''
asbasbasbag67
(g83
g69
NtRp506
(dp507
g72
(dp508
sg81
g462
sg74
(lp509
g67
(g88
g69
NtRp510
(dp511
g72
(dp512
g92
g93
ssg81
g506
sg74
(lp513
g323
asbag67
(g88
g69
NtRp514
(dp515
g72
(dp516
g99
g100
ssg81
g506
sg74
(lp517
S':'
asbag67
(g88
g69
NtRp518
(dp519
g72
(dp520
sg81
g506
sg74
(lp521
g67
(g68
g69
NtRp522
(dp523
g72
(dp524
g80
I3
ssg81
g518
sg74
(lp525
S''
asbasbasbag67
(g83
g69
NtRp526
(dp527
g72
(dp528
sg81
g462
sg74
(lp529
g67
(g88
g69
NtRp530
(dp531
g72
(dp532
g92
g93
ssg81
g526
sg74
(lp533
g344
asbag67
(g88
g69
NtRp534
(dp535
g72
(dp536
g99
g100
ssg81
g526
sg74
(lp537
S':'
asbag67
(g88
g69
NtRp538
(dp539
g72
(dp540
sg81
g526
sg74
(lp541
g67
(g68
g69
NtRp542
(dp543
g72
(dp544
g80
I3
ssg81
g538
sg74
(lp545
S''
asbasbasbag67
(g83
g69
NtRp546
(dp547
g72
(dp548
sg81
g462
sg74
(lp549
g67
(g88
g69
NtRp550
(dp551
g72
(dp552
g92
g93
ssg81
g546
sg74
(lp553
g365
asbag67
(g88
g69
NtRp554
(dp555
g72
(dp556
g99
g100
ssg81
g546
sg74
(lp557
S':'
asbag67
(g88
g69
NtRp558
(dp559
g72
(dp560
sg81
g546
sg74
(lp561
g67
(g68
g69
NtRp562
(dp563
g72
(dp564
g80
I3
ssg81
g558
sg74
(lp565
S''
asbasbasbag67
(g83
g69
NtRp566
(dp567
g72
(dp568
sg81
g462
sg74
(lp569
g67
(g88
g69
NtRp570
(dp571
g72
(dp572
g92
g93
ssg81
g566
sg74
(lp573
g386
asbag67
(g88
g69
NtRp574
(dp575
g72
(dp576
g99
g100
ssg81
g566
sg74
(lp577
S':'
asbag67
(g88
g69
NtRp578
(dp579
g72
(dp580
sg81
g566
sg74
(lp581
g67
(g68
g69
NtRp582
(dp583
g72
(dp584
g80
I3
ssg81
g578
sg74
(lp585
S''
asbasbasbag67
(g83
g69
NtRp586
(dp587
g72
(dp588
sg81
g462
sg74
(lp589
g67
(g88
g69
NtRp590
(dp591
g72
(dp592
g92
g93
ssg81
g586
sg74
(lp593
g407
asbag67
(g88
g69
NtRp594
(dp595
g72
(dp596
g99
g100
ssg81
g586
sg74
(lp597
S':'
asbag67
(g88
g69
NtRp598
(dp599
g72
(dp600
sg81
g586
sg74
(lp601
g67
(g68
g69
NtRp602
(dp603
g72
(dp604
g80
I3
ssg81
g598
sg74
(lp605
S''
asbasbasbag67
(g83
g69
NtRp606
(dp607
g72
(dp608
sg81
g462
sg74
(lp609
g67
(g88
g69
NtRp610
(dp611
g72
(dp612
g92
g93
ssg81
g606
sg74
(lp613
g428
asbag67
(g88
g69
NtRp614
(dp615
g72
(dp616
g99
g100
ssg81
g606
sg74
(lp617
S':'
asbag67
(g88
g69
NtRp618
(dp619
g72
(dp620
sg81
g606
sg74
(lp621
g67
(g68
g69
NtRp622
(dp623
g72
(dp624
g80
I3
ssg81
g618
sg74
(lp625
S''
asbasbasbasbasbasbasbasbasbasbasbag67
(g83
g69
NtRp626
(dp627
g72
(dp628
sg81
g77
sg74
(lp629
g67
(g88
g69
NtRp630
(dp631
g72
(dp632
g92
g93
ssg81
g626
sg74
(lp633
S'env'
p634
asbag67
(g88
g69
NtRp635
(dp636
g72
(dp637
g99
g100
ssg81
g626
sg74
(lp638
S':'
asbag67
(g88
g69
NtRp639
(dp640
g72
(dp641
sg81
g626
sg74
(lp642
g67
(g68
g69
NtRp643
(dp644
g72
(dp645
g80
I5
ssg81
g639
sg74
(lp646
g67
(g76
g69
NtRp647
(dp648
g72
(dp649
g80
I4
ssg81
Nsg74
(lp650
g67
(g83
g69
NtRp651
(dp652
g72
(dp653
sg81
g647
sg74
(lp654
g67
(g88
g69
NtRp655
(dp656
g72
(dp657
g92
g93
ssg81
g651
sg74
(lp658
S'app_folders'
p659
asbag67
(g88
g69
NtRp660
(dp661
g72
(dp662
g99
g100
ssg81
g651
sg74
(lp663
S':'
asbag67
(g88
g69
NtRp664
(dp665
g72
(dp666
sg81
g651
sg74
(lp667
g67
(g68
g69
NtRp668
(dp669
g72
(dp670
g80
I4
ssg81
g664
sg74
(lp671
S"set(['/home/ian/web2py/applications/places/', '/home/ian/web2py/applications/admin/'])"
p672
asbasbasbag67
(g83
g69
NtRp673
(dp674
g72
(dp675
sg81
g647
sg74
(lp676
g67
(g88
g69
NtRp677
(dp678
g72
(dp679
g92
g93
ssg81
g673
sg74
(lp680
S'applications_parent'
p681
asbag67
(g88
g69
NtRp682
(dp683
g72
(dp684
g99
g100
ssg81
g673
sg74
(lp685
S':'
asbag67
(g88
g69
NtRp686
(dp687
g72
(dp688
sg81
g673
sg74
(lp689
g67
(g68
g69
NtRp690
(dp691
g72
(dp692
g80
I4
ssg81
g686
sg74
(lp693
S'/home/ian/web2py'
p694
asbasbasbag67
(g83
g69
NtRp695
(dp696
g72
(dp697
sg81
g647
sg74
(lp698
g67
(g88
g69
NtRp699
(dp700
g72
(dp701
g92
g93
ssg81
g695
sg74
(lp702
S'cmd_args'
p703
asbag67
(g88
g69
NtRp704
(dp705
g72
(dp706
g99
g100
ssg81
g695
sg74
(lp707
S':'
asbag67
(g88
g69
NtRp708
(dp709
g72
(dp710
sg81
g695
sg74
(lp711
g67
(g68
g69
NtRp712
(dp713
g72
(dp714
g80
I4
ssg81
g708
sg74
(lp715
g67
(g76
g69
NtRp716
(dp717
g72
(dp718
g80
I3
ssg81
Nsg74
(lp719
sbasbasbasbag67
(g83
g69
NtRp720
(dp721
g72
(dp722
sg81
g647
sg74
(lp723
g67
(g88
g69
NtRp724
(dp725
g72
(dp726
g92
g93
ssg81
g720
sg74
(lp727
S'cmd_options'
p728
asbag67
(g88
g69
NtRp729
(dp730
g72
(dp731
g99
g100
ssg81
g720
sg74
(lp732
S':'
asbag67
(g88
g69
NtRp733
(dp734
g72
(dp735
sg81
g720
sg74
(lp736
g67
(g68
g69
NtRp737
(dp738
g72
(dp739
g80
I4
ssg81
g733
sg74
(lp740
S"<Values at 0x2bb5ea8: {'verbose': False, 'ip': '127.0.0.1', 'shutdown_timeout': 5, 'taskbar': False, 'nocron': False, 'pid_filename': 'httpserver.pid', 'maxthreads': None, 'softcron': False, 'server_name': 'Ariel-ubuntu', 'bpython': False, 'nogui': False, 'port': 8000, 'extcron': False, 'debuglevel': 30, 'test': None, 'folder': '/home/ian/web2py', 'config': '', 'import_models': False, 'winservice': '', 'shell': None, 'run': '', 'log_filename': 'httpserver.log', 'args': [''], 'ssl_ca_certificate': None, 'scheduler': None, 'profiler_filename': None, 'ssl_private_key': '', 'password': 'meteor2003', 'request_queue_size': 5, 'ssl_certificate': '', 'cronjob': False, 'plain': False, 'quiet': False, 'interfaces': None, 'minthreads': None, 'timeout': 10, 'numthreads': None, 'nobanner': False}>"
p741
asbasbasbag67
(g83
g69
NtRp742
(dp743
g72
(dp744
sg81
g647
sg74
(lp745
g67
(g88
g69
NtRp746
(dp747
g72
(dp748
g92
g93
ssg81
g742
sg74
(lp749
S'db_sessions'
p750
asbag67
(g88
g69
NtRp751
(dp752
g72
(dp753
g99
g100
ssg81
g742
sg74
(lp754
S':'
asbag67
(g88
g69
NtRp755
(dp756
g72
(dp757
sg81
g742
sg74
(lp758
g67
(g68
g69
NtRp759
(dp760
g72
(dp761
g80
I4
ssg81
g755
sg74
(lp762
S'set([])'
p763
asbasbasbag67
(g83
g69
NtRp764
(dp765
g72
(dp766
sg81
g647
sg74
(lp767
g67
(g88
g69
NtRp768
(dp769
g72
(dp770
g92
g93
ssg81
g764
sg74
(lp771
S'debugging'
p772
asbag67
(g88
g69
NtRp773
(dp774
g72
(dp775
g99
g100
ssg81
g764
sg74
(lp776
S':'
asbag67
(g88
g69
NtRp777
(dp778
g72
(dp779
sg81
g764
sg74
(lp780
g67
(g68
g69
NtRp781
(dp782
g72
(dp783
g80
I4
ssg81
g777
sg74
(lp784
g110
asbasbasbag67
(g83
g69
NtRp785
(dp786
g72
(dp787
sg81
g647
sg74
(lp788
g67
(g88
g69
NtRp789
(dp790
g72
(dp791
g92
g93
ssg81
g785
sg74
(lp792
S'gluon_parent'
p793
asbag67
(g88
g69
NtRp794
(dp795
g72
(dp796
g99
g100
ssg81
g785
sg74
(lp797
S':'
asbag67
(g88
g69
NtRp798
(dp799
g72
(dp800
sg81
g785
sg74
(lp801
g67
(g68
g69
NtRp802
(dp803
g72
(dp804
g80
I4
ssg81
g798
sg74
(lp805
S'/home/ian/web2py'
p806
asbasbasbag67
(g83
g69
NtRp807
(dp808
g72
(dp809
sg81
g647
sg74
(lp810
g67
(g88
g69
NtRp811
(dp812
g72
(dp813
g92
g93
ssg81
g807
sg74
(lp814
S'http_accept'
p815
asbag67
(g88
g69
NtRp816
(dp817
g72
(dp818
g99
g100
ssg81
g807
sg74
(lp819
S':'
asbag67
(g88
g69
NtRp820
(dp821
g72
(dp822
sg81
g807
sg74
(lp823
g67
(g68
g69
NtRp824
(dp825
g72
(dp826
g80
I4
ssg81
g820
sg74
(lp827
S'text/html,application/xhtml+xml,application/xml;q=0.9,*/*;q=0.8'
p828
asbasbasbag67
(g83
g69
NtRp829
(dp830
g72
(dp831
sg81
g647
sg74
(lp832
g67
(g88
g69
NtRp833
(dp834
g72
(dp835
g92
g93
ssg81
g829
sg74
(lp836
S'http_accept_charset'
p837
asbag67
(g88
g69
NtRp838
(dp839
g72
(dp840
g99
g100
ssg81
g829
sg74
(lp841
S':'
asbag67
(g88
g69
NtRp842
(dp843
g72
(dp844
sg81
g829
sg74
(lp845
g67
(g68
g69
NtRp846
(dp847
g72
(dp848
g80
I4
ssg81
g842
sg74
(lp849
S'ISO-8859-1,utf-8;q=0.7,*;q=0.7'
p850
asbasbasbag67
(g83
g69
NtRp851
(dp852
g72
(dp853
sg81
g647
sg74
(lp854
g67
(g88
g69
NtRp855
(dp856
g72
(dp857
g92
g93
ssg81
g851
sg74
(lp858
S'http_accept_encoding'
p859
asbag67
(g88
g69
NtRp860
(dp861
g72
(dp862
g99
g100
ssg81
g851
sg74
(lp863
S':'
asbag67
(g88
g69
NtRp864
(dp865
g72
(dp866
sg81
g851
sg74
(lp867
g67
(g68
g69
NtRp868
(dp869
g72
(dp870
g80
I4
ssg81
g864
sg74
(lp871
S'gzip, deflate'
p872
asbasbasbag67
(g83
g69
NtRp873
(dp874
g72
(dp875
sg81
g647
sg74
(lp876
g67
(g88
g69
NtRp877
(dp878
g72
(dp879
g92
g93
ssg81
g873
sg74
(lp880
S'http_accept_language'
p881
asbag67
(g88
g69
NtRp882
(dp883
g72
(dp884
g99
g100
ssg81
g873
sg74
(lp885
S':'
asbag67
(g88
g69
NtRp886
(dp887
g72
(dp888
sg81
g873
sg74
(lp889
g67
(g68
g69
NtRp890
(dp891
g72
(dp892
g80
I4
ssg81
g886
sg74
(lp893
S'en-us,en;q=0.5'
p894
asbasbasbag67
(g83
g69
NtRp895
(dp896
g72
(dp897
sg81
g647
sg74
(lp898
g67
(g88
g69
NtRp899
(dp900
g72
(dp901
g92
g93
ssg81
g895
sg74
(lp902
S'http_cache_control'
p903
asbag67
(g88
g69
NtRp904
(dp905
g72
(dp906
g99
g100
ssg81
g895
sg74
(lp907
S':'
asbag67
(g88
g69
NtRp908
(dp909
g72
(dp910
sg81
g895
sg74
(lp911
g67
(g68
g69
NtRp912
(dp913
g72
(dp914
g80
I4
ssg81
g908
sg74
(lp915
S'max-age=0'
p916
asbasbasbag67
(g83
g69
NtRp917
(dp918
g72
(dp919
sg81
g647
sg74
(lp920
g67
(g88
g69
NtRp921
(dp922
g72
(dp923
g92
g93
ssg81
g917
sg74
(lp924
S'http_connection'
p925
asbag67
(g88
g69
NtRp926
(dp927
g72
(dp928
g99
g100
ssg81
g917
sg74
(lp929
S':'
asbag67
(g88
g69
NtRp930
(dp931
g72
(dp932
sg81
g917
sg74
(lp933
g67
(g68
g69
NtRp934
(dp935
g72
(dp936
g80
I4
ssg81
g930
sg74
(lp937
S'keep-alive'
p938
asbasbasbag67
(g83
g69
NtRp939
(dp940
g72
(dp941
sg81
g647
sg74
(lp942
g67
(g88
g69
NtRp943
(dp944
g72
(dp945
g92
g93
ssg81
g939
sg74
(lp946
S'http_cookie'
p947
asbag67
(g88
g69
NtRp948
(dp949
g72
(dp950
g99
g100
ssg81
g939
sg74
(lp951
S':'
asbag67
(g88
g69
NtRp952
(dp953
g72
(dp954
sg81
g939
sg74
(lp955
g67
(g68
g69
NtRp956
(dp957
g72
(dp958
g80
I4
ssg81
g952
sg74
(lp959
S'session_id_admin=127.0.0.1-7a33863f-5fde-46d3-829b-42d86ca979bc; session_id_places=127.0.0.1-827c1359-ea2b-42e3-9459-33c4b0422bd4'
p960
asbasbasbag67
(g83
g69
NtRp961
(dp962
g72
(dp963
sg81
g647
sg74
(lp964
g67
(g88
g69
NtRp965
(dp966
g72
(dp967
g92
g93
ssg81
g961
sg74
(lp968
S'http_host'
p969
asbag67
(g88
g69
NtRp970
(dp971
g72
(dp972
g99
g100
ssg81
g961
sg74
(lp973
S':'
asbag67
(g88
g69
NtRp974
(dp975
g72
(dp976
sg81
g961
sg74
(lp977
g67
(g68
g69
NtRp978
(dp979
g72
(dp980
g80
I4
ssg81
g974
sg74
(lp981
S'127.0.0.1:8000'
p982
asbasbasbag67
(g83
g69
NtRp983
(dp984
g72
(dp985
sg81
g647
sg74
(lp986
g67
(g88
g69
NtRp987
(dp988
g72
(dp989
g92
g93
ssg81
g983
sg74
(lp990
S'http_referer'
p991
asbag67
(g88
g69
NtRp992
(dp993
g72
(dp994
g99
g100
ssg81
g983
sg74
(lp995
S':'
asbag67
(g88
g69
NtRp996
(dp997
g72
(dp998
sg81
g983
sg74
(lp999
g67
(g68
g69
NtRp1000
(dp1001
g72
(dp1002
g80
I4
ssg81
g996
sg74
(lp1003
S'http://127.0.0.1:8000/admin/default/site'
p1004
asbasbasbag67
(g83
g69
NtRp1005
(dp1006
g72
(dp1007
sg81
g647
sg74
(lp1008
g67
(g88
g69
NtRp1009
(dp1010
g72
(dp1011
g92
g93
ssg81
g1005
sg74
(lp1012
S'http_user_agent'
p1013
asbag67
(g88
g69
NtRp1014
(dp1015
g72
(dp1016
g99
g100
ssg81
g1005
sg74
(lp1017
S':'
asbag67
(g88
g69
NtRp1018
(dp1019
g72
(dp1020
sg81
g1005
sg74
(lp1021
g67
(g68
g69
NtRp1022
(dp1023
g72
(dp1024
g80
I4
ssg81
g1018
sg74
(lp1025
S'Mozilla/5.0 (X11; Linux x86_64; rv:7.0.1) Gecko/20100101 Firefox/7.0.1'
p1026
asbasbasbag67
(g83
g69
NtRp1027
(dp1028
g72
(dp1029
sg81
g647
sg74
(lp1030
g67
(g88
g69
NtRp1031
(dp1032
g72
(dp1033
g92
g93
ssg81
g1027
sg74
(lp1034
S'is_jython'
p1035
asbag67
(g88
g69
NtRp1036
(dp1037
g72
(dp1038
g99
g100
ssg81
g1027
sg74
(lp1039
S':'
asbag67
(g88
g69
NtRp1040
(dp1041
g72
(dp1042
sg81
g1027
sg74
(lp1043
g67
(g68
g69
NtRp1044
(dp1045
g72
(dp1046
g80
I4
ssg81
g1040
sg74
(lp1047
g110
asbasbasbag67
(g83
g69
NtRp1048
(dp1049
g72
(dp1050
sg81
g647
sg74
(lp1051
g67
(g88
g69
NtRp1052
(dp1053
g72
(dp1054
g92
g93
ssg81
g1048
sg74
(lp1055
S'path_info'
p1056
asbag67
(g88
g69
NtRp1057
(dp1058
g72
(dp1059
g99
g100
ssg81
g1048
sg74
(lp1060
S':'
asbag67
(g88
g69
NtRp1061
(dp1062
g72
(dp1063
sg81
g1048
sg74
(lp1064
g67
(g68
g69
NtRp1065
(dp1066
g72
(dp1067
g80
I4
ssg81
g1061
sg74
(lp1068
S'/places/default/index'
p1069
asbasbasbag67
(g83
g69
NtRp1070
(dp1071
g72
(dp1072
sg81
g647
sg74
(lp1073
g67
(g88
g69
NtRp1074
(dp1075
g72
(dp1076
g92
g93
ssg81
g1070
sg74
(lp1077
S'query_string'
p1078
asbag67
(g88
g69
NtRp1079
(dp1080
g72
(dp1081
g99
g100
ssg81
g1070
sg74
(lp1082
S':'
asbag67
(g88
g69
NtRp1083
(dp1084
g72
(dp1085
sg81
g1070
sg74
(lp1086
g67
(g68
g69
NtRp1087
(dp1088
g72
(dp1089
g80
I4
ssg81
g1083
sg74
(lp1090
S''
asbasbasbag67
(g83
g69
NtRp1091
(dp1092
g72
(dp1093
sg81
g647
sg74
(lp1094
g67
(g88
g69
NtRp1095
(dp1096
g72
(dp1097
g92
g93
ssg81
g1091
sg74
(lp1098
S'remote_addr'
p1099
asbag67
(g88
g69
NtRp1100
(dp1101
g72
(dp1102
g99
g100
ssg81
g1091
sg74
(lp1103
S':'
asbag67
(g88
g69
NtRp1104
(dp1105
g72
(dp1106
sg81
g1091
sg74
(lp1107
g67
(g68
g69
NtRp1108
(dp1109
g72
(dp1110
g80
I4
ssg81
g1104
sg74
(lp1111
g200
asbasbasbag67
(g83
g69
NtRp1112
(dp1113
g72
(dp1114
sg81
g647
sg74
(lp1115
g67
(g88
g69
NtRp1116
(dp1117
g72
(dp1118
g92
g93
ssg81
g1112
sg74
(lp1119
S'remote_port'
p1120
asbag67
(g88
g69
NtRp1121
(dp1122
g72
(dp1123
g99
g100
ssg81
g1112
sg74
(lp1124
S':'
asbag67
(g88
g69
NtRp1125
(dp1126
g72
(dp1127
sg81
g1112
sg74
(lp1128
g67
(g68
g69
NtRp1129
(dp1130
g72
(dp1131
g80
I4
ssg81
g1125
sg74
(lp1132
S'46193'
p1133
asbasbasbag67
(g83
g69
NtRp1134
(dp1135
g72
(dp1136
sg81
g647
sg74
(lp1137
g67
(g88
g69
NtRp1138
(dp1139
g72
(dp1140
g92
g93
ssg81
g1134
sg74
(lp1141
S'request_method'
p1142
asbag67
(g88
g69
NtRp1143
(dp1144
g72
(dp1145
g99
g100
ssg81
g1134
sg74
(lp1146
S':'
asbag67
(g88
g69
NtRp1147
(dp1148
g72
(dp1149
sg81
g1134
sg74
(lp1150
g67
(g68
g69
NtRp1151
(dp1152
g72
(dp1153
g80
I4
ssg81
g1147
sg74
(lp1154
S'GET'
p1155
asbasbasbag67
(g83
g69
NtRp1156
(dp1157
g72
(dp1158
sg81
g647
sg74
(lp1159
g67
(g88
g69
NtRp1160
(dp1161
g72
(dp1162
g92
g93
ssg81
g1156
sg74
(lp1163
S'script_name'
p1164
asbag67
(g88
g69
NtRp1165
(dp1166
g72
(dp1167
g99
g100
ssg81
g1156
sg74
(lp1168
S':'
asbag67
(g88
g69
NtRp1169
(dp1170
g72
(dp1171
sg81
g1156
sg74
(lp1172
g67
(g68
g69
NtRp1173
(dp1174
g72
(dp1175
g80
I4
ssg81
g1169
sg74
(lp1176
S''
asbasbasbag67
(g83
g69
NtRp1177
(dp1178
g72
(dp1179
sg81
g647
sg74
(lp1180
g67
(g88
g69
NtRp1181
(dp1182
g72
(dp1183
g92
g93
ssg81
g1177
sg74
(lp1184
S'server_name'
p1185
asbag67
(g88
g69
NtRp1186
(dp1187
g72
(dp1188
g99
g100
ssg81
g1177
sg74
(lp1189
S':'
asbag67
(g88
g69
NtRp1190
(dp1191
g72
(dp1192
sg81
g1177
sg74
(lp1193
g67
(g68
g69
NtRp1194
(dp1195
g72
(dp1196
g80
I4
ssg81
g1190
sg74
(lp1197
S'Ariel-ubuntu'
p1198
asbasbasbag67
(g83
g69
NtRp1199
(dp1200
g72
(dp1201
sg81
g647
sg74
(lp1202
g67
(g88
g69
NtRp1203
(dp1204
g72
(dp1205
g92
g93
ssg81
g1199
sg74
(lp1206
S'server_port'
p1207
asbag67
(g88
g69
NtRp1208
(dp1209
g72
(dp1210
g99
g100
ssg81
g1199
sg74
(lp1211
S':'
asbag67
(g88
g69
NtRp1212
(dp1213
g72
(dp1214
sg81
g1199
sg74
(lp1215
g67
(g68
g69
NtRp1216
(dp1217
g72
(dp1218
g80
I4
ssg81
g1212
sg74
(lp1219
S'8000'
p1220
asbasbasbag67
(g83
g69
NtRp1221
(dp1222
g72
(dp1223
sg81
g647
sg74
(lp1224
g67
(g88
g69
NtRp1225
(dp1226
g72
(dp1227
g92
g93
ssg81
g1221
sg74
(lp1228
S'server_protocol'
p1229
asbag67
(g88
g69
NtRp1230
(dp1231
g72
(dp1232
g99
g100
ssg81
g1221
sg74
(lp1233
S':'
asbag67
(g88
g69
NtRp1234
(dp1235
g72
(dp1236
sg81
g1221
sg74
(lp1237
g67
(g68
g69
NtRp1238
(dp1239
g72
(dp1240
g80
I4
ssg81
g1234
sg74
(lp1241
S'HTTP/1.1'
p1242
asbasbasbag67
(g83
g69
NtRp1243
(dp1244
g72
(dp1245
sg81
g647
sg74
(lp1246
g67
(g88
g69
NtRp1247
(dp1248
g72
(dp1249
g92
g93
ssg81
g1243
sg74
(lp1250
S'server_software'
p1251
asbag67
(g88
g69
NtRp1252
(dp1253
g72
(dp1254
g99
g100
ssg81
g1243
sg74
(lp1255
S':'
asbag67
(g88
g69
NtRp1256
(dp1257
g72
(dp1258
sg81
g1243
sg74
(lp1259
g67
(g68
g69
NtRp1260
(dp1261
g72
(dp1262
g80
I4
ssg81
g1256
sg74
(lp1263
S'Rocket 1.2.4'
p1264
asbasbasbag67
(g83
g69
NtRp1265
(dp1266
g72
(dp1267
sg81
g647
sg74
(lp1268
g67
(g88
g69
NtRp1269
(dp1270
g72
(dp1271
g92
g93
ssg81
g1265
sg74
(lp1272
S'web2py_crontype'
p1273
asbag67
(g88
g69
NtRp1274
(dp1275
g72
(dp1276
g99
g100
ssg81
g1265
sg74
(lp1277
S':'
asbag67
(g88
g69
NtRp1278
(dp1279
g72
(dp1280
sg81
g1265
sg74
(lp1281
g67
(g68
g69
NtRp1282
(dp1283
g72
(dp1284
g80
I4
ssg81
g1278
sg74
(lp1285
S'hard'
p1286
asbasbasbag67
(g83
g69
NtRp1287
(dp1288
g72
(dp1289
sg81
g647
sg74
(lp1290
g67
(g88
g69
NtRp1291
(dp1292
g72
(dp1293
g92
g93
ssg81
g1287
sg74
(lp1294
S'web2py_path'
p1295
asbag67
(g88
g69
NtRp1296
(dp1297
g72
(dp1298
g99
g100
ssg81
g1287
sg74
(lp1299
S':'
asbag67
(g88
g69
NtRp1300
(dp1301
g72
(dp1302
sg81
g1287
sg74
(lp1303
g67
(g68
g69
NtRp1304
(dp1305
g72
(dp1306
g80
I4
ssg81
g1300
sg74
(lp1307
g694
asbasbasbag67
(g83
g69
NtRp1308
(dp1309
g72
(dp1310
sg81
g647
sg74
(lp1311
g67
(g88
g69
NtRp1312
(dp1313
g72
(dp1314
g92
g93
ssg81
g1308
sg74
(lp1315
S'web2py_version'
p1316
asbag67
(g88
g69
NtRp1317
(dp1318
g72
(dp1319
g99
g100
ssg81
g1308
sg74
(lp1320
S':'
asbag67
(g88
g69
NtRp1321
(dp1322
g72
(dp1323
sg81
g1308
sg74
(lp1324
g67
(g68
g69
NtRp1325
(dp1326
g72
(dp1327
g80
I4
ssg81
g1321
sg74
(lp1328
g67
(g76
g69
NtRp1329
(dp1330
g72
(dp1331
g80
I3
ssg81
Nsg74
(lp1332
g67
(g83
g69
NtRp1333
(dp1334
g72
(dp1335
sg81
g1329
sg74
(lp1336
g67
(g88
g69
NtRp1337
(dp1338
g72
(dp1339
sg81
g1333
sg74
(lp1340
g67
(g68
g69
NtRp1341
(dp1342
g72
(dp1343
g80
I3
ssg81
g1337
sg74
(lp1344
S'1'
asbasbasbag67
(g83
g69
NtRp1345
(dp1346
g72
(dp1347
sg81
g1329
sg74
(lp1348
g67
(g88
g69
NtRp1349
(dp1350
g72
(dp1351
sg81
g1345
sg74
(lp1352
g67
(g68
g69
NtRp1353
(dp1354
g72
(dp1355
g80
I3
ssg81
g1349
sg74
(lp1356
S'99'
p1357
asbasbasbag67
(g83
g69
NtRp1358
(dp1359
g72
(dp1360
sg81
g1329
sg74
(lp1361
g67
(g88
g69
NtRp1362
(dp1363
g72
(dp1364
sg81
g1358
sg74
(lp1365
g67
(g68
g69
NtRp1366
(dp1367
g72
(dp1368
g80
I3
ssg81
g1362
sg74
(lp1369
S'2'
asbasbasbag67
(g83
g69
NtRp1370
(dp1371
g72
(dp1372
sg81
g1329
sg74
(lp1373
g67
(g88
g69
NtRp1374
(dp1375
g72
(dp1376
sg81
g1370
sg74
(lp1377
g67
(g68
g69
NtRp1378
(dp1379
g72
(dp1380
g80
I3
ssg81
g1374
sg74
(lp1381
S'datetime.datetime(2011, 9, 26, 6, 55, 33)'
p1382
asbasbasbag67
(g83
g69
NtRp1383
(dp1384
g72
(dp1385
sg81
g1329
sg74
(lp1386
g67
(g88
g69
NtRp1387
(dp1388
g72
(dp1389
sg81
g1383
sg74
(lp1390
g67
(g68
g69
NtRp1391
(dp1392
g72
(dp1393
g80
I3
ssg81
g1387
sg74
(lp1394
S'stable'
p1395
asbasbasbasbasbasbasbag67
(g83
g69
NtRp1396
(dp1397
g72
(dp1398
sg81
g647
sg74
(lp1399
g67
(g88
g69
NtRp1400
(dp1401
g72
(dp1402
g92
g93
ssg81
g1396
sg74
(lp1403
S'wsgi_errors'
p1404
asbag67
(g88
g69
NtRp1405
(dp1406
g72
(dp1407
g99
g100
ssg81
g1396
sg74
(lp1408
S':'
asbag67
(g88
g69
NtRp1409
(dp1410
g72
(dp1411
sg81
g1396
sg74
(lp1412
g67
(g68
g69
NtRp1413
(dp1414
g72
(dp1415
g80
I4
ssg81
g1409
sg74
(lp1416
S"<open file '<stderr>', mode 'w' at 0x7fc667cbe270>"
p1417
asbasbasbag67
(g83
g69
NtRp1418
(dp1419
g72
(dp1420
sg81
g647
sg74
(lp1421
g67
(g88
g69
NtRp1422
(dp1423
g72
(dp1424
g92
g93
ssg81
g1418
sg74
(lp1425
S'wsgi_file_wrapper'
p1426
asbag67
(g88
g69
NtRp1427
(dp1428
g72
(dp1429
g99
g100
ssg81
g1418
sg74
(lp1430
S':'
asbag67
(g88
g69
NtRp1431
(dp1432
g72
(dp1433
sg81
g1418
sg74
(lp1434
g67
(g68
g69
NtRp1435
(dp1436
g72
(dp1437
g80
I4
ssg81
g1431
sg74
(lp1438
S'<class wsgiref.util.FileWrapper at 0x2ad6738>'
p1439
asbasbasbag67
(g83
g69
NtRp1440
(dp1441
g72
(dp1442
sg81
g647
sg74
(lp1443
g67
(g88
g69
NtRp1444
(dp1445
g72
(dp1446
g92
g93
ssg81
g1440
sg74
(lp1447
S'wsgi_input'
p1448
asbag67
(g88
g69
NtRp1449
(dp1450
g72
(dp1451
g99
g100
ssg81
g1440
sg74
(lp1452
S':'
asbag67
(g88
g69
NtRp1453
(dp1454
g72
(dp1455
sg81
g1440
sg74
(lp1456
g67
(g68
g69
NtRp1457
(dp1458
g72
(dp1459
g80
I4
ssg81
g1453
sg74
(lp1460
S'<socket._fileobject object at 0x2e7f550>'
p1461
asbasbasbag67
(g83
g69
NtRp1462
(dp1463
g72
(dp1464
sg81
g647
sg74
(lp1465
g67
(g88
g69
NtRp1466
(dp1467
g72
(dp1468
g92
g93
ssg81
g1462
sg74
(lp1469
S'wsgi_multiprocess'
p1470
asbag67
(g88
g69
NtRp1471
(dp1472
g72
(dp1473
g99
g100
ssg81
g1462
sg74
(lp1474
S':'
asbag67
(g88
g69
NtRp1475
(dp1476
g72
(dp1477
sg81
g1462
sg74
(lp1478
g67
(g68
g69
NtRp1479
(dp1480
g72
(dp1481
g80
I4
ssg81
g1475
sg74
(lp1482
g110
asbasbasbag67
(g83
g69
NtRp1483
(dp1484
g72
(dp1485
sg81
g647
sg74
(lp1486
g67
(g88
g69
NtRp1487
(dp1488
g72
(dp1489
g92
g93
ssg81
g1483
sg74
(lp1490
S'wsgi_multithread'
p1491
asbag67
(g88
g69
NtRp1492
(dp1493
g72
(dp1494
g99
g100
ssg81
g1483
sg74
(lp1495
S':'
asbag67
(g88
g69
NtRp1496
(dp1497
g72
(dp1498
sg81
g1483
sg74
(lp1499
g67
(g68
g69
NtRp1500
(dp1501
g72
(dp1502
g80
I4
ssg81
g1496
sg74
(lp1503
S'True'
p1504
asbasbasbag67
(g83
g69
NtRp1505
(dp1506
g72
(dp1507
sg81
g647
sg74
(lp1508
g67
(g88
g69
NtRp1509
(dp1510
g72
(dp1511
g92
g93
ssg81
g1505
sg74
(lp1512
S'wsgi_run_once'
p1513
asbag67
(g88
g69
NtRp1514
(dp1515
g72
(dp1516
g99
g100
ssg81
g1505
sg74
(lp1517
S':'
asbag67
(g88
g69
NtRp1518
(dp1519
g72
(dp1520
sg81
g1505
sg74
(lp1521
g67
(g68
g69
NtRp1522
(dp1523
g72
(dp1524
g80
I4
ssg81
g1518
sg74
(lp1525
g110
asbasbasbag67
(g83
g69
NtRp1526
(dp1527
g72
(dp1528
sg81
g647
sg74
(lp1529
g67
(g88
g69
NtRp1530
(dp1531
g72
(dp1532
g92
g93
ssg81
g1526
sg74
(lp1533
S'wsgi_url_scheme'
p1534
asbag67
(g88
g69
NtRp1535
(dp1536
g72
(dp1537
g99
g100
ssg81
g1526
sg74
(lp1538
S':'
asbag67
(g88
g69
NtRp1539
(dp1540
g72
(dp1541
sg81
g1526
sg74
(lp1542
g67
(g68
g69
NtRp1543
(dp1544
g72
(dp1545
g80
I4
ssg81
g1539
sg74
(lp1546
S'http'
p1547
asbasbasbag67
(g83
g69
NtRp1548
(dp1549
g72
(dp1550
sg81
g647
sg74
(lp1551
g67
(g88
g69
NtRp1552
(dp1553
g72
(dp1554
g92
g93
ssg81
g1548
sg74
(lp1555
S'wsgi_version'
p1556
asbag67
(g88
g69
NtRp1557
(dp1558
g72
(dp1559
g99
g100
ssg81
g1548
sg74
(lp1560
S':'
asbag67
(g88
g69
NtRp1561
(dp1562
g72
(dp1563
sg81
g1548
sg74
(lp1564
g67
(g68
g69
NtRp1565
(dp1566
g72
(dp1567
g80
I4
ssg81
g1561
sg74
(lp1568
g67
(g76
g69
NtRp1569
(dp1570
g72
(dp1571
g80
I3
ssg81
Nsg74
(lp1572
g67
(g83
g69
NtRp1573
(dp1574
g72
(dp1575
sg81
g1569
sg74
(lp1576
g67
(g88
g69
NtRp1577
(dp1578
g72
(dp1579
sg81
g1573
sg74
(lp1580
g67
(g68
g69
NtRp1581
(dp1582
g72
(dp1583
g80
I3
ssg81
g1577
sg74
(lp1584
S'1'
asbasbasbag67
(g83
g69
NtRp1585
(dp1586
g72
(dp1587
sg81
g1569
sg74
(lp1588
g67
(g88
g69
NtRp1589
(dp1590
g72
(dp1591
sg81
g1585
sg74
(lp1592
g67
(g68
g69
NtRp1593
(dp1594
g72
(dp1595
g80
I3
ssg81
g1589
sg74
(lp1596
S'0'
asbasbasbasbasbasbasbasbasbasbasbag67
(g83
g69
NtRp1597
(dp1598
g72
(dp1599
sg81
g77
sg74
(lp1600
g67
(g88
g69
NtRp1601
(dp1602
g72
(dp1603
g92
g93
ssg81
g1597
sg74
(lp1604
S'extension'
p1605
asbag67
(g88
g69
NtRp1606
(dp1607
g72
(dp1608
g99
g100
ssg81
g1597
sg74
(lp1609
S':'
asbag67
(g88
g69
NtRp1610
(dp1611
g72
(dp1612
sg81
g1597
sg74
(lp1613
g67
(g68
g69
NtRp1614
(dp1615
g72
(dp1616
g80
I5
ssg81
g1610
sg74
(lp1617
S'html'
p1618
asbasbasbag67
(g83
g69
NtRp1619
(dp1620
g72
(dp1621
sg81
g77
sg74
(lp1622
g67
(g88
g69
NtRp1623
(dp1624
g72
(dp1625
g92
g93
ssg81
g1619
sg74
(lp1626
S'folder'
p1627
asbag67
(g88
g69
NtRp1628
(dp1629
g72
(dp1630
g99
g100
ssg81
g1619
sg74
(lp1631
S':'
asbag67
(g88
g69
NtRp1632
(dp1633
g72
(dp1634
sg81
g1619
sg74
(lp1635
g67
(g68
g69
NtRp1636
(dp1637
g72
(dp1638
g80
I5
ssg81
g1632
sg74
(lp1639
S'/home/ian/web2py/applications/places/'
p1640
asbasbasbag67
(g83
g69
NtRp1641
(dp1642
g72
(dp1643
sg81
g77
sg74
(lp1644
g67
(g88
g69
NtRp1645
(dp1646
g72
(dp1647
g92
g93
ssg81
g1641
sg74
(lp1648
S'function'
p1649
asbag67
(g88
g69
NtRp1650
(dp1651
g72
(dp1652
g99
g100
ssg81
g1641
sg74
(lp1653
S':'
asbag67
(g88
g69
NtRp1654
(dp1655
g72
(dp1656
sg81
g1641
sg74
(lp1657
g67
(g68
g69
NtRp1658
(dp1659
g72
(dp1660
g80
I5
ssg81
g1654
sg74
(lp1661
S'index'
p1662
asbasbasbag67
(g83
g69
NtRp1663
(dp1664
g72
(dp1665
sg81
g77
sg74
(lp1666
g67
(g88
g69
NtRp1667
(dp1668
g72
(dp1669
g92
g93
ssg81
g1663
sg74
(lp1670
S'get_vars'
p1671
asbag67
(g88
g69
NtRp1672
(dp1673
g72
(dp1674
g99
g100
ssg81
g1663
sg74
(lp1675
S':'
asbag67
(g88
g69
NtRp1676
(dp1677
g72
(dp1678
sg81
g1663
sg74
(lp1679
g67
(g68
g69
NtRp1680
(dp1681
g72
(dp1682
g80
I5
ssg81
g1676
sg74
(lp1683
g67
(g76
g69
NtRp1684
(dp1685
g72
(dp1686
g80
I4
ssg81
Nsg74
(lp1687
sbasbasbasbag67
(g83
g69
NtRp1688
(dp1689
g72
(dp1690
sg81
g77
sg74
(lp1691
g67
(g88
g69
NtRp1692
(dp1693
g72
(dp1694
g92
g93
ssg81
g1688
sg74
(lp1695
S'global_settings'
p1696
asbag67
(g88
g69
NtRp1697
(dp1698
g72
(dp1699
g99
g100
ssg81
g1688
sg74
(lp1700
S':'
asbag67
(g88
g69
NtRp1701
(dp1702
g72
(dp1703
sg81
g1688
sg74
(lp1704
g67
(g68
g69
NtRp1705
(dp1706
g72
(dp1707
g80
I5
ssg81
g1701
sg74
(lp1708
g67
(g76
g69
NtRp1709
(dp1710
g72
(dp1711
g80
I4
ssg81
Nsg74
(lp1712
g67
(g83
g69
NtRp1713
(dp1714
g72
(dp1715
sg81
g1709
sg74
(lp1716
g67
(g88
g69
NtRp1717
(dp1718
g72
(dp1719
g92
g93
ssg81
g1713
sg74
(lp1720
g659
asbag67
(g88
g69
NtRp1721
(dp1722
g72
(dp1723
g99
g100
ssg81
g1713
sg74
(lp1724
S':'
asbag67
(g88
g69
NtRp1725
(dp1726
g72
(dp1727
sg81
g1713
sg74
(lp1728
g67
(g68
g69
NtRp1729
(dp1730
g72
(dp1731
g80
I4
ssg81
g1725
sg74
(lp1732
S"set(['/home/ian/web2py/applications/places/', '/home/ian/web2py/applications/admin/'])"
p1733
asbasbasbag67
(g83
g69
NtRp1734
(dp1735
g72
(dp1736
sg81
g1709
sg74
(lp1737
g67
(g88
g69
NtRp1738
(dp1739
g72
(dp1740
g92
g93
ssg81
g1734
sg74
(lp1741
g681
asbag67
(g88
g69
NtRp1742
(dp1743
g72
(dp1744
g99
g100
ssg81
g1734
sg74
(lp1745
S':'
asbag67
(g88
g69
NtRp1746
(dp1747
g72
(dp1748
sg81
g1734
sg74
(lp1749
g67
(g68
g69
NtRp1750
(dp1751
g72
(dp1752
g80
I4
ssg81
g1746
sg74
(lp1753
g694
asbasbasbag67
(g83
g69
NtRp1754
(dp1755
g72
(dp1756
sg81
g1709
sg74
(lp1757
g67
(g88
g69
NtRp1758
(dp1759
g72
(dp1760
g92
g93
ssg81
g1754
sg74
(lp1761
g703
asbag67
(g88
g69
NtRp1762
(dp1763
g72
(dp1764
g99
g100
ssg81
g1754
sg74
(lp1765
S':'
asbag67
(g88
g69
NtRp1766
(dp1767
g72
(dp1768
sg81
g1754
sg74
(lp1769
g67
(g68
g69
NtRp1770
(dp1771
g72
(dp1772
g80
I4
ssg81
g1766
sg74
(lp1773
g67
(g76
g69
NtRp1774
(dp1775
g72
(dp1776
g80
I3
ssg81
Nsg74
(lp1777
sbasbasbasbag67
(g83
g69
NtRp1778
(dp1779
g72
(dp1780
sg81
g1709
sg74
(lp1781
g67
(g88
g69
NtRp1782
(dp1783
g72
(dp1784
g92
g93
ssg81
g1778
sg74
(lp1785
g728
asbag67
(g88
g69
NtRp1786
(dp1787
g72
(dp1788
g99
g100
ssg81
g1778
sg74
(lp1789
S':'
asbag67
(g88
g69
NtRp1790
(dp1791
g72
(dp1792
sg81
g1778
sg74
(lp1793
g67
(g68
g69
NtRp1794
(dp1795
g72
(dp1796
g80
I4
ssg81
g1790
sg74
(lp1797
S"<Values at 0x2bb5ea8: {'verbose': False, 'ip': '127.0.0.1', 'shutdown_timeout': 5, 'taskbar': False, 'nocron': False, 'pid_filename': 'httpserver.pid', 'maxthreads': None, 'softcron': False, 'server_name': 'Ariel-ubuntu', 'bpython': False, 'nogui': False, 'port': 8000, 'extcron': False, 'debuglevel': 30, 'test': None, 'folder': '/home/ian/web2py', 'config': '', 'import_models': False, 'winservice': '', 'shell': None, 'run': '', 'log_filename': 'httpserver.log', 'args': [''], 'ssl_ca_certificate': None, 'scheduler': None, 'profiler_filename': None, 'ssl_private_key': '', 'password': 'meteor2003', 'request_queue_size': 5, 'ssl_certificate': '', 'cronjob': False, 'plain': False, 'quiet': False, 'interfaces': None, 'minthreads': None, 'timeout': 10, 'numthreads': None, 'nobanner': False}>"
p1798
asbasbasbag67
(g83
g69
NtRp1799
(dp1800
g72
(dp1801
sg81
g1709
sg74
(lp1802
g67
(g88
g69
NtRp1803
(dp1804
g72
(dp1805
g92
g93
ssg81
g1799
sg74
(lp1806
g750
asbag67
(g88
g69
NtRp1807
(dp1808
g72
(dp1809
g99
g100
ssg81
g1799
sg74
(lp1810
S':'
asbag67
(g88
g69
NtRp1811
(dp1812
g72
(dp1813
sg81
g1799
sg74
(lp1814
g67
(g68
g69
NtRp1815
(dp1816
g72
(dp1817
g80
I4
ssg81
g1811
sg74
(lp1818
S'set([])'
p1819
asbasbasbag67
(g83
g69
NtRp1820
(dp1821
g72
(dp1822
sg81
g1709
sg74
(lp1823
g67
(g88
g69
NtRp1824
(dp1825
g72
(dp1826
g92
g93
ssg81
g1820
sg74
(lp1827
g772
asbag67
(g88
g69
NtRp1828
(dp1829
g72
(dp1830
g99
g100
ssg81
g1820
sg74
(lp1831
S':'
asbag67
(g88
g69
NtRp1832
(dp1833
g72
(dp1834
sg81
g1820
sg74
(lp1835
g67
(g68
g69
NtRp1836
(dp1837
g72
(dp1838
g80
I4
ssg81
g1832
sg74
(lp1839
g110
asbasbasbag67
(g83
g69
NtRp1840
(dp1841
g72
(dp1842
sg81
g1709
sg74
(lp1843
g67
(g88
g69
NtRp1844
(dp1845
g72
(dp1846
g92
g93
ssg81
g1840
sg74
(lp1847
g793
asbag67
(g88
g69
NtRp1848
(dp1849
g72
(dp1850
g99
g100
ssg81
g1840
sg74
(lp1851
S':'
asbag67
(g88
g69
NtRp1852
(dp1853
g72
(dp1854
sg81
g1840
sg74
(lp1855
g67
(g68
g69
NtRp1856
(dp1857
g72
(dp1858
g80
I4
ssg81
g1852
sg74
(lp1859
g806
asbasbasbag67
(g83
g69
NtRp1860
(dp1861
g72
(dp1862
sg81
g1709
sg74
(lp1863
g67
(g88
g69
NtRp1864
(dp1865
g72
(dp1866
g92
g93
ssg81
g1860
sg74
(lp1867
g1035
asbag67
(g88
g69
NtRp1868
(dp1869
g72
(dp1870
g99
g100
ssg81
g1860
sg74
(lp1871
S':'
asbag67
(g88
g69
NtRp1872
(dp1873
g72
(dp1874
sg81
g1860
sg74
(lp1875
g67
(g68
g69
NtRp1876
(dp1877
g72
(dp1878
g80
I4
ssg81
g1872
sg74
(lp1879
g110
asbasbasbag67
(g83
g69
NtRp1880
(dp1881
g72
(dp1882
sg81
g1709
sg74
(lp1883
g67
(g88
g69
NtRp1884
(dp1885
g72
(dp1886
g92
g93
ssg81
g1880
sg74
(lp1887
g1273
asbag67
(g88
g69
NtRp1888
(dp1889
g72
(dp1890
g99
g100
ssg81
g1880
sg74
(lp1891
S':'
asbag67
(g88
g69
NtRp1892
(dp1893
g72
(dp1894
sg81
g1880
sg74
(lp1895
g67
(g68
g69
NtRp1896
(dp1897
g72
(dp1898
g80
I4
ssg81
g1892
sg74
(lp1899
g1286
asbasbasbag67
(g83
g69
NtRp1900
(dp1901
g72
(dp1902
sg81
g1709
sg74
(lp1903
g67
(g88
g69
NtRp1904
(dp1905
g72
(dp1906
g92
g93
ssg81
g1900
sg74
(lp1907
g1316
asbag67
(g88
g69
NtRp1908
(dp1909
g72
(dp1910
g99
g100
ssg81
g1900
sg74
(lp1911
S':'
asbag67
(g88
g69
NtRp1912
(dp1913
g72
(dp1914
sg81
g1900
sg74
(lp1915
g67
(g68
g69
NtRp1916
(dp1917
g72
(dp1918
g80
I4
ssg81
g1912
sg74
(lp1919
g67
(g76
g69
NtRp1920
(dp1921
g72
(dp1922
g80
I3
ssg81
Nsg74
(lp1923
g67
(g83
g69
NtRp1924
(dp1925
g72
(dp1926
sg81
g1920
sg74
(lp1927
g67
(g88
g69
NtRp1928
(dp1929
g72
(dp1930
sg81
g1924
sg74
(lp1931
g67
(g68
g69
NtRp1932
(dp1933
g72
(dp1934
g80
I3
ssg81
g1928
sg74
(lp1935
S'1'
asbasbasbag67
(g83
g69
NtRp1936
(dp1937
g72
(dp1938
sg81
g1920
sg74
(lp1939
g67
(g88
g69
NtRp1940
(dp1941
g72
(dp1942
sg81
g1936
sg74
(lp1943
g67
(g68
g69
NtRp1944
(dp1945
g72
(dp1946
g80
I3
ssg81
g1940
sg74
(lp1947
S'99'
p1948
asbasbasbag67
(g83
g69
NtRp1949
(dp1950
g72
(dp1951
sg81
g1920
sg74
(lp1952
g67
(g88
g69
NtRp1953
(dp1954
g72
(dp1955
sg81
g1949
sg74
(lp1956
g67
(g68
g69
NtRp1957
(dp1958
g72
(dp1959
g80
I3
ssg81
g1953
sg74
(lp1960
S'2'
asbasbasbag67
(g83
g69
NtRp1961
(dp1962
g72
(dp1963
sg81
g1920
sg74
(lp1964
g67
(g88
g69
NtRp1965
(dp1966
g72
(dp1967
sg81
g1961
sg74
(lp1968
g67
(g68
g69
NtRp1969
(dp1970
g72
(dp1971
g80
I3
ssg81
g1965
sg74
(lp1972
S'datetime.datetime(2011, 9, 26, 6, 55, 33)'
p1973
asbasbasbag67
(g83
g69
NtRp1974
(dp1975
g72
(dp1976
sg81
g1920
sg74
(lp1977
g67
(g88
g69
NtRp1978
(dp1979
g72
(dp1980
sg81
g1974
sg74
(lp1981
g67
(g68
g69
NtRp1982
(dp1983
g72
(dp1984
g80
I3
ssg81
g1978
sg74
(lp1985
g1395
asbasbasbasbasbasbasbasbasbasbasbag67
(g83
g69
NtRp1986
(dp1987
g72
(dp1988
sg81
g77
sg74
(lp1989
g67
(g88
g69
NtRp1990
(dp1991
g72
(dp1992
g92
g93
ssg81
g1986
sg74
(lp1993
S'is_https'
p1994
asbag67
(g88
g69
NtRp1995
(dp1996
g72
(dp1997
g99
g100
ssg81
g1986
sg74
(lp1998
S':'
asbag67
(g88
g69
NtRp1999
(dp2000
g72
(dp2001
sg81
g1986
sg74
(lp2002
g67
(g68
g69
NtRp2003
(dp2004
g72
(dp2005
g80
I5
ssg81
g1999
sg74
(lp2006
g110
asbasbasbag67
(g83
g69
NtRp2007
(dp2008
g72
(dp2009
sg81
g77
sg74
(lp2010
g67
(g88
g69
NtRp2011
(dp2012
g72
(dp2013
g92
g93
ssg81
g2007
sg74
(lp2014
S'is_local'
p2015
asbag67
(g88
g69
NtRp2016
(dp2017
g72
(dp2018
g99
g100
ssg81
g2007
sg74
(lp2019
S':'
asbag67
(g88
g69
NtRp2020
(dp2021
g72
(dp2022
sg81
g2007
sg74
(lp2023
g67
(g68
g69
NtRp2024
(dp2025
g72
(dp2026
g80
I5
ssg81
g2020
sg74
(lp2027
g1504
asbasbasbag67
(g83
g69
NtRp2028
(dp2029
g72
(dp2030
sg81
g77
sg74
(lp2031
g67
(g88
g69
NtRp2032
(dp2033
g72
(dp2034
g92
g93
ssg81
g2028
sg74
(lp2035
S'is_restful'
p2036
asbag67
(g88
g69
NtRp2037
(dp2038
g72
(dp2039
g99
g100
ssg81
g2028
sg74
(lp2040
S':'
asbag67
(g88
g69
NtRp2041
(dp2042
g72
(dp2043
sg81
g2028
sg74
(lp2044
g67
(g68
g69
NtRp2045
(dp2046
g72
(dp2047
g80
I5
ssg81
g2041
sg74
(lp2048
g110
asbasbasbag67
(g83
g69
NtRp2049
(dp2050
g72
(dp2051
sg81
g77
sg74
(lp2052
g67
(g88
g69
NtRp2053
(dp2054
g72
(dp2055
g92
g93
ssg81
g2049
sg74
(lp2056
S'now'
p2057
asbag67
(g88
g69
NtRp2058
(dp2059
g72
(dp2060
g99
g100
ssg81
g2049
sg74
(lp2061
S':'
asbag67
(g88
g69
NtRp2062
(dp2063
g72
(dp2064
sg81
g2049
sg74
(lp2065
g67
(g68
g69
NtRp2066
(dp2067
g72
(dp2068
g80
I5
ssg81
g2062
sg74
(lp2069
S'datetime.datetime(2011, 10, 2, 18, 19, 48, 209910)'
p2070
asbasbasbag67
(g83
g69
NtRp2071
(dp2072
g72
(dp2073
sg81
g77
sg74
(lp2074
g67
(g88
g69
NtRp2075
(dp2076
g72
(dp2077
g92
g93
ssg81
g2071
sg74
(lp2078
S'post_vars'
p2079
asbag67
(g88
g69
NtRp2080
(dp2081
g72
(dp2082
g99
g100
ssg81
g2071
sg74
(lp2083
S':'
asbag67
(g88
g69
NtRp2084
(dp2085
g72
(dp2086
sg81
g2071
sg74
(lp2087
g67
(g68
g69
NtRp2088
(dp2089
g72
(dp2090
g80
I5
ssg81
g2084
sg74
(lp2091
g67
(g76
g69
NtRp2092
(dp2093
g72
(dp2094
g80
I4
ssg81
Nsg74
(lp2095
sbasbasbasbag67
(g83
g69
NtRp2096
(dp2097
g72
(dp2098
sg81
g77
sg74
(lp2099
g67
(g88
g69
NtRp2100
(dp2101
g72
(dp2102
g92
g93
ssg81
g2096
sg74
(lp2103
S'url'
p2104
asbag67
(g88
g69
NtRp2105
(dp2106
g72
(dp2107
g99
g100
ssg81
g2096
sg74
(lp2108
S':'
asbag67
(g88
g69
NtRp2109
(dp2110
g72
(dp2111
sg81
g2096
sg74
(lp2112
g67
(g68
g69
NtRp2113
(dp2114
g72
(dp2115
g80
I5
ssg81
g2109
sg74
(lp2116
S'/places/default/index'
p2117
asbasbasbag67
(g83
g69
NtRp2118
(dp2119
g72
(dp2120
sg81
g77
sg74
(lp2121
g67
(g88
g69
NtRp2122
(dp2123
g72
(dp2124
g92
g93
ssg81
g2118
sg74
(lp2125
S'utcnow'
p2126
asbag67
(g88
g69
NtRp2127
(dp2128
g72
(dp2129
g99
g100
ssg81
g2118
sg74
(lp2130
S':'
asbag67
(g88
g69
NtRp2131
(dp2132
g72
(dp2133
sg81
g2118
sg74
(lp2134
g67
(g68
g69
NtRp2135
(dp2136
g72
(dp2137
g80
I5
ssg81
g2131
sg74
(lp2138
S'datetime.datetime(2011, 10, 2, 22, 19, 48, 209962)'
p2139
asbasbasbag67
(g83
g69
NtRp2140
(dp2141
g72
(dp2142
sg81
g77
sg74
(lp2143
g67
(g88
g69
NtRp2144
(dp2145
g72
(dp2146
g92
g93
ssg81
g2140
sg74
(lp2147
S'uuid'
p2148
asbag67
(g88
g69
NtRp2149
(dp2150
g72
(dp2151
g99
g100
ssg81
g2140
sg74
(lp2152
S':'
asbag67
(g88
g69
NtRp2153
(dp2154
g72
(dp2155
sg81
g2140
sg74
(lp2156
g67
(g68
g69
NtRp2157
(dp2158
g72
(dp2159
g80
I5
ssg81
g2153
sg74
(lp2160
S'places/127.0.0.1.2011-10-02.18-19-48.3f31cc9c-b2db-4458-8d59-e244a094278b'
p2161
asbasbasbag67
(g83
g69
NtRp2162
(dp2163
g72
(dp2164
sg81
g77
sg74
(lp2165
g67
(g88
g69
NtRp2166
(dp2167
g72
(dp2168
g92
g93
ssg81
g2162
sg74
(lp2169
S'vars'
p2170
asbag67
(g88
g69
NtRp2171
(dp2172
g72
(dp2173
g99
g100
ssg81
g2162
sg74
(lp2174
S':'
asbag67
(g88
g69
NtRp2175
(dp2176
g72
(dp2177
sg81
g2162
sg74
(lp2178
g67
(g68
g69
NtRp2179
(dp2180
g72
(dp2181
g80
I5
ssg81
g2175
sg74
(lp2182
g67
(g76
g69
NtRp2183
(dp2184
g72
(dp2185
g80
I4
ssg81
Nsg74
(lp2186
sbasbasbasbag67
(g83
g69
NtRp2187
(dp2188
g72
(dp2189
sg81
g77
sg74
(lp2190
g67
(g88
g69
NtRp2191
(dp2192
g72
(dp2193
g92
g93
ssg81
g2187
sg74
(lp2194
S'wsgi'
p2195
asbag67
(g88
g69
NtRp2196
(dp2197
g72
(dp2198
g99
g100
ssg81
g2187
sg74
(lp2199
S':'
asbag67
(g88
g69
NtRp2200
(dp2201
g72
(dp2202
sg81
g2187
sg74
(lp2203
g67
(g68
g69
NtRp2204
(dp2205
g72
(dp2206
g80
I5
ssg81
g2200
sg74
(lp2207
g67
(g76
g69
NtRp2208
(dp2209
g72
(dp2210
g80
I4
ssg81
Nsg74
(lp2211
g67
(g83
g69
NtRp2212
(dp2213
g72
(dp2214
sg81
g2208
sg74
(lp2215
g67
(g88
g69
NtRp2216
(dp2217
g72
(dp2218
g92
g93
ssg81
g2212
sg74
(lp2219
S'environ'
p2220
asbag67
(g88
g69
NtRp2221
(dp2222
g72
(dp2223
g99
g100
ssg81
g2212
sg74
(lp2224
S':'
asbag67
(g88
g69
NtRp2225
(dp2226
g72
(dp2227
sg81
g2212
sg74
(lp2228
g67
(g68
g69
NtRp2229
(dp2230
g72
(dp2231
g80
I4
ssg81
g2225
sg74
(lp2232
g67
(g76
g69
NtRp2233
(dp2234
g72
(dp2235
g80
I3
ssg81
Nsg74
(lp2236
g67
(g83
g69
NtRp2237
(dp2238
g72
(dp2239
sg81
g2233
sg74
(lp2240
g67
(g88
g69
NtRp2241
(dp2242
g72
(dp2243
g92
g93
ssg81
g2237
sg74
(lp2244
S'HTTP_ACCEPT'
p2245
asbag67
(g88
g69
NtRp2246
(dp2247
g72
(dp2248
g99
g100
ssg81
g2237
sg74
(lp2249
S':'
asbag67
(g88
g69
NtRp2250
(dp2251
g72
(dp2252
sg81
g2237
sg74
(lp2253
g67
(g68
g69
NtRp2254
(dp2255
g72
(dp2256
g80
I3
ssg81
g2250
sg74
(lp2257
g828
asbasbasbag67
(g83
g69
NtRp2258
(dp2259
g72
(dp2260
sg81
g2233
sg74
(lp2261
g67
(g88
g69
NtRp2262
(dp2263
g72
(dp2264
g92
g93
ssg81
g2258
sg74
(lp2265
S'HTTP_ACCEPT_CHARSET'
p2266
asbag67
(g88
g69
NtRp2267
(dp2268
g72
(dp2269
g99
g100
ssg81
g2258
sg74
(lp2270
S':'
asbag67
(g88
g69
NtRp2271
(dp2272
g72
(dp2273
sg81
g2258
sg74
(lp2274
g67
(g68
g69
NtRp2275
(dp2276
g72
(dp2277
g80
I3
ssg81
g2271
sg74
(lp2278
g850
asbasbasbag67
(g83
g69
NtRp2279
(dp2280
g72
(dp2281
sg81
g2233
sg74
(lp2282
g67
(g88
g69
NtRp2283
(dp2284
g72
(dp2285
g92
g93
ssg81
g2279
sg74
(lp2286
S'HTTP_ACCEPT_ENCODING'
p2287
asbag67
(g88
g69
NtRp2288
(dp2289
g72
(dp2290
g99
g100
ssg81
g2279
sg74
(lp2291
S':'
asbag67
(g88
g69
NtRp2292
(dp2293
g72
(dp2294
sg81
g2279
sg74
(lp2295
g67
(g68
g69
NtRp2296
(dp2297
g72
(dp2298
g80
I3
ssg81
g2292
sg74
(lp2299
g872
asbasbasbag67
(g83
g69
NtRp2300
(dp2301
g72
(dp2302
sg81
g2233
sg74
(lp2303
g67
(g88
g69
NtRp2304
(dp2305
g72
(dp2306
g92
g93
ssg81
g2300
sg74
(lp2307
S'HTTP_ACCEPT_LANGUAGE'
p2308
asbag67
(g88
g69
NtRp2309
(dp2310
g72
(dp2311
g99
g100
ssg81
g2300
sg74
(lp2312
S':'
asbag67
(g88
g69
NtRp2313
(dp2314
g72
(dp2315
sg81
g2300
sg74
(lp2316
g67
(g68
g69
NtRp2317
(dp2318
g72
(dp2319
g80
I3
ssg81
g2313
sg74
(lp2320
g894
asbasbasbag67
(g83
g69
NtRp2321
(dp2322
g72
(dp2323
sg81
g2233
sg74
(lp2324
g67
(g88
g69
NtRp2325
(dp2326
g72
(dp2327
g92
g93
ssg81
g2321
sg74
(lp2328
S'HTTP_CACHE_CONTROL'
p2329
asbag67
(g88
g69
NtRp2330
(dp2331
g72
(dp2332
g99
g100
ssg81
g2321
sg74
(lp2333
S':'
asbag67
(g88
g69
NtRp2334
(dp2335
g72
(dp2336
sg81
g2321
sg74
(lp2337
g67
(g68
g69
NtRp2338
(dp2339
g72
(dp2340
g80
I3
ssg81
g2334
sg74
(lp2341
g916
asbasbasbag67
(g83
g69
NtRp2342
(dp2343
g72
(dp2344
sg81
g2233
sg74
(lp2345
g67
(g88
g69
NtRp2346
(dp2347
g72
(dp2348
g92
g93
ssg81
g2342
sg74
(lp2349
S'HTTP_CONNECTION'
p2350
asbag67
(g88
g69
NtRp2351
(dp2352
g72
(dp2353
g99
g100
ssg81
g2342
sg74
(lp2354
S':'
asbag67
(g88
g69
NtRp2355
(dp2356
g72
(dp2357
sg81
g2342
sg74
(lp2358
g67
(g68
g69
NtRp2359
(dp2360
g72
(dp2361
g80
I3
ssg81
g2355
sg74
(lp2362
g938
asbasbasbag67
(g83
g69
NtRp2363
(dp2364
g72
(dp2365
sg81
g2233
sg74
(lp2366
g67
(g88
g69
NtRp2367
(dp2368
g72
(dp2369
g92
g93
ssg81
g2363
sg74
(lp2370
S'HTTP_COOKIE'
p2371
asbag67
(g88
g69
NtRp2372
(dp2373
g72
(dp2374
g99
g100
ssg81
g2363
sg74
(lp2375
S':'
asbag67
(g88
g69
NtRp2376
(dp2377
g72
(dp2378
sg81
g2363
sg74
(lp2379
g67
(g68
g69
NtRp2380
(dp2381
g72
(dp2382
g80
I3
ssg81
g2376
sg74
(lp2383
g960
asbasbasbag67
(g83
g69
NtRp2384
(dp2385
g72
(dp2386
sg81
g2233
sg74
(lp2387
g67
(g88
g69
NtRp2388
(dp2389
g72
(dp2390
g92
g93
ssg81
g2384
sg74
(lp2391
S'HTTP_HOST'
p2392
asbag67
(g88
g69
NtRp2393
(dp2394
g72
(dp2395
g99
g100
ssg81
g2384
sg74
(lp2396
S':'
asbag67
(g88
g69
NtRp2397
(dp2398
g72
(dp2399
sg81
g2384
sg74
(lp2400
g67
(g68
g69
NtRp2401
(dp2402
g72
(dp2403
g80
I3
ssg81
g2397
sg74
(lp2404
g982
asbasbasbag67
(g83
g69
NtRp2405
(dp2406
g72
(dp2407
sg81
g2233
sg74
(lp2408
g67
(g88
g69
NtRp2409
(dp2410
g72
(dp2411
g92
g93
ssg81
g2405
sg74
(lp2412
S'HTTP_REFERER'
p2413
asbag67
(g88
g69
NtRp2414
(dp2415
g72
(dp2416
g99
g100
ssg81
g2405
sg74
(lp2417
S':'
asbag67
(g88
g69
NtRp2418
(dp2419
g72
(dp2420
sg81
g2405
sg74
(lp2421
g67
(g68
g69
NtRp2422
(dp2423
g72
(dp2424
g80
I3
ssg81
g2418
sg74
(lp2425
g1004
asbasbasbag67
(g83
g69
NtRp2426
(dp2427
g72
(dp2428
sg81
g2233
sg74
(lp2429
g67
(g88
g69
NtRp2430
(dp2431
g72
(dp2432
g92
g93
ssg81
g2426
sg74
(lp2433
S'HTTP_USER_AGENT'
p2434
asbag67
(g88
g69
NtRp2435
(dp2436
g72
(dp2437
g99
g100
ssg81
g2426
sg74
(lp2438
S':'
asbag67
(g88
g69
NtRp2439
(dp2440
g72
(dp2441
sg81
g2426
sg74
(lp2442
g67
(g68
g69
NtRp2443
(dp2444
g72
(dp2445
g80
I3
ssg81
g2439
sg74
(lp2446
g1026
asbasbasbag67
(g83
g69
NtRp2447
(dp2448
g72
(dp2449
sg81
g2233
sg74
(lp2450
g67
(g88
g69
NtRp2451
(dp2452
g72
(dp2453
g92
g93
ssg81
g2447
sg74
(lp2454
S'PATH_INFO'
p2455
asbag67
(g88
g69
NtRp2456
(dp2457
g72
(dp2458
g99
g100
ssg81
g2447
sg74
(lp2459
S':'
asbag67
(g88
g69
NtRp2460
(dp2461
g72
(dp2462
sg81
g2447
sg74
(lp2463
g67
(g68
g69
NtRp2464
(dp2465
g72
(dp2466
g80
I3
ssg81
g2460
sg74
(lp2467
g1069
asbasbasbag67
(g83
g69
NtRp2468
(dp2469
g72
(dp2470
sg81
g2233
sg74
(lp2471
g67
(g88
g69
NtRp2472
(dp2473
g72
(dp2474
g92
g93
ssg81
g2468
sg74
(lp2475
S'QUERY_STRING'
p2476
asbag67
(g88
g69
NtRp2477
(dp2478
g72
(dp2479
g99
g100
ssg81
g2468
sg74
(lp2480
S':'
asbag67
(g88
g69
NtRp2481
(dp2482
g72
(dp2483
sg81
g2468
sg74
(lp2484
g67
(g68
g69
NtRp2485
(dp2486
g72
(dp2487
g80
I3
ssg81
g2481
sg74
(lp2488
S''
asbasbasbag67
(g83
g69
NtRp2489
(dp2490
g72
(dp2491
sg81
g2233
sg74
(lp2492
g67
(g88
g69
NtRp2493
(dp2494
g72
(dp2495
g92
g93
ssg81
g2489
sg74
(lp2496
S'REMOTE_ADDR'
p2497
asbag67
(g88
g69
NtRp2498
(dp2499
g72
(dp2500
g99
g100
ssg81
g2489
sg74
(lp2501
S':'
asbag67
(g88
g69
NtRp2502
(dp2503
g72
(dp2504
sg81
g2489
sg74
(lp2505
g67
(g68
g69
NtRp2506
(dp2507
g72
(dp2508
g80
I3
ssg81
g2502
sg74
(lp2509
g200
asbasbasbag67
(g83
g69
NtRp2510
(dp2511
g72
(dp2512
sg81
g2233
sg74
(lp2513
g67
(g88
g69
NtRp2514
(dp2515
g72
(dp2516
g92
g93
ssg81
g2510
sg74
(lp2517
S'REMOTE_PORT'
p2518
asbag67
(g88
g69
NtRp2519
(dp2520
g72
(dp2521
g99
g100
ssg81
g2510
sg74
(lp2522
S':'
asbag67
(g88
g69
NtRp2523
(dp2524
g72
(dp2525
sg81
g2510
sg74
(lp2526
g67
(g68
g69
NtRp2527
(dp2528
g72
(dp2529
g80
I3
ssg81
g2523
sg74
(lp2530
g1133
asbasbasbag67
(g83
g69
NtRp2531
(dp2532
g72
(dp2533
sg81
g2233
sg74
(lp2534
g67
(g88
g69
NtRp2535
(dp2536
g72
(dp2537
g92
g93
ssg81
g2531
sg74
(lp2538
S'REQUEST_METHOD'
p2539
asbag67
(g88
g69
NtRp2540
(dp2541
g72
(dp2542
g99
g100
ssg81
g2531
sg74
(lp2543
S':'
asbag67
(g88
g69
NtRp2544
(dp2545
g72
(dp2546
sg81
g2531
sg74
(lp2547
g67
(g68
g69
NtRp2548
(dp2549
g72
(dp2550
g80
I3
ssg81
g2544
sg74
(lp2551
g1155
asbasbasbag67
(g83
g69
NtRp2552
(dp2553
g72
(dp2554
sg81
g2233
sg74
(lp2555
g67
(g88
g69
NtRp2556
(dp2557
g72
(dp2558
g92
g93
ssg81
g2552
sg74
(lp2559
S'SCRIPT_NAME'
p2560
asbag67
(g88
g69
NtRp2561
(dp2562
g72
(dp2563
g99
g100
ssg81
g2552
sg74
(lp2564
S':'
asbag67
(g88
g69
NtRp2565
(dp2566
g72
(dp2567
sg81
g2552
sg74
(lp2568
g67
(g68
g69
NtRp2569
(dp2570
g72
(dp2571
g80
I3
ssg81
g2565
sg74
(lp2572
S''
asbasbasbag67
(g83
g69
NtRp2573
(dp2574
g72
(dp2575
sg81
g2233
sg74
(lp2576
g67
(g88
g69
NtRp2577
(dp2578
g72
(dp2579
g92
g93
ssg81
g2573
sg74
(lp2580
S'SERVER_NAME'
p2581
asbag67
(g88
g69
NtRp2582
(dp2583
g72
(dp2584
g99
g100
ssg81
g2573
sg74
(lp2585
S':'
asbag67
(g88
g69
NtRp2586
(dp2587
g72
(dp2588
sg81
g2573
sg74
(lp2589
g67
(g68
g69
NtRp2590
(dp2591
g72
(dp2592
g80
I3
ssg81
g2586
sg74
(lp2593
g1198
asbasbasbag67
(g83
g69
NtRp2594
(dp2595
g72
(dp2596
sg81
g2233
sg74
(lp2597
g67
(g88
g69
NtRp2598
(dp2599
g72
(dp2600
g92
g93
ssg81
g2594
sg74
(lp2601
S'SERVER_PORT'
p2602
asbag67
(g88
g69
NtRp2603
(dp2604
g72
(dp2605
g99
g100
ssg81
g2594
sg74
(lp2606
S':'
asbag67
(g88
g69
NtRp2607
(dp2608
g72
(dp2609
sg81
g2594
sg74
(lp2610
g67
(g68
g69
NtRp2611
(dp2612
g72
(dp2613
g80
I3
ssg81
g2607
sg74
(lp2614
g1220
asbasbasbag67
(g83
g69
NtRp2615
(dp2616
g72
(dp2617
sg81
g2233
sg74
(lp2618
g67
(g88
g69
NtRp2619
(dp2620
g72
(dp2621
g92
g93
ssg81
g2615
sg74
(lp2622
S'SERVER_PROTOCOL'
p2623
asbag67
(g88
g69
NtRp2624
(dp2625
g72
(dp2626
g99
g100
ssg81
g2615
sg74
(lp2627
S':'
asbag67
(g88
g69
NtRp2628
(dp2629
g72
(dp2630
sg81
g2615
sg74
(lp2631
g67
(g68
g69
NtRp2632
(dp2633
g72
(dp2634
g80
I3
ssg81
g2628
sg74
(lp2635
g1242
asbasbasbag67
(g83
g69
NtRp2636
(dp2637
g72
(dp2638
sg81
g2233
sg74
(lp2639
g67
(g88
g69
NtRp2640
(dp2641
g72
(dp2642
g92
g93
ssg81
g2636
sg74
(lp2643
S'SERVER_SOFTWARE'
p2644
asbag67
(g88
g69
NtRp2645
(dp2646
g72
(dp2647
g99
g100
ssg81
g2636
sg74
(lp2648
S':'
asbag67
(g88
g69
NtRp2649
(dp2650
g72
(dp2651
sg81
g2636
sg74
(lp2652
g67
(g68
g69
NtRp2653
(dp2654
g72
(dp2655
g80
I3
ssg81
g2649
sg74
(lp2656
g1264
asbasbasbag67
(g83
g69
NtRp2657
(dp2658
g72
(dp2659
sg81
g2233
sg74
(lp2660
g67
(g88
g69
NtRp2661
(dp2662
g72
(dp2663
g92
g93
ssg81
g2657
sg74
(lp2664
S'wsgi.errors'
p2665
asbag67
(g88
g69
NtRp2666
(dp2667
g72
(dp2668
g99
g100
ssg81
g2657
sg74
(lp2669
S':'
asbag67
(g88
g69
NtRp2670
(dp2671
g72
(dp2672
sg81
g2657
sg74
(lp2673
g67
(g68
g69
NtRp2674
(dp2675
g72
(dp2676
g80
I3
ssg81
g2670
sg74
(lp2677
S"<open file '<stderr>', mode 'w' at 0x7fc667cbe270>"
p2678
asbasbasbag67
(g83
g69
NtRp2679
(dp2680
g72
(dp2681
sg81
g2233
sg74
(lp2682
g67
(g88
g69
NtRp2683
(dp2684
g72
(dp2685
g92
g93
ssg81
g2679
sg74
(lp2686
S'wsgi.file_wrapper'
p2687
asbag67
(g88
g69
NtRp2688
(dp2689
g72
(dp2690
g99
g100
ssg81
g2679
sg74
(lp2691
S':'
asbag67
(g88
g69
NtRp2692
(dp2693
g72
(dp2694
sg81
g2679
sg74
(lp2695
g67
(g68
g69
NtRp2696
(dp2697
g72
(dp2698
g80
I3
ssg81
g2692
sg74
(lp2699
S'<class wsgiref.util.FileWrapper at 0x2ad6738>'
p2700
asbasbasbag67
(g83
g69
NtRp2701
(dp2702
g72
(dp2703
sg81
g2233
sg74
(lp2704
g67
(g88
g69
NtRp2705
(dp2706
g72
(dp2707
g92
g93
ssg81
g2701
sg74
(lp2708
S'wsgi.input'
p2709
asbag67
(g88
g69
NtRp2710
(dp2711
g72
(dp2712
g99
g100
ssg81
g2701
sg74
(lp2713
S':'
asbag67
(g88
g69
NtRp2714
(dp2715
g72
(dp2716
sg81
g2701
sg74
(lp2717
g67
(g68
g69
NtRp2718
(dp2719
g72
(dp2720
g80
I3
ssg81
g2714
sg74
(lp2721
S'<cStringIO.StringO object at 0x301fdf8>'
p2722
asbasbasbag67
(g83
g69
NtRp2723
(dp2724
g72
(dp2725
sg81
g2233
sg74
(lp2726
g67
(g88
g69
NtRp2727
(dp2728
g72
(dp2729
g92
g93
ssg81
g2723
sg74
(lp2730
S'wsgi.multiprocess'
p2731
asbag67
(g88
g69
NtRp2732
(dp2733
g72
(dp2734
g99
g100
ssg81
g2723
sg74
(lp2735
S':'
asbag67
(g88
g69
NtRp2736
(dp2737
g72
(dp2738
sg81
g2723
sg74
(lp2739
g67
(g68
g69
NtRp2740
(dp2741
g72
(dp2742
g80
I3
ssg81
g2736
sg74
(lp2743
g110
asbasbasbag67
(g83
g69
NtRp2744
(dp2745
g72
(dp2746
sg81
g2233
sg74
(lp2747
g67
(g88
g69
NtRp2748
(dp2749
g72
(dp2750
g92
g93
ssg81
g2744
sg74
(lp2751
S'wsgi.multithread'
p2752
asbag67
(g88
g69
NtRp2753
(dp2754
g72
(dp2755
g99
g100
ssg81
g2744
sg74
(lp2756
S':'
asbag67
(g88
g69
NtRp2757
(dp2758
g72
(dp2759
sg81
g2744
sg74
(lp2760
g67
(g68
g69
NtRp2761
(dp2762
g72
(dp2763
g80
I3
ssg81
g2757
sg74
(lp2764
g1504
asbasbasbag67
(g83
g69
NtRp2765
(dp2766
g72
(dp2767
sg81
g2233
sg74
(lp2768
g67
(g88
g69
NtRp2769
(dp2770
g72
(dp2771
g92
g93
ssg81
g2765
sg74
(lp2772
S'wsgi.run_once'
p2773
asbag67
(g88
g69
NtRp2774
(dp2775
g72
(dp2776
g99
g100
ssg81
g2765
sg74
(lp2777
S':'
asbag67
(g88
g69
NtRp2778
(dp2779
g72
(dp2780
sg81
g2765
sg74
(lp2781
g67
(g68
g69
NtRp2782
(dp2783
g72
(dp2784
g80
I3
ssg81
g2778
sg74
(lp2785
g110
asbasbasbag67
(g83
g69
NtRp2786
(dp2787
g72
(dp2788
sg81
g2233
sg74
(lp2789
g67
(g88
g69
NtRp2790
(dp2791
g72
(dp2792
g92
g93
ssg81
g2786
sg74
(lp2793
S'wsgi.url_scheme'
p2794
asbag67
(g88
g69
NtRp2795
(dp2796
g72
(dp2797
g99
g100
ssg81
g2786
sg74
(lp2798
S':'
asbag67
(g88
g69
NtRp2799
(dp2800
g72
(dp2801
sg81
g2786
sg74
(lp2802
g67
(g68
g69
NtRp2803
(dp2804
g72
(dp2805
g80
I3
ssg81
g2799
sg74
(lp2806
g1547
asbasbasbag67
(g83
g69
NtRp2807
(dp2808
g72
(dp2809
sg81
g2233
sg74
(lp2810
g67
(g88
g69
NtRp2811
(dp2812
g72
(dp2813
g92
g93
ssg81
g2807
sg74
(lp2814
S'wsgi.version'
p2815
asbag67
(g88
g69
NtRp2816
(dp2817
g72
(dp2818
g99
g100
ssg81
g2807
sg74
(lp2819
S':'
asbag67
(g88
g69
NtRp2820
(dp2821
g72
(dp2822
sg81
g2807
sg74
(lp2823
g67
(g68
g69
NtRp2824
(dp2825
g72
(dp2826
g80
I3
ssg81
g2820
sg74
(lp2827
S'1'
asbasbasbasbasbasbasbasbasbasbasbasbasbsS'frames'
p2828
(lp2829
(dp2830
S'file'
p2831
S'/home/ian/web2py/gluon/restricted.py'
p2832
sS'dump'
p2833
(dp2834
S'code'
p2835
S'r"left_sidebar_enabled=right_sidebar_enabled=False...    -->    \\n  </body>\\n</html>\\n\', escape=False)"'
p2836
sS'layer'
p2837
S"'/home/ian/web2py/applications/places/views/default/index.html'"
p2838
sS'global compile2'
p2839
S'<function compile2>'
p2840
sS'ccode'
p2841
S'undefined'
p2842
ssS'lnum'
p2843
I193
sS'lines'
p2844
(dp2845
I192
S'        else:'
p2846
sI193
S'            ccode = compile2(code,layer)'
p2847
sI194
S'        exec ccode in environment'
p2848
sI195
S'    except HTTP:'
p2849
sI196
S'        raise'
p2850
sI197
S'    except Exception, error:'
p2851
sI188
S"    environment['__file__'] = layer"
p2852
sI189
S'    try:'
p2853
sI190
S'        if type(code) == types.CodeType:'
p2854
sI191
S'            ccode = code'
p2855
ssS'call'
p2856
S'(code=r"left_sidebar_enabled=right_sidebar_enabled=False...    -->    \\n  </body>\\n</html>\\n\', escape=False)", environment={\'A\': <class \'gluon.html.A\'>, \'Auth\': <class \'gluon.tools.Auth\'>, \'B\': <class \'gluon.html.B\'>, \'BEAUTIFY\': <class \'gluon.html.BEAUTIFY\'>, \'BODY\': <class \'gluon.html.BODY\'>, \'BR\': <class \'gluon.html.BR\'>, \'BUTTON\': <class \'gluon.html.BUTTON\'>, \'CAT\': <class \'gluon.html.CAT\'>, \'CENTER\': <class \'gluon.html.CENTER\'>, \'CLEANUP\': <class \'gluon.validators.CLEANUP\'>, ...}, layer=\'/home/ian/web2py/applications/places/views/default/index.html\')'
p2857
sS'func'
p2858
S'restricted'
p2859
sa(dp2860
g2831
S'/home/ian/web2py/gluon/restricted.py'
p2861
sg2833
(dp2862
S'builtincompile'
p2863
S'<built-in function compile>'
p2864
sS'code'
p2865
S'r"left_sidebar_enabled=right_sidebar_enabled=False...    -->    \\n  </body>\\n</html>\\n\', escape=False)"'
p2866
sS'code.rstrip'
p2867
S'<built-in method rstrip of str object>'
p2868
sS').replace'
p2869
g2842
sS'layer'
p2870
S"'/home/ian/web2py/applications/places/views/default/index.html'"
p2871
ssg2843
I179
sg2844
(dp2872
I174
S''
sI175
S'def compile2(code,layer):'
p2873
sI176
S'    """'
p2874
sI177
S"    The +'\\n' is necessary else compile fails when code ends in a comment."
p2875
sI178
S'    """'
p2876
sI179
S"    return compile(code.rstrip().replace('\\r\\n','\\n')+'\\n', layer, 'exec')"
p2877
sI180
S''
sI181
S"def restricted(code, environment=None, layer='Unknown'):"
p2878
sI182
S'    """'
p2879
sI183
S'    runs code in environment and returns the output. if an exception occurs'
p2880
ssg2856
S'(code=r"left_sidebar_enabled=right_sidebar_enabled=False...    -->    \\n  </body>\\n</html>\\n\', escape=False)", layer=\'/home/ian/web2py/applications/places/views/default/index.html\')'
p2881
sg2858
S'compile2'
p2882
sasS'pyver'
p2883
S'Python 2.7.1+: /usr/bin/python2.7'
p2884
sS'session'
p2885
g67
(g68
g69
NtRp2886
(dp2887
g72
(dp2888
sg74
(lp2889
g67
(g76
g69
NtRp2890
(dp2891
g72
(dp2892
g80
I5
ssg81
Nsg74
(lp2893
g67
(g83
g69
NtRp2894
(dp2895
g72
(dp2896
sg81
g2890
sg74
(lp2897
g67
(g88
g69
NtRp2898
(dp2899
g72
(dp2900
g92
g93
ssg81
g2894
sg74
(lp2901
S'current'
p2902
asbag67
(g88
g69
NtRp2903
(dp2904
g72
(dp2905
g99
g100
ssg81
g2894
sg74
(lp2906
S':'
asbag67
(g88
g69
NtRp2907
(dp2908
g72
(dp2909
sg81
g2894
sg74
(lp2910
g67
(g68
g69
NtRp2911
(dp2912
g72
(dp2913
g80
I5
ssg81
g2907
sg74
(lp2914
S'kitchen'
p2915
asbasbasbag67
(g83
g69
NtRp2916
(dp2917
g72
(dp2918
sg81
g2890
sg74
(lp2919
g67
(g88
g69
NtRp2920
(dp2921
g72
(dp2922
g92
g93
ssg81
g2916
sg74
(lp2923
S'current_view'
p2924
asbag67
(g88
g69
NtRp2925
(dp2926
g72
(dp2927
g99
g100
ssg81
g2916
sg74
(lp2928
S':'
asbag67
(g88
g69
NtRp2929
(dp2930
g72
(dp2931
sg81
g2916
sg74
(lp2932
g67
(g68
g69
NtRp2933
(dp2934
g72
(dp2935
g80
I5
ssg81
g2929
sg74
(lp2936
S'kitchen'
p2937
asbasbasbasbasbsS'etype'
p2938
S"<type 'exceptions.SyntaxError'>"
p2939
sS'date'
p2940
S'Sun Oct  2 18:19:48 2011'
p2941
sS'response'
p2942
g67
(g68
g69
NtRp2943
(dp2944
g72
(dp2945
sg74
(lp2946
g67
(g76
g69
NtRp2947
(dp2948
g72
(dp2949
g80
I5
ssg81
Nsg74
(lp2950
g67
(g83
g69
NtRp2951
(dp2952
g72
(dp2953
sg81
g2947
sg74
(lp2954
g67
(g88
g69
NtRp2955
(dp2956
g72
(dp2957
g92
g93
ssg81
g2951
sg74
(lp2958
g165
asbag67
(g88
g69
NtRp2959
(dp2960
g72
(dp2961
g99
g100
ssg81
g2951
sg74
(lp2962
S':'
asbag67
(g88
g69
NtRp2963
(dp2964
g72
(dp2965
sg81
g2951
sg74
(lp2966
g67
(g68
g69
NtRp2967
(dp2968
g72
(dp2969
g80
I5
ssg81
g2963
sg74
(lp2970
S'<cStringIO.StringO object at 0x3596a78>'
p2971
asbasbasbag67
(g83
g69
NtRp2972
(dp2973
g72
(dp2974
sg81
g2947
sg74
(lp2975
g67
(g88
g69
NtRp2976
(dp2977
g72
(dp2978
g92
g93
ssg81
g2972
sg74
(lp2979
g231
asbag67
(g88
g69
NtRp2980
(dp2981
g72
(dp2982
g99
g100
ssg81
g2972
sg74
(lp2983
S':'
asbag67
(g88
g69
NtRp2984
(dp2985
g72
(dp2986
sg81
g2972
sg74
(lp2987
g67
(g68
g69
NtRp2988
(dp2989
g72
(dp2990
g80
I5
ssg81
g2984
sg74
(lp2991
g67
(g76
g69
NtRp2992
(dp2993
g72
(dp2994
g80
I4
ssg81
Nsg74
(lp2995
g67
(g83
g69
NtRp2996
(dp2997
g72
(dp2998
sg81
g2992
sg74
(lp2999
g67
(g88
g69
NtRp3000
(dp3001
g72
(dp3002
g92
g93
ssg81
g2996
sg74
(lp3003
S'session_id_places'
p3004
asbag67
(g88
g69
NtRp3005
(dp3006
g72
(dp3007
g99
g100
ssg81
g2996
sg74
(lp3008
S':'
asbag67
(g88
g69
NtRp3009
(dp3010
g72
(dp3011
sg81
g2996
sg74
(lp3012
g67
(g68
g69
NtRp3013
(dp3014
g72
(dp3015
g80
I4
ssg81
g3009
sg74
(lp3016
g67
(g76
g69
NtRp3017
(dp3018
g72
(dp3019
g80
I3
ssg81
Nsg74
(lp3020
g67
(g83
g69
NtRp3021
(dp3022
g72
(dp3023
sg81
g3017
sg74
(lp3024
g67
(g88
g69
NtRp3025
(dp3026
g72
(dp3027
g92
g93
ssg81
g3021
sg74
(lp3028
g281
asbag67
(g88
g69
NtRp3029
(dp3030
g72
(dp3031
g99
g100
ssg81
g3021
sg74
(lp3032
S':'
asbag67
(g88
g69
NtRp3033
(dp3034
g72
(dp3035
sg81
g3021
sg74
(lp3036
g67
(g68
g69
NtRp3037
(dp3038
g72
(dp3039
g80
I3
ssg81
g3033
sg74
(lp3040
S''
asbasbasbag67
(g83
g69
NtRp3041
(dp3042
g72
(dp3043
sg81
g3017
sg74
(lp3044
g67
(g88
g69
NtRp3045
(dp3046
g72
(dp3047
g92
g93
ssg81
g3041
sg74
(lp3048
g302
asbag67
(g88
g69
NtRp3049
(dp3050
g72
(dp3051
g99
g100
ssg81
g3041
sg74
(lp3052
S':'
asbag67
(g88
g69
NtRp3053
(dp3054
g72
(dp3055
sg81
g3041
sg74
(lp3056
g67
(g68
g69
NtRp3057
(dp3058
g72
(dp3059
g80
I3
ssg81
g3053
sg74
(lp3060
S''
asbasbasbag67
(g83
g69
NtRp3061
(dp3062
g72
(dp3063
sg81
g3017
sg74
(lp3064
g67
(g88
g69
NtRp3065
(dp3066
g72
(dp3067
g92
g93
ssg81
g3061
sg74
(lp3068
g323
asbag67
(g88
g69
NtRp3069
(dp3070
g72
(dp3071
g99
g100
ssg81
g3061
sg74
(lp3072
S':'
asbag67
(g88
g69
NtRp3073
(dp3074
g72
(dp3075
sg81
g3061
sg74
(lp3076
g67
(g68
g69
NtRp3077
(dp3078
g72
(dp3079
g80
I3
ssg81
g3073
sg74
(lp3080
S''
asbasbasbag67
(g83
g69
NtRp3081
(dp3082
g72
(dp3083
sg81
g3017
sg74
(lp3084
g67
(g88
g69
NtRp3085
(dp3086
g72
(dp3087
g92
g93
ssg81
g3081
sg74
(lp3088
g344
asbag67
(g88
g69
NtRp3089
(dp3090
g72
(dp3091
g99
g100
ssg81
g3081
sg74
(lp3092
S':'
asbag67
(g88
g69
NtRp3093
(dp3094
g72
(dp3095
sg81
g3081
sg74
(lp3096
g67
(g68
g69
NtRp3097
(dp3098
g72
(dp3099
g80
I3
ssg81
g3093
sg74
(lp3100
S''
asbasbasbag67
(g83
g69
NtRp3101
(dp3102
g72
(dp3103
sg81
g3017
sg74
(lp3104
g67
(g88
g69
NtRp3105
(dp3106
g72
(dp3107
g92
g93
ssg81
g3101
sg74
(lp3108
g365
asbag67
(g88
g69
NtRp3109
(dp3110
g72
(dp3111
g99
g100
ssg81
g3101
sg74
(lp3112
S':'
asbag67
(g88
g69
NtRp3113
(dp3114
g72
(dp3115
sg81
g3101
sg74
(lp3116
g67
(g68
g69
NtRp3117
(dp3118
g72
(dp3119
g80
I3
ssg81
g3113
sg74
(lp3120
S''
asbasbasbag67
(g83
g69
NtRp3121
(dp3122
g72
(dp3123
sg81
g3017
sg74
(lp3124
g67
(g88
g69
NtRp3125
(dp3126
g72
(dp3127
g92
g93
ssg81
g3121
sg74
(lp3128
g386
asbag67
(g88
g69
NtRp3129
(dp3130
g72
(dp3131
g99
g100
ssg81
g3121
sg74
(lp3132
S':'
asbag67
(g88
g69
NtRp3133
(dp3134
g72
(dp3135
sg81
g3121
sg74
(lp3136
g67
(g68
g69
NtRp3137
(dp3138
g72
(dp3139
g80
I3
ssg81
g3133
sg74
(lp3140
S'/'
asbasbasbag67
(g83
g69
NtRp3141
(dp3142
g72
(dp3143
sg81
g3017
sg74
(lp3144
g67
(g88
g69
NtRp3145
(dp3146
g72
(dp3147
g92
g93
ssg81
g3141
sg74
(lp3148
g407
asbag67
(g88
g69
NtRp3149
(dp3150
g72
(dp3151
g99
g100
ssg81
g3141
sg74
(lp3152
S':'
asbag67
(g88
g69
NtRp3153
(dp3154
g72
(dp3155
sg81
g3141
sg74
(lp3156
g67
(g68
g69
NtRp3157
(dp3158
g72
(dp3159
g80
I3
ssg81
g3153
sg74
(lp3160
S''
asbasbasbag67
(g83
g69
NtRp3161
(dp3162
g72
(dp3163
sg81
g3017
sg74
(lp3164
g67
(g88
g69
NtRp3165
(dp3166
g72
(dp3167
g92
g93
ssg81
g3161
sg74
(lp3168
g428
asbag67
(g88
g69
NtRp3169
(dp3170
g72
(dp3171
g99
g100
ssg81
g3161
sg74
(lp3172
S':'
asbag67
(g88
g69
NtRp3173
(dp3174
g72
(dp3175
sg81
g3161
sg74
(lp3176
g67
(g68
g69
NtRp3177
(dp3178
g72
(dp3179
g80
I3
ssg81
g3173
sg74
(lp3180
S''
asbasbasbasbasbasbasbasbasbasbasbag67
(g83
g69
NtRp3181
(dp3182
g72
(dp3183
sg81
g2947
sg74
(lp3184
g67
(g88
g69
NtRp3185
(dp3186
g72
(dp3187
g92
g93
ssg81
g3181
sg74
(lp3188
S'files'
p3189
asbag67
(g88
g69
NtRp3190
(dp3191
g72
(dp3192
g99
g100
ssg81
g3181
sg74
(lp3193
S':'
asbag67
(g88
g69
NtRp3194
(dp3195
g72
(dp3196
sg81
g3181
sg74
(lp3197
g67
(g68
g69
NtRp3198
(dp3199
g72
(dp3200
g80
I5
ssg81
g3194
sg74
(lp3201
g67
(g76
g69
NtRp3202
(dp3203
g72
(dp3204
g80
I4
ssg81
Nsg74
(lp3205
sbasbasbasbag67
(g83
g69
NtRp3206
(dp3207
g72
(dp3208
sg81
g2947
sg74
(lp3209
g67
(g88
g69
NtRp3210
(dp3211
g72
(dp3212
g92
g93
ssg81
g3206
sg74
(lp3213
S'flash'
p3214
asbag67
(g88
g69
NtRp3215
(dp3216
g72
(dp3217
g99
g100
ssg81
g3206
sg74
(lp3218
S':'
asbag67
(g88
g69
NtRp3219
(dp3220
g72
(dp3221
sg81
g3206
sg74
(lp3222
g67
(g68
g69
NtRp3223
(dp3224
g72
(dp3225
g80
I5
ssg81
g3219
sg74
(lp3226
S''
asbasbasbag67
(g83
g69
NtRp3227
(dp3228
g72
(dp3229
sg81
g2947
sg74
(lp3230
g67
(g88
g69
NtRp3231
(dp3232
g72
(dp3233
g92
g93
ssg81
g3227
sg74
(lp3234
S'generic_patterns'
p3235
asbag67
(g88
g69
NtRp3236
(dp3237
g72
(dp3238
g99
g100
ssg81
g3227
sg74
(lp3239
S':'
asbag67
(g88
g69
NtRp3240
(dp3241
g72
(dp3242
sg81
g3227
sg74
(lp3243
g67
(g68
g69
NtRp3244
(dp3245
g72
(dp3246
g80
I5
ssg81
g3240
sg74
(lp3247
g67
(g76
g69
NtRp3248
(dp3249
g72
(dp3250
g80
I4
ssg81
Nsg74
(lp3251
g67
(g83
g69
NtRp3252
(dp3253
g72
(dp3254
sg81
g3248
sg74
(lp3255
g67
(g88
g69
NtRp3256
(dp3257
g72
(dp3258
sg81
g3252
sg74
(lp3259
g67
(g68
g69
NtRp3260
(dp3261
g72
(dp3262
g80
I4
ssg81
g3256
sg74
(lp3263
S'*'
asbasbasbasbasbasbasbag67
(g83
g69
NtRp3264
(dp3265
g72
(dp3266
sg81
g2947
sg74
(lp3267
g67
(g88
g69
NtRp3268
(dp3269
g72
(dp3270
g92
g93
ssg81
g3264
sg74
(lp3271
S'headers'
p3272
asbag67
(g88
g69
NtRp3273
(dp3274
g72
(dp3275
g99
g100
ssg81
g3264
sg74
(lp3276
S':'
asbag67
(g88
g69
NtRp3277
(dp3278
g72
(dp3279
sg81
g3264
sg74
(lp3280
g67
(g68
g69
NtRp3281
(dp3282
g72
(dp3283
g80
I5
ssg81
g3277
sg74
(lp3284
g67
(g76
g69
NtRp3285
(dp3286
g72
(dp3287
g80
I4
ssg81
Nsg74
(lp3288
g67
(g83
g69
NtRp3289
(dp3290
g72
(dp3291
sg81
g3285
sg74
(lp3292
g67
(g88
g69
NtRp3293
(dp3294
g72
(dp3295
g92
g93
ssg81
g3289
sg74
(lp3296
S'Cache-Control'
p3297
asbag67
(g88
g69
NtRp3298
(dp3299
g72
(dp3300
g99
g100
ssg81
g3289
sg74
(lp3301
S':'
asbag67
(g88
g69
NtRp3302
(dp3303
g72
(dp3304
sg81
g3289
sg74
(lp3305
g67
(g68
g69
NtRp3306
(dp3307
g72
(dp3308
g80
I4
ssg81
g3302
sg74
(lp3309
S'no-store, no-cache, must-revalidate, post-check=0, pre-check=0'
p3310
asbasbasbag67
(g83
g69
NtRp3311
(dp3312
g72
(dp3313
sg81
g3285
sg74
(lp3314
g67
(g88
g69
NtRp3315
(dp3316
g72
(dp3317
g92
g93
ssg81
g3311
sg74
(lp3318
S'Content-Type'
p3319
asbag67
(g88
g69
NtRp3320
(dp3321
g72
(dp3322
g99
g100
ssg81
g3311
sg74
(lp3323
S':'
asbag67
(g88
g69
NtRp3324
(dp3325
g72
(dp3326
sg81
g3311
sg74
(lp3327
g67
(g68
g69
NtRp3328
(dp3329
g72
(dp3330
g80
I4
ssg81
g3324
sg74
(lp3331
S'text/html; charset=utf-8'
p3332
asbasbasbag67
(g83
g69
NtRp3333
(dp3334
g72
(dp3335
sg81
g3285
sg74
(lp3336
g67
(g88
g69
NtRp3337
(dp3338
g72
(dp3339
g92
g93
ssg81
g3333
sg74
(lp3340
S'Expires'
p3341
asbag67
(g88
g69
NtRp3342
(dp3343
g72
(dp3344
g99
g100
ssg81
g3333
sg74
(lp3345
S':'
asbag67
(g88
g69
NtRp3346
(dp3347
g72
(dp3348
sg81
g3333
sg74
(lp3349
g67
(g68
g69
NtRp3350
(dp3351
g72
(dp3352
g80
I4
ssg81
g3346
sg74
(lp3353
S'Sun, 02 Oct 2011 22:19:48 GMT'
p3354
asbasbasbag67
(g83
g69
NtRp3355
(dp3356
g72
(dp3357
sg81
g3285
sg74
(lp3358
g67
(g88
g69
NtRp3359
(dp3360
g72
(dp3361
g92
g93
ssg81
g3355
sg74
(lp3362
S'Pragma'
p3363
asbag67
(g88
g69
NtRp3364
(dp3365
g72
(dp3366
g99
g100
ssg81
g3355
sg74
(lp3367
S':'
asbag67
(g88
g69
NtRp3368
(dp3369
g72
(dp3370
sg81
g3355
sg74
(lp3371
g67
(g68
g69
NtRp3372
(dp3373
g72
(dp3374
g80
I4
ssg81
g3368
sg74
(lp3375
S'no-cache'
p3376
asbasbasbag67
(g83
g69
NtRp3377
(dp3378
g72
(dp3379
sg81
g3285
sg74
(lp3380
g67
(g88
g69
NtRp3381
(dp3382
g72
(dp3383
g92
g93
ssg81
g3377
sg74
(lp3384
S'X-Powered-By'
p3385
asbag67
(g88
g69
NtRp3386
(dp3387
g72
(dp3388
g99
g100
ssg81
g3377
sg74
(lp3389
S':'
asbag67
(g88
g69
NtRp3390
(dp3391
g72
(dp3392
sg81
g3377
sg74
(lp3393
g67
(g68
g69
NtRp3394
(dp3395
g72
(dp3396
g80
I4
ssg81
g3390
sg74
(lp3397
S'web2py'
p3398
asbasbasbasbasbasbasbag67
(g83
g69
NtRp3399
(dp3400
g72
(dp3401
sg81
g2947
sg74
(lp3402
g67
(g88
g69
NtRp3403
(dp3404
g72
(dp3405
g92
g93
ssg81
g3399
sg74
(lp3406
S'menu'
p3407
asbag67
(g88
g69
NtRp3408
(dp3409
g72
(dp3410
g99
g100
ssg81
g3399
sg74
(lp3411
S':'
asbag67
(g88
g69
NtRp3412
(dp3413
g72
(dp3414
sg81
g3399
sg74
(lp3415
g67
(g68
g69
NtRp3416
(dp3417
g72
(dp3418
g80
I5
ssg81
g3412
sg74
(lp3419
g67
(g76
g69
NtRp3420
(dp3421
g72
(dp3422
g80
I4
ssg81
Nsg74
(lp3423
g67
(g83
g69
NtRp3424
(dp3425
g72
(dp3426
sg81
g3420
sg74
(lp3427
g67
(g88
g69
NtRp3428
(dp3429
g72
(dp3430
sg81
g3424
sg74
(lp3431
g67
(g68
g69
NtRp3432
(dp3433
g72
(dp3434
g80
I4
ssg81
g3428
sg74
(lp3435
g67
(g76
g69
NtRp3436
(dp3437
g72
(dp3438
g80
I3
ssg81
Nsg74
(lp3439
g67
(g83
g69
NtRp3440
(dp3441
g72
(dp3442
sg81
g3436
sg74
(lp3443
g67
(g88
g69
NtRp3444
(dp3445
g72
(dp3446
sg81
g3440
sg74
(lp3447
g67
(g68
g69
NtRp3448
(dp3449
g72
(dp3450
g80
I3
ssg81
g3444
sg74
(lp3451
cgluon.languages
lazyT_unpickle
p3452
(S't\x04\x00\x00\x00Home'
tRp3453
asbasbasbag67
(g83
g69
NtRp3454
(dp3455
g72
(dp3456
sg81
g3436
sg74
(lp3457
g67
(g88
g69
NtRp3458
(dp3459
g72
(dp3460
sg81
g3454
sg74
(lp3461
g67
(g68
g69
NtRp3462
(dp3463
g72
(dp3464
g80
I3
ssg81
g3458
sg74
(lp3465
g110
asbasbasbag67
(g83
g69
NtRp3466
(dp3467
g72
(dp3468
sg81
g3436
sg74
(lp3469
g67
(g88
g69
NtRp3470
(dp3471
g72
(dp3472
sg81
g3466
sg74
(lp3473
g67
(g68
g69
NtRp3474
(dp3475
g72
(dp3476
g80
I3
ssg81
g3470
sg74
(lp3477
S'/places/default/index'
p3478
asbasbasbag67
(g83
g69
NtRp3479
(dp3480
g72
(dp3481
sg81
g3436
sg74
(lp3482
g67
(g88
g69
NtRp3483
(dp3484
g72
(dp3485
sg81
g3479
sg74
(lp3486
g67
(g68
g69
NtRp3487
(dp3488
g72
(dp3489
g80
I3
ssg81
g3483
sg74
(lp3490
g67
(g76
g69
NtRp3491
(dp3492
g72
(dp3493
g80
I2
ssg81
Nsg74
(lp3494
sbasbasbasbasbasbasbasbag67
(g83
g69
NtRp3495
(dp3496
g72
(dp3497
sg81
g3420
sg74
(lp3498
g67
(g88
g69
NtRp3499
(dp3500
g72
(dp3501
sg81
g3495
sg74
(lp3502
g67
(g68
g69
NtRp3503
(dp3504
g72
(dp3505
g80
I4
ssg81
g3499
sg74
(lp3506
g67
(g76
g69
NtRp3507
(dp3508
g72
(dp3509
g80
I3
ssg81
Nsg74
(lp3510
g67
(g83
g69
NtRp3511
(dp3512
g72
(dp3513
sg81
g3507
sg74
(lp3514
g67
(g88
g69
NtRp3515
(dp3516
g72
(dp3517
sg81
g3511
sg74
(lp3518
g67
(g68
g69
NtRp3519
(dp3520
g72
(dp3521
g80
I3
ssg81
g3515
sg74
(lp3522
g3452
(S's\x08\x00\x00\x00This App'
tRp3523
asbasbasbag67
(g83
g69
NtRp3524
(dp3525
g72
(dp3526
sg81
g3507
sg74
(lp3527
g67
(g88
g69
NtRp3528
(dp3529
g72
(dp3530
sg81
g3524
sg74
(lp3531
g67
(g68
g69
NtRp3532
(dp3533
g72
(dp3534
g80
I3
ssg81
g3528
sg74
(lp3535
g110
asbasbasbag67
(g83
g69
NtRp3536
(dp3537
g72
(dp3538
sg81
g3507
sg74
(lp3539
g67
(g88
g69
NtRp3540
(dp3541
g72
(dp3542
sg81
g3536
sg74
(lp3543
g67
(g68
g69
NtRp3544
(dp3545
g72
(dp3546
g80
I3
ssg81
g3540
sg74
(lp3547
S'/admin/default/design/places'
p3548
asbasbasbag67
(g83
g69
NtRp3549
(dp3550
g72
(dp3551
sg81
g3507
sg74
(lp3552
g67
(g88
g69
NtRp3553
(dp3554
g72
(dp3555
sg81
g3549
sg74
(lp3556
g67
(g68
g69
NtRp3557
(dp3558
g72
(dp3559
g80
I3
ssg81
g3553
sg74
(lp3560
g67
(g76
g69
NtRp3561
(dp3562
g72
(dp3563
g80
I2
ssg81
Nsg74
(lp3564
g67
(g83
g69
NtRp3565
(dp3566
g72
(dp3567
sg81
g3561
sg74
(lp3568
g67
(g88
g69
NtRp3569
(dp3570
g72
(dp3571
sg81
g3565
sg74
(lp3572
g67
(g68
g69
NtRp3573
(dp3574
g72
(dp3575
g80
I2
ssg81
g3569
sg74
(lp3576
g67
(g76
g69
NtRp3577
(dp3578
g72
(dp3579
g80
I1
ssg81
Nsg74
(lp3580
g67
(g83
g69
NtRp3581
(dp3582
g72
(dp3583
sg81
g3577
sg74
(lp3584
g67
(g88
g69
NtRp3585
(dp3586
g72
(dp3587
sg81
g3581
sg74
(lp3588
g67
(g68
g69
NtRp3589
(dp3590
g72
(dp3591
g80
I1
ssg81
g3585
sg74
(lp3592
g3452
(S't\n\x00\x00\x00Controller'
tRp3593
asbasbasbag67
(g83
g69
NtRp3594
(dp3595
g72
(dp3596
sg81
g3577
sg74
(lp3597
g67
(g88
g69
NtRp3598
(dp3599
g72
(dp3600
sg81
g3594
sg74
(lp3601
g67
(g68
g69
NtRp3602
(dp3603
g72
(dp3604
g80
I1
ssg81
g3598
sg74
(lp3605
I00
asbasbasbag67
(g83
g69
NtRp3606
(dp3607
g72
(dp3608
sg81
g3577
sg74
(lp3609
g67
(g88
g69
NtRp3610
(dp3611
g72
(dp3612
sg81
g3606
sg74
(lp3613
g67
(g68
g69
NtRp3614
(dp3615
g72
(dp3616
g80
I1
ssg81
g3610
sg74
(lp3617
S'/admin/default/edit/places/controllers/default.py'
p3618
asbasbasbasbasbasbasbag67
(g83
g69
NtRp3619
(dp3620
g72
(dp3621
sg81
g3561
sg74
(lp3622
g67
(g88
g69
NtRp3623
(dp3624
g72
(dp3625
sg81
g3619
sg74
(lp3626
g67
(g68
g69
NtRp3627
(dp3628
g72
(dp3629
g80
I2
ssg81
g3623
sg74
(lp3630
g67
(g76
g69
NtRp3631
(dp3632
g72
(dp3633
g80
I1
ssg81
Nsg74
(lp3634
g67
(g83
g69
NtRp3635
(dp3636
g72
(dp3637
sg81
g3631
sg74
(lp3638
g67
(g88
g69
NtRp3639
(dp3640
g72
(dp3641
sg81
g3635
sg74
(lp3642
g67
(g68
g69
NtRp3643
(dp3644
g72
(dp3645
g80
I1
ssg81
g3639
sg74
(lp3646
g3452
(S't\x04\x00\x00\x00View'
tRp3647
asbasbasbag67
(g83
g69
NtRp3648
(dp3649
g72
(dp3650
sg81
g3631
sg74
(lp3651
g67
(g88
g69
NtRp3652
(dp3653
g72
(dp3654
sg81
g3648
sg74
(lp3655
g67
(g68
g69
NtRp3656
(dp3657
g72
(dp3658
g80
I1
ssg81
g3652
sg74
(lp3659
I00
asbasbasbag67
(g83
g69
NtRp3660
(dp3661
g72
(dp3662
sg81
g3631
sg74
(lp3663
g67
(g88
g69
NtRp3664
(dp3665
g72
(dp3666
sg81
g3660
sg74
(lp3667
g67
(g68
g69
NtRp3668
(dp3669
g72
(dp3670
g80
I1
ssg81
g3664
sg74
(lp3671
S'/admin/default/edit/places/views/default/index.html'
p3672
asbasbasbasbasbasbasbag67
(g83
g69
NtRp3673
(dp3674
g72
(dp3675
sg81
g3561
sg74
(lp3676
g67
(g88
g69
NtRp3677
(dp3678
g72
(dp3679
sg81
g3673
sg74
(lp3680
g67
(g68
g69
NtRp3681
(dp3682
g72
(dp3683
g80
I2
ssg81
g3677
sg74
(lp3684
g67
(g76
g69
NtRp3685
(dp3686
g72
(dp3687
g80
I1
ssg81
Nsg74
(lp3688
g67
(g83
g69
NtRp3689
(dp3690
g72
(dp3691
sg81
g3685
sg74
(lp3692
g67
(g88
g69
NtRp3693
(dp3694
g72
(dp3695
sg81
g3689
sg74
(lp3696
g67
(g68
g69
NtRp3697
(dp3698
g72
(dp3699
g80
I1
ssg81
g3693
sg74
(lp3700
g3452
(S't\x06\x00\x00\x00Layout'
tRp3701
asbasbasbag67
(g83
g69
NtRp3702
(dp3703
g72
(dp3704
sg81
g3685
sg74
(lp3705
g67
(g88
g69
NtRp3706
(dp3707
g72
(dp3708
sg81
g3702
sg74
(lp3709
g67
(g68
g69
NtRp3710
(dp3711
g72
(dp3712
g80
I1
ssg81
g3706
sg74
(lp3713
I00
asbasbasbag67
(g83
g69
NtRp3714
(dp3715
g72
(dp3716
sg81
g3685
sg74
(lp3717
g67
(g88
g69
NtRp3718
(dp3719
g72
(dp3720
sg81
g3714
sg74
(lp3721
g67
(g68
g69
NtRp3722
(dp3723
g72
(dp3724
g80
I1
ssg81
g3718
sg74
(lp3725
S'/admin/default/edit/places/views/layout.html'
p3726
asbasbasbasbasbasbasbag67
(g83
g69
NtRp3727
(dp3728
g72
(dp3729
sg81
g3561
sg74
(lp3730
g67
(g88
g69
NtRp3731
(dp3732
g72
(dp3733
sg81
g3727
sg74
(lp3734
g67
(g68
g69
NtRp3735
(dp3736
g72
(dp3737
g80
I2
ssg81
g3731
sg74
(lp3738
g67
(g76
g69
NtRp3739
(dp3740
g72
(dp3741
g80
I1
ssg81
Nsg74
(lp3742
g67
(g83
g69
NtRp3743
(dp3744
g72
(dp3745
sg81
g3739
sg74
(lp3746
g67
(g88
g69
NtRp3747
(dp3748
g72
(dp3749
sg81
g3743
sg74
(lp3750
g67
(g68
g69
NtRp3751
(dp3752
g72
(dp3753
g80
I1
ssg81
g3747
sg74
(lp3754
g3452
(S't\n\x00\x00\x00Stylesheet'
tRp3755
asbasbasbag67
(g83
g69
NtRp3756
(dp3757
g72
(dp3758
sg81
g3739
sg74
(lp3759
g67
(g88
g69
NtRp3760
(dp3761
g72
(dp3762
sg81
g3756
sg74
(lp3763
g67
(g68
g69
NtRp3764
(dp3765
g72
(dp3766
g80
I1
ssg81
g3760
sg74
(lp3767
I00
asbasbasbag67
(g83
g69
NtRp3768
(dp3769
g72
(dp3770
sg81
g3739
sg74
(lp3771
g67
(g88
g69
NtRp3772
(dp3773
g72
(dp3774
sg81
g3768
sg74
(lp3775
g67
(g68
g69
NtRp3776
(dp3777
g72
(dp3778
g80
I1
ssg81
g3772
sg74
(lp3779
S'/admin/default/edit/places/static/base.css'
p3780
asbasbasbasbasbasbasbag67
(g83
g69
NtRp3781
(dp3782
g72
(dp3783
sg81
g3561
sg74
(lp3784
g67
(g88
g69
NtRp3785
(dp3786
g72
(dp3787
sg81
g3781
sg74
(lp3788
g67
(g68
g69
NtRp3789
(dp3790
g72
(dp3791
g80
I2
ssg81
g3785
sg74
(lp3792
g67
(g76
g69
NtRp3793
(dp3794
g72
(dp3795
g80
I1
ssg81
Nsg74
(lp3796
g67
(g83
g69
NtRp3797
(dp3798
g72
(dp3799
sg81
g3793
sg74
(lp3800
g67
(g88
g69
NtRp3801
(dp3802
g72
(dp3803
sg81
g3797
sg74
(lp3804
g67
(g68
g69
NtRp3805
(dp3806
g72
(dp3807
g80
I1
ssg81
g3801
sg74
(lp3808
g3452
(S's\x08\x00\x00\x00DB Model'
tRp3809
asbasbasbag67
(g83
g69
NtRp3810
(dp3811
g72
(dp3812
sg81
g3793
sg74
(lp3813
g67
(g88
g69
NtRp3814
(dp3815
g72
(dp3816
sg81
g3810
sg74
(lp3817
g67
(g68
g69
NtRp3818
(dp3819
g72
(dp3820
g80
I1
ssg81
g3814
sg74
(lp3821
I00
asbasbasbag67
(g83
g69
NtRp3822
(dp3823
g72
(dp3824
sg81
g3793
sg74
(lp3825
g67
(g88
g69
NtRp3826
(dp3827
g72
(dp3828
sg81
g3822
sg74
(lp3829
g67
(g68
g69
NtRp3830
(dp3831
g72
(dp3832
g80
I1
ssg81
g3826
sg74
(lp3833
S'/admin/default/edit/places/models/db.py'
p3834
asbasbasbasbasbasbasbag67
(g83
g69
NtRp3835
(dp3836
g72
(dp3837
sg81
g3561
sg74
(lp3838
g67
(g88
g69
NtRp3839
(dp3840
g72
(dp3841
sg81
g3835
sg74
(lp3842
g67
(g68
g69
NtRp3843
(dp3844
g72
(dp3845
g80
I2
ssg81
g3839
sg74
(lp3846
g67
(g76
g69
NtRp3847
(dp3848
g72
(dp3849
g80
I1
ssg81
Nsg74
(lp3850
g67
(g83
g69
NtRp3851
(dp3852
g72
(dp3853
sg81
g3847
sg74
(lp3854
g67
(g88
g69
NtRp3855
(dp3856
g72
(dp3857
sg81
g3851
sg74
(lp3858
g67
(g68
g69
NtRp3859
(dp3860
g72
(dp3861
g80
I1
ssg81
g3855
sg74
(lp3862
g3452
(S's\n\x00\x00\x00Menu Model'
tRp3863
asbasbasbag67
(g83
g69
NtRp3864
(dp3865
g72
(dp3866
sg81
g3847
sg74
(lp3867
g67
(g88
g69
NtRp3868
(dp3869
g72
(dp3870
sg81
g3864
sg74
(lp3871
g67
(g68
g69
NtRp3872
(dp3873
g72
(dp3874
g80
I1
ssg81
g3868
sg74
(lp3875
I00
asbasbasbag67
(g83
g69
NtRp3876
(dp3877
g72
(dp3878
sg81
g3847
sg74
(lp3879
g67
(g88
g69
NtRp3880
(dp3881
g72
(dp3882
sg81
g3876
sg74
(lp3883
g67
(g68
g69
NtRp3884
(dp3885
g72
(dp3886
g80
I1
ssg81
g3880
sg74
(lp3887
S'/admin/default/edit/places/models/menu.py'
p3888
asbasbasbasbasbasbasbag67
(g83
g69
NtRp3889
(dp3890
g72
(dp3891
sg81
g3561
sg74
(lp3892
g67
(g88
g69
NtRp3893
(dp3894
g72
(dp3895
sg81
g3889
sg74
(lp3896
g67
(g68
g69
NtRp3897
(dp3898
g72
(dp3899
g80
I2
ssg81
g3893
sg74
(lp3900
g67
(g76
g69
NtRp3901
(dp3902
g72
(dp3903
g80
I1
ssg81
Nsg74
(lp3904
g67
(g83
g69
NtRp3905
(dp3906
g72
(dp3907
sg81
g3901
sg74
(lp3908
g67
(g88
g69
NtRp3909
(dp3910
g72
(dp3911
sg81
g3905
sg74
(lp3912
g67
(g68
g69
NtRp3913
(dp3914
g72
(dp3915
g80
I1
ssg81
g3909
sg74
(lp3916
g3452
(S't\x08\x00\x00\x00Database'
tRp3917
asbasbasbag67
(g83
g69
NtRp3918
(dp3919
g72
(dp3920
sg81
g3901
sg74
(lp3921
g67
(g88
g69
NtRp3922
(dp3923
g72
(dp3924
sg81
g3918
sg74
(lp3925
g67
(g68
g69
NtRp3926
(dp3927
g72
(dp3928
g80
I1
ssg81
g3922
sg74
(lp3929
I00
asbasbasbag67
(g83
g69
NtRp3930
(dp3931
g72
(dp3932
sg81
g3901
sg74
(lp3933
g67
(g88
g69
NtRp3934
(dp3935
g72
(dp3936
sg81
g3930
sg74
(lp3937
g67
(g68
g69
NtRp3938
(dp3939
g72
(dp3940
g80
I1
ssg81
g3934
sg74
(lp3941
S'/places/appadmin/index'
p3942
asbasbasbasbasbasbasbag67
(g83
g69
NtRp3943
(dp3944
g72
(dp3945
sg81
g3561
sg74
(lp3946
g67
(g88
g69
NtRp3947
(dp3948
g72
(dp3949
sg81
g3943
sg74
(lp3950
g67
(g68
g69
NtRp3951
(dp3952
g72
(dp3953
g80
I2
ssg81
g3947
sg74
(lp3954
g67
(g76
g69
NtRp3955
(dp3956
g72
(dp3957
g80
I1
ssg81
Nsg74
(lp3958
g67
(g83
g69
NtRp3959
(dp3960
g72
(dp3961
sg81
g3955
sg74
(lp3962
g67
(g88
g69
NtRp3963
(dp3964
g72
(dp3965
sg81
g3959
sg74
(lp3966
g67
(g68
g69
NtRp3967
(dp3968
g72
(dp3969
g80
I1
ssg81
g3963
sg74
(lp3970
g3452
(S't\x06\x00\x00\x00Errors'
tRp3971
asbasbasbag67
(g83
g69
NtRp3972
(dp3973
g72
(dp3974
sg81
g3955
sg74
(lp3975
g67
(g88
g69
NtRp3976
(dp3977
g72
(dp3978
sg81
g3972
sg74
(lp3979
g67
(g68
g69
NtRp3980
(dp3981
g72
(dp3982
g80
I1
ssg81
g3976
sg74
(lp3983
I00
asbasbasbag67
(g83
g69
NtRp3984
(dp3985
g72
(dp3986
sg81
g3955
sg74
(lp3987
g67
(g88
g69
NtRp3988
(dp3989
g72
(dp3990
sg81
g3984
sg74
(lp3991
g67
(g68
g69
NtRp3992
(dp3993
g72
(dp3994
g80
I1
ssg81
g3988
sg74
(lp3995
S'/admin/default/errors/places'
p3996
asbasbasbasbasbasbasbag67
(g83
g69
NtRp3997
(dp3998
g72
(dp3999
sg81
g3561
sg74
(lp4000
g67
(g88
g69
NtRp4001
(dp4002
g72
(dp4003
sg81
g3997
sg74
(lp4004
g67
(g68
g69
NtRp4005
(dp4006
g72
(dp4007
g80
I2
ssg81
g4001
sg74
(lp4008
g67
(g76
g69
NtRp4009
(dp4010
g72
(dp4011
g80
I1
ssg81
Nsg74
(lp4012
g67
(g83
g69
NtRp4013
(dp4014
g72
(dp4015
sg81
g4009
sg74
(lp4016
g67
(g88
g69
NtRp4017
(dp4018
g72
(dp4019
sg81
g4013
sg74
(lp4020
g67
(g68
g69
NtRp4021
(dp4022
g72
(dp4023
g80
I1
ssg81
g4017
sg74
(lp4024
g3452
(S't\x05\x00\x00\x00About'
tRp4025
asbasbasbag67
(g83
g69
NtRp4026
(dp4027
g72
(dp4028
sg81
g4009
sg74
(lp4029
g67
(g88
g69
NtRp4030
(dp4031
g72
(dp4032
sg81
g4026
sg74
(lp4033
g67
(g68
g69
NtRp4034
(dp4035
g72
(dp4036
g80
I1
ssg81
g4030
sg74
(lp4037
I00
asbasbasbag67
(g83
g69
NtRp4038
(dp4039
g72
(dp4040
sg81
g4009
sg74
(lp4041
g67
(g88
g69
NtRp4042
(dp4043
g72
(dp4044
sg81
g4038
sg74
(lp4045
g67
(g68
g69
NtRp4046
(dp4047
g72
(dp4048
g80
I1
ssg81
g4042
sg74
(lp4049
S'/admin/default/about/places'
p4050
asbasbasbasbasbasbasbasbasbasbasbasbasbasbasbag67
(g83
g69
NtRp4051
(dp4052
g72
(dp4053
sg81
g3420
sg74
(lp4054
g67
(g88
g69
NtRp4055
(dp4056
g72
(dp4057
sg81
g4051
sg74
(lp4058
g67
(g68
g69
NtRp4059
(dp4060
g72
(dp4061
g80
I4
ssg81
g4055
sg74
(lp4062
g67
(g76
g69
NtRp4063
(dp4064
g72
(dp4065
g80
I3
ssg81
Nsg74
(lp4066
g67
(g83
g69
NtRp4067
(dp4068
g72
(dp4069
sg81
g4063
sg74
(lp4070
g67
(g88
g69
NtRp4071
(dp4072
g72
(dp4073
sg81
g4067
sg74
(lp4074
g67
(g68
g69
NtRp4075
(dp4076
g72
(dp4077
g80
I3
ssg81
g4071
sg74
(lp4078
g3452
(S't\t\x00\x00\x00Resources'
tRp4079
asbasbasbag67
(g83
g69
NtRp4080
(dp4081
g72
(dp4082
sg81
g4063
sg74
(lp4083
g67
(g88
g69
NtRp4084
(dp4085
g72
(dp4086
sg81
g4080
sg74
(lp4087
g67
(g68
g69
NtRp4088
(dp4089
g72
(dp4090
g80
I3
ssg81
g4084
sg74
(lp4091
g110
asbasbasbag67
(g83
g69
NtRp4092
(dp4093
g72
(dp4094
sg81
g4063
sg74
(lp4095
g67
(g88
g69
NtRp4096
(dp4097
g72
(dp4098
sg81
g4092
sg74
(lp4099
g67
(g68
g69
NtRp4100
(dp4101
g72
(dp4102
g80
I3
ssg81
g4096
sg74
(lp4103
S'None'
p4104
asbasbasbag67
(g83
g69
NtRp4105
(dp4106
g72
(dp4107
sg81
g4063
sg74
(lp4108
g67
(g88
g69
NtRp4109
(dp4110
g72
(dp4111
sg81
g4105
sg74
(lp4112
g67
(g68
g69
NtRp4113
(dp4114
g72
(dp4115
g80
I3
ssg81
g4109
sg74
(lp4116
g67
(g76
g69
NtRp4117
(dp4118
g72
(dp4119
g80
I2
ssg81
Nsg74
(lp4120
g67
(g83
g69
NtRp4121
(dp4122
g72
(dp4123
sg81
g4117
sg74
(lp4124
g67
(g88
g69
NtRp4125
(dp4126
g72
(dp4127
sg81
g4121
sg74
(lp4128
g67
(g68
g69
NtRp4129
(dp4130
g72
(dp4131
g80
I2
ssg81
g4125
sg74
(lp4132
g67
(g76
g69
NtRp4133
(dp4134
g72
(dp4135
g80
I1
ssg81
Nsg74
(lp4136
g67
(g83
g69
NtRp4137
(dp4138
g72
(dp4139
sg81
g4133
sg74
(lp4140
g67
(g88
g69
NtRp4141
(dp4142
g72
(dp4143
sg81
g4137
sg74
(lp4144
g67
(g68
g69
NtRp4145
(dp4146
g72
(dp4147
g80
I1
ssg81
g4141
sg74
(lp4148
g3452
(S't\r\x00\x00\x00Documentation'
tRp4149
asbasbasbag67
(g83
g69
NtRp4150
(dp4151
g72
(dp4152
sg81
g4133
sg74
(lp4153
g67
(g88
g69
NtRp4154
(dp4155
g72
(dp4156
sg81
g4150
sg74
(lp4157
g67
(g68
g69
NtRp4158
(dp4159
g72
(dp4160
g80
I1
ssg81
g4154
sg74
(lp4161
I00
asbasbasbag67
(g83
g69
NtRp4162
(dp4163
g72
(dp4164
sg81
g4133
sg74
(lp4165
g67
(g88
g69
NtRp4166
(dp4167
g72
(dp4168
sg81
g4162
sg74
(lp4169
g67
(g68
g69
NtRp4170
(dp4171
g72
(dp4172
g80
I1
ssg81
g4166
sg74
(lp4173
S'http://www.web2py.com/book'
p4174
asbasbasbag67
(g83
g69
NtRp4175
(dp4176
g72
(dp4177
sg81
g4133
sg74
(lp4178
g67
(g88
g69
NtRp4179
(dp4180
g72
(dp4181
sg81
g4175
sg74
(lp4182
g67
(g68
g69
NtRp4183
(dp4184
g72
(dp4185
g80
I1
ssg81
g4179
sg74
(lp4186
(lp4187
(g3452
(S't\x07\x00\x00\x00Preface'
tRp4188
I00
S'http://www.web2py.com/book/default/chapter/00'
p4189
tp4190
a(g3452
(S't\x0c\x00\x00\x00Introduction'
tRp4191
I00
S'http://www.web2py.com/book/default/chapter/01'
p4192
tp4193
a(g3452
(S't\x06\x00\x00\x00Python'
tRp4194
I00
S'http://www.web2py.com/book/default/chapter/02'
p4195
tp4196
a(g3452
(S't\x08\x00\x00\x00Overview'
tRp4197
I00
S'http://www.web2py.com/book/default/chapter/03'
p4198
tp4199
a(g3452
(S's\x08\x00\x00\x00The Core'
tRp4200
I00
S'http://www.web2py.com/book/default/chapter/04'
p4201
tp4202
a(g3452
(S's\t\x00\x00\x00The Views'
tRp4203
I00
S'http://www.web2py.com/book/default/chapter/05'
p4204
tp4205
a(g3452
(S't\x08\x00\x00\x00Database'
tRp4206
I00
S'http://www.web2py.com/book/default/chapter/06'
p4207
tp4208
a(g3452
(S's\x14\x00\x00\x00Forms and Validators'
tRp4209
I00
S'http://www.web2py.com/book/default/chapter/07'
p4210
tp4211
a(g3452
(S's\x0e\x00\x00\x00Access Control'
tRp4212
I00
S'http://www.web2py.com/book/default/chapter/08'
p4213
tp4214
a(g3452
(S't\x08\x00\x00\x00Services'
tRp4215
I00
S'http://www.web2py.com/book/default/chapter/09'
p4216
tp4217
a(g3452
(S's\x0c\x00\x00\x00Ajax Recipes'
tRp4218
I00
S'http://www.web2py.com/book/default/chapter/10'
p4219
tp4220
a(g3452
(S's\x12\x00\x00\x00Deployment Recipes'
tRp4221
I00
S'http://www.web2py.com/book/default/chapter/11'
p4222
tp4223
a(g3452
(S's\r\x00\x00\x00Other Recipes'
tRp4224
I00
S'http://www.web2py.com/book/default/chapter/12'
p4225
tp4226
a(g3452
(S's\r\x00\x00\x00Buy this book'
tRp4227
I00
S'http://stores.lulu.com/web2py'
p4228
tp4229
aasbasbasbasbasbasbasbag67
(g83
g69
NtRp4230
(dp4231
g72
(dp4232
sg81
g4117
sg74
(lp4233
g67
(g88
g69
NtRp4234
(dp4235
g72
(dp4236
sg81
g4230
sg74
(lp4237
g67
(g68
g69
NtRp4238
(dp4239
g72
(dp4240
g80
I2
ssg81
g4234
sg74
(lp4241
g67
(g76
g69
NtRp4242
(dp4243
g72
(dp4244
g80
I1
ssg81
Nsg74
(lp4245
g67
(g83
g69
NtRp4246
(dp4247
g72
(dp4248
sg81
g4242
sg74
(lp4249
g67
(g88
g69
NtRp4250
(dp4251
g72
(dp4252
sg81
g4246
sg74
(lp4253
g67
(g68
g69
NtRp4254
(dp4255
g72
(dp4256
g80
I1
ssg81
g4250
sg74
(lp4257
g3452
(S't\t\x00\x00\x00Community'
tRp4258
asbasbasbag67
(g83
g69
NtRp4259
(dp4260
g72
(dp4261
sg81
g4242
sg74
(lp4262
g67
(g88
g69
NtRp4263
(dp4264
g72
(dp4265
sg81
g4259
sg74
(lp4266
g67
(g68
g69
NtRp4267
(dp4268
g72
(dp4269
g80
I1
ssg81
g4263
sg74
(lp4270
I00
asbasbasbag67
(g83
g69
NtRp4271
(dp4272
g72
(dp4273
sg81
g4242
sg74
(lp4274
g67
(g88
g69
NtRp4275
(dp4276
g72
(dp4277
sg81
g4271
sg74
(lp4278
g67
(g68
g69
NtRp4279
(dp4280
g72
(dp4281
g80
I1
ssg81
g4275
sg74
(lp4282
Nasbasbasbag67
(g83
g69
NtRp4283
(dp4284
g72
(dp4285
sg81
g4242
sg74
(lp4286
g67
(g88
g69
NtRp4287
(dp4288
g72
(dp4289
sg81
g4283
sg74
(lp4290
g67
(g68
g69
NtRp4291
(dp4292
g72
(dp4293
g80
I1
ssg81
g4287
sg74
(lp4294
(lp4295
(g3452
(S't\x06\x00\x00\x00Groups'
tRp4296
I00
S'http://www.web2py.com/examples/default/usergroups'
p4297
tp4298
a(g3452
(S't\x07\x00\x00\x00Twitter'
tRp4299
I00
S'http://twitter.com/web2py'
p4300
tp4301
a(g3452
(S's\t\x00\x00\x00Live chat'
tRp4302
I00
S'http://mibbit.com/?channel=%23web2py&server=irc.mibbit.net'
p4303
tp4304
a(g3452
(S's\n\x00\x00\x00User Voice'
tRp4305
I00
S'http://web2py.uservoice.com/'
p4306
tp4307
aasbasbasbasbasbasbasbag67
(g83
g69
NtRp4308
(dp4309
g72
(dp4310
sg81
g4117
sg74
(lp4311
g67
(g88
g69
NtRp4312
(dp4313
g72
(dp4314
sg81
g4308
sg74
(lp4315
g67
(g68
g69
NtRp4316
(dp4317
g72
(dp4318
g80
I2
ssg81
g4312
sg74
(lp4319
g67
(g76
g69
NtRp4320
(dp4321
g72
(dp4322
g80
I1
ssg81
Nsg74
(lp4323
g67
(g83
g69
NtRp4324
(dp4325
g72
(dp4326
sg81
g4320
sg74
(lp4327
g67
(g88
g69
NtRp4328
(dp4329
g72
(dp4330
sg81
g4324
sg74
(lp4331
g67
(g68
g69
NtRp4332
(dp4333
g72
(dp4334
g80
I1
ssg81
g4328
sg74
(lp4335
g3452
(S't\x06\x00\x00\x00Web2py'
tRp4336
asbasbasbag67
(g83
g69
NtRp4337
(dp4338
g72
(dp4339
sg81
g4320
sg74
(lp4340
g67
(g88
g69
NtRp4341
(dp4342
g72
(dp4343
sg81
g4337
sg74
(lp4344
g67
(g68
g69
NtRp4345
(dp4346
g72
(dp4347
g80
I1
ssg81
g4341
sg74
(lp4348
I00
asbasbasbag67
(g83
g69
NtRp4349
(dp4350
g72
(dp4351
sg81
g4320
sg74
(lp4352
g67
(g88
g69
NtRp4353
(dp4354
g72
(dp4355
sg81
g4349
sg74
(lp4356
g67
(g68
g69
NtRp4357
(dp4358
g72
(dp4359
g80
I1
ssg81
g4353
sg74
(lp4360
S'http://www.web2py.com'
p4361
asbasbasbag67
(g83
g69
NtRp4362
(dp4363
g72
(dp4364
sg81
g4320
sg74
(lp4365
g67
(g88
g69
NtRp4366
(dp4367
g72
(dp4368
sg81
g4362
sg74
(lp4369
g67
(g68
g69
NtRp4370
(dp4371
g72
(dp4372
g80
I1
ssg81
g4366
sg74
(lp4373
(lp4374
(g3452
(S't\x08\x00\x00\x00Download'
tRp4375
I00
S'http://www.web2py.com/examples/default/download'
p4376
tp4377
a(g3452
(S't\x07\x00\x00\x00Support'
tRp4378
I00
S'http://www.web2py.com/examples/default/support'
p4379
tp4380
a(g3452
(S's\x0e\x00\x00\x00Quick Examples'
tRp4381
I00
S'http://web2py.com/examples/default/examples'
p4382
tp4383
a(g3452
(S't\x03\x00\x00\x00FAQ'
tRp4384
I00
S'http://web2py.com/AlterEgo'
p4385
tp4386
a(g3452
(S's\x11\x00\x00\x00Free Applications'
tRp4387
I00
S'http://web2py.com/appliances'
p4388
tp4389
a(g3452
(S't\x07\x00\x00\x00Plugins'
tRp4390
I00
S'http://web2py.com/plugins'
p4391
tp4392
a(g3452
(S't\x07\x00\x00\x00Recipes'
tRp4393
I00
S'http://web2pyslices.com/'
p4394
tp4395
a(g3452
(S't\x04\x00\x00\x00Demo'
tRp4396
I00
S'http://web2py.com/demo_admin'
p4397
tp4398
a(g3452
(S't\x08\x00\x00\x00Semantic'
tRp4399
I00
S'http://web2py.com/semantic'
p4400
tp4401
a(g3452
(S't\x07\x00\x00\x00Layouts'
tRp4402
I00
S'http://web2py.com/layouts'
p4403
tp4404
a(g3452
(S't\x06\x00\x00\x00Videos'
tRp4405
I00
S'http://www.web2py.com/examples/default/videos/'
p4406
tp4407
aasbasbasbasbasbasbasbasbasbasbasbasbasbasbasbasbasbasbasbag67
(g83
g69
NtRp4408
(dp4409
g72
(dp4410
sg81
g2947
sg74
(lp4411
g67
(g88
g69
NtRp4412
(dp4413
g72
(dp4414
g92
g93
ssg81
g4408
sg74
(lp4415
S'meta'
p4416
asbag67
(g88
g69
NtRp4417
(dp4418
g72
(dp4419
g99
g100
ssg81
g4408
sg74
(lp4420
S':'
asbag67
(g88
g69
NtRp4421
(dp4422
g72
(dp4423
sg81
g4408
sg74
(lp4424
g67
(g68
g69
NtRp4425
(dp4426
g72
(dp4427
g80
I5
ssg81
g4421
sg74
(lp4428
g67
(g76
g69
NtRp4429
(dp4430
g72
(dp4431
g80
I4
ssg81
Nsg74
(lp4432
g67
(g83
g69
NtRp4433
(dp4434
g72
(dp4435
sg81
g4429
sg74
(lp4436
g67
(g88
g69
NtRp4437
(dp4438
g72
(dp4439
g92
g93
ssg81
g4433
sg74
(lp4440
S'author'
p4441
asbag67
(g88
g69
NtRp4442
(dp4443
g72
(dp4444
g99
g100
ssg81
g4433
sg74
(lp4445
S':'
asbag67
(g88
g69
NtRp4446
(dp4447
g72
(dp4448
sg81
g4433
sg74
(lp4449
g67
(g68
g69
NtRp4450
(dp4451
g72
(dp4452
g80
I4
ssg81
g4446
sg74
(lp4453
S'Your Name <you@example.com>'
p4454
asbasbasbag67
(g83
g69
NtRp4455
(dp4456
g72
(dp4457
sg81
g4429
sg74
(lp4458
g67
(g88
g69
NtRp4459
(dp4460
g72
(dp4461
g92
g93
ssg81
g4455
sg74
(lp4462
S'copyright'
p4463
asbag67
(g88
g69
NtRp4464
(dp4465
g72
(dp4466
g99
g100
ssg81
g4455
sg74
(lp4467
S':'
asbag67
(g88
g69
NtRp4468
(dp4469
g72
(dp4470
sg81
g4455
sg74
(lp4471
g67
(g68
g69
NtRp4472
(dp4473
g72
(dp4474
g80
I4
ssg81
g4468
sg74
(lp4475
S'Copyright 2011'
p4476
asbasbasbag67
(g83
g69
NtRp4477
(dp4478
g72
(dp4479
sg81
g4429
sg74
(lp4480
g67
(g88
g69
NtRp4481
(dp4482
g72
(dp4483
g92
g93
ssg81
g4477
sg74
(lp4484
S'description'
p4485
asbag67
(g88
g69
NtRp4486
(dp4487
g72
(dp4488
g99
g100
ssg81
g4477
sg74
(lp4489
S':'
asbag67
(g88
g69
NtRp4490
(dp4491
g72
(dp4492
sg81
g4477
sg74
(lp4493
g67
(g68
g69
NtRp4494
(dp4495
g72
(dp4496
g80
I4
ssg81
g4490
sg74
(lp4497
S'a cool new app'
p4498
asbasbasbag67
(g83
g69
NtRp4499
(dp4500
g72
(dp4501
sg81
g4429
sg74
(lp4502
g67
(g88
g69
NtRp4503
(dp4504
g72
(dp4505
g92
g93
ssg81
g4499
sg74
(lp4506
S'generator'
p4507
asbag67
(g88
g69
NtRp4508
(dp4509
g72
(dp4510
g99
g100
ssg81
g4499
sg74
(lp4511
S':'
asbag67
(g88
g69
NtRp4512
(dp4513
g72
(dp4514
sg81
g4499
sg74
(lp4515
g67
(g68
g69
NtRp4516
(dp4517
g72
(dp4518
g80
I4
ssg81
g4512
sg74
(lp4519
S'Web2py Web Framework'
p4520
asbasbasbag67
(g83
g69
NtRp4521
(dp4522
g72
(dp4523
sg81
g4429
sg74
(lp4524
g67
(g88
g69
NtRp4525
(dp4526
g72
(dp4527
g92
g93
ssg81
g4521
sg74
(lp4528
S'keywords'
p4529
asbag67
(g88
g69
NtRp4530
(dp4531
g72
(dp4532
g99
g100
ssg81
g4521
sg74
(lp4533
S':'
asbag67
(g88
g69
NtRp4534
(dp4535
g72
(dp4536
sg81
g4521
sg74
(lp4537
g67
(g68
g69
NtRp4538
(dp4539
g72
(dp4540
g80
I4
ssg81
g4534
sg74
(lp4541
S'web2py, python, framework'
p4542
asbasbasbasbasbasbasbag67
(g83
g69
NtRp4543
(dp4544
g72
(dp4545
sg81
g2947
sg74
(lp4546
g67
(g88
g69
NtRp4547
(dp4548
g72
(dp4549
g92
g93
ssg81
g4543
sg74
(lp4550
S'postprocessing'
p4551
asbag67
(g88
g69
NtRp4552
(dp4553
g72
(dp4554
g99
g100
ssg81
g4543
sg74
(lp4555
S':'
asbag67
(g88
g69
NtRp4556
(dp4557
g72
(dp4558
sg81
g4543
sg74
(lp4559
g67
(g68
g69
NtRp4560
(dp4561
g72
(dp4562
g80
I5
ssg81
g4556
sg74
(lp4563
g67
(g76
g69
NtRp4564
(dp4565
g72
(dp4566
g80
I4
ssg81
Nsg74
(lp4567
sbasbasbasbag67
(g83
g69
NtRp4568
(dp4569
g72
(dp4570
sg81
g2947
sg74
(lp4571
g67
(g88
g69
NtRp4572
(dp4573
g72
(dp4574
g92
g93
ssg81
g4568
sg74
(lp4575
S'session_file'
p4576
asbag67
(g88
g69
NtRp4577
(dp4578
g72
(dp4579
g99
g100
ssg81
g4568
sg74
(lp4580
S':'
asbag67
(g88
g69
NtRp4581
(dp4582
g72
(dp4583
sg81
g4568
sg74
(lp4584
g67
(g68
g69
NtRp4585
(dp4586
g72
(dp4587
g80
I5
ssg81
g4581
sg74
(lp4588
S"<open file '/home/ian/web2py/applications/places/sessions/127.0.0.1-827c1359-ea2b-42e3-9459-33c4b0422bd4', mode 'rb+' at 0x2f06ae0>"
p4589
asbasbasbag67
(g83
g69
NtRp4590
(dp4591
g72
(dp4592
sg81
g2947
sg74
(lp4593
g67
(g88
g69
NtRp4594
(dp4595
g72
(dp4596
g92
g93
ssg81
g4590
sg74
(lp4597
S'session_filename'
p4598
asbag67
(g88
g69
NtRp4599
(dp4600
g72
(dp4601
g99
g100
ssg81
g4590
sg74
(lp4602
S':'
asbag67
(g88
g69
NtRp4603
(dp4604
g72
(dp4605
sg81
g4590
sg74
(lp4606
g67
(g68
g69
NtRp4607
(dp4608
g72
(dp4609
g80
I5
ssg81
g4603
sg74
(lp4610
S'/home/ian/web2py/applications/places/sessions/127.0.0.1-827c1359-ea2b-42e3-9459-33c4b0422bd4'
p4611
asbasbasbag67
(g83
g69
NtRp4612
(dp4613
g72
(dp4614
sg81
g2947
sg74
(lp4615
g67
(g88
g69
NtRp4616
(dp4617
g72
(dp4618
g92
g93
ssg81
g4612
sg74
(lp4619
S'session_id'
p4620
asbag67
(g88
g69
NtRp4621
(dp4622
g72
(dp4623
g99
g100
ssg81
g4612
sg74
(lp4624
S':'
asbag67
(g88
g69
NtRp4625
(dp4626
g72
(dp4627
sg81
g4612
sg74
(lp4628
g67
(g68
g69
NtRp4629
(dp4630
g72
(dp4631
g80
I5
ssg81
g4625
sg74
(lp4632
S'127.0.0.1-827c1359-ea2b-42e3-9459-33c4b0422bd4'
p4633
asbasbasbag67
(g83
g69
NtRp4634
(dp4635
g72
(dp4636
sg81
g2947
sg74
(lp4637
g67
(g88
g69
NtRp4638
(dp4639
g72
(dp4640
g92
g93
ssg81
g4634
sg74
(lp4641
S'session_id_name'
p4642
asbag67
(g88
g69
NtRp4643
(dp4644
g72
(dp4645
g99
g100
ssg81
g4634
sg74
(lp4646
S':'
asbag67
(g88
g69
NtRp4647
(dp4648
g72
(dp4649
sg81
g4634
sg74
(lp4650
g67
(g68
g69
NtRp4651
(dp4652
g72
(dp4653
g80
I5
ssg81
g4647
sg74
(lp4654
g3004
asbasbasbag67
(g83
g69
NtRp4655
(dp4656
g72
(dp4657
sg81
g2947
sg74
(lp4658
g67
(g88
g69
NtRp4659
(dp4660
g72
(dp4661
g92
g93
ssg81
g4655
sg74
(lp4662
S'session_locked'
p4663
asbag67
(g88
g69
NtRp4664
(dp4665
g72
(dp4666
g99
g100
ssg81
g4655
sg74
(lp4667
S':'
asbag67
(g88
g69
NtRp4668
(dp4669
g72
(dp4670
sg81
g4655
sg74
(lp4671
g67
(g68
g69
NtRp4672
(dp4673
g72
(dp4674
g80
I5
ssg81
g4668
sg74
(lp4675
g1504
asbasbasbag67
(g83
g69
NtRp4676
(dp4677
g72
(dp4678
sg81
g2947
sg74
(lp4679
g67
(g88
g69
NtRp4680
(dp4681
g72
(dp4682
g92
g93
ssg81
g4676
sg74
(lp4683
S'session_new'
p4684
asbag67
(g88
g69
NtRp4685
(dp4686
g72
(dp4687
g99
g100
ssg81
g4676
sg74
(lp4688
S':'
asbag67
(g88
g69
NtRp4689
(dp4690
g72
(dp4691
sg81
g4676
sg74
(lp4692
g67
(g68
g69
NtRp4693
(dp4694
g72
(dp4695
g80
I5
ssg81
g4689
sg74
(lp4696
g110
asbasbasbag67
(g83
g69
NtRp4697
(dp4698
g72
(dp4699
sg81
g2947
sg74
(lp4700
g67
(g88
g69
NtRp4701
(dp4702
g72
(dp4703
g92
g93
ssg81
g4697
sg74
(lp4704
S'status'
p4705
asbag67
(g88
g69
NtRp4706
(dp4707
g72
(dp4708
g99
g100
ssg81
g4697
sg74
(lp4709
S':'
asbag67
(g88
g69
NtRp4710
(dp4711
g72
(dp4712
sg81
g4697
sg74
(lp4713
g67
(g68
g69
NtRp4714
(dp4715
g72
(dp4716
g80
I5
ssg81
g4710
sg74
(lp4717
S'200'
p4718
asbasbasbag67
(g83
g69
NtRp4719
(dp4720
g72
(dp4721
sg81
g2947
sg74
(lp4722
g67
(g88
g69
NtRp4723
(dp4724
g72
(dp4725
g92
g93
ssg81
g4719
sg74
(lp4726
S'subtitle'
p4727
asbag67
(g88
g69
NtRp4728
(dp4729
g72
(dp4730
g99
g100
ssg81
g4719
sg74
(lp4731
S':'
asbag67
(g88
g69
NtRp4732
(dp4733
g72
(dp4734
sg81
g4719
sg74
(lp4735
g67
(g68
g69
NtRp4736
(dp4737
g72
(dp4738
g80
I5
ssg81
g4732
sg74
(lp4739
g3452
(S's\r\x00\x00\x00customize me!'
tRp4740
asbasbasbag67
(g83
g69
NtRp4741
(dp4742
g72
(dp4743
sg81
g2947
sg74
(lp4744
g67
(g88
g69
NtRp4745
(dp4746
g72
(dp4747
g92
g93
ssg81
g4741
sg74
(lp4748
S'title'
p4749
asbag67
(g88
g69
NtRp4750
(dp4751
g72
(dp4752
g99
g100
ssg81
g4741
sg74
(lp4753
S':'
asbag67
(g88
g69
NtRp4754
(dp4755
g72
(dp4756
sg81
g4741
sg74
(lp4757
g67
(g68
g69
NtRp4758
(dp4759
g72
(dp4760
g80
I5
ssg81
g4754
sg74
(lp4761
g132
asbasbasbag67
(g83
g69
NtRp4762
(dp4763
g72
(dp4764
sg81
g2947
sg74
(lp4765
g67
(g88
g69
NtRp4766
(dp4767
g72
(dp4768
g92
g93
ssg81
g4762
sg74
(lp4769
g2148
asbag67
(g88
g69
NtRp4770
(dp4771
g72
(dp4772
g99
g100
ssg81
g4762
sg74
(lp4773
S':'
asbag67
(g88
g69
NtRp4774
(dp4775
g72
(dp4776
sg81
g4762
sg74
(lp4777
g67
(g68
g69
NtRp4778
(dp4779
g72
(dp4780
g80
I5
ssg81
g4774
sg74
(lp4781
g2161
asbasbasbag67
(g83
g69
NtRp4782
(dp4783
g72
(dp4784
sg81
g2947
sg74
(lp4785
g67
(g88
g69
NtRp4786
(dp4787
g72
(dp4788
g92
g93
ssg81
g4782
sg74
(lp4789
S'view'
p4790
asbag67
(g88
g69
NtRp4791
(dp4792
g72
(dp4793
g99
g100
ssg81
g4782
sg74
(lp4794
S':'
asbag67
(g88
g69
NtRp4795
(dp4796
g72
(dp4797
sg81
g4782
sg74
(lp4798
g67
(g68
g69
NtRp4799
(dp4800
g72
(dp4801
g80
I5
ssg81
g4795
sg74
(lp4802
S'default/index.html'
p4803
asbasbasbasbasbsS'locals'
p4804
(dp4805
g3
S"'/home/ian/web2py/applications/places/views/default/index.html'"
p4806
sg5
S'r"left_sidebar_enabled=right_sidebar_enabled=False...    -->    \\n  </body>\\n</html>\\n\', escape=False)"'
p4807
sssS'traceback'
p4808
S'Traceback (most recent call last):\n  File "/home/ian/web2py/gluon/restricted.py", line 193, in restricted\n    ccode = compile2(code,layer)\n  File "/home/ian/web2py/gluon/restricted.py", line 179, in compile2\n    return compile(code.rstrip().replace(\'\\r\\n\',\'\\n\')+\'\\n\', layer, \'exec\')\n  File "/home/ian/web2py/applications/places/views/default/index.html", line 87\n    response.write(\'</li>\\n</ul>\\n\\n<section id="links">\\n\\n\', escape=False)\n           ^\nSyntaxError: invalid syntax\n'
p4809
s.