(dp1
S'output'
p2
S''
sS'layer'
p3
S'/home/ian/Dropbox/Web_Pages/web2py-linux/applications/places/views/default/index.html'
p4
sS'code'
p5
S'left_sidebar_enabled=right_sidebar_enabled=False\nresponse.write(\'\\n\', escape=False)\nresponse.write(\'<!DOCTYPE html>\\n<html lang="\', escape=False)\nresponse.write(T.accepted_language or \'en\')\nresponse.write(\'" class="no-js"><!-- no-js need it for modernzr -->\\n  <head>\\n    \\n    <meta charset="utf-8" />        \\n    <!-- www.phpied.com/conditional-comments-block-downloads/ -->\\n    <!--[if IE]>\\n      <!-- Always force latest IE rendering engine \\n       (even in intranet) & Chrome Frame \\n       Remove this if you use the .htaccess -->\\n      <meta http-equiv="X-UA-Compatible" content="IE=edge,chrome=1">\\n    <![endif]-->    \\n\\n    <title>\', escape=False)\nresponse.write(response.title or request.application)\nresponse.write(\'</title>\\n    \\n    <!-- http://dev.w3.org/html5/markup/meta.name.html -->\\n    <meta name="application-name" content="\', escape=False)\nresponse.write(request.application)\nresponse.write(\'" /> \\n    \\n    <!-- Speaking of Google, don\\\'t forget to set your site up: \\n     http://google.com/webmasters -->\\n    <meta name="google-site-verification" content="" />\\n    \\n    <!--  Mobile Viewport Fix\\n      j.mp/mobileviewport & davidbcalhoun.com/2010/viewport-metatag \\n      device-width: Occupy full width of the screen in its current orientation\\n      initial-scale = 1.0 retains dimensions instead of zooming out if page height > device height\\n      maximum-scale = 1.0 retains dimensions instead of zooming in if page width < device width\\n      -->\\n    <meta name="viewport" content="width=device-width, initial-scale=1.0, maximum-scale=1.0">\\n    \\n    <!-- Place favicon.ico and apple-touch-icon.png in the root of your domain and delete these references -->\\n    <link rel="shortcut icon" href="\', escape=False)\nresponse.write(URL(\'static\',\'favicon.ico\'))\nresponse.write(\'" type="image/x-icon">\\n    <link rel="apple-touch-icon" href="\', escape=False)\nresponse.write(URL(\'static\',\'favicon.png\'))\nresponse.write(\'">\\n\\n    <!-- For the less-enabled mobile browsers like Opera Mini -->\\n    <link rel="stylesheet" media="handheld" href="\', escape=False)\nresponse.write(URL(\'static\',\'css/handheld.css\'))\nresponse.write(\'">\\n    \\n    <!-- All JavaScript at the bottom, except for Modernizr which enables HTML5 elements & feature detects -->\\n    <script src="\', escape=False)\nresponse.write(URL(\'static\',\'js/modernizr-1.7.min.js\'))\nresponse.write(\'"></script>\\n    \\n    \', escape=False)\n#------  require CSS and JS files for this page (read info in base.css) ------\nresponse.write(\'\\n    \', escape=False)\nresponse.files.append(URL(\'static\',\'css/base.css\'))\nresponse.write(\'\\n    \', escape=False)\nresponse.files.append(URL(\'static\',\'css/superfish.css\'))\nresponse.write(\'\\n    \', escape=False)\nresponse.files.append(URL(\'static\',\'js/superfish.js\'))\nresponse.write(\'\\n    \', escape=False)\n#------ include web2py specific js code (jquery, calendar, form stuff) ------\nresponse.write(\'\\n    \', escape=False)\nresponse.files.insert(0,URL(\'static\',\'js/jquery.js\'))\nresponse.files.insert(1,URL(\'static\',\'css/anytime.css\'))\nresponse.files.insert(2,URL(\'static\',\'js/anytime.js\'))\nresponse.include_meta()\nresponse.include_files()\nresponse.write(\'\\n<script type="text/javascript"><!--\\n    // These variables are used by the web2py_ajax_init function in web2py_ajax.js (which is loaded below).\\n    var w2p_ajax_confirm_message = "\', escape=False)\nresponse.write(T(\'Are you sure you want to delete this object?\'))\nresponse.write(\'";\\n    var w2p_ajax_date_format = "\', escape=False)\nresponse.write(T(\'%Y-%m-%d\'))\nresponse.write(\'";\\n    var w2p_ajax_datetime_format = "\', escape=False)\nresponse.write(T(\'%Y-%m-%d %H:%M:%S\'))\nresponse.write(\'";\\n    //--></script>\\n    <script src="\', escape=False)\nresponse.write(URL(\'static\',\'js/web2py_ajax.js\'))\nresponse.write(\'" type="text/javascript"></script>\\n\', escape=False)\nresponse.write(\'\\n\\n    \', escape=False)\n#using sidebars need to know what sidebar you want to use\n#prior of using it, because of static width size of content, you can use\n#left_sidebar, right_sidebar, both or none (False left and right)\nleft_sidebar_enabled = globals().get(\'left_sidebar_enabled\',False)\nright_sidebar_enabled = globals().get(\'right_sidebar_enabled\',False)\nif left_sidebar_enabled and right_sidebar_enabled: width_content=\'63%\'\nelif left_sidebar_enabled != right_sidebar_enabled: width_content=\'740px\'\nelse: width_content=\'100%\'\nif left_sidebar_enabled: left_sidebar_style = \'style="display: block;"\'\nelse: left_sidebar_style = \'style="display: none;"\'\nif right_sidebar_enabled: right_sidebar_style = \'style="display: block;"\'\nelse: right_sidebar_style = \'style="display: none;"\'\nstyle_content = \'style="width: %s"\' % width_content\nresponse.write(\'\\n    \\n    <!-- uncomment here to load jquery-ui -->\\n    \\n    <link rel="stylesheet" href="http://ajax.googleapis.com/ajax/libs/jqueryui/1.8.16/themes/base/jquery-ui.css" type="text/css" media="all" />\\n    <script src="http://ajax.googleapis.com/ajax/libs/jqueryui/1.8.16/jquery-ui.min.js" type="text/javascript"></script>\\n    \\n   <!-- uncomment to load jquery-ui -->\\n    \\n    \\n  </head>\\n  \\n  <!-- paulirish.com/2008/conditional-stylesheets-vs-css-hacks-answer-neither/ -->  \\n  <!--[if lt IE 7 ]> <body class="ie6"> <![endif]-->\\n  <!--[if IE 7 ]>    <body class="ie7"> <![endif]-->\\n  <!--[if IE 8 ]>    <body class="ie8"> <![endif]-->\\n  <!--[if IE 9 ]>    <body class="ie9"> <![endif]-->\\n  <!--[if (gt IE 9)|!(IE)]><!--> <body> <!--<![endif]-->\\n    \\n    <div class="flash">\', escape=False)\nresponse.write(response.flash or \'\')\nresponse.write(\'</div> <!-- notification div -->\\n\\n        \\n\\n    <div id="container">                        \\n      \\n      <div id="wrapper">        \\n      \', escape=False)\ntry:\n    response.write(auth.navbar(action=URL(\'default\',\'user\')))\nexcept:pass\nresponse.write(\'\\n    \\n    <div id="header"> <!-- header and login nav -->\\n      \', escape=False)\nresponse.write(\' <!-- this is default header -->\\n      \\n      <h1>\\n        <span id="appname">\', escape=False)\nresponse.write(request.application.capitalize())\nresponse.write(\'</span>App\\n      </h1>\\n      <div style="clear: both;"></div><!-- Clear the divs -->\\n      \', escape=False)\nresponse.write(\'\\n    </div><!-- header  -->\\n    \\n    <div id="statusbar"><!-- statusbar is menu zone -->\\n      \', escape=False)\nresponse.write(\' <!-- this is default statusbar -->\\n      \', escape=False)\n#------ superfish menu ------\nresponse.write(\'\\n      \', escape=False)\nresponse.write(MENU(response.menu,_class=\'sf-menu\'))\nresponse.write(\'\\n      <script type="text/javascript">\\n        jQuery(document).ready(function(){\\n        jQuery(\\\'ul.sf-menu\\\').superfish();});\\n      </script>\\n\\n      <!-- AddToAny BEGIN -->\\n      <div style="padding: 7px; float:right;" class="a2a_kit a2a_default_style"><a class="a2a_dd" href="http://www.addtoany.com/share_save">Share</a></div><script type="text/javascript" src="http://static.addtoany.com/menu/page.js"></script>\\n      <!-- AddToAny END -->\\n\\n      <div style="clear: both;"></div><!-- Clear the divs -->   \\n      \', escape=False)\nresponse.write(\'               \\n    </div><!-- statusbar -->\\n    \\n    <div id="page"> <!-- Here my central body -->     \\n\\n      \', escape=False)\nif left_sidebar_enabled:\n    response.write(\'\\n          <div id="left_sidebar" \', escape=False)\n    response.write(XML(left_sidebar_style))\n    response.write(\' >\\n            <div style="padding: 4px;">\\n          \', escape=False)\n    response.write(\'New Left Sidebar Content\', escape=False)\n    response.write(\'       \\n            </div>\\n          </div><!-- left_sidebar -->\\n      \', escape=False)\n    pass\nresponse.write(\'\\n\\n      <!-- content -->\\n      <div id="content" \', escape=False)\nresponse.write(XML(style_content))\nresponse.write(\' >\\n        \', escape=False)\nresponse.write(\'\\n\\n<ul>\\n\', escape=False)\nfor tag in session.tags:\n    response.write(\'\\n\\n\', escape=False)\n    if tag.tag == session.current:\n        response.write(\'\\n\', escape=False)\n        response.write(LI(A(tag, _href=URL(\'index.load\', args=[tag.tag]), _class=\'current\', cid="links")))\n        response.write(\'\\n\\n\', escape=False)\n    else:\n        response.write(\'\\n\', escape=False)\n        response.write(LI(A(tag, _href=URL(\'index.load\', args=[tag.tag]), cid="links")))\n        response.write(\'\\n\\n\', escape=False)\n        pass\n    response.write(\'\\n\\n</ul>\\n\\n<section id="links">\\n\\n\', escape=False)\n    response.write(LOAD(\'index.load\',ajax=True))\n    response.write(\'\\n\\n</section>\\n\\n\', escape=False)\nelse:\n    response.write(\'\\n\', escape=False)\n    response.write(BEAUTIFY(response._vars))\n    response.write(\'\\n\', escape=False)\n    pass\nresponse.write(\'\\n\\n\', escape=False)\nresponse.write(\'\\n\', escape=False)\nresponse.write(\'\\n\', escape=False)\nresponse.write(\' \\n      </div>\\n      <!-- content -->\\n\\n      \', escape=False)\nif right_sidebar_enabled:\n    response.write(\'\\n          <div id="right_sidebar" \', escape=False)\n    response.write(XML(right_sidebar_style))\n    response.write(\' >\\n            <div style="padding: 4px;">\\n              \', escape=False)\n    response.write(\'New Right Sidebar Content\', escape=False)\n    response.write(\'\\n            </div>\\n      </div><!-- right_sidebar -->\\n          \', escape=False)\n    pass\nresponse.write(\'\\n\\n\\n      <div style="clear: both;"></div><!-- Clear the divs -->\\n      \\n    </div><!-- page -->                         \\n    \\n    <div id="footer">\\n      \', escape=False)\nresponse.write(\' <!-- this is default footer -->\\n      <a href="http://www.web2py.com/" style="float: left; padding-right: 6px;">\\n        <img src="\', escape=False)\nresponse.write(URL(\'static\',\'images/poweredby.png\'))\nresponse.write(\'"/>\\n      </a>\\n      \', escape=False)\nresponse.write(T(\'Copyright\'))\nresponse.write(\' &#169; 2011               \\n      <div style="clear: both;"></div><!-- Clear the divs -->\\n      \', escape=False)\nresponse.write(\'\\n\\n    </div><!-- footer -->           \\n      </div><!-- wrapper -->\\n    </div><!-- container -->        \\n    \\n    <!--[if lt IE 7 ]>\\n    <script src="\', escape=False)\nresponse.write(URL(\'static\',\'js/dd_belatedpng.js\'))\nresponse.write(\'"></script>\\n    <script> DD_belatedPNG.fix(\\\'img, .png_bg\\\'); //fix any <img> or .png_bg background-images </script>\\n    <![endif]-->\\n    \', escape=False)\nif response.google_analytics_id:\n    response.write("<script>/* http://mathiasbynens.be/notes/async-analytics-snippet */ var _gaq=[[\'_setAccount\',\'", escape=False)\n    response.write(response.google_analyitics_id)\n    response.write("\'],[\'_trackPageview\']];(function(d,t){var g=d.createElement(t),s=d.getElementsByTagName(t)[0];g.src=\'//www.google-analytics.com/ga.js\';s.parentNode.insertBefore(g,s)}(document,\'script\')) </script>", escape=False)\n    pass\nresponse.write(\'\\n  </body>\\n</html>\\n\', escape=False)'
p6
sS'snapshot'
p7
(dp8
S'exception'
p9
(dp10
S'__hash__'
p11
S"<method-wrapper '__hash__' of exceptions.AttributeError object>"
p12
sS'__setattr__'
p13
S"<method-wrapper '__setattr__' of exceptions.AttributeError object>"
p14
sS'__reduce_ex__'
p15
S'<built-in method __reduce_ex__ of exceptions.AttributeError object>'
p16
sS'__getslice__'
p17
S"<method-wrapper '__getslice__' of exceptions.AttributeError object>"
p18
sS'__getitem__'
p19
S"<method-wrapper '__getitem__' of exceptions.AttributeError object>"
p20
sS'__setstate__'
p21
S'<built-in method __setstate__ of exceptions.AttributeError object>'
p22
sS'args'
p23
S'("\'dict\' object has no attribute \'tag\'",)'
p24
sS'__reduce__'
p25
S'<built-in method __reduce__ of exceptions.AttributeError object>'
p26
sS'__str__'
p27
S"<method-wrapper '__str__' of exceptions.AttributeError object>"
p28
sS'__format__'
p29
S'<built-in method __format__ of exceptions.AttributeError object>'
p30
sS'__getattribute__'
p31
S"<method-wrapper '__getattribute__' of exceptions.AttributeError object>"
p32
sS'__class__'
p33
S"<type 'exceptions.AttributeError'>"
p34
sS'__unicode__'
p35
S'<built-in method __unicode__ of exceptions.AttributeError object>'
p36
sS'__delattr__'
p37
S"<method-wrapper '__delattr__' of exceptions.AttributeError object>"
p38
sS'__subclasshook__'
p39
S'<built-in method __subclasshook__ of type object>'
p40
sS'__repr__'
p41
S"<method-wrapper '__repr__' of exceptions.AttributeError object>"
p42
sS'__dict__'
p43
S'{}'
p44
sS'__sizeof__'
p45
S'<built-in method __sizeof__ of exceptions.AttributeError object>'
p46
sS'__doc__'
p47
S"'Attribute not found.'"
p48
sS'__init__'
p49
S"<method-wrapper '__init__' of exceptions.AttributeError object>"
p50
sS'__new__'
p51
S'<built-in method __new__ of type object>'
p52
ssS'evalue'
p53
S"'dict' object has no attribute 'tag'"
p54
sS'request'
p55
ccopy_reg
_reconstructor
p56
(cgluon.html
BEAUTIFY
p57
c__builtin__
object
p58
NtRp59
(dp60
S'attributes'
p61
(dp62
sS'components'
p63
(lp64
g56
(cgluon.html
TABLE
p65
g58
NtRp66
(dp67
g61
(dp68
S'level'
p69
I5
ssS'parent'
p70
Nsg63
(lp71
g56
(cgluon.html
TR
p72
g58
NtRp73
(dp74
g61
(dp75
sg70
g66
sg63
(lp76
g56
(cgluon.html
TD
p77
g58
NtRp78
(dp79
g61
(dp80
S'_style'
p81
S'font-weight:bold;'
p82
ssg70
g73
sg63
(lp83
S'ajax'
p84
asbag56
(g77
g58
NtRp85
(dp86
g61
(dp87
S'_valign'
p88
S'top'
p89
ssg70
g73
sg63
(lp90
S':'
asbag56
(g77
g58
NtRp91
(dp92
g61
(dp93
sg70
g73
sg63
(lp94
g56
(g57
g58
NtRp95
(dp96
g61
(dp97
g69
I5
ssg70
g91
sg63
(lp98
S'False'
p99
asbasbasbag56
(g72
g58
NtRp100
(dp101
g61
(dp102
sg70
g66
sg63
(lp103
g56
(g77
g58
NtRp104
(dp105
g61
(dp106
g81
g82
ssg70
g100
sg63
(lp107
S'application'
p108
asbag56
(g77
g58
NtRp109
(dp110
g61
(dp111
g88
g89
ssg70
g100
sg63
(lp112
S':'
asbag56
(g77
g58
NtRp113
(dp114
g61
(dp115
sg70
g100
sg63
(lp116
g56
(g57
g58
NtRp117
(dp118
g61
(dp119
g69
I5
ssg70
g113
sg63
(lp120
S'places'
p121
asbasbasbag56
(g72
g58
NtRp122
(dp123
g61
(dp124
sg70
g66
sg63
(lp125
g56
(g77
g58
NtRp126
(dp127
g61
(dp128
g81
g82
ssg70
g122
sg63
(lp129
g23
asbag56
(g77
g58
NtRp130
(dp131
g61
(dp132
g88
g89
ssg70
g122
sg63
(lp133
S':'
asbag56
(g77
g58
NtRp134
(dp135
g61
(dp136
sg70
g122
sg63
(lp137
g56
(g57
g58
NtRp138
(dp139
g61
(dp140
g69
I5
ssg70
g134
sg63
(lp141
g56
(g65
g58
NtRp142
(dp143
g61
(dp144
g69
I4
ssg70
Nsg63
(lp145
sbasbasbasbag56
(g72
g58
NtRp146
(dp147
g61
(dp148
sg70
g66
sg63
(lp149
g56
(g77
g58
NtRp150
(dp151
g61
(dp152
g81
g82
ssg70
g146
sg63
(lp153
S'body'
p154
asbag56
(g77
g58
NtRp155
(dp156
g61
(dp157
g88
g89
ssg70
g146
sg63
(lp158
S':'
asbag56
(g77
g58
NtRp159
(dp160
g61
(dp161
sg70
g146
sg63
(lp162
g56
(g57
g58
NtRp163
(dp164
g61
(dp165
g69
I5
ssg70
g159
sg63
(lp166
S'<cStringIO.StringO object at 0x3676298>'
p167
asbasbasbag56
(g72
g58
NtRp168
(dp169
g61
(dp170
sg70
g66
sg63
(lp171
g56
(g77
g58
NtRp172
(dp173
g61
(dp174
g81
g82
ssg70
g168
sg63
(lp175
S'client'
p176
asbag56
(g77
g58
NtRp177
(dp178
g61
(dp179
g88
g89
ssg70
g168
sg63
(lp180
S':'
asbag56
(g77
g58
NtRp181
(dp182
g61
(dp183
sg70
g168
sg63
(lp184
g56
(g57
g58
NtRp185
(dp186
g61
(dp187
g69
I5
ssg70
g181
sg63
(lp188
S'127.0.0.1'
p189
asbasbasbag56
(g72
g58
NtRp190
(dp191
g61
(dp192
sg70
g66
sg63
(lp193
g56
(g77
g58
NtRp194
(dp195
g61
(dp196
g81
g82
ssg70
g190
sg63
(lp197
S'controller'
p198
asbag56
(g77
g58
NtRp199
(dp200
g61
(dp201
g88
g89
ssg70
g190
sg63
(lp202
S':'
asbag56
(g77
g58
NtRp203
(dp204
g61
(dp205
sg70
g190
sg63
(lp206
g56
(g57
g58
NtRp207
(dp208
g61
(dp209
g69
I5
ssg70
g203
sg63
(lp210
S'default'
p211
asbasbasbag56
(g72
g58
NtRp212
(dp213
g61
(dp214
sg70
g66
sg63
(lp215
g56
(g77
g58
NtRp216
(dp217
g61
(dp218
g81
g82
ssg70
g212
sg63
(lp219
S'cookies'
p220
asbag56
(g77
g58
NtRp221
(dp222
g61
(dp223
g88
g89
ssg70
g212
sg63
(lp224
S':'
asbag56
(g77
g58
NtRp225
(dp226
g61
(dp227
sg70
g212
sg63
(lp228
g56
(g57
g58
NtRp229
(dp230
g61
(dp231
g69
I5
ssg70
g225
sg63
(lp232
g56
(g65
g58
NtRp233
(dp234
g61
(dp235
g69
I4
ssg70
Nsg63
(lp236
g56
(g72
g58
NtRp237
(dp238
g61
(dp239
sg70
g233
sg63
(lp240
g56
(g77
g58
NtRp241
(dp242
g61
(dp243
g81
g82
ssg70
g237
sg63
(lp244
S'session_id_admin'
p245
asbag56
(g77
g58
NtRp246
(dp247
g61
(dp248
g88
g89
ssg70
g237
sg63
(lp249
S':'
asbag56
(g77
g58
NtRp250
(dp251
g61
(dp252
sg70
g237
sg63
(lp253
g56
(g57
g58
NtRp254
(dp255
g61
(dp256
g69
I4
ssg70
g250
sg63
(lp257
g56
(g65
g58
NtRp258
(dp259
g61
(dp260
g69
I3
ssg70
Nsg63
(lp261
g56
(g72
g58
NtRp262
(dp263
g61
(dp264
sg70
g258
sg63
(lp265
g56
(g77
g58
NtRp266
(dp267
g61
(dp268
g81
g82
ssg70
g262
sg63
(lp269
S'comment'
p270
asbag56
(g77
g58
NtRp271
(dp272
g61
(dp273
g88
g89
ssg70
g262
sg63
(lp274
S':'
asbag56
(g77
g58
NtRp275
(dp276
g61
(dp277
sg70
g262
sg63
(lp278
g56
(g57
g58
NtRp279
(dp280
g61
(dp281
g69
I3
ssg70
g275
sg63
(lp282
S''
asbasbasbag56
(g72
g58
NtRp283
(dp284
g61
(dp285
sg70
g258
sg63
(lp286
g56
(g77
g58
NtRp287
(dp288
g61
(dp289
g81
g82
ssg70
g283
sg63
(lp290
S'domain'
p291
asbag56
(g77
g58
NtRp292
(dp293
g61
(dp294
g88
g89
ssg70
g283
sg63
(lp295
S':'
asbag56
(g77
g58
NtRp296
(dp297
g61
(dp298
sg70
g283
sg63
(lp299
g56
(g57
g58
NtRp300
(dp301
g61
(dp302
g69
I3
ssg70
g296
sg63
(lp303
S''
asbasbasbag56
(g72
g58
NtRp304
(dp305
g61
(dp306
sg70
g258
sg63
(lp307
g56
(g77
g58
NtRp308
(dp309
g61
(dp310
g81
g82
ssg70
g304
sg63
(lp311
S'expires'
p312
asbag56
(g77
g58
NtRp313
(dp314
g61
(dp315
g88
g89
ssg70
g304
sg63
(lp316
S':'
asbag56
(g77
g58
NtRp317
(dp318
g61
(dp319
sg70
g304
sg63
(lp320
g56
(g57
g58
NtRp321
(dp322
g61
(dp323
g69
I3
ssg70
g317
sg63
(lp324
S''
asbasbasbag56
(g72
g58
NtRp325
(dp326
g61
(dp327
sg70
g258
sg63
(lp328
g56
(g77
g58
NtRp329
(dp330
g61
(dp331
g81
g82
ssg70
g325
sg63
(lp332
S'httponly'
p333
asbag56
(g77
g58
NtRp334
(dp335
g61
(dp336
g88
g89
ssg70
g325
sg63
(lp337
S':'
asbag56
(g77
g58
NtRp338
(dp339
g61
(dp340
sg70
g325
sg63
(lp341
g56
(g57
g58
NtRp342
(dp343
g61
(dp344
g69
I3
ssg70
g338
sg63
(lp345
S''
asbasbasbag56
(g72
g58
NtRp346
(dp347
g61
(dp348
sg70
g258
sg63
(lp349
g56
(g77
g58
NtRp350
(dp351
g61
(dp352
g81
g82
ssg70
g346
sg63
(lp353
S'max-age'
p354
asbag56
(g77
g58
NtRp355
(dp356
g61
(dp357
g88
g89
ssg70
g346
sg63
(lp358
S':'
asbag56
(g77
g58
NtRp359
(dp360
g61
(dp361
sg70
g346
sg63
(lp362
g56
(g57
g58
NtRp363
(dp364
g61
(dp365
g69
I3
ssg70
g359
sg63
(lp366
S''
asbasbasbag56
(g72
g58
NtRp367
(dp368
g61
(dp369
sg70
g258
sg63
(lp370
g56
(g77
g58
NtRp371
(dp372
g61
(dp373
g81
g82
ssg70
g367
sg63
(lp374
S'path'
p375
asbag56
(g77
g58
NtRp376
(dp377
g61
(dp378
g88
g89
ssg70
g367
sg63
(lp379
S':'
asbag56
(g77
g58
NtRp380
(dp381
g61
(dp382
sg70
g367
sg63
(lp383
g56
(g57
g58
NtRp384
(dp385
g61
(dp386
g69
I3
ssg70
g380
sg63
(lp387
S''
asbasbasbag56
(g72
g58
NtRp388
(dp389
g61
(dp390
sg70
g258
sg63
(lp391
g56
(g77
g58
NtRp392
(dp393
g61
(dp394
g81
g82
ssg70
g388
sg63
(lp395
S'secure'
p396
asbag56
(g77
g58
NtRp397
(dp398
g61
(dp399
g88
g89
ssg70
g388
sg63
(lp400
S':'
asbag56
(g77
g58
NtRp401
(dp402
g61
(dp403
sg70
g388
sg63
(lp404
g56
(g57
g58
NtRp405
(dp406
g61
(dp407
g69
I3
ssg70
g401
sg63
(lp408
S''
asbasbasbag56
(g72
g58
NtRp409
(dp410
g61
(dp411
sg70
g258
sg63
(lp412
g56
(g77
g58
NtRp413
(dp414
g61
(dp415
g81
g82
ssg70
g409
sg63
(lp416
S'version'
p417
asbag56
(g77
g58
NtRp418
(dp419
g61
(dp420
g88
g89
ssg70
g409
sg63
(lp421
S':'
asbag56
(g77
g58
NtRp422
(dp423
g61
(dp424
sg70
g409
sg63
(lp425
g56
(g57
g58
NtRp426
(dp427
g61
(dp428
g69
I3
ssg70
g422
sg63
(lp429
S''
asbasbasbasbasbasbasbag56
(g72
g58
NtRp430
(dp431
g61
(dp432
sg70
g233
sg63
(lp433
g56
(g77
g58
NtRp434
(dp435
g61
(dp436
g81
g82
ssg70
g430
sg63
(lp437
S'session_id_blog'
p438
asbag56
(g77
g58
NtRp439
(dp440
g61
(dp441
g88
g89
ssg70
g430
sg63
(lp442
S':'
asbag56
(g77
g58
NtRp443
(dp444
g61
(dp445
sg70
g430
sg63
(lp446
g56
(g57
g58
NtRp447
(dp448
g61
(dp449
g69
I4
ssg70
g443
sg63
(lp450
g56
(g65
g58
NtRp451
(dp452
g61
(dp453
g69
I3
ssg70
Nsg63
(lp454
g56
(g72
g58
NtRp455
(dp456
g61
(dp457
sg70
g451
sg63
(lp458
g56
(g77
g58
NtRp459
(dp460
g61
(dp461
g81
g82
ssg70
g455
sg63
(lp462
g270
asbag56
(g77
g58
NtRp463
(dp464
g61
(dp465
g88
g89
ssg70
g455
sg63
(lp466
S':'
asbag56
(g77
g58
NtRp467
(dp468
g61
(dp469
sg70
g455
sg63
(lp470
g56
(g57
g58
NtRp471
(dp472
g61
(dp473
g69
I3
ssg70
g467
sg63
(lp474
S''
asbasbasbag56
(g72
g58
NtRp475
(dp476
g61
(dp477
sg70
g451
sg63
(lp478
g56
(g77
g58
NtRp479
(dp480
g61
(dp481
g81
g82
ssg70
g475
sg63
(lp482
g291
asbag56
(g77
g58
NtRp483
(dp484
g61
(dp485
g88
g89
ssg70
g475
sg63
(lp486
S':'
asbag56
(g77
g58
NtRp487
(dp488
g61
(dp489
sg70
g475
sg63
(lp490
g56
(g57
g58
NtRp491
(dp492
g61
(dp493
g69
I3
ssg70
g487
sg63
(lp494
S''
asbasbasbag56
(g72
g58
NtRp495
(dp496
g61
(dp497
sg70
g451
sg63
(lp498
g56
(g77
g58
NtRp499
(dp500
g61
(dp501
g81
g82
ssg70
g495
sg63
(lp502
g312
asbag56
(g77
g58
NtRp503
(dp504
g61
(dp505
g88
g89
ssg70
g495
sg63
(lp506
S':'
asbag56
(g77
g58
NtRp507
(dp508
g61
(dp509
sg70
g495
sg63
(lp510
g56
(g57
g58
NtRp511
(dp512
g61
(dp513
g69
I3
ssg70
g507
sg63
(lp514
S''
asbasbasbag56
(g72
g58
NtRp515
(dp516
g61
(dp517
sg70
g451
sg63
(lp518
g56
(g77
g58
NtRp519
(dp520
g61
(dp521
g81
g82
ssg70
g515
sg63
(lp522
g333
asbag56
(g77
g58
NtRp523
(dp524
g61
(dp525
g88
g89
ssg70
g515
sg63
(lp526
S':'
asbag56
(g77
g58
NtRp527
(dp528
g61
(dp529
sg70
g515
sg63
(lp530
g56
(g57
g58
NtRp531
(dp532
g61
(dp533
g69
I3
ssg70
g527
sg63
(lp534
S''
asbasbasbag56
(g72
g58
NtRp535
(dp536
g61
(dp537
sg70
g451
sg63
(lp538
g56
(g77
g58
NtRp539
(dp540
g61
(dp541
g81
g82
ssg70
g535
sg63
(lp542
g354
asbag56
(g77
g58
NtRp543
(dp544
g61
(dp545
g88
g89
ssg70
g535
sg63
(lp546
S':'
asbag56
(g77
g58
NtRp547
(dp548
g61
(dp549
sg70
g535
sg63
(lp550
g56
(g57
g58
NtRp551
(dp552
g61
(dp553
g69
I3
ssg70
g547
sg63
(lp554
S''
asbasbasbag56
(g72
g58
NtRp555
(dp556
g61
(dp557
sg70
g451
sg63
(lp558
g56
(g77
g58
NtRp559
(dp560
g61
(dp561
g81
g82
ssg70
g555
sg63
(lp562
g375
asbag56
(g77
g58
NtRp563
(dp564
g61
(dp565
g88
g89
ssg70
g555
sg63
(lp566
S':'
asbag56
(g77
g58
NtRp567
(dp568
g61
(dp569
sg70
g555
sg63
(lp570
g56
(g57
g58
NtRp571
(dp572
g61
(dp573
g69
I3
ssg70
g567
sg63
(lp574
S''
asbasbasbag56
(g72
g58
NtRp575
(dp576
g61
(dp577
sg70
g451
sg63
(lp578
g56
(g77
g58
NtRp579
(dp580
g61
(dp581
g81
g82
ssg70
g575
sg63
(lp582
g396
asbag56
(g77
g58
NtRp583
(dp584
g61
(dp585
g88
g89
ssg70
g575
sg63
(lp586
S':'
asbag56
(g77
g58
NtRp587
(dp588
g61
(dp589
sg70
g575
sg63
(lp590
g56
(g57
g58
NtRp591
(dp592
g61
(dp593
g69
I3
ssg70
g587
sg63
(lp594
S''
asbasbasbag56
(g72
g58
NtRp595
(dp596
g61
(dp597
sg70
g451
sg63
(lp598
g56
(g77
g58
NtRp599
(dp600
g61
(dp601
g81
g82
ssg70
g595
sg63
(lp602
g417
asbag56
(g77
g58
NtRp603
(dp604
g61
(dp605
g88
g89
ssg70
g595
sg63
(lp606
S':'
asbag56
(g77
g58
NtRp607
(dp608
g61
(dp609
sg70
g595
sg63
(lp610
g56
(g57
g58
NtRp611
(dp612
g61
(dp613
g69
I3
ssg70
g607
sg63
(lp614
S''
asbasbasbasbasbasbasbag56
(g72
g58
NtRp615
(dp616
g61
(dp617
sg70
g233
sg63
(lp618
g56
(g77
g58
NtRp619
(dp620
g61
(dp621
g81
g82
ssg70
g615
sg63
(lp622
S'session_id_paideia'
p623
asbag56
(g77
g58
NtRp624
(dp625
g61
(dp626
g88
g89
ssg70
g615
sg63
(lp627
S':'
asbag56
(g77
g58
NtRp628
(dp629
g61
(dp630
sg70
g615
sg63
(lp631
g56
(g57
g58
NtRp632
(dp633
g61
(dp634
g69
I4
ssg70
g628
sg63
(lp635
g56
(g65
g58
NtRp636
(dp637
g61
(dp638
g69
I3
ssg70
Nsg63
(lp639
g56
(g72
g58
NtRp640
(dp641
g61
(dp642
sg70
g636
sg63
(lp643
g56
(g77
g58
NtRp644
(dp645
g61
(dp646
g81
g82
ssg70
g640
sg63
(lp647
g270
asbag56
(g77
g58
NtRp648
(dp649
g61
(dp650
g88
g89
ssg70
g640
sg63
(lp651
S':'
asbag56
(g77
g58
NtRp652
(dp653
g61
(dp654
sg70
g640
sg63
(lp655
g56
(g57
g58
NtRp656
(dp657
g61
(dp658
g69
I3
ssg70
g652
sg63
(lp659
S''
asbasbasbag56
(g72
g58
NtRp660
(dp661
g61
(dp662
sg70
g636
sg63
(lp663
g56
(g77
g58
NtRp664
(dp665
g61
(dp666
g81
g82
ssg70
g660
sg63
(lp667
g291
asbag56
(g77
g58
NtRp668
(dp669
g61
(dp670
g88
g89
ssg70
g660
sg63
(lp671
S':'
asbag56
(g77
g58
NtRp672
(dp673
g61
(dp674
sg70
g660
sg63
(lp675
g56
(g57
g58
NtRp676
(dp677
g61
(dp678
g69
I3
ssg70
g672
sg63
(lp679
S''
asbasbasbag56
(g72
g58
NtRp680
(dp681
g61
(dp682
sg70
g636
sg63
(lp683
g56
(g77
g58
NtRp684
(dp685
g61
(dp686
g81
g82
ssg70
g680
sg63
(lp687
g312
asbag56
(g77
g58
NtRp688
(dp689
g61
(dp690
g88
g89
ssg70
g680
sg63
(lp691
S':'
asbag56
(g77
g58
NtRp692
(dp693
g61
(dp694
sg70
g680
sg63
(lp695
g56
(g57
g58
NtRp696
(dp697
g61
(dp698
g69
I3
ssg70
g692
sg63
(lp699
S''
asbasbasbag56
(g72
g58
NtRp700
(dp701
g61
(dp702
sg70
g636
sg63
(lp703
g56
(g77
g58
NtRp704
(dp705
g61
(dp706
g81
g82
ssg70
g700
sg63
(lp707
g333
asbag56
(g77
g58
NtRp708
(dp709
g61
(dp710
g88
g89
ssg70
g700
sg63
(lp711
S':'
asbag56
(g77
g58
NtRp712
(dp713
g61
(dp714
sg70
g700
sg63
(lp715
g56
(g57
g58
NtRp716
(dp717
g61
(dp718
g69
I3
ssg70
g712
sg63
(lp719
S''
asbasbasbag56
(g72
g58
NtRp720
(dp721
g61
(dp722
sg70
g636
sg63
(lp723
g56
(g77
g58
NtRp724
(dp725
g61
(dp726
g81
g82
ssg70
g720
sg63
(lp727
g354
asbag56
(g77
g58
NtRp728
(dp729
g61
(dp730
g88
g89
ssg70
g720
sg63
(lp731
S':'
asbag56
(g77
g58
NtRp732
(dp733
g61
(dp734
sg70
g720
sg63
(lp735
g56
(g57
g58
NtRp736
(dp737
g61
(dp738
g69
I3
ssg70
g732
sg63
(lp739
S''
asbasbasbag56
(g72
g58
NtRp740
(dp741
g61
(dp742
sg70
g636
sg63
(lp743
g56
(g77
g58
NtRp744
(dp745
g61
(dp746
g81
g82
ssg70
g740
sg63
(lp747
g375
asbag56
(g77
g58
NtRp748
(dp749
g61
(dp750
g88
g89
ssg70
g740
sg63
(lp751
S':'
asbag56
(g77
g58
NtRp752
(dp753
g61
(dp754
sg70
g740
sg63
(lp755
g56
(g57
g58
NtRp756
(dp757
g61
(dp758
g69
I3
ssg70
g752
sg63
(lp759
S''
asbasbasbag56
(g72
g58
NtRp760
(dp761
g61
(dp762
sg70
g636
sg63
(lp763
g56
(g77
g58
NtRp764
(dp765
g61
(dp766
g81
g82
ssg70
g760
sg63
(lp767
g396
asbag56
(g77
g58
NtRp768
(dp769
g61
(dp770
g88
g89
ssg70
g760
sg63
(lp771
S':'
asbag56
(g77
g58
NtRp772
(dp773
g61
(dp774
sg70
g760
sg63
(lp775
g56
(g57
g58
NtRp776
(dp777
g61
(dp778
g69
I3
ssg70
g772
sg63
(lp779
S''
asbasbasbag56
(g72
g58
NtRp780
(dp781
g61
(dp782
sg70
g636
sg63
(lp783
g56
(g77
g58
NtRp784
(dp785
g61
(dp786
g81
g82
ssg70
g780
sg63
(lp787
g417
asbag56
(g77
g58
NtRp788
(dp789
g61
(dp790
g88
g89
ssg70
g780
sg63
(lp791
S':'
asbag56
(g77
g58
NtRp792
(dp793
g61
(dp794
sg70
g780
sg63
(lp795
g56
(g57
g58
NtRp796
(dp797
g61
(dp798
g69
I3
ssg70
g792
sg63
(lp799
S''
asbasbasbasbasbasbasbag56
(g72
g58
NtRp800
(dp801
g61
(dp802
sg70
g233
sg63
(lp803
g56
(g77
g58
NtRp804
(dp805
g61
(dp806
g81
g82
ssg70
g800
sg63
(lp807
S'session_id_places'
p808
asbag56
(g77
g58
NtRp809
(dp810
g61
(dp811
g88
g89
ssg70
g800
sg63
(lp812
S':'
asbag56
(g77
g58
NtRp813
(dp814
g61
(dp815
sg70
g800
sg63
(lp816
g56
(g57
g58
NtRp817
(dp818
g61
(dp819
g69
I4
ssg70
g813
sg63
(lp820
g56
(g65
g58
NtRp821
(dp822
g61
(dp823
g69
I3
ssg70
Nsg63
(lp824
g56
(g72
g58
NtRp825
(dp826
g61
(dp827
sg70
g821
sg63
(lp828
g56
(g77
g58
NtRp829
(dp830
g61
(dp831
g81
g82
ssg70
g825
sg63
(lp832
g270
asbag56
(g77
g58
NtRp833
(dp834
g61
(dp835
g88
g89
ssg70
g825
sg63
(lp836
S':'
asbag56
(g77
g58
NtRp837
(dp838
g61
(dp839
sg70
g825
sg63
(lp840
g56
(g57
g58
NtRp841
(dp842
g61
(dp843
g69
I3
ssg70
g837
sg63
(lp844
S''
asbasbasbag56
(g72
g58
NtRp845
(dp846
g61
(dp847
sg70
g821
sg63
(lp848
g56
(g77
g58
NtRp849
(dp850
g61
(dp851
g81
g82
ssg70
g845
sg63
(lp852
g291
asbag56
(g77
g58
NtRp853
(dp854
g61
(dp855
g88
g89
ssg70
g845
sg63
(lp856
S':'
asbag56
(g77
g58
NtRp857
(dp858
g61
(dp859
sg70
g845
sg63
(lp860
g56
(g57
g58
NtRp861
(dp862
g61
(dp863
g69
I3
ssg70
g857
sg63
(lp864
S''
asbasbasbag56
(g72
g58
NtRp865
(dp866
g61
(dp867
sg70
g821
sg63
(lp868
g56
(g77
g58
NtRp869
(dp870
g61
(dp871
g81
g82
ssg70
g865
sg63
(lp872
g312
asbag56
(g77
g58
NtRp873
(dp874
g61
(dp875
g88
g89
ssg70
g865
sg63
(lp876
S':'
asbag56
(g77
g58
NtRp877
(dp878
g61
(dp879
sg70
g865
sg63
(lp880
g56
(g57
g58
NtRp881
(dp882
g61
(dp883
g69
I3
ssg70
g877
sg63
(lp884
S''
asbasbasbag56
(g72
g58
NtRp885
(dp886
g61
(dp887
sg70
g821
sg63
(lp888
g56
(g77
g58
NtRp889
(dp890
g61
(dp891
g81
g82
ssg70
g885
sg63
(lp892
g333
asbag56
(g77
g58
NtRp893
(dp894
g61
(dp895
g88
g89
ssg70
g885
sg63
(lp896
S':'
asbag56
(g77
g58
NtRp897
(dp898
g61
(dp899
sg70
g885
sg63
(lp900
g56
(g57
g58
NtRp901
(dp902
g61
(dp903
g69
I3
ssg70
g897
sg63
(lp904
S''
asbasbasbag56
(g72
g58
NtRp905
(dp906
g61
(dp907
sg70
g821
sg63
(lp908
g56
(g77
g58
NtRp909
(dp910
g61
(dp911
g81
g82
ssg70
g905
sg63
(lp912
g354
asbag56
(g77
g58
NtRp913
(dp914
g61
(dp915
g88
g89
ssg70
g905
sg63
(lp916
S':'
asbag56
(g77
g58
NtRp917
(dp918
g61
(dp919
sg70
g905
sg63
(lp920
g56
(g57
g58
NtRp921
(dp922
g61
(dp923
g69
I3
ssg70
g917
sg63
(lp924
S''
asbasbasbag56
(g72
g58
NtRp925
(dp926
g61
(dp927
sg70
g821
sg63
(lp928
g56
(g77
g58
NtRp929
(dp930
g61
(dp931
g81
g82
ssg70
g925
sg63
(lp932
g375
asbag56
(g77
g58
NtRp933
(dp934
g61
(dp935
g88
g89
ssg70
g925
sg63
(lp936
S':'
asbag56
(g77
g58
NtRp937
(dp938
g61
(dp939
sg70
g925
sg63
(lp940
g56
(g57
g58
NtRp941
(dp942
g61
(dp943
g69
I3
ssg70
g937
sg63
(lp944
S''
asbasbasbag56
(g72
g58
NtRp945
(dp946
g61
(dp947
sg70
g821
sg63
(lp948
g56
(g77
g58
NtRp949
(dp950
g61
(dp951
g81
g82
ssg70
g945
sg63
(lp952
g396
asbag56
(g77
g58
NtRp953
(dp954
g61
(dp955
g88
g89
ssg70
g945
sg63
(lp956
S':'
asbag56
(g77
g58
NtRp957
(dp958
g61
(dp959
sg70
g945
sg63
(lp960
g56
(g57
g58
NtRp961
(dp962
g61
(dp963
g69
I3
ssg70
g957
sg63
(lp964
S''
asbasbasbag56
(g72
g58
NtRp965
(dp966
g61
(dp967
sg70
g821
sg63
(lp968
g56
(g77
g58
NtRp969
(dp970
g61
(dp971
g81
g82
ssg70
g965
sg63
(lp972
g417
asbag56
(g77
g58
NtRp973
(dp974
g61
(dp975
g88
g89
ssg70
g965
sg63
(lp976
S':'
asbag56
(g77
g58
NtRp977
(dp978
g61
(dp979
sg70
g965
sg63
(lp980
g56
(g57
g58
NtRp981
(dp982
g61
(dp983
g69
I3
ssg70
g977
sg63
(lp984
S''
asbasbasbasbasbasbasbag56
(g72
g58
NtRp985
(dp986
g61
(dp987
sg70
g233
sg63
(lp988
g56
(g77
g58
NtRp989
(dp990
g61
(dp991
g81
g82
ssg70
g985
sg63
(lp992
S'session_id_welcome'
p993
asbag56
(g77
g58
NtRp994
(dp995
g61
(dp996
g88
g89
ssg70
g985
sg63
(lp997
S':'
asbag56
(g77
g58
NtRp998
(dp999
g61
(dp1000
sg70
g985
sg63
(lp1001
g56
(g57
g58
NtRp1002
(dp1003
g61
(dp1004
g69
I4
ssg70
g998
sg63
(lp1005
g56
(g65
g58
NtRp1006
(dp1007
g61
(dp1008
g69
I3
ssg70
Nsg63
(lp1009
g56
(g72
g58
NtRp1010
(dp1011
g61
(dp1012
sg70
g1006
sg63
(lp1013
g56
(g77
g58
NtRp1014
(dp1015
g61
(dp1016
g81
g82
ssg70
g1010
sg63
(lp1017
g270
asbag56
(g77
g58
NtRp1018
(dp1019
g61
(dp1020
g88
g89
ssg70
g1010
sg63
(lp1021
S':'
asbag56
(g77
g58
NtRp1022
(dp1023
g61
(dp1024
sg70
g1010
sg63
(lp1025
g56
(g57
g58
NtRp1026
(dp1027
g61
(dp1028
g69
I3
ssg70
g1022
sg63
(lp1029
S''
asbasbasbag56
(g72
g58
NtRp1030
(dp1031
g61
(dp1032
sg70
g1006
sg63
(lp1033
g56
(g77
g58
NtRp1034
(dp1035
g61
(dp1036
g81
g82
ssg70
g1030
sg63
(lp1037
g291
asbag56
(g77
g58
NtRp1038
(dp1039
g61
(dp1040
g88
g89
ssg70
g1030
sg63
(lp1041
S':'
asbag56
(g77
g58
NtRp1042
(dp1043
g61
(dp1044
sg70
g1030
sg63
(lp1045
g56
(g57
g58
NtRp1046
(dp1047
g61
(dp1048
g69
I3
ssg70
g1042
sg63
(lp1049
S''
asbasbasbag56
(g72
g58
NtRp1050
(dp1051
g61
(dp1052
sg70
g1006
sg63
(lp1053
g56
(g77
g58
NtRp1054
(dp1055
g61
(dp1056
g81
g82
ssg70
g1050
sg63
(lp1057
g312
asbag56
(g77
g58
NtRp1058
(dp1059
g61
(dp1060
g88
g89
ssg70
g1050
sg63
(lp1061
S':'
asbag56
(g77
g58
NtRp1062
(dp1063
g61
(dp1064
sg70
g1050
sg63
(lp1065
g56
(g57
g58
NtRp1066
(dp1067
g61
(dp1068
g69
I3
ssg70
g1062
sg63
(lp1069
S''
asbasbasbag56
(g72
g58
NtRp1070
(dp1071
g61
(dp1072
sg70
g1006
sg63
(lp1073
g56
(g77
g58
NtRp1074
(dp1075
g61
(dp1076
g81
g82
ssg70
g1070
sg63
(lp1077
g333
asbag56
(g77
g58
NtRp1078
(dp1079
g61
(dp1080
g88
g89
ssg70
g1070
sg63
(lp1081
S':'
asbag56
(g77
g58
NtRp1082
(dp1083
g61
(dp1084
sg70
g1070
sg63
(lp1085
g56
(g57
g58
NtRp1086
(dp1087
g61
(dp1088
g69
I3
ssg70
g1082
sg63
(lp1089
S''
asbasbasbag56
(g72
g58
NtRp1090
(dp1091
g61
(dp1092
sg70
g1006
sg63
(lp1093
g56
(g77
g58
NtRp1094
(dp1095
g61
(dp1096
g81
g82
ssg70
g1090
sg63
(lp1097
g354
asbag56
(g77
g58
NtRp1098
(dp1099
g61
(dp1100
g88
g89
ssg70
g1090
sg63
(lp1101
S':'
asbag56
(g77
g58
NtRp1102
(dp1103
g61
(dp1104
sg70
g1090
sg63
(lp1105
g56
(g57
g58
NtRp1106
(dp1107
g61
(dp1108
g69
I3
ssg70
g1102
sg63
(lp1109
S''
asbasbasbag56
(g72
g58
NtRp1110
(dp1111
g61
(dp1112
sg70
g1006
sg63
(lp1113
g56
(g77
g58
NtRp1114
(dp1115
g61
(dp1116
g81
g82
ssg70
g1110
sg63
(lp1117
g375
asbag56
(g77
g58
NtRp1118
(dp1119
g61
(dp1120
g88
g89
ssg70
g1110
sg63
(lp1121
S':'
asbag56
(g77
g58
NtRp1122
(dp1123
g61
(dp1124
sg70
g1110
sg63
(lp1125
g56
(g57
g58
NtRp1126
(dp1127
g61
(dp1128
g69
I3
ssg70
g1122
sg63
(lp1129
S''
asbasbasbag56
(g72
g58
NtRp1130
(dp1131
g61
(dp1132
sg70
g1006
sg63
(lp1133
g56
(g77
g58
NtRp1134
(dp1135
g61
(dp1136
g81
g82
ssg70
g1130
sg63
(lp1137
g396
asbag56
(g77
g58
NtRp1138
(dp1139
g61
(dp1140
g88
g89
ssg70
g1130
sg63
(lp1141
S':'
asbag56
(g77
g58
NtRp1142
(dp1143
g61
(dp1144
sg70
g1130
sg63
(lp1145
g56
(g57
g58
NtRp1146
(dp1147
g61
(dp1148
g69
I3
ssg70
g1142
sg63
(lp1149
S''
asbasbasbag56
(g72
g58
NtRp1150
(dp1151
g61
(dp1152
sg70
g1006
sg63
(lp1153
g56
(g77
g58
NtRp1154
(dp1155
g61
(dp1156
g81
g82
ssg70
g1150
sg63
(lp1157
g417
asbag56
(g77
g58
NtRp1158
(dp1159
g61
(dp1160
g88
g89
ssg70
g1150
sg63
(lp1161
S':'
asbag56
(g77
g58
NtRp1162
(dp1163
g61
(dp1164
sg70
g1150
sg63
(lp1165
g56
(g57
g58
NtRp1166
(dp1167
g61
(dp1168
g69
I3
ssg70
g1162
sg63
(lp1169
S''
asbasbasbasbasbasbasbasbasbasbasbag56
(g72
g58
NtRp1170
(dp1171
g61
(dp1172
sg70
g66
sg63
(lp1173
g56
(g77
g58
NtRp1174
(dp1175
g61
(dp1176
g81
g82
ssg70
g1170
sg63
(lp1177
S'env'
p1178
asbag56
(g77
g58
NtRp1179
(dp1180
g61
(dp1181
g88
g89
ssg70
g1170
sg63
(lp1182
S':'
asbag56
(g77
g58
NtRp1183
(dp1184
g61
(dp1185
sg70
g1170
sg63
(lp1186
g56
(g57
g58
NtRp1187
(dp1188
g61
(dp1189
g69
I5
ssg70
g1183
sg63
(lp1190
g56
(g65
g58
NtRp1191
(dp1192
g61
(dp1193
g69
I4
ssg70
Nsg63
(lp1194
g56
(g72
g58
NtRp1195
(dp1196
g61
(dp1197
sg70
g1191
sg63
(lp1198
g56
(g77
g58
NtRp1199
(dp1200
g61
(dp1201
g81
g82
ssg70
g1195
sg63
(lp1202
S'app_folders'
p1203
asbag56
(g77
g58
NtRp1204
(dp1205
g61
(dp1206
g88
g89
ssg70
g1195
sg63
(lp1207
S':'
asbag56
(g77
g58
NtRp1208
(dp1209
g61
(dp1210
sg70
g1195
sg63
(lp1211
g56
(g57
g58
NtRp1212
(dp1213
g61
(dp1214
g69
I4
ssg70
g1208
sg63
(lp1215
S"set(['/home/ian/Dropbox/Web_Pages/web2py-linux/applications/blog/', '/home/ian/Dropbox/Web_Pages/web2py-linux/applications/places/', '/home/ian/Dropbox/Web_Pages/web2py-linux/applications/Paideia/', '/home/ian/Dropbox/Web_Pages/web2py-linux/applications/admin/', '/home/ian/Dropbox/Web_Pages/web2py-linux/applications/welcome/'])"
p1216
asbasbasbag56
(g72
g58
NtRp1217
(dp1218
g61
(dp1219
sg70
g1191
sg63
(lp1220
g56
(g77
g58
NtRp1221
(dp1222
g61
(dp1223
g81
g82
ssg70
g1217
sg63
(lp1224
S'applications_parent'
p1225
asbag56
(g77
g58
NtRp1226
(dp1227
g61
(dp1228
g88
g89
ssg70
g1217
sg63
(lp1229
S':'
asbag56
(g77
g58
NtRp1230
(dp1231
g61
(dp1232
sg70
g1217
sg63
(lp1233
g56
(g57
g58
NtRp1234
(dp1235
g61
(dp1236
g69
I4
ssg70
g1230
sg63
(lp1237
S'/home/ian/Dropbox/Web_Pages/web2py-linux'
p1238
asbasbasbag56
(g72
g58
NtRp1239
(dp1240
g61
(dp1241
sg70
g1191
sg63
(lp1242
g56
(g77
g58
NtRp1243
(dp1244
g61
(dp1245
g81
g82
ssg70
g1239
sg63
(lp1246
S'cmd_args'
p1247
asbag56
(g77
g58
NtRp1248
(dp1249
g61
(dp1250
g88
g89
ssg70
g1239
sg63
(lp1251
S':'
asbag56
(g77
g58
NtRp1252
(dp1253
g61
(dp1254
sg70
g1239
sg63
(lp1255
g56
(g57
g58
NtRp1256
(dp1257
g61
(dp1258
g69
I4
ssg70
g1252
sg63
(lp1259
g56
(g65
g58
NtRp1260
(dp1261
g61
(dp1262
g69
I3
ssg70
Nsg63
(lp1263
sbasbasbasbag56
(g72
g58
NtRp1264
(dp1265
g61
(dp1266
sg70
g1191
sg63
(lp1267
g56
(g77
g58
NtRp1268
(dp1269
g61
(dp1270
g81
g82
ssg70
g1264
sg63
(lp1271
S'cmd_options'
p1272
asbag56
(g77
g58
NtRp1273
(dp1274
g61
(dp1275
g88
g89
ssg70
g1264
sg63
(lp1276
S':'
asbag56
(g77
g58
NtRp1277
(dp1278
g61
(dp1279
sg70
g1264
sg63
(lp1280
g56
(g57
g58
NtRp1281
(dp1282
g61
(dp1283
g69
I4
ssg70
g1277
sg63
(lp1284
S"<Values at 0x2723170: {'verbose': False, 'ip': '127.0.0.1', 'shutdown_timeout': 5, 'taskbar': False, 'nocron': False, 'pid_filename': 'httpserver.pid', 'maxthreads': None, 'softcron': False, 'server_name': 'uriel', 'bpython': False, 'nogui': False, 'port': 8000, 'extcron': False, 'debuglevel': 30, 'test': None, 'folder': '/home/ian/Dropbox/Web_Pages/web2py-linux', 'config': '', 'import_models': False, 'winservice': '', 'shell': None, 'run': '', 'log_filename': 'httpserver.log', 'args': [''], 'ssl_ca_certificate': None, 'scheduler': None, 'profiler_filename': None, 'ssl_private_key': '', 'password': '<ask>', 'request_queue_size': 5, 'ssl_certificate': '', 'cronjob': False, 'plain': False, 'quiet': False, 'interfaces': None, 'minthreads': None, 'timeout': 10, 'numthreads': None, 'nobanner': False}>"
p1285
asbasbasbag56
(g72
g58
NtRp1286
(dp1287
g61
(dp1288
sg70
g1191
sg63
(lp1289
g56
(g77
g58
NtRp1290
(dp1291
g61
(dp1292
g81
g82
ssg70
g1286
sg63
(lp1293
S'db_sessions'
p1294
asbag56
(g77
g58
NtRp1295
(dp1296
g61
(dp1297
g88
g89
ssg70
g1286
sg63
(lp1298
S':'
asbag56
(g77
g58
NtRp1299
(dp1300
g61
(dp1301
sg70
g1286
sg63
(lp1302
g56
(g57
g58
NtRp1303
(dp1304
g61
(dp1305
g69
I4
ssg70
g1299
sg63
(lp1306
S'set([])'
p1307
asbasbasbag56
(g72
g58
NtRp1308
(dp1309
g61
(dp1310
sg70
g1191
sg63
(lp1311
g56
(g77
g58
NtRp1312
(dp1313
g61
(dp1314
g81
g82
ssg70
g1308
sg63
(lp1315
S'debugging'
p1316
asbag56
(g77
g58
NtRp1317
(dp1318
g61
(dp1319
g88
g89
ssg70
g1308
sg63
(lp1320
S':'
asbag56
(g77
g58
NtRp1321
(dp1322
g61
(dp1323
sg70
g1308
sg63
(lp1324
g56
(g57
g58
NtRp1325
(dp1326
g61
(dp1327
g69
I4
ssg70
g1321
sg63
(lp1328
g99
asbasbasbag56
(g72
g58
NtRp1329
(dp1330
g61
(dp1331
sg70
g1191
sg63
(lp1332
g56
(g77
g58
NtRp1333
(dp1334
g61
(dp1335
g81
g82
ssg70
g1329
sg63
(lp1336
S'gluon_parent'
p1337
asbag56
(g77
g58
NtRp1338
(dp1339
g61
(dp1340
g88
g89
ssg70
g1329
sg63
(lp1341
S':'
asbag56
(g77
g58
NtRp1342
(dp1343
g61
(dp1344
sg70
g1329
sg63
(lp1345
g56
(g57
g58
NtRp1346
(dp1347
g61
(dp1348
g69
I4
ssg70
g1342
sg63
(lp1349
S'/home/ian/Dropbox/Web_Pages/web2py-linux'
p1350
asbasbasbag56
(g72
g58
NtRp1351
(dp1352
g61
(dp1353
sg70
g1191
sg63
(lp1354
g56
(g77
g58
NtRp1355
(dp1356
g61
(dp1357
g81
g82
ssg70
g1351
sg63
(lp1358
S'http_accept'
p1359
asbag56
(g77
g58
NtRp1360
(dp1361
g61
(dp1362
g88
g89
ssg70
g1351
sg63
(lp1363
S':'
asbag56
(g77
g58
NtRp1364
(dp1365
g61
(dp1366
sg70
g1351
sg63
(lp1367
g56
(g57
g58
NtRp1368
(dp1369
g61
(dp1370
g69
I4
ssg70
g1364
sg63
(lp1371
S'text/html,application/xhtml+xml,application/xml;q=0.9,*/*;q=0.8'
p1372
asbasbasbag56
(g72
g58
NtRp1373
(dp1374
g61
(dp1375
sg70
g1191
sg63
(lp1376
g56
(g77
g58
NtRp1377
(dp1378
g61
(dp1379
g81
g82
ssg70
g1373
sg63
(lp1380
S'http_accept_charset'
p1381
asbag56
(g77
g58
NtRp1382
(dp1383
g61
(dp1384
g88
g89
ssg70
g1373
sg63
(lp1385
S':'
asbag56
(g77
g58
NtRp1386
(dp1387
g61
(dp1388
sg70
g1373
sg63
(lp1389
g56
(g57
g58
NtRp1390
(dp1391
g61
(dp1392
g69
I4
ssg70
g1386
sg63
(lp1393
S'UTF-8,*'
p1394
asbasbasbag56
(g72
g58
NtRp1395
(dp1396
g61
(dp1397
sg70
g1191
sg63
(lp1398
g56
(g77
g58
NtRp1399
(dp1400
g61
(dp1401
g81
g82
ssg70
g1395
sg63
(lp1402
S'http_accept_encoding'
p1403
asbag56
(g77
g58
NtRp1404
(dp1405
g61
(dp1406
g88
g89
ssg70
g1395
sg63
(lp1407
S':'
asbag56
(g77
g58
NtRp1408
(dp1409
g61
(dp1410
sg70
g1395
sg63
(lp1411
g56
(g57
g58
NtRp1412
(dp1413
g61
(dp1414
g69
I4
ssg70
g1408
sg63
(lp1415
S'gzip, deflate'
p1416
asbasbasbag56
(g72
g58
NtRp1417
(dp1418
g61
(dp1419
sg70
g1191
sg63
(lp1420
g56
(g77
g58
NtRp1421
(dp1422
g61
(dp1423
g81
g82
ssg70
g1417
sg63
(lp1424
S'http_accept_language'
p1425
asbag56
(g77
g58
NtRp1426
(dp1427
g61
(dp1428
g88
g89
ssg70
g1417
sg63
(lp1429
S':'
asbag56
(g77
g58
NtRp1430
(dp1431
g61
(dp1432
sg70
g1417
sg63
(lp1433
g56
(g57
g58
NtRp1434
(dp1435
g61
(dp1436
g69
I4
ssg70
g1430
sg63
(lp1437
S'en-us,en;q=0.5'
p1438
asbasbasbag56
(g72
g58
NtRp1439
(dp1440
g61
(dp1441
sg70
g1191
sg63
(lp1442
g56
(g77
g58
NtRp1443
(dp1444
g61
(dp1445
g81
g82
ssg70
g1439
sg63
(lp1446
S'http_connection'
p1447
asbag56
(g77
g58
NtRp1448
(dp1449
g61
(dp1450
g88
g89
ssg70
g1439
sg63
(lp1451
S':'
asbag56
(g77
g58
NtRp1452
(dp1453
g61
(dp1454
sg70
g1439
sg63
(lp1455
g56
(g57
g58
NtRp1456
(dp1457
g61
(dp1458
g69
I4
ssg70
g1452
sg63
(lp1459
S'keep-alive'
p1460
asbasbasbag56
(g72
g58
NtRp1461
(dp1462
g61
(dp1463
sg70
g1191
sg63
(lp1464
g56
(g77
g58
NtRp1465
(dp1466
g61
(dp1467
g81
g82
ssg70
g1461
sg63
(lp1468
S'http_cookie'
p1469
asbag56
(g77
g58
NtRp1470
(dp1471
g61
(dp1472
g88
g89
ssg70
g1461
sg63
(lp1473
S':'
asbag56
(g77
g58
NtRp1474
(dp1475
g61
(dp1476
sg70
g1461
sg63
(lp1477
g56
(g57
g58
NtRp1478
(dp1479
g61
(dp1480
g69
I4
ssg70
g1474
sg63
(lp1481
S'session_id_blog=127.0.0.1-f221c588-e499-4b63-9882-f52e2f06907c; session_id_welcome=127.0.0.1-c5e18343-d06e-414a-bb07-23cb8cf7ceb8; session_id_paideia=127.0.0.1-81eff388-1cde-41fb-8887-06f0c09ce763; session_id_admin=127.0.0.1-f8ad7263-b87d-41ed-bbe2-215e5232b6dc; session_id_places=127.0.0.1-ae378f77-b944-4a55-be06-eed4ce913913'
p1482
asbasbasbag56
(g72
g58
NtRp1483
(dp1484
g61
(dp1485
sg70
g1191
sg63
(lp1486
g56
(g77
g58
NtRp1487
(dp1488
g61
(dp1489
g81
g82
ssg70
g1483
sg63
(lp1490
S'http_host'
p1491
asbag56
(g77
g58
NtRp1492
(dp1493
g61
(dp1494
g88
g89
ssg70
g1483
sg63
(lp1495
S':'
asbag56
(g77
g58
NtRp1496
(dp1497
g61
(dp1498
sg70
g1483
sg63
(lp1499
g56
(g57
g58
NtRp1500
(dp1501
g61
(dp1502
g69
I4
ssg70
g1496
sg63
(lp1503
S'127.0.0.1:8000'
p1504
asbasbasbag56
(g72
g58
NtRp1505
(dp1506
g61
(dp1507
sg70
g1191
sg63
(lp1508
g56
(g77
g58
NtRp1509
(dp1510
g61
(dp1511
g81
g82
ssg70
g1505
sg63
(lp1512
S'http_referer'
p1513
asbag56
(g77
g58
NtRp1514
(dp1515
g61
(dp1516
g88
g89
ssg70
g1505
sg63
(lp1517
S':'
asbag56
(g77
g58
NtRp1518
(dp1519
g61
(dp1520
sg70
g1505
sg63
(lp1521
g56
(g57
g58
NtRp1522
(dp1523
g61
(dp1524
g69
I4
ssg70
g1518
sg63
(lp1525
S'http://127.0.0.1:8000/places/'
p1526
asbasbasbag56
(g72
g58
NtRp1527
(dp1528
g61
(dp1529
sg70
g1191
sg63
(lp1530
g56
(g77
g58
NtRp1531
(dp1532
g61
(dp1533
g81
g82
ssg70
g1527
sg63
(lp1534
S'http_user_agent'
p1535
asbag56
(g77
g58
NtRp1536
(dp1537
g61
(dp1538
g88
g89
ssg70
g1527
sg63
(lp1539
S':'
asbag56
(g77
g58
NtRp1540
(dp1541
g61
(dp1542
sg70
g1527
sg63
(lp1543
g56
(g57
g58
NtRp1544
(dp1545
g61
(dp1546
g69
I4
ssg70
g1540
sg63
(lp1547
S'Mozilla/5.0 (X11; Linux x86_64; rv:7.0.1) Gecko/20100101 Firefox/7.0.1'
p1548
asbasbasbag56
(g72
g58
NtRp1549
(dp1550
g61
(dp1551
sg70
g1191
sg63
(lp1552
g56
(g77
g58
NtRp1553
(dp1554
g61
(dp1555
g81
g82
ssg70
g1549
sg63
(lp1556
S'is_jython'
p1557
asbag56
(g77
g58
NtRp1558
(dp1559
g61
(dp1560
g88
g89
ssg70
g1549
sg63
(lp1561
S':'
asbag56
(g77
g58
NtRp1562
(dp1563
g61
(dp1564
sg70
g1549
sg63
(lp1565
g56
(g57
g58
NtRp1566
(dp1567
g61
(dp1568
g69
I4
ssg70
g1562
sg63
(lp1569
g99
asbasbasbag56
(g72
g58
NtRp1570
(dp1571
g61
(dp1572
sg70
g1191
sg63
(lp1573
g56
(g77
g58
NtRp1574
(dp1575
g61
(dp1576
g81
g82
ssg70
g1570
sg63
(lp1577
S'path_info'
p1578
asbag56
(g77
g58
NtRp1579
(dp1580
g61
(dp1581
g88
g89
ssg70
g1570
sg63
(lp1582
S':'
asbag56
(g77
g58
NtRp1583
(dp1584
g61
(dp1585
sg70
g1570
sg63
(lp1586
g56
(g57
g58
NtRp1587
(dp1588
g61
(dp1589
g69
I4
ssg70
g1583
sg63
(lp1590
S'/places/default/index'
p1591
asbasbasbag56
(g72
g58
NtRp1592
(dp1593
g61
(dp1594
sg70
g1191
sg63
(lp1595
g56
(g77
g58
NtRp1596
(dp1597
g61
(dp1598
g81
g82
ssg70
g1592
sg63
(lp1599
S'query_string'
p1600
asbag56
(g77
g58
NtRp1601
(dp1602
g61
(dp1603
g88
g89
ssg70
g1592
sg63
(lp1604
S':'
asbag56
(g77
g58
NtRp1605
(dp1606
g61
(dp1607
sg70
g1592
sg63
(lp1608
g56
(g57
g58
NtRp1609
(dp1610
g61
(dp1611
g69
I4
ssg70
g1605
sg63
(lp1612
S''
asbasbasbag56
(g72
g58
NtRp1613
(dp1614
g61
(dp1615
sg70
g1191
sg63
(lp1616
g56
(g77
g58
NtRp1617
(dp1618
g61
(dp1619
g81
g82
ssg70
g1613
sg63
(lp1620
S'remote_addr'
p1621
asbag56
(g77
g58
NtRp1622
(dp1623
g61
(dp1624
g88
g89
ssg70
g1613
sg63
(lp1625
S':'
asbag56
(g77
g58
NtRp1626
(dp1627
g61
(dp1628
sg70
g1613
sg63
(lp1629
g56
(g57
g58
NtRp1630
(dp1631
g61
(dp1632
g69
I4
ssg70
g1626
sg63
(lp1633
g189
asbasbasbag56
(g72
g58
NtRp1634
(dp1635
g61
(dp1636
sg70
g1191
sg63
(lp1637
g56
(g77
g58
NtRp1638
(dp1639
g61
(dp1640
g81
g82
ssg70
g1634
sg63
(lp1641
S'remote_port'
p1642
asbag56
(g77
g58
NtRp1643
(dp1644
g61
(dp1645
g88
g89
ssg70
g1634
sg63
(lp1646
S':'
asbag56
(g77
g58
NtRp1647
(dp1648
g61
(dp1649
sg70
g1634
sg63
(lp1650
g56
(g57
g58
NtRp1651
(dp1652
g61
(dp1653
g69
I4
ssg70
g1647
sg63
(lp1654
S'59890'
p1655
asbasbasbag56
(g72
g58
NtRp1656
(dp1657
g61
(dp1658
sg70
g1191
sg63
(lp1659
g56
(g77
g58
NtRp1660
(dp1661
g61
(dp1662
g81
g82
ssg70
g1656
sg63
(lp1663
S'request_method'
p1664
asbag56
(g77
g58
NtRp1665
(dp1666
g61
(dp1667
g88
g89
ssg70
g1656
sg63
(lp1668
S':'
asbag56
(g77
g58
NtRp1669
(dp1670
g61
(dp1671
sg70
g1656
sg63
(lp1672
g56
(g57
g58
NtRp1673
(dp1674
g61
(dp1675
g69
I4
ssg70
g1669
sg63
(lp1676
S'GET'
p1677
asbasbasbag56
(g72
g58
NtRp1678
(dp1679
g61
(dp1680
sg70
g1191
sg63
(lp1681
g56
(g77
g58
NtRp1682
(dp1683
g61
(dp1684
g81
g82
ssg70
g1678
sg63
(lp1685
S'script_name'
p1686
asbag56
(g77
g58
NtRp1687
(dp1688
g61
(dp1689
g88
g89
ssg70
g1678
sg63
(lp1690
S':'
asbag56
(g77
g58
NtRp1691
(dp1692
g61
(dp1693
sg70
g1678
sg63
(lp1694
g56
(g57
g58
NtRp1695
(dp1696
g61
(dp1697
g69
I4
ssg70
g1691
sg63
(lp1698
S''
asbasbasbag56
(g72
g58
NtRp1699
(dp1700
g61
(dp1701
sg70
g1191
sg63
(lp1702
g56
(g77
g58
NtRp1703
(dp1704
g61
(dp1705
g81
g82
ssg70
g1699
sg63
(lp1706
S'server_name'
p1707
asbag56
(g77
g58
NtRp1708
(dp1709
g61
(dp1710
g88
g89
ssg70
g1699
sg63
(lp1711
S':'
asbag56
(g77
g58
NtRp1712
(dp1713
g61
(dp1714
sg70
g1699
sg63
(lp1715
g56
(g57
g58
NtRp1716
(dp1717
g61
(dp1718
g69
I4
ssg70
g1712
sg63
(lp1719
S'uriel'
p1720
asbasbasbag56
(g72
g58
NtRp1721
(dp1722
g61
(dp1723
sg70
g1191
sg63
(lp1724
g56
(g77
g58
NtRp1725
(dp1726
g61
(dp1727
g81
g82
ssg70
g1721
sg63
(lp1728
S'server_port'
p1729
asbag56
(g77
g58
NtRp1730
(dp1731
g61
(dp1732
g88
g89
ssg70
g1721
sg63
(lp1733
S':'
asbag56
(g77
g58
NtRp1734
(dp1735
g61
(dp1736
sg70
g1721
sg63
(lp1737
g56
(g57
g58
NtRp1738
(dp1739
g61
(dp1740
g69
I4
ssg70
g1734
sg63
(lp1741
S'8000'
p1742
asbasbasbag56
(g72
g58
NtRp1743
(dp1744
g61
(dp1745
sg70
g1191
sg63
(lp1746
g56
(g77
g58
NtRp1747
(dp1748
g61
(dp1749
g81
g82
ssg70
g1743
sg63
(lp1750
S'server_protocol'
p1751
asbag56
(g77
g58
NtRp1752
(dp1753
g61
(dp1754
g88
g89
ssg70
g1743
sg63
(lp1755
S':'
asbag56
(g77
g58
NtRp1756
(dp1757
g61
(dp1758
sg70
g1743
sg63
(lp1759
g56
(g57
g58
NtRp1760
(dp1761
g61
(dp1762
g69
I4
ssg70
g1756
sg63
(lp1763
S'HTTP/1.1'
p1764
asbasbasbag56
(g72
g58
NtRp1765
(dp1766
g61
(dp1767
sg70
g1191
sg63
(lp1768
g56
(g77
g58
NtRp1769
(dp1770
g61
(dp1771
g81
g82
ssg70
g1765
sg63
(lp1772
S'server_software'
p1773
asbag56
(g77
g58
NtRp1774
(dp1775
g61
(dp1776
g88
g89
ssg70
g1765
sg63
(lp1777
S':'
asbag56
(g77
g58
NtRp1778
(dp1779
g61
(dp1780
sg70
g1765
sg63
(lp1781
g56
(g57
g58
NtRp1782
(dp1783
g61
(dp1784
g69
I4
ssg70
g1778
sg63
(lp1785
S'Rocket 1.2.4'
p1786
asbasbasbag56
(g72
g58
NtRp1787
(dp1788
g61
(dp1789
sg70
g1191
sg63
(lp1790
g56
(g77
g58
NtRp1791
(dp1792
g61
(dp1793
g81
g82
ssg70
g1787
sg63
(lp1794
S'web2py_crontype'
p1795
asbag56
(g77
g58
NtRp1796
(dp1797
g61
(dp1798
g88
g89
ssg70
g1787
sg63
(lp1799
S':'
asbag56
(g77
g58
NtRp1800
(dp1801
g61
(dp1802
sg70
g1787
sg63
(lp1803
g56
(g57
g58
NtRp1804
(dp1805
g61
(dp1806
g69
I4
ssg70
g1800
sg63
(lp1807
S'hard'
p1808
asbasbasbag56
(g72
g58
NtRp1809
(dp1810
g61
(dp1811
sg70
g1191
sg63
(lp1812
g56
(g77
g58
NtRp1813
(dp1814
g61
(dp1815
g81
g82
ssg70
g1809
sg63
(lp1816
S'web2py_path'
p1817
asbag56
(g77
g58
NtRp1818
(dp1819
g61
(dp1820
g88
g89
ssg70
g1809
sg63
(lp1821
S':'
asbag56
(g77
g58
NtRp1822
(dp1823
g61
(dp1824
sg70
g1809
sg63
(lp1825
g56
(g57
g58
NtRp1826
(dp1827
g61
(dp1828
g69
I4
ssg70
g1822
sg63
(lp1829
g1238
asbasbasbag56
(g72
g58
NtRp1830
(dp1831
g61
(dp1832
sg70
g1191
sg63
(lp1833
g56
(g77
g58
NtRp1834
(dp1835
g61
(dp1836
g81
g82
ssg70
g1830
sg63
(lp1837
S'web2py_version'
p1838
asbag56
(g77
g58
NtRp1839
(dp1840
g61
(dp1841
g88
g89
ssg70
g1830
sg63
(lp1842
S':'
asbag56
(g77
g58
NtRp1843
(dp1844
g61
(dp1845
sg70
g1830
sg63
(lp1846
g56
(g57
g58
NtRp1847
(dp1848
g61
(dp1849
g69
I4
ssg70
g1843
sg63
(lp1850
g56
(g65
g58
NtRp1851
(dp1852
g61
(dp1853
g69
I3
ssg70
Nsg63
(lp1854
g56
(g72
g58
NtRp1855
(dp1856
g61
(dp1857
sg70
g1851
sg63
(lp1858
g56
(g77
g58
NtRp1859
(dp1860
g61
(dp1861
sg70
g1855
sg63
(lp1862
g56
(g57
g58
NtRp1863
(dp1864
g61
(dp1865
g69
I3
ssg70
g1859
sg63
(lp1866
S'1'
asbasbasbag56
(g72
g58
NtRp1867
(dp1868
g61
(dp1869
sg70
g1851
sg63
(lp1870
g56
(g77
g58
NtRp1871
(dp1872
g61
(dp1873
sg70
g1867
sg63
(lp1874
g56
(g57
g58
NtRp1875
(dp1876
g61
(dp1877
g69
I3
ssg70
g1871
sg63
(lp1878
S'99'
p1879
asbasbasbag56
(g72
g58
NtRp1880
(dp1881
g61
(dp1882
sg70
g1851
sg63
(lp1883
g56
(g77
g58
NtRp1884
(dp1885
g61
(dp1886
sg70
g1880
sg63
(lp1887
g56
(g57
g58
NtRp1888
(dp1889
g61
(dp1890
g69
I3
ssg70
g1884
sg63
(lp1891
S'2'
asbasbasbag56
(g72
g58
NtRp1892
(dp1893
g61
(dp1894
sg70
g1851
sg63
(lp1895
g56
(g77
g58
NtRp1896
(dp1897
g61
(dp1898
sg70
g1892
sg63
(lp1899
g56
(g57
g58
NtRp1900
(dp1901
g61
(dp1902
g69
I3
ssg70
g1896
sg63
(lp1903
S'datetime.datetime(2011, 9, 26, 6, 55, 33)'
p1904
asbasbasbag56
(g72
g58
NtRp1905
(dp1906
g61
(dp1907
sg70
g1851
sg63
(lp1908
g56
(g77
g58
NtRp1909
(dp1910
g61
(dp1911
sg70
g1905
sg63
(lp1912
g56
(g57
g58
NtRp1913
(dp1914
g61
(dp1915
g69
I3
ssg70
g1909
sg63
(lp1916
S'stable'
p1917
asbasbasbasbasbasbasbag56
(g72
g58
NtRp1918
(dp1919
g61
(dp1920
sg70
g1191
sg63
(lp1921
g56
(g77
g58
NtRp1922
(dp1923
g61
(dp1924
g81
g82
ssg70
g1918
sg63
(lp1925
S'wsgi_errors'
p1926
asbag56
(g77
g58
NtRp1927
(dp1928
g61
(dp1929
g88
g89
ssg70
g1918
sg63
(lp1930
S':'
asbag56
(g77
g58
NtRp1931
(dp1932
g61
(dp1933
sg70
g1918
sg63
(lp1934
g56
(g57
g58
NtRp1935
(dp1936
g61
(dp1937
g69
I4
ssg70
g1931
sg63
(lp1938
S"<open file '<stderr>', mode 'w' at 0x7f4a416fc270>"
p1939
asbasbasbag56
(g72
g58
NtRp1940
(dp1941
g61
(dp1942
sg70
g1191
sg63
(lp1943
g56
(g77
g58
NtRp1944
(dp1945
g61
(dp1946
g81
g82
ssg70
g1940
sg63
(lp1947
S'wsgi_file_wrapper'
p1948
asbag56
(g77
g58
NtRp1949
(dp1950
g61
(dp1951
g88
g89
ssg70
g1940
sg63
(lp1952
S':'
asbag56
(g77
g58
NtRp1953
(dp1954
g61
(dp1955
sg70
g1940
sg63
(lp1956
g56
(g57
g58
NtRp1957
(dp1958
g61
(dp1959
g69
I4
ssg70
g1953
sg63
(lp1960
S'<class wsgiref.util.FileWrapper at 0x24b4870>'
p1961
asbasbasbag56
(g72
g58
NtRp1962
(dp1963
g61
(dp1964
sg70
g1191
sg63
(lp1965
g56
(g77
g58
NtRp1966
(dp1967
g61
(dp1968
g81
g82
ssg70
g1962
sg63
(lp1969
S'wsgi_input'
p1970
asbag56
(g77
g58
NtRp1971
(dp1972
g61
(dp1973
g88
g89
ssg70
g1962
sg63
(lp1974
S':'
asbag56
(g77
g58
NtRp1975
(dp1976
g61
(dp1977
sg70
g1962
sg63
(lp1978
g56
(g57
g58
NtRp1979
(dp1980
g61
(dp1981
g69
I4
ssg70
g1975
sg63
(lp1982
S'<socket._fileobject object at 0x2bda050>'
p1983
asbasbasbag56
(g72
g58
NtRp1984
(dp1985
g61
(dp1986
sg70
g1191
sg63
(lp1987
g56
(g77
g58
NtRp1988
(dp1989
g61
(dp1990
g81
g82
ssg70
g1984
sg63
(lp1991
S'wsgi_multiprocess'
p1992
asbag56
(g77
g58
NtRp1993
(dp1994
g61
(dp1995
g88
g89
ssg70
g1984
sg63
(lp1996
S':'
asbag56
(g77
g58
NtRp1997
(dp1998
g61
(dp1999
sg70
g1984
sg63
(lp2000
g56
(g57
g58
NtRp2001
(dp2002
g61
(dp2003
g69
I4
ssg70
g1997
sg63
(lp2004
g99
asbasbasbag56
(g72
g58
NtRp2005
(dp2006
g61
(dp2007
sg70
g1191
sg63
(lp2008
g56
(g77
g58
NtRp2009
(dp2010
g61
(dp2011
g81
g82
ssg70
g2005
sg63
(lp2012
S'wsgi_multithread'
p2013
asbag56
(g77
g58
NtRp2014
(dp2015
g61
(dp2016
g88
g89
ssg70
g2005
sg63
(lp2017
S':'
asbag56
(g77
g58
NtRp2018
(dp2019
g61
(dp2020
sg70
g2005
sg63
(lp2021
g56
(g57
g58
NtRp2022
(dp2023
g61
(dp2024
g69
I4
ssg70
g2018
sg63
(lp2025
S'True'
p2026
asbasbasbag56
(g72
g58
NtRp2027
(dp2028
g61
(dp2029
sg70
g1191
sg63
(lp2030
g56
(g77
g58
NtRp2031
(dp2032
g61
(dp2033
g81
g82
ssg70
g2027
sg63
(lp2034
S'wsgi_run_once'
p2035
asbag56
(g77
g58
NtRp2036
(dp2037
g61
(dp2038
g88
g89
ssg70
g2027
sg63
(lp2039
S':'
asbag56
(g77
g58
NtRp2040
(dp2041
g61
(dp2042
sg70
g2027
sg63
(lp2043
g56
(g57
g58
NtRp2044
(dp2045
g61
(dp2046
g69
I4
ssg70
g2040
sg63
(lp2047
g99
asbasbasbag56
(g72
g58
NtRp2048
(dp2049
g61
(dp2050
sg70
g1191
sg63
(lp2051
g56
(g77
g58
NtRp2052
(dp2053
g61
(dp2054
g81
g82
ssg70
g2048
sg63
(lp2055
S'wsgi_url_scheme'
p2056
asbag56
(g77
g58
NtRp2057
(dp2058
g61
(dp2059
g88
g89
ssg70
g2048
sg63
(lp2060
S':'
asbag56
(g77
g58
NtRp2061
(dp2062
g61
(dp2063
sg70
g2048
sg63
(lp2064
g56
(g57
g58
NtRp2065
(dp2066
g61
(dp2067
g69
I4
ssg70
g2061
sg63
(lp2068
S'http'
p2069
asbasbasbag56
(g72
g58
NtRp2070
(dp2071
g61
(dp2072
sg70
g1191
sg63
(lp2073
g56
(g77
g58
NtRp2074
(dp2075
g61
(dp2076
g81
g82
ssg70
g2070
sg63
(lp2077
S'wsgi_version'
p2078
asbag56
(g77
g58
NtRp2079
(dp2080
g61
(dp2081
g88
g89
ssg70
g2070
sg63
(lp2082
S':'
asbag56
(g77
g58
NtRp2083
(dp2084
g61
(dp2085
sg70
g2070
sg63
(lp2086
g56
(g57
g58
NtRp2087
(dp2088
g61
(dp2089
g69
I4
ssg70
g2083
sg63
(lp2090
g56
(g65
g58
NtRp2091
(dp2092
g61
(dp2093
g69
I3
ssg70
Nsg63
(lp2094
g56
(g72
g58
NtRp2095
(dp2096
g61
(dp2097
sg70
g2091
sg63
(lp2098
g56
(g77
g58
NtRp2099
(dp2100
g61
(dp2101
sg70
g2095
sg63
(lp2102
g56
(g57
g58
NtRp2103
(dp2104
g61
(dp2105
g69
I3
ssg70
g2099
sg63
(lp2106
S'1'
asbasbasbag56
(g72
g58
NtRp2107
(dp2108
g61
(dp2109
sg70
g2091
sg63
(lp2110
g56
(g77
g58
NtRp2111
(dp2112
g61
(dp2113
sg70
g2107
sg63
(lp2114
g56
(g57
g58
NtRp2115
(dp2116
g61
(dp2117
g69
I3
ssg70
g2111
sg63
(lp2118
S'0'
asbasbasbasbasbasbasbasbasbasbasbag56
(g72
g58
NtRp2119
(dp2120
g61
(dp2121
sg70
g66
sg63
(lp2122
g56
(g77
g58
NtRp2123
(dp2124
g61
(dp2125
g81
g82
ssg70
g2119
sg63
(lp2126
S'extension'
p2127
asbag56
(g77
g58
NtRp2128
(dp2129
g61
(dp2130
g88
g89
ssg70
g2119
sg63
(lp2131
S':'
asbag56
(g77
g58
NtRp2132
(dp2133
g61
(dp2134
sg70
g2119
sg63
(lp2135
g56
(g57
g58
NtRp2136
(dp2137
g61
(dp2138
g69
I5
ssg70
g2132
sg63
(lp2139
S'html'
p2140
asbasbasbag56
(g72
g58
NtRp2141
(dp2142
g61
(dp2143
sg70
g66
sg63
(lp2144
g56
(g77
g58
NtRp2145
(dp2146
g61
(dp2147
g81
g82
ssg70
g2141
sg63
(lp2148
S'folder'
p2149
asbag56
(g77
g58
NtRp2150
(dp2151
g61
(dp2152
g88
g89
ssg70
g2141
sg63
(lp2153
S':'
asbag56
(g77
g58
NtRp2154
(dp2155
g61
(dp2156
sg70
g2141
sg63
(lp2157
g56
(g57
g58
NtRp2158
(dp2159
g61
(dp2160
g69
I5
ssg70
g2154
sg63
(lp2161
S'/home/ian/Dropbox/Web_Pages/web2py-linux/applications/places/'
p2162
asbasbasbag56
(g72
g58
NtRp2163
(dp2164
g61
(dp2165
sg70
g66
sg63
(lp2166
g56
(g77
g58
NtRp2167
(dp2168
g61
(dp2169
g81
g82
ssg70
g2163
sg63
(lp2170
S'function'
p2171
asbag56
(g77
g58
NtRp2172
(dp2173
g61
(dp2174
g88
g89
ssg70
g2163
sg63
(lp2175
S':'
asbag56
(g77
g58
NtRp2176
(dp2177
g61
(dp2178
sg70
g2163
sg63
(lp2179
g56
(g57
g58
NtRp2180
(dp2181
g61
(dp2182
g69
I5
ssg70
g2176
sg63
(lp2183
S'index'
p2184
asbasbasbag56
(g72
g58
NtRp2185
(dp2186
g61
(dp2187
sg70
g66
sg63
(lp2188
g56
(g77
g58
NtRp2189
(dp2190
g61
(dp2191
g81
g82
ssg70
g2185
sg63
(lp2192
S'get_vars'
p2193
asbag56
(g77
g58
NtRp2194
(dp2195
g61
(dp2196
g88
g89
ssg70
g2185
sg63
(lp2197
S':'
asbag56
(g77
g58
NtRp2198
(dp2199
g61
(dp2200
sg70
g2185
sg63
(lp2201
g56
(g57
g58
NtRp2202
(dp2203
g61
(dp2204
g69
I5
ssg70
g2198
sg63
(lp2205
g56
(g65
g58
NtRp2206
(dp2207
g61
(dp2208
g69
I4
ssg70
Nsg63
(lp2209
sbasbasbasbag56
(g72
g58
NtRp2210
(dp2211
g61
(dp2212
sg70
g66
sg63
(lp2213
g56
(g77
g58
NtRp2214
(dp2215
g61
(dp2216
g81
g82
ssg70
g2210
sg63
(lp2217
S'global_settings'
p2218
asbag56
(g77
g58
NtRp2219
(dp2220
g61
(dp2221
g88
g89
ssg70
g2210
sg63
(lp2222
S':'
asbag56
(g77
g58
NtRp2223
(dp2224
g61
(dp2225
sg70
g2210
sg63
(lp2226
g56
(g57
g58
NtRp2227
(dp2228
g61
(dp2229
g69
I5
ssg70
g2223
sg63
(lp2230
g56
(g65
g58
NtRp2231
(dp2232
g61
(dp2233
g69
I4
ssg70
Nsg63
(lp2234
g56
(g72
g58
NtRp2235
(dp2236
g61
(dp2237
sg70
g2231
sg63
(lp2238
g56
(g77
g58
NtRp2239
(dp2240
g61
(dp2241
g81
g82
ssg70
g2235
sg63
(lp2242
g1203
asbag56
(g77
g58
NtRp2243
(dp2244
g61
(dp2245
g88
g89
ssg70
g2235
sg63
(lp2246
S':'
asbag56
(g77
g58
NtRp2247
(dp2248
g61
(dp2249
sg70
g2235
sg63
(lp2250
g56
(g57
g58
NtRp2251
(dp2252
g61
(dp2253
g69
I4
ssg70
g2247
sg63
(lp2254
S"set(['/home/ian/Dropbox/Web_Pages/web2py-linux/applications/blog/', '/home/ian/Dropbox/Web_Pages/web2py-linux/applications/places/', '/home/ian/Dropbox/Web_Pages/web2py-linux/applications/Paideia/', '/home/ian/Dropbox/Web_Pages/web2py-linux/applications/admin/', '/home/ian/Dropbox/Web_Pages/web2py-linux/applications/welcome/'])"
p2255
asbasbasbag56
(g72
g58
NtRp2256
(dp2257
g61
(dp2258
sg70
g2231
sg63
(lp2259
g56
(g77
g58
NtRp2260
(dp2261
g61
(dp2262
g81
g82
ssg70
g2256
sg63
(lp2263
g1225
asbag56
(g77
g58
NtRp2264
(dp2265
g61
(dp2266
g88
g89
ssg70
g2256
sg63
(lp2267
S':'
asbag56
(g77
g58
NtRp2268
(dp2269
g61
(dp2270
sg70
g2256
sg63
(lp2271
g56
(g57
g58
NtRp2272
(dp2273
g61
(dp2274
g69
I4
ssg70
g2268
sg63
(lp2275
g1238
asbasbasbag56
(g72
g58
NtRp2276
(dp2277
g61
(dp2278
sg70
g2231
sg63
(lp2279
g56
(g77
g58
NtRp2280
(dp2281
g61
(dp2282
g81
g82
ssg70
g2276
sg63
(lp2283
g1247
asbag56
(g77
g58
NtRp2284
(dp2285
g61
(dp2286
g88
g89
ssg70
g2276
sg63
(lp2287
S':'
asbag56
(g77
g58
NtRp2288
(dp2289
g61
(dp2290
sg70
g2276
sg63
(lp2291
g56
(g57
g58
NtRp2292
(dp2293
g61
(dp2294
g69
I4
ssg70
g2288
sg63
(lp2295
g56
(g65
g58
NtRp2296
(dp2297
g61
(dp2298
g69
I3
ssg70
Nsg63
(lp2299
sbasbasbasbag56
(g72
g58
NtRp2300
(dp2301
g61
(dp2302
sg70
g2231
sg63
(lp2303
g56
(g77
g58
NtRp2304
(dp2305
g61
(dp2306
g81
g82
ssg70
g2300
sg63
(lp2307
g1272
asbag56
(g77
g58
NtRp2308
(dp2309
g61
(dp2310
g88
g89
ssg70
g2300
sg63
(lp2311
S':'
asbag56
(g77
g58
NtRp2312
(dp2313
g61
(dp2314
sg70
g2300
sg63
(lp2315
g56
(g57
g58
NtRp2316
(dp2317
g61
(dp2318
g69
I4
ssg70
g2312
sg63
(lp2319
S"<Values at 0x2723170: {'verbose': False, 'ip': '127.0.0.1', 'shutdown_timeout': 5, 'taskbar': False, 'nocron': False, 'pid_filename': 'httpserver.pid', 'maxthreads': None, 'softcron': False, 'server_name': 'uriel', 'bpython': False, 'nogui': False, 'port': 8000, 'extcron': False, 'debuglevel': 30, 'test': None, 'folder': '/home/ian/Dropbox/Web_Pages/web2py-linux', 'config': '', 'import_models': False, 'winservice': '', 'shell': None, 'run': '', 'log_filename': 'httpserver.log', 'args': [''], 'ssl_ca_certificate': None, 'scheduler': None, 'profiler_filename': None, 'ssl_private_key': '', 'password': '<ask>', 'request_queue_size': 5, 'ssl_certificate': '', 'cronjob': False, 'plain': False, 'quiet': False, 'interfaces': None, 'minthreads': None, 'timeout': 10, 'numthreads': None, 'nobanner': False}>"
p2320
asbasbasbag56
(g72
g58
NtRp2321
(dp2322
g61
(dp2323
sg70
g2231
sg63
(lp2324
g56
(g77
g58
NtRp2325
(dp2326
g61
(dp2327
g81
g82
ssg70
g2321
sg63
(lp2328
g1294
asbag56
(g77
g58
NtRp2329
(dp2330
g61
(dp2331
g88
g89
ssg70
g2321
sg63
(lp2332
S':'
asbag56
(g77
g58
NtRp2333
(dp2334
g61
(dp2335
sg70
g2321
sg63
(lp2336
g56
(g57
g58
NtRp2337
(dp2338
g61
(dp2339
g69
I4
ssg70
g2333
sg63
(lp2340
S'set([])'
p2341
asbasbasbag56
(g72
g58
NtRp2342
(dp2343
g61
(dp2344
sg70
g2231
sg63
(lp2345
g56
(g77
g58
NtRp2346
(dp2347
g61
(dp2348
g81
g82
ssg70
g2342
sg63
(lp2349
g1316
asbag56
(g77
g58
NtRp2350
(dp2351
g61
(dp2352
g88
g89
ssg70
g2342
sg63
(lp2353
S':'
asbag56
(g77
g58
NtRp2354
(dp2355
g61
(dp2356
sg70
g2342
sg63
(lp2357
g56
(g57
g58
NtRp2358
(dp2359
g61
(dp2360
g69
I4
ssg70
g2354
sg63
(lp2361
g99
asbasbasbag56
(g72
g58
NtRp2362
(dp2363
g61
(dp2364
sg70
g2231
sg63
(lp2365
g56
(g77
g58
NtRp2366
(dp2367
g61
(dp2368
g81
g82
ssg70
g2362
sg63
(lp2369
g1337
asbag56
(g77
g58
NtRp2370
(dp2371
g61
(dp2372
g88
g89
ssg70
g2362
sg63
(lp2373
S':'
asbag56
(g77
g58
NtRp2374
(dp2375
g61
(dp2376
sg70
g2362
sg63
(lp2377
g56
(g57
g58
NtRp2378
(dp2379
g61
(dp2380
g69
I4
ssg70
g2374
sg63
(lp2381
g1350
asbasbasbag56
(g72
g58
NtRp2382
(dp2383
g61
(dp2384
sg70
g2231
sg63
(lp2385
g56
(g77
g58
NtRp2386
(dp2387
g61
(dp2388
g81
g82
ssg70
g2382
sg63
(lp2389
g1557
asbag56
(g77
g58
NtRp2390
(dp2391
g61
(dp2392
g88
g89
ssg70
g2382
sg63
(lp2393
S':'
asbag56
(g77
g58
NtRp2394
(dp2395
g61
(dp2396
sg70
g2382
sg63
(lp2397
g56
(g57
g58
NtRp2398
(dp2399
g61
(dp2400
g69
I4
ssg70
g2394
sg63
(lp2401
g99
asbasbasbag56
(g72
g58
NtRp2402
(dp2403
g61
(dp2404
sg70
g2231
sg63
(lp2405
g56
(g77
g58
NtRp2406
(dp2407
g61
(dp2408
g81
g82
ssg70
g2402
sg63
(lp2409
g1795
asbag56
(g77
g58
NtRp2410
(dp2411
g61
(dp2412
g88
g89
ssg70
g2402
sg63
(lp2413
S':'
asbag56
(g77
g58
NtRp2414
(dp2415
g61
(dp2416
sg70
g2402
sg63
(lp2417
g56
(g57
g58
NtRp2418
(dp2419
g61
(dp2420
g69
I4
ssg70
g2414
sg63
(lp2421
g1808
asbasbasbag56
(g72
g58
NtRp2422
(dp2423
g61
(dp2424
sg70
g2231
sg63
(lp2425
g56
(g77
g58
NtRp2426
(dp2427
g61
(dp2428
g81
g82
ssg70
g2422
sg63
(lp2429
g1838
asbag56
(g77
g58
NtRp2430
(dp2431
g61
(dp2432
g88
g89
ssg70
g2422
sg63
(lp2433
S':'
asbag56
(g77
g58
NtRp2434
(dp2435
g61
(dp2436
sg70
g2422
sg63
(lp2437
g56
(g57
g58
NtRp2438
(dp2439
g61
(dp2440
g69
I4
ssg70
g2434
sg63
(lp2441
g56
(g65
g58
NtRp2442
(dp2443
g61
(dp2444
g69
I3
ssg70
Nsg63
(lp2445
g56
(g72
g58
NtRp2446
(dp2447
g61
(dp2448
sg70
g2442
sg63
(lp2449
g56
(g77
g58
NtRp2450
(dp2451
g61
(dp2452
sg70
g2446
sg63
(lp2453
g56
(g57
g58
NtRp2454
(dp2455
g61
(dp2456
g69
I3
ssg70
g2450
sg63
(lp2457
S'1'
asbasbasbag56
(g72
g58
NtRp2458
(dp2459
g61
(dp2460
sg70
g2442
sg63
(lp2461
g56
(g77
g58
NtRp2462
(dp2463
g61
(dp2464
sg70
g2458
sg63
(lp2465
g56
(g57
g58
NtRp2466
(dp2467
g61
(dp2468
g69
I3
ssg70
g2462
sg63
(lp2469
S'99'
p2470
asbasbasbag56
(g72
g58
NtRp2471
(dp2472
g61
(dp2473
sg70
g2442
sg63
(lp2474
g56
(g77
g58
NtRp2475
(dp2476
g61
(dp2477
sg70
g2471
sg63
(lp2478
g56
(g57
g58
NtRp2479
(dp2480
g61
(dp2481
g69
I3
ssg70
g2475
sg63
(lp2482
S'2'
asbasbasbag56
(g72
g58
NtRp2483
(dp2484
g61
(dp2485
sg70
g2442
sg63
(lp2486
g56
(g77
g58
NtRp2487
(dp2488
g61
(dp2489
sg70
g2483
sg63
(lp2490
g56
(g57
g58
NtRp2491
(dp2492
g61
(dp2493
g69
I3
ssg70
g2487
sg63
(lp2494
S'datetime.datetime(2011, 9, 26, 6, 55, 33)'
p2495
asbasbasbag56
(g72
g58
NtRp2496
(dp2497
g61
(dp2498
sg70
g2442
sg63
(lp2499
g56
(g77
g58
NtRp2500
(dp2501
g61
(dp2502
sg70
g2496
sg63
(lp2503
g56
(g57
g58
NtRp2504
(dp2505
g61
(dp2506
g69
I3
ssg70
g2500
sg63
(lp2507
g1917
asbasbasbasbasbasbasbasbasbasbasbag56
(g72
g58
NtRp2508
(dp2509
g61
(dp2510
sg70
g66
sg63
(lp2511
g56
(g77
g58
NtRp2512
(dp2513
g61
(dp2514
g81
g82
ssg70
g2508
sg63
(lp2515
S'is_https'
p2516
asbag56
(g77
g58
NtRp2517
(dp2518
g61
(dp2519
g88
g89
ssg70
g2508
sg63
(lp2520
S':'
asbag56
(g77
g58
NtRp2521
(dp2522
g61
(dp2523
sg70
g2508
sg63
(lp2524
g56
(g57
g58
NtRp2525
(dp2526
g61
(dp2527
g69
I5
ssg70
g2521
sg63
(lp2528
g99
asbasbasbag56
(g72
g58
NtRp2529
(dp2530
g61
(dp2531
sg70
g66
sg63
(lp2532
g56
(g77
g58
NtRp2533
(dp2534
g61
(dp2535
g81
g82
ssg70
g2529
sg63
(lp2536
S'is_local'
p2537
asbag56
(g77
g58
NtRp2538
(dp2539
g61
(dp2540
g88
g89
ssg70
g2529
sg63
(lp2541
S':'
asbag56
(g77
g58
NtRp2542
(dp2543
g61
(dp2544
sg70
g2529
sg63
(lp2545
g56
(g57
g58
NtRp2546
(dp2547
g61
(dp2548
g69
I5
ssg70
g2542
sg63
(lp2549
g2026
asbasbasbag56
(g72
g58
NtRp2550
(dp2551
g61
(dp2552
sg70
g66
sg63
(lp2553
g56
(g77
g58
NtRp2554
(dp2555
g61
(dp2556
g81
g82
ssg70
g2550
sg63
(lp2557
S'is_restful'
p2558
asbag56
(g77
g58
NtRp2559
(dp2560
g61
(dp2561
g88
g89
ssg70
g2550
sg63
(lp2562
S':'
asbag56
(g77
g58
NtRp2563
(dp2564
g61
(dp2565
sg70
g2550
sg63
(lp2566
g56
(g57
g58
NtRp2567
(dp2568
g61
(dp2569
g69
I5
ssg70
g2563
sg63
(lp2570
g99
asbasbasbag56
(g72
g58
NtRp2571
(dp2572
g61
(dp2573
sg70
g66
sg63
(lp2574
g56
(g77
g58
NtRp2575
(dp2576
g61
(dp2577
g81
g82
ssg70
g2571
sg63
(lp2578
S'now'
p2579
asbag56
(g77
g58
NtRp2580
(dp2581
g61
(dp2582
g88
g89
ssg70
g2571
sg63
(lp2583
S':'
asbag56
(g77
g58
NtRp2584
(dp2585
g61
(dp2586
sg70
g2571
sg63
(lp2587
g56
(g57
g58
NtRp2588
(dp2589
g61
(dp2590
g69
I5
ssg70
g2584
sg63
(lp2591
S'datetime.datetime(2011, 9, 30, 16, 6, 53, 273158)'
p2592
asbasbasbag56
(g72
g58
NtRp2593
(dp2594
g61
(dp2595
sg70
g66
sg63
(lp2596
g56
(g77
g58
NtRp2597
(dp2598
g61
(dp2599
g81
g82
ssg70
g2593
sg63
(lp2600
S'post_vars'
p2601
asbag56
(g77
g58
NtRp2602
(dp2603
g61
(dp2604
g88
g89
ssg70
g2593
sg63
(lp2605
S':'
asbag56
(g77
g58
NtRp2606
(dp2607
g61
(dp2608
sg70
g2593
sg63
(lp2609
g56
(g57
g58
NtRp2610
(dp2611
g61
(dp2612
g69
I5
ssg70
g2606
sg63
(lp2613
g56
(g65
g58
NtRp2614
(dp2615
g61
(dp2616
g69
I4
ssg70
Nsg63
(lp2617
sbasbasbasbag56
(g72
g58
NtRp2618
(dp2619
g61
(dp2620
sg70
g66
sg63
(lp2621
g56
(g77
g58
NtRp2622
(dp2623
g61
(dp2624
g81
g82
ssg70
g2618
sg63
(lp2625
S'url'
p2626
asbag56
(g77
g58
NtRp2627
(dp2628
g61
(dp2629
g88
g89
ssg70
g2618
sg63
(lp2630
S':'
asbag56
(g77
g58
NtRp2631
(dp2632
g61
(dp2633
sg70
g2618
sg63
(lp2634
g56
(g57
g58
NtRp2635
(dp2636
g61
(dp2637
g69
I5
ssg70
g2631
sg63
(lp2638
S'/places/default/index'
p2639
asbasbasbag56
(g72
g58
NtRp2640
(dp2641
g61
(dp2642
sg70
g66
sg63
(lp2643
g56
(g77
g58
NtRp2644
(dp2645
g61
(dp2646
g81
g82
ssg70
g2640
sg63
(lp2647
S'utcnow'
p2648
asbag56
(g77
g58
NtRp2649
(dp2650
g61
(dp2651
g88
g89
ssg70
g2640
sg63
(lp2652
S':'
asbag56
(g77
g58
NtRp2653
(dp2654
g61
(dp2655
sg70
g2640
sg63
(lp2656
g56
(g57
g58
NtRp2657
(dp2658
g61
(dp2659
g69
I5
ssg70
g2653
sg63
(lp2660
S'datetime.datetime(2011, 9, 30, 20, 6, 53, 273213)'
p2661
asbasbasbag56
(g72
g58
NtRp2662
(dp2663
g61
(dp2664
sg70
g66
sg63
(lp2665
g56
(g77
g58
NtRp2666
(dp2667
g61
(dp2668
g81
g82
ssg70
g2662
sg63
(lp2669
S'uuid'
p2670
asbag56
(g77
g58
NtRp2671
(dp2672
g61
(dp2673
g88
g89
ssg70
g2662
sg63
(lp2674
S':'
asbag56
(g77
g58
NtRp2675
(dp2676
g61
(dp2677
sg70
g2662
sg63
(lp2678
g56
(g57
g58
NtRp2679
(dp2680
g61
(dp2681
g69
I5
ssg70
g2675
sg63
(lp2682
S'places/127.0.0.1.2011-09-30.16-06-53.d78b34b0-58ef-462c-affc-36f35fea2b0d'
p2683
asbasbasbag56
(g72
g58
NtRp2684
(dp2685
g61
(dp2686
sg70
g66
sg63
(lp2687
g56
(g77
g58
NtRp2688
(dp2689
g61
(dp2690
g81
g82
ssg70
g2684
sg63
(lp2691
S'vars'
p2692
asbag56
(g77
g58
NtRp2693
(dp2694
g61
(dp2695
g88
g89
ssg70
g2684
sg63
(lp2696
S':'
asbag56
(g77
g58
NtRp2697
(dp2698
g61
(dp2699
sg70
g2684
sg63
(lp2700
g56
(g57
g58
NtRp2701
(dp2702
g61
(dp2703
g69
I5
ssg70
g2697
sg63
(lp2704
g56
(g65
g58
NtRp2705
(dp2706
g61
(dp2707
g69
I4
ssg70
Nsg63
(lp2708
sbasbasbasbag56
(g72
g58
NtRp2709
(dp2710
g61
(dp2711
sg70
g66
sg63
(lp2712
g56
(g77
g58
NtRp2713
(dp2714
g61
(dp2715
g81
g82
ssg70
g2709
sg63
(lp2716
S'wsgi'
p2717
asbag56
(g77
g58
NtRp2718
(dp2719
g61
(dp2720
g88
g89
ssg70
g2709
sg63
(lp2721
S':'
asbag56
(g77
g58
NtRp2722
(dp2723
g61
(dp2724
sg70
g2709
sg63
(lp2725
g56
(g57
g58
NtRp2726
(dp2727
g61
(dp2728
g69
I5
ssg70
g2722
sg63
(lp2729
g56
(g65
g58
NtRp2730
(dp2731
g61
(dp2732
g69
I4
ssg70
Nsg63
(lp2733
g56
(g72
g58
NtRp2734
(dp2735
g61
(dp2736
sg70
g2730
sg63
(lp2737
g56
(g77
g58
NtRp2738
(dp2739
g61
(dp2740
g81
g82
ssg70
g2734
sg63
(lp2741
S'environ'
p2742
asbag56
(g77
g58
NtRp2743
(dp2744
g61
(dp2745
g88
g89
ssg70
g2734
sg63
(lp2746
S':'
asbag56
(g77
g58
NtRp2747
(dp2748
g61
(dp2749
sg70
g2734
sg63
(lp2750
g56
(g57
g58
NtRp2751
(dp2752
g61
(dp2753
g69
I4
ssg70
g2747
sg63
(lp2754
g56
(g65
g58
NtRp2755
(dp2756
g61
(dp2757
g69
I3
ssg70
Nsg63
(lp2758
g56
(g72
g58
NtRp2759
(dp2760
g61
(dp2761
sg70
g2755
sg63
(lp2762
g56
(g77
g58
NtRp2763
(dp2764
g61
(dp2765
g81
g82
ssg70
g2759
sg63
(lp2766
S'HTTP_ACCEPT'
p2767
asbag56
(g77
g58
NtRp2768
(dp2769
g61
(dp2770
g88
g89
ssg70
g2759
sg63
(lp2771
S':'
asbag56
(g77
g58
NtRp2772
(dp2773
g61
(dp2774
sg70
g2759
sg63
(lp2775
g56
(g57
g58
NtRp2776
(dp2777
g61
(dp2778
g69
I3
ssg70
g2772
sg63
(lp2779
g1372
asbasbasbag56
(g72
g58
NtRp2780
(dp2781
g61
(dp2782
sg70
g2755
sg63
(lp2783
g56
(g77
g58
NtRp2784
(dp2785
g61
(dp2786
g81
g82
ssg70
g2780
sg63
(lp2787
S'HTTP_ACCEPT_CHARSET'
p2788
asbag56
(g77
g58
NtRp2789
(dp2790
g61
(dp2791
g88
g89
ssg70
g2780
sg63
(lp2792
S':'
asbag56
(g77
g58
NtRp2793
(dp2794
g61
(dp2795
sg70
g2780
sg63
(lp2796
g56
(g57
g58
NtRp2797
(dp2798
g61
(dp2799
g69
I3
ssg70
g2793
sg63
(lp2800
g1394
asbasbasbag56
(g72
g58
NtRp2801
(dp2802
g61
(dp2803
sg70
g2755
sg63
(lp2804
g56
(g77
g58
NtRp2805
(dp2806
g61
(dp2807
g81
g82
ssg70
g2801
sg63
(lp2808
S'HTTP_ACCEPT_ENCODING'
p2809
asbag56
(g77
g58
NtRp2810
(dp2811
g61
(dp2812
g88
g89
ssg70
g2801
sg63
(lp2813
S':'
asbag56
(g77
g58
NtRp2814
(dp2815
g61
(dp2816
sg70
g2801
sg63
(lp2817
g56
(g57
g58
NtRp2818
(dp2819
g61
(dp2820
g69
I3
ssg70
g2814
sg63
(lp2821
g1416
asbasbasbag56
(g72
g58
NtRp2822
(dp2823
g61
(dp2824
sg70
g2755
sg63
(lp2825
g56
(g77
g58
NtRp2826
(dp2827
g61
(dp2828
g81
g82
ssg70
g2822
sg63
(lp2829
S'HTTP_ACCEPT_LANGUAGE'
p2830
asbag56
(g77
g58
NtRp2831
(dp2832
g61
(dp2833
g88
g89
ssg70
g2822
sg63
(lp2834
S':'
asbag56
(g77
g58
NtRp2835
(dp2836
g61
(dp2837
sg70
g2822
sg63
(lp2838
g56
(g57
g58
NtRp2839
(dp2840
g61
(dp2841
g69
I3
ssg70
g2835
sg63
(lp2842
g1438
asbasbasbag56
(g72
g58
NtRp2843
(dp2844
g61
(dp2845
sg70
g2755
sg63
(lp2846
g56
(g77
g58
NtRp2847
(dp2848
g61
(dp2849
g81
g82
ssg70
g2843
sg63
(lp2850
S'HTTP_CONNECTION'
p2851
asbag56
(g77
g58
NtRp2852
(dp2853
g61
(dp2854
g88
g89
ssg70
g2843
sg63
(lp2855
S':'
asbag56
(g77
g58
NtRp2856
(dp2857
g61
(dp2858
sg70
g2843
sg63
(lp2859
g56
(g57
g58
NtRp2860
(dp2861
g61
(dp2862
g69
I3
ssg70
g2856
sg63
(lp2863
g1460
asbasbasbag56
(g72
g58
NtRp2864
(dp2865
g61
(dp2866
sg70
g2755
sg63
(lp2867
g56
(g77
g58
NtRp2868
(dp2869
g61
(dp2870
g81
g82
ssg70
g2864
sg63
(lp2871
S'HTTP_COOKIE'
p2872
asbag56
(g77
g58
NtRp2873
(dp2874
g61
(dp2875
g88
g89
ssg70
g2864
sg63
(lp2876
S':'
asbag56
(g77
g58
NtRp2877
(dp2878
g61
(dp2879
sg70
g2864
sg63
(lp2880
g56
(g57
g58
NtRp2881
(dp2882
g61
(dp2883
g69
I3
ssg70
g2877
sg63
(lp2884
g1482
asbasbasbag56
(g72
g58
NtRp2885
(dp2886
g61
(dp2887
sg70
g2755
sg63
(lp2888
g56
(g77
g58
NtRp2889
(dp2890
g61
(dp2891
g81
g82
ssg70
g2885
sg63
(lp2892
S'HTTP_HOST'
p2893
asbag56
(g77
g58
NtRp2894
(dp2895
g61
(dp2896
g88
g89
ssg70
g2885
sg63
(lp2897
S':'
asbag56
(g77
g58
NtRp2898
(dp2899
g61
(dp2900
sg70
g2885
sg63
(lp2901
g56
(g57
g58
NtRp2902
(dp2903
g61
(dp2904
g69
I3
ssg70
g2898
sg63
(lp2905
g1504
asbasbasbag56
(g72
g58
NtRp2906
(dp2907
g61
(dp2908
sg70
g2755
sg63
(lp2909
g56
(g77
g58
NtRp2910
(dp2911
g61
(dp2912
g81
g82
ssg70
g2906
sg63
(lp2913
S'HTTP_REFERER'
p2914
asbag56
(g77
g58
NtRp2915
(dp2916
g61
(dp2917
g88
g89
ssg70
g2906
sg63
(lp2918
S':'
asbag56
(g77
g58
NtRp2919
(dp2920
g61
(dp2921
sg70
g2906
sg63
(lp2922
g56
(g57
g58
NtRp2923
(dp2924
g61
(dp2925
g69
I3
ssg70
g2919
sg63
(lp2926
g1526
asbasbasbag56
(g72
g58
NtRp2927
(dp2928
g61
(dp2929
sg70
g2755
sg63
(lp2930
g56
(g77
g58
NtRp2931
(dp2932
g61
(dp2933
g81
g82
ssg70
g2927
sg63
(lp2934
S'HTTP_USER_AGENT'
p2935
asbag56
(g77
g58
NtRp2936
(dp2937
g61
(dp2938
g88
g89
ssg70
g2927
sg63
(lp2939
S':'
asbag56
(g77
g58
NtRp2940
(dp2941
g61
(dp2942
sg70
g2927
sg63
(lp2943
g56
(g57
g58
NtRp2944
(dp2945
g61
(dp2946
g69
I3
ssg70
g2940
sg63
(lp2947
g1548
asbasbasbag56
(g72
g58
NtRp2948
(dp2949
g61
(dp2950
sg70
g2755
sg63
(lp2951
g56
(g77
g58
NtRp2952
(dp2953
g61
(dp2954
g81
g82
ssg70
g2948
sg63
(lp2955
S'PATH_INFO'
p2956
asbag56
(g77
g58
NtRp2957
(dp2958
g61
(dp2959
g88
g89
ssg70
g2948
sg63
(lp2960
S':'
asbag56
(g77
g58
NtRp2961
(dp2962
g61
(dp2963
sg70
g2948
sg63
(lp2964
g56
(g57
g58
NtRp2965
(dp2966
g61
(dp2967
g69
I3
ssg70
g2961
sg63
(lp2968
g1591
asbasbasbag56
(g72
g58
NtRp2969
(dp2970
g61
(dp2971
sg70
g2755
sg63
(lp2972
g56
(g77
g58
NtRp2973
(dp2974
g61
(dp2975
g81
g82
ssg70
g2969
sg63
(lp2976
S'QUERY_STRING'
p2977
asbag56
(g77
g58
NtRp2978
(dp2979
g61
(dp2980
g88
g89
ssg70
g2969
sg63
(lp2981
S':'
asbag56
(g77
g58
NtRp2982
(dp2983
g61
(dp2984
sg70
g2969
sg63
(lp2985
g56
(g57
g58
NtRp2986
(dp2987
g61
(dp2988
g69
I3
ssg70
g2982
sg63
(lp2989
S''
asbasbasbag56
(g72
g58
NtRp2990
(dp2991
g61
(dp2992
sg70
g2755
sg63
(lp2993
g56
(g77
g58
NtRp2994
(dp2995
g61
(dp2996
g81
g82
ssg70
g2990
sg63
(lp2997
S'REMOTE_ADDR'
p2998
asbag56
(g77
g58
NtRp2999
(dp3000
g61
(dp3001
g88
g89
ssg70
g2990
sg63
(lp3002
S':'
asbag56
(g77
g58
NtRp3003
(dp3004
g61
(dp3005
sg70
g2990
sg63
(lp3006
g56
(g57
g58
NtRp3007
(dp3008
g61
(dp3009
g69
I3
ssg70
g3003
sg63
(lp3010
g189
asbasbasbag56
(g72
g58
NtRp3011
(dp3012
g61
(dp3013
sg70
g2755
sg63
(lp3014
g56
(g77
g58
NtRp3015
(dp3016
g61
(dp3017
g81
g82
ssg70
g3011
sg63
(lp3018
S'REMOTE_PORT'
p3019
asbag56
(g77
g58
NtRp3020
(dp3021
g61
(dp3022
g88
g89
ssg70
g3011
sg63
(lp3023
S':'
asbag56
(g77
g58
NtRp3024
(dp3025
g61
(dp3026
sg70
g3011
sg63
(lp3027
g56
(g57
g58
NtRp3028
(dp3029
g61
(dp3030
g69
I3
ssg70
g3024
sg63
(lp3031
g1655
asbasbasbag56
(g72
g58
NtRp3032
(dp3033
g61
(dp3034
sg70
g2755
sg63
(lp3035
g56
(g77
g58
NtRp3036
(dp3037
g61
(dp3038
g81
g82
ssg70
g3032
sg63
(lp3039
S'REQUEST_METHOD'
p3040
asbag56
(g77
g58
NtRp3041
(dp3042
g61
(dp3043
g88
g89
ssg70
g3032
sg63
(lp3044
S':'
asbag56
(g77
g58
NtRp3045
(dp3046
g61
(dp3047
sg70
g3032
sg63
(lp3048
g56
(g57
g58
NtRp3049
(dp3050
g61
(dp3051
g69
I3
ssg70
g3045
sg63
(lp3052
g1677
asbasbasbag56
(g72
g58
NtRp3053
(dp3054
g61
(dp3055
sg70
g2755
sg63
(lp3056
g56
(g77
g58
NtRp3057
(dp3058
g61
(dp3059
g81
g82
ssg70
g3053
sg63
(lp3060
S'SCRIPT_NAME'
p3061
asbag56
(g77
g58
NtRp3062
(dp3063
g61
(dp3064
g88
g89
ssg70
g3053
sg63
(lp3065
S':'
asbag56
(g77
g58
NtRp3066
(dp3067
g61
(dp3068
sg70
g3053
sg63
(lp3069
g56
(g57
g58
NtRp3070
(dp3071
g61
(dp3072
g69
I3
ssg70
g3066
sg63
(lp3073
S''
asbasbasbag56
(g72
g58
NtRp3074
(dp3075
g61
(dp3076
sg70
g2755
sg63
(lp3077
g56
(g77
g58
NtRp3078
(dp3079
g61
(dp3080
g81
g82
ssg70
g3074
sg63
(lp3081
S'SERVER_NAME'
p3082
asbag56
(g77
g58
NtRp3083
(dp3084
g61
(dp3085
g88
g89
ssg70
g3074
sg63
(lp3086
S':'
asbag56
(g77
g58
NtRp3087
(dp3088
g61
(dp3089
sg70
g3074
sg63
(lp3090
g56
(g57
g58
NtRp3091
(dp3092
g61
(dp3093
g69
I3
ssg70
g3087
sg63
(lp3094
g1720
asbasbasbag56
(g72
g58
NtRp3095
(dp3096
g61
(dp3097
sg70
g2755
sg63
(lp3098
g56
(g77
g58
NtRp3099
(dp3100
g61
(dp3101
g81
g82
ssg70
g3095
sg63
(lp3102
S'SERVER_PORT'
p3103
asbag56
(g77
g58
NtRp3104
(dp3105
g61
(dp3106
g88
g89
ssg70
g3095
sg63
(lp3107
S':'
asbag56
(g77
g58
NtRp3108
(dp3109
g61
(dp3110
sg70
g3095
sg63
(lp3111
g56
(g57
g58
NtRp3112
(dp3113
g61
(dp3114
g69
I3
ssg70
g3108
sg63
(lp3115
g1742
asbasbasbag56
(g72
g58
NtRp3116
(dp3117
g61
(dp3118
sg70
g2755
sg63
(lp3119
g56
(g77
g58
NtRp3120
(dp3121
g61
(dp3122
g81
g82
ssg70
g3116
sg63
(lp3123
S'SERVER_PROTOCOL'
p3124
asbag56
(g77
g58
NtRp3125
(dp3126
g61
(dp3127
g88
g89
ssg70
g3116
sg63
(lp3128
S':'
asbag56
(g77
g58
NtRp3129
(dp3130
g61
(dp3131
sg70
g3116
sg63
(lp3132
g56
(g57
g58
NtRp3133
(dp3134
g61
(dp3135
g69
I3
ssg70
g3129
sg63
(lp3136
g1764
asbasbasbag56
(g72
g58
NtRp3137
(dp3138
g61
(dp3139
sg70
g2755
sg63
(lp3140
g56
(g77
g58
NtRp3141
(dp3142
g61
(dp3143
g81
g82
ssg70
g3137
sg63
(lp3144
S'SERVER_SOFTWARE'
p3145
asbag56
(g77
g58
NtRp3146
(dp3147
g61
(dp3148
g88
g89
ssg70
g3137
sg63
(lp3149
S':'
asbag56
(g77
g58
NtRp3150
(dp3151
g61
(dp3152
sg70
g3137
sg63
(lp3153
g56
(g57
g58
NtRp3154
(dp3155
g61
(dp3156
g69
I3
ssg70
g3150
sg63
(lp3157
g1786
asbasbasbag56
(g72
g58
NtRp3158
(dp3159
g61
(dp3160
sg70
g2755
sg63
(lp3161
g56
(g77
g58
NtRp3162
(dp3163
g61
(dp3164
g81
g82
ssg70
g3158
sg63
(lp3165
S'wsgi.errors'
p3166
asbag56
(g77
g58
NtRp3167
(dp3168
g61
(dp3169
g88
g89
ssg70
g3158
sg63
(lp3170
S':'
asbag56
(g77
g58
NtRp3171
(dp3172
g61
(dp3173
sg70
g3158
sg63
(lp3174
g56
(g57
g58
NtRp3175
(dp3176
g61
(dp3177
g69
I3
ssg70
g3171
sg63
(lp3178
S"<open file '<stderr>', mode 'w' at 0x7f4a416fc270>"
p3179
asbasbasbag56
(g72
g58
NtRp3180
(dp3181
g61
(dp3182
sg70
g2755
sg63
(lp3183
g56
(g77
g58
NtRp3184
(dp3185
g61
(dp3186
g81
g82
ssg70
g3180
sg63
(lp3187
S'wsgi.file_wrapper'
p3188
asbag56
(g77
g58
NtRp3189
(dp3190
g61
(dp3191
g88
g89
ssg70
g3180
sg63
(lp3192
S':'
asbag56
(g77
g58
NtRp3193
(dp3194
g61
(dp3195
sg70
g3180
sg63
(lp3196
g56
(g57
g58
NtRp3197
(dp3198
g61
(dp3199
g69
I3
ssg70
g3193
sg63
(lp3200
S'<class wsgiref.util.FileWrapper at 0x24b4870>'
p3201
asbasbasbag56
(g72
g58
NtRp3202
(dp3203
g61
(dp3204
sg70
g2755
sg63
(lp3205
g56
(g77
g58
NtRp3206
(dp3207
g61
(dp3208
g81
g82
ssg70
g3202
sg63
(lp3209
S'wsgi.input'
p3210
asbag56
(g77
g58
NtRp3211
(dp3212
g61
(dp3213
g88
g89
ssg70
g3202
sg63
(lp3214
S':'
asbag56
(g77
g58
NtRp3215
(dp3216
g61
(dp3217
sg70
g3202
sg63
(lp3218
g56
(g57
g58
NtRp3219
(dp3220
g61
(dp3221
g69
I3
ssg70
g3215
sg63
(lp3222
S'<cStringIO.StringO object at 0x3676298>'
p3223
asbasbasbag56
(g72
g58
NtRp3224
(dp3225
g61
(dp3226
sg70
g2755
sg63
(lp3227
g56
(g77
g58
NtRp3228
(dp3229
g61
(dp3230
g81
g82
ssg70
g3224
sg63
(lp3231
S'wsgi.multiprocess'
p3232
asbag56
(g77
g58
NtRp3233
(dp3234
g61
(dp3235
g88
g89
ssg70
g3224
sg63
(lp3236
S':'
asbag56
(g77
g58
NtRp3237
(dp3238
g61
(dp3239
sg70
g3224
sg63
(lp3240
g56
(g57
g58
NtRp3241
(dp3242
g61
(dp3243
g69
I3
ssg70
g3237
sg63
(lp3244
g99
asbasbasbag56
(g72
g58
NtRp3245
(dp3246
g61
(dp3247
sg70
g2755
sg63
(lp3248
g56
(g77
g58
NtRp3249
(dp3250
g61
(dp3251
g81
g82
ssg70
g3245
sg63
(lp3252
S'wsgi.multithread'
p3253
asbag56
(g77
g58
NtRp3254
(dp3255
g61
(dp3256
g88
g89
ssg70
g3245
sg63
(lp3257
S':'
asbag56
(g77
g58
NtRp3258
(dp3259
g61
(dp3260
sg70
g3245
sg63
(lp3261
g56
(g57
g58
NtRp3262
(dp3263
g61
(dp3264
g69
I3
ssg70
g3258
sg63
(lp3265
g2026
asbasbasbag56
(g72
g58
NtRp3266
(dp3267
g61
(dp3268
sg70
g2755
sg63
(lp3269
g56
(g77
g58
NtRp3270
(dp3271
g61
(dp3272
g81
g82
ssg70
g3266
sg63
(lp3273
S'wsgi.run_once'
p3274
asbag56
(g77
g58
NtRp3275
(dp3276
g61
(dp3277
g88
g89
ssg70
g3266
sg63
(lp3278
S':'
asbag56
(g77
g58
NtRp3279
(dp3280
g61
(dp3281
sg70
g3266
sg63
(lp3282
g56
(g57
g58
NtRp3283
(dp3284
g61
(dp3285
g69
I3
ssg70
g3279
sg63
(lp3286
g99
asbasbasbag56
(g72
g58
NtRp3287
(dp3288
g61
(dp3289
sg70
g2755
sg63
(lp3290
g56
(g77
g58
NtRp3291
(dp3292
g61
(dp3293
g81
g82
ssg70
g3287
sg63
(lp3294
S'wsgi.url_scheme'
p3295
asbag56
(g77
g58
NtRp3296
(dp3297
g61
(dp3298
g88
g89
ssg70
g3287
sg63
(lp3299
S':'
asbag56
(g77
g58
NtRp3300
(dp3301
g61
(dp3302
sg70
g3287
sg63
(lp3303
g56
(g57
g58
NtRp3304
(dp3305
g61
(dp3306
g69
I3
ssg70
g3300
sg63
(lp3307
g2069
asbasbasbag56
(g72
g58
NtRp3308
(dp3309
g61
(dp3310
sg70
g2755
sg63
(lp3311
g56
(g77
g58
NtRp3312
(dp3313
g61
(dp3314
g81
g82
ssg70
g3308
sg63
(lp3315
S'wsgi.version'
p3316
asbag56
(g77
g58
NtRp3317
(dp3318
g61
(dp3319
g88
g89
ssg70
g3308
sg63
(lp3320
S':'
asbag56
(g77
g58
NtRp3321
(dp3322
g61
(dp3323
sg70
g3308
sg63
(lp3324
g56
(g57
g58
NtRp3325
(dp3326
g61
(dp3327
g69
I3
ssg70
g3321
sg63
(lp3328
S'1'
asbasbasbasbasbasbasbasbasbasbasbasbasbsS'frames'
p3329
(lp3330
(dp3331
S'file'
p3332
S'/home/ian/Dropbox/Web_Pages/web2py-linux/gluon/restricted.py'
p3333
sS'dump'
p3334
(dp3335
S'environment'
p3336
S"{'A': <class 'gluon.html.A'>, 'Auth': <class 'gluon.tools.Auth'>, 'B': <class 'gluon.html.B'>, 'BEAUTIFY': <class 'gluon.html.BEAUTIFY'>, 'BODY': <class 'gluon.html.BODY'>, 'BR': <class 'gluon.html.BR'>, 'BUTTON': <class 'gluon.html.BUTTON'>, 'CAT': <class 'gluon.html.CAT'>, 'CENTER': <class 'gluon.html.CENTER'>, 'CLEANUP': <class 'gluon.validators.CLEANUP'>, ...}"
p3337
sS'ccode'
p3338
S'<code object <module> at 0x2bc5f30, file "/home/...cations/places/views/default/index.html", line 1>'
p3339
ssS'lnum'
p3340
I194
sS'lines'
p3341
(dp3342
I192
S'        else:'
p3343
sI193
S'            ccode = compile2(code,layer)'
p3344
sI194
S'        exec ccode in environment'
p3345
sI195
S'    except HTTP:'
p3346
sI196
S'        raise'
p3347
sI197
S'    except Exception, error:'
p3348
sI198
S'        # XXX Show exception in Wing IDE if running in debugger'
p3349
sI189
S'    try:'
p3350
sI190
S'        if type(code) == types.CodeType:'
p3351
sI191
S'            ccode = code'
p3352
ssS'call'
p3353
S'(code=r"left_sidebar_enabled=right_sidebar_enabled=False...nse.write(\'\\n  </body>\\n</html>\\n\', escape=False)", environment={\'A\': <class \'gluon.html.A\'>, \'Auth\': <class \'gluon.tools.Auth\'>, \'B\': <class \'gluon.html.B\'>, \'BEAUTIFY\': <class \'gluon.html.BEAUTIFY\'>, \'BODY\': <class \'gluon.html.BODY\'>, \'BR\': <class \'gluon.html.BR\'>, \'BUTTON\': <class \'gluon.html.BUTTON\'>, \'CAT\': <class \'gluon.html.CAT\'>, \'CENTER\': <class \'gluon.html.CENTER\'>, \'CLEANUP\': <class \'gluon.validators.CLEANUP\'>, ...}, layer=\'/home/ian/Dropbox/Web_Pages/web2py-linux/applications/places/views/default/index.html\')'
p3354
sS'func'
p3355
S'restricted'
p3356
sa(dp3357
g3332
S'/home/ian/Dropbox/Web_Pages/web2py-linux/applications/places/views/default/index.html'
p3358
sg3334
(dp3359
sg3340
I86
sg3341
(dp3360
I96
S"    response.write(LOAD('index.load',ajax=True))"
p3361
sI77
S"    response.write('New Left Sidebar Content', escape=False)"
p3362
sI78
S"    response.write('       \\n            </div>\\n          </div><!-- left_sidebar -->\\n      ', escape=False)"
p3363
sI79
S'    pass'
p3364
sI80
S'response.write(\'\\n\\n      <!-- content -->\\n      <div id="content" \', escape=False)'
p3365
sI81
S'response.write(XML(style_content))'
p3366
sI82
S"response.write(' >\\n        ', escape=False)"
p3367
sI83
S"response.write('\\n\\n<ul>\\n', escape=False)"
p3368
sI84
S'for tag in session.tags:'
p3369
sI85
S"    response.write('\\n\\n', escape=False)"
p3370
sI86
S'    if tag.tag == session.current:'
p3371
sI87
S"        response.write('\\n', escape=False)"
p3372
sI88
S'        response.write(LI(A(tag, _href=URL(\'index.load\', args=[tag.tag]), _class=\'current\', cid="links")))'
p3373
sI89
S"        response.write('\\n\\n', escape=False)"
p3374
sI90
S'    else:'
p3375
sI91
S"        response.write('\\n', escape=False)"
p3376
sI92
S'        response.write(LI(A(tag, _href=URL(\'index.load\', args=[tag.tag]), cid="links")))'
p3377
sI93
S"        response.write('\\n\\n', escape=False)"
p3378
sI94
S'        pass'
p3379
sI95
S'    response.write(\'\\n\\n</ul>\\n\\n<section id="links">\\n\\n\', escape=False)'
p3380
ssg3353
S'()'
p3381
sg3355
S'<module>'
p3382
sasS'pyver'
p3383
S'Python 2.7.1+: /usr/bin/python2.7'
p3384
sS'session'
p3385
g56
(g57
g58
NtRp3386
(dp3387
g61
(dp3388
sg63
(lp3389
g56
(g65
g58
NtRp3390
(dp3391
g61
(dp3392
g69
I5
ssg70
Nsg63
(lp3393
g56
(g72
g58
NtRp3394
(dp3395
g61
(dp3396
sg70
g3390
sg63
(lp3397
g56
(g77
g58
NtRp3398
(dp3399
g61
(dp3400
g81
g82
ssg70
g3394
sg63
(lp3401
S'current'
p3402
asbag56
(g77
g58
NtRp3403
(dp3404
g61
(dp3405
g88
g89
ssg70
g3394
sg63
(lp3406
S':'
asbag56
(g77
g58
NtRp3407
(dp3408
g61
(dp3409
sg70
g3394
sg63
(lp3410
g56
(g57
g58
NtRp3411
(dp3412
g61
(dp3413
g69
I5
ssg70
g3407
sg63
(lp3414
S'kitchen'
p3415
asbasbasbag56
(g72
g58
NtRp3416
(dp3417
g61
(dp3418
sg70
g3390
sg63
(lp3419
g56
(g77
g58
NtRp3420
(dp3421
g61
(dp3422
g81
g82
ssg70
g3416
sg63
(lp3423
S'last_query'
p3424
asbag56
(g77
g58
NtRp3425
(dp3426
g61
(dp3427
g88
g89
ssg70
g3416
sg63
(lp3428
S':'
asbag56
(g77
g58
NtRp3429
(dp3430
g61
(dp3431
sg70
g3416
sg63
(lp3432
g56
(g57
g58
NtRp3433
(dp3434
g61
(dp3435
g69
I5
ssg70
g3429
sg63
(lp3436
S'db.tags.id>0'
p3437
asbasbasbag56
(g72
g58
NtRp3438
(dp3439
g61
(dp3440
sg70
g3390
sg63
(lp3441
g56
(g77
g58
NtRp3442
(dp3443
g61
(dp3444
g81
g82
ssg70
g3438
sg63
(lp3445
S'tags'
p3446
asbag56
(g77
g58
NtRp3447
(dp3448
g61
(dp3449
g88
g89
ssg70
g3438
sg63
(lp3450
S':'
asbag56
(g77
g58
NtRp3451
(dp3452
g61
(dp3453
sg70
g3438
sg63
(lp3454
g56
(g57
g58
NtRp3455
(dp3456
g61
(dp3457
g69
I5
ssg70
g3451
sg63
(lp3458
g56
(g65
g58
NtRp3459
(dp3460
g61
(dp3461
g69
I4
ssg70
Nsg63
(lp3462
g56
(g72
g58
NtRp3463
(dp3464
g61
(dp3465
sg70
g3459
sg63
(lp3466
g56
(g77
g58
NtRp3467
(dp3468
g61
(dp3469
sg70
g3463
sg63
(lp3470
g56
(g57
g58
NtRp3471
(dp3472
g61
(dp3473
g69
I4
ssg70
g3467
sg63
(lp3474
g56
(g65
g58
NtRp3475
(dp3476
g61
(dp3477
g69
I3
ssg70
Nsg63
(lp3478
g56
(g72
g58
NtRp3479
(dp3480
g61
(dp3481
sg70
g3475
sg63
(lp3482
g56
(g77
g58
NtRp3483
(dp3484
g61
(dp3485
g81
g82
ssg70
g3479
sg63
(lp3486
S'id'
p3487
asbag56
(g77
g58
NtRp3488
(dp3489
g61
(dp3490
g88
g89
ssg70
g3479
sg63
(lp3491
S':'
asbag56
(g77
g58
NtRp3492
(dp3493
g61
(dp3494
sg70
g3479
sg63
(lp3495
g56
(g57
g58
NtRp3496
(dp3497
g61
(dp3498
g69
I3
ssg70
g3492
sg63
(lp3499
S'1'
asbasbasbag56
(g72
g58
NtRp3500
(dp3501
g61
(dp3502
sg70
g3475
sg63
(lp3503
g56
(g77
g58
NtRp3504
(dp3505
g61
(dp3506
g81
g82
ssg70
g3500
sg63
(lp3507
S'tag'
p3508
asbag56
(g77
g58
NtRp3509
(dp3510
g61
(dp3511
g88
g89
ssg70
g3500
sg63
(lp3512
S':'
asbag56
(g77
g58
NtRp3513
(dp3514
g61
(dp3515
sg70
g3500
sg63
(lp3516
g56
(g57
g58
NtRp3517
(dp3518
g61
(dp3519
g69
I3
ssg70
g3513
sg63
(lp3520
S'kitchen'
p3521
asbasbasbasbasbasbasbag56
(g72
g58
NtRp3522
(dp3523
g61
(dp3524
sg70
g3459
sg63
(lp3525
g56
(g77
g58
NtRp3526
(dp3527
g61
(dp3528
sg70
g3522
sg63
(lp3529
g56
(g57
g58
NtRp3530
(dp3531
g61
(dp3532
g69
I4
ssg70
g3526
sg63
(lp3533
g56
(g65
g58
NtRp3534
(dp3535
g61
(dp3536
g69
I3
ssg70
Nsg63
(lp3537
g56
(g72
g58
NtRp3538
(dp3539
g61
(dp3540
sg70
g3534
sg63
(lp3541
g56
(g77
g58
NtRp3542
(dp3543
g61
(dp3544
g81
g82
ssg70
g3538
sg63
(lp3545
S'id'
p3546
asbag56
(g77
g58
NtRp3547
(dp3548
g61
(dp3549
g88
g89
ssg70
g3538
sg63
(lp3550
S':'
asbag56
(g77
g58
NtRp3551
(dp3552
g61
(dp3553
sg70
g3538
sg63
(lp3554
g56
(g57
g58
NtRp3555
(dp3556
g61
(dp3557
g69
I3
ssg70
g3551
sg63
(lp3558
S'2'
asbasbasbag56
(g72
g58
NtRp3559
(dp3560
g61
(dp3561
sg70
g3534
sg63
(lp3562
g56
(g77
g58
NtRp3563
(dp3564
g61
(dp3565
g81
g82
ssg70
g3559
sg63
(lp3566
S'tag'
p3567
asbag56
(g77
g58
NtRp3568
(dp3569
g61
(dp3570
g88
g89
ssg70
g3559
sg63
(lp3571
S':'
asbag56
(g77
g58
NtRp3572
(dp3573
g61
(dp3574
sg70
g3559
sg63
(lp3575
g56
(g57
g58
NtRp3576
(dp3577
g61
(dp3578
g69
I3
ssg70
g3572
sg63
(lp3579
S'kids'
p3580
asbasbasbasbasbasbasbag56
(g72
g58
NtRp3581
(dp3582
g61
(dp3583
sg70
g3459
sg63
(lp3584
g56
(g77
g58
NtRp3585
(dp3586
g61
(dp3587
sg70
g3581
sg63
(lp3588
g56
(g57
g58
NtRp3589
(dp3590
g61
(dp3591
g69
I4
ssg70
g3585
sg63
(lp3592
g56
(g65
g58
NtRp3593
(dp3594
g61
(dp3595
g69
I3
ssg70
Nsg63
(lp3596
g56
(g72
g58
NtRp3597
(dp3598
g61
(dp3599
sg70
g3593
sg63
(lp3600
g56
(g77
g58
NtRp3601
(dp3602
g61
(dp3603
g81
g82
ssg70
g3597
sg63
(lp3604
S'id'
p3605
asbag56
(g77
g58
NtRp3606
(dp3607
g61
(dp3608
g88
g89
ssg70
g3597
sg63
(lp3609
S':'
asbag56
(g77
g58
NtRp3610
(dp3611
g61
(dp3612
sg70
g3597
sg63
(lp3613
g56
(g57
g58
NtRp3614
(dp3615
g61
(dp3616
g69
I3
ssg70
g3610
sg63
(lp3617
S'3'
asbasbasbag56
(g72
g58
NtRp3618
(dp3619
g61
(dp3620
sg70
g3593
sg63
(lp3621
g56
(g77
g58
NtRp3622
(dp3623
g61
(dp3624
g81
g82
ssg70
g3618
sg63
(lp3625
S'tag'
p3626
asbag56
(g77
g58
NtRp3627
(dp3628
g61
(dp3629
g88
g89
ssg70
g3618
sg63
(lp3630
S':'
asbag56
(g77
g58
NtRp3631
(dp3632
g61
(dp3633
sg70
g3618
sg63
(lp3634
g56
(g57
g58
NtRp3635
(dp3636
g61
(dp3637
g69
I3
ssg70
g3631
sg63
(lp3638
S'research'
p3639
asbasbasbasbasbasbasbag56
(g72
g58
NtRp3640
(dp3641
g61
(dp3642
sg70
g3459
sg63
(lp3643
g56
(g77
g58
NtRp3644
(dp3645
g61
(dp3646
sg70
g3640
sg63
(lp3647
g56
(g57
g58
NtRp3648
(dp3649
g61
(dp3650
g69
I4
ssg70
g3644
sg63
(lp3651
g56
(g65
g58
NtRp3652
(dp3653
g61
(dp3654
g69
I3
ssg70
Nsg63
(lp3655
g56
(g72
g58
NtRp3656
(dp3657
g61
(dp3658
sg70
g3652
sg63
(lp3659
g56
(g77
g58
NtRp3660
(dp3661
g61
(dp3662
g81
g82
ssg70
g3656
sg63
(lp3663
S'id'
p3664
asbag56
(g77
g58
NtRp3665
(dp3666
g61
(dp3667
g88
g89
ssg70
g3656
sg63
(lp3668
S':'
asbag56
(g77
g58
NtRp3669
(dp3670
g61
(dp3671
sg70
g3656
sg63
(lp3672
g56
(g57
g58
NtRp3673
(dp3674
g61
(dp3675
g69
I3
ssg70
g3669
sg63
(lp3676
S'4'
asbasbasbag56
(g72
g58
NtRp3677
(dp3678
g61
(dp3679
sg70
g3652
sg63
(lp3680
g56
(g77
g58
NtRp3681
(dp3682
g61
(dp3683
g81
g82
ssg70
g3677
sg63
(lp3684
S'tag'
p3685
asbag56
(g77
g58
NtRp3686
(dp3687
g61
(dp3688
g88
g89
ssg70
g3677
sg63
(lp3689
S':'
asbag56
(g77
g58
NtRp3690
(dp3691
g61
(dp3692
sg70
g3677
sg63
(lp3693
g56
(g57
g58
NtRp3694
(dp3695
g61
(dp3696
g69
I3
ssg70
g3690
sg63
(lp3697
S'webdev'
p3698
asbasbasbasbasbasbasbag56
(g72
g58
NtRp3699
(dp3700
g61
(dp3701
sg70
g3459
sg63
(lp3702
g56
(g77
g58
NtRp3703
(dp3704
g61
(dp3705
sg70
g3699
sg63
(lp3706
g56
(g57
g58
NtRp3707
(dp3708
g61
(dp3709
g69
I4
ssg70
g3703
sg63
(lp3710
g56
(g65
g58
NtRp3711
(dp3712
g61
(dp3713
g69
I3
ssg70
Nsg63
(lp3714
g56
(g72
g58
NtRp3715
(dp3716
g61
(dp3717
sg70
g3711
sg63
(lp3718
g56
(g77
g58
NtRp3719
(dp3720
g61
(dp3721
g81
g82
ssg70
g3715
sg63
(lp3722
S'id'
p3723
asbag56
(g77
g58
NtRp3724
(dp3725
g61
(dp3726
g88
g89
ssg70
g3715
sg63
(lp3727
S':'
asbag56
(g77
g58
NtRp3728
(dp3729
g61
(dp3730
sg70
g3715
sg63
(lp3731
g56
(g57
g58
NtRp3732
(dp3733
g61
(dp3734
g69
I3
ssg70
g3728
sg63
(lp3735
S'5'
asbasbasbag56
(g72
g58
NtRp3736
(dp3737
g61
(dp3738
sg70
g3711
sg63
(lp3739
g56
(g77
g58
NtRp3740
(dp3741
g61
(dp3742
g81
g82
ssg70
g3736
sg63
(lp3743
S'tag'
p3744
asbag56
(g77
g58
NtRp3745
(dp3746
g61
(dp3747
g88
g89
ssg70
g3736
sg63
(lp3748
S':'
asbag56
(g77
g58
NtRp3749
(dp3750
g61
(dp3751
sg70
g3736
sg63
(lp3752
g56
(g57
g58
NtRp3753
(dp3754
g61
(dp3755
g69
I3
ssg70
g3749
sg63
(lp3756
S'photography'
p3757
asbasbasbasbasbasbasbag56
(g72
g58
NtRp3758
(dp3759
g61
(dp3760
sg70
g3459
sg63
(lp3761
g56
(g77
g58
NtRp3762
(dp3763
g61
(dp3764
sg70
g3758
sg63
(lp3765
g56
(g57
g58
NtRp3766
(dp3767
g61
(dp3768
g69
I4
ssg70
g3762
sg63
(lp3769
g56
(g65
g58
NtRp3770
(dp3771
g61
(dp3772
g69
I3
ssg70
Nsg63
(lp3773
g56
(g72
g58
NtRp3774
(dp3775
g61
(dp3776
sg70
g3770
sg63
(lp3777
g56
(g77
g58
NtRp3778
(dp3779
g61
(dp3780
g81
g82
ssg70
g3774
sg63
(lp3781
S'id'
p3782
asbag56
(g77
g58
NtRp3783
(dp3784
g61
(dp3785
g88
g89
ssg70
g3774
sg63
(lp3786
S':'
asbag56
(g77
g58
NtRp3787
(dp3788
g61
(dp3789
sg70
g3774
sg63
(lp3790
g56
(g57
g58
NtRp3791
(dp3792
g61
(dp3793
g69
I3
ssg70
g3787
sg63
(lp3794
S'6'
asbasbasbag56
(g72
g58
NtRp3795
(dp3796
g61
(dp3797
sg70
g3770
sg63
(lp3798
g56
(g77
g58
NtRp3799
(dp3800
g61
(dp3801
g81
g82
ssg70
g3795
sg63
(lp3802
S'tag'
p3803
asbag56
(g77
g58
NtRp3804
(dp3805
g61
(dp3806
g88
g89
ssg70
g3795
sg63
(lp3807
S':'
asbag56
(g77
g58
NtRp3808
(dp3809
g61
(dp3810
sg70
g3795
sg63
(lp3811
g56
(g57
g58
NtRp3812
(dp3813
g61
(dp3814
g69
I3
ssg70
g3808
sg63
(lp3815
S'entertainment'
p3816
asbasbasbasbasbasbasbag56
(g72
g58
NtRp3817
(dp3818
g61
(dp3819
sg70
g3459
sg63
(lp3820
g56
(g77
g58
NtRp3821
(dp3822
g61
(dp3823
sg70
g3817
sg63
(lp3824
g56
(g57
g58
NtRp3825
(dp3826
g61
(dp3827
g69
I4
ssg70
g3821
sg63
(lp3828
g56
(g65
g58
NtRp3829
(dp3830
g61
(dp3831
g69
I3
ssg70
Nsg63
(lp3832
g56
(g72
g58
NtRp3833
(dp3834
g61
(dp3835
sg70
g3829
sg63
(lp3836
g56
(g77
g58
NtRp3837
(dp3838
g61
(dp3839
g81
g82
ssg70
g3833
sg63
(lp3840
S'id'
p3841
asbag56
(g77
g58
NtRp3842
(dp3843
g61
(dp3844
g88
g89
ssg70
g3833
sg63
(lp3845
S':'
asbag56
(g77
g58
NtRp3846
(dp3847
g61
(dp3848
sg70
g3833
sg63
(lp3849
g56
(g57
g58
NtRp3850
(dp3851
g61
(dp3852
g69
I3
ssg70
g3846
sg63
(lp3853
S'7'
asbasbasbag56
(g72
g58
NtRp3854
(dp3855
g61
(dp3856
sg70
g3829
sg63
(lp3857
g56
(g77
g58
NtRp3858
(dp3859
g61
(dp3860
g81
g82
ssg70
g3854
sg63
(lp3861
S'tag'
p3862
asbag56
(g77
g58
NtRp3863
(dp3864
g61
(dp3865
g88
g89
ssg70
g3854
sg63
(lp3866
S':'
asbag56
(g77
g58
NtRp3867
(dp3868
g61
(dp3869
sg70
g3854
sg63
(lp3870
g56
(g57
g58
NtRp3871
(dp3872
g61
(dp3873
g69
I3
ssg70
g3867
sg63
(lp3874
S'games'
p3875
asbasbasbasbasbasbasbag56
(g72
g58
NtRp3876
(dp3877
g61
(dp3878
sg70
g3459
sg63
(lp3879
g56
(g77
g58
NtRp3880
(dp3881
g61
(dp3882
sg70
g3876
sg63
(lp3883
g56
(g57
g58
NtRp3884
(dp3885
g61
(dp3886
g69
I4
ssg70
g3880
sg63
(lp3887
g56
(g65
g58
NtRp3888
(dp3889
g61
(dp3890
g69
I3
ssg70
Nsg63
(lp3891
g56
(g72
g58
NtRp3892
(dp3893
g61
(dp3894
sg70
g3888
sg63
(lp3895
g56
(g77
g58
NtRp3896
(dp3897
g61
(dp3898
g81
g82
ssg70
g3892
sg63
(lp3899
S'id'
p3900
asbag56
(g77
g58
NtRp3901
(dp3902
g61
(dp3903
g88
g89
ssg70
g3892
sg63
(lp3904
S':'
asbag56
(g77
g58
NtRp3905
(dp3906
g61
(dp3907
sg70
g3892
sg63
(lp3908
g56
(g57
g58
NtRp3909
(dp3910
g61
(dp3911
g69
I3
ssg70
g3905
sg63
(lp3912
S'8'
asbasbasbag56
(g72
g58
NtRp3913
(dp3914
g61
(dp3915
sg70
g3888
sg63
(lp3916
g56
(g77
g58
NtRp3917
(dp3918
g61
(dp3919
g81
g82
ssg70
g3913
sg63
(lp3920
S'tag'
p3921
asbag56
(g77
g58
NtRp3922
(dp3923
g61
(dp3924
g88
g89
ssg70
g3913
sg63
(lp3925
S':'
asbag56
(g77
g58
NtRp3926
(dp3927
g61
(dp3928
sg70
g3913
sg63
(lp3929
g56
(g57
g58
NtRp3930
(dp3931
g61
(dp3932
g69
I3
ssg70
g3926
sg63
(lp3933
S'design'
p3934
asbasbasbasbasbasbasbag56
(g72
g58
NtRp3935
(dp3936
g61
(dp3937
sg70
g3459
sg63
(lp3938
g56
(g77
g58
NtRp3939
(dp3940
g61
(dp3941
sg70
g3935
sg63
(lp3942
g56
(g57
g58
NtRp3943
(dp3944
g61
(dp3945
g69
I4
ssg70
g3939
sg63
(lp3946
g56
(g65
g58
NtRp3947
(dp3948
g61
(dp3949
g69
I3
ssg70
Nsg63
(lp3950
g56
(g72
g58
NtRp3951
(dp3952
g61
(dp3953
sg70
g3947
sg63
(lp3954
g56
(g77
g58
NtRp3955
(dp3956
g61
(dp3957
g81
g82
ssg70
g3951
sg63
(lp3958
S'id'
p3959
asbag56
(g77
g58
NtRp3960
(dp3961
g61
(dp3962
g88
g89
ssg70
g3951
sg63
(lp3963
S':'
asbag56
(g77
g58
NtRp3964
(dp3965
g61
(dp3966
sg70
g3951
sg63
(lp3967
g56
(g57
g58
NtRp3968
(dp3969
g61
(dp3970
g69
I3
ssg70
g3964
sg63
(lp3971
S'9'
asbasbasbag56
(g72
g58
NtRp3972
(dp3973
g61
(dp3974
sg70
g3947
sg63
(lp3975
g56
(g77
g58
NtRp3976
(dp3977
g61
(dp3978
g81
g82
ssg70
g3972
sg63
(lp3979
S'tag'
p3980
asbag56
(g77
g58
NtRp3981
(dp3982
g61
(dp3983
g88
g89
ssg70
g3972
sg63
(lp3984
S':'
asbag56
(g77
g58
NtRp3985
(dp3986
g61
(dp3987
sg70
g3972
sg63
(lp3988
g56
(g57
g58
NtRp3989
(dp3990
g61
(dp3991
g69
I3
ssg70
g3985
sg63
(lp3992
S'research'
p3993
asbasbasbasbasbasbasbasbasbasbasbasbasbsS'etype'
p3994
S"<type 'exceptions.AttributeError'>"
p3995
sS'date'
p3996
S'Fri Sep 30 16:06:53 2011'
p3997
sS'response'
p3998
g56
(g57
g58
NtRp3999
(dp4000
g61
(dp4001
sg63
(lp4002
g56
(g65
g58
NtRp4003
(dp4004
g61
(dp4005
g69
I5
ssg70
Nsg63
(lp4006
g56
(g72
g58
NtRp4007
(dp4008
g61
(dp4009
sg70
g4003
sg63
(lp4010
g56
(g77
g58
NtRp4011
(dp4012
g61
(dp4013
g81
g82
ssg70
g4007
sg63
(lp4014
g154
asbag56
(g77
g58
NtRp4015
(dp4016
g61
(dp4017
g88
g89
ssg70
g4007
sg63
(lp4018
S':'
asbag56
(g77
g58
NtRp4019
(dp4020
g61
(dp4021
sg70
g4007
sg63
(lp4022
g56
(g57
g58
NtRp4023
(dp4024
g61
(dp4025
g69
I5
ssg70
g4019
sg63
(lp4026
S'<cStringIO.StringO object at 0x3676228>'
p4027
asbasbasbag56
(g72
g58
NtRp4028
(dp4029
g61
(dp4030
sg70
g4003
sg63
(lp4031
g56
(g77
g58
NtRp4032
(dp4033
g61
(dp4034
g81
g82
ssg70
g4028
sg63
(lp4035
g220
asbag56
(g77
g58
NtRp4036
(dp4037
g61
(dp4038
g88
g89
ssg70
g4028
sg63
(lp4039
S':'
asbag56
(g77
g58
NtRp4040
(dp4041
g61
(dp4042
sg70
g4028
sg63
(lp4043
g56
(g57
g58
NtRp4044
(dp4045
g61
(dp4046
g69
I5
ssg70
g4040
sg63
(lp4047
g56
(g65
g58
NtRp4048
(dp4049
g61
(dp4050
g69
I4
ssg70
Nsg63
(lp4051
g56
(g72
g58
NtRp4052
(dp4053
g61
(dp4054
sg70
g4048
sg63
(lp4055
g56
(g77
g58
NtRp4056
(dp4057
g61
(dp4058
g81
g82
ssg70
g4052
sg63
(lp4059
S'session_id_places'
p4060
asbag56
(g77
g58
NtRp4061
(dp4062
g61
(dp4063
g88
g89
ssg70
g4052
sg63
(lp4064
S':'
asbag56
(g77
g58
NtRp4065
(dp4066
g61
(dp4067
sg70
g4052
sg63
(lp4068
g56
(g57
g58
NtRp4069
(dp4070
g61
(dp4071
g69
I4
ssg70
g4065
sg63
(lp4072
g56
(g65
g58
NtRp4073
(dp4074
g61
(dp4075
g69
I3
ssg70
Nsg63
(lp4076
g56
(g72
g58
NtRp4077
(dp4078
g61
(dp4079
sg70
g4073
sg63
(lp4080
g56
(g77
g58
NtRp4081
(dp4082
g61
(dp4083
g81
g82
ssg70
g4077
sg63
(lp4084
g270
asbag56
(g77
g58
NtRp4085
(dp4086
g61
(dp4087
g88
g89
ssg70
g4077
sg63
(lp4088
S':'
asbag56
(g77
g58
NtRp4089
(dp4090
g61
(dp4091
sg70
g4077
sg63
(lp4092
g56
(g57
g58
NtRp4093
(dp4094
g61
(dp4095
g69
I3
ssg70
g4089
sg63
(lp4096
S''
asbasbasbag56
(g72
g58
NtRp4097
(dp4098
g61
(dp4099
sg70
g4073
sg63
(lp4100
g56
(g77
g58
NtRp4101
(dp4102
g61
(dp4103
g81
g82
ssg70
g4097
sg63
(lp4104
g291
asbag56
(g77
g58
NtRp4105
(dp4106
g61
(dp4107
g88
g89
ssg70
g4097
sg63
(lp4108
S':'
asbag56
(g77
g58
NtRp4109
(dp4110
g61
(dp4111
sg70
g4097
sg63
(lp4112
g56
(g57
g58
NtRp4113
(dp4114
g61
(dp4115
g69
I3
ssg70
g4109
sg63
(lp4116
S''
asbasbasbag56
(g72
g58
NtRp4117
(dp4118
g61
(dp4119
sg70
g4073
sg63
(lp4120
g56
(g77
g58
NtRp4121
(dp4122
g61
(dp4123
g81
g82
ssg70
g4117
sg63
(lp4124
g312
asbag56
(g77
g58
NtRp4125
(dp4126
g61
(dp4127
g88
g89
ssg70
g4117
sg63
(lp4128
S':'
asbag56
(g77
g58
NtRp4129
(dp4130
g61
(dp4131
sg70
g4117
sg63
(lp4132
g56
(g57
g58
NtRp4133
(dp4134
g61
(dp4135
g69
I3
ssg70
g4129
sg63
(lp4136
S''
asbasbasbag56
(g72
g58
NtRp4137
(dp4138
g61
(dp4139
sg70
g4073
sg63
(lp4140
g56
(g77
g58
NtRp4141
(dp4142
g61
(dp4143
g81
g82
ssg70
g4137
sg63
(lp4144
g333
asbag56
(g77
g58
NtRp4145
(dp4146
g61
(dp4147
g88
g89
ssg70
g4137
sg63
(lp4148
S':'
asbag56
(g77
g58
NtRp4149
(dp4150
g61
(dp4151
sg70
g4137
sg63
(lp4152
g56
(g57
g58
NtRp4153
(dp4154
g61
(dp4155
g69
I3
ssg70
g4149
sg63
(lp4156
S''
asbasbasbag56
(g72
g58
NtRp4157
(dp4158
g61
(dp4159
sg70
g4073
sg63
(lp4160
g56
(g77
g58
NtRp4161
(dp4162
g61
(dp4163
g81
g82
ssg70
g4157
sg63
(lp4164
g354
asbag56
(g77
g58
NtRp4165
(dp4166
g61
(dp4167
g88
g89
ssg70
g4157
sg63
(lp4168
S':'
asbag56
(g77
g58
NtRp4169
(dp4170
g61
(dp4171
sg70
g4157
sg63
(lp4172
g56
(g57
g58
NtRp4173
(dp4174
g61
(dp4175
g69
I3
ssg70
g4169
sg63
(lp4176
S''
asbasbasbag56
(g72
g58
NtRp4177
(dp4178
g61
(dp4179
sg70
g4073
sg63
(lp4180
g56
(g77
g58
NtRp4181
(dp4182
g61
(dp4183
g81
g82
ssg70
g4177
sg63
(lp4184
g375
asbag56
(g77
g58
NtRp4185
(dp4186
g61
(dp4187
g88
g89
ssg70
g4177
sg63
(lp4188
S':'
asbag56
(g77
g58
NtRp4189
(dp4190
g61
(dp4191
sg70
g4177
sg63
(lp4192
g56
(g57
g58
NtRp4193
(dp4194
g61
(dp4195
g69
I3
ssg70
g4189
sg63
(lp4196
S'/'
asbasbasbag56
(g72
g58
NtRp4197
(dp4198
g61
(dp4199
sg70
g4073
sg63
(lp4200
g56
(g77
g58
NtRp4201
(dp4202
g61
(dp4203
g81
g82
ssg70
g4197
sg63
(lp4204
g396
asbag56
(g77
g58
NtRp4205
(dp4206
g61
(dp4207
g88
g89
ssg70
g4197
sg63
(lp4208
S':'
asbag56
(g77
g58
NtRp4209
(dp4210
g61
(dp4211
sg70
g4197
sg63
(lp4212
g56
(g57
g58
NtRp4213
(dp4214
g61
(dp4215
g69
I3
ssg70
g4209
sg63
(lp4216
S''
asbasbasbag56
(g72
g58
NtRp4217
(dp4218
g61
(dp4219
sg70
g4073
sg63
(lp4220
g56
(g77
g58
NtRp4221
(dp4222
g61
(dp4223
g81
g82
ssg70
g4217
sg63
(lp4224
g417
asbag56
(g77
g58
NtRp4225
(dp4226
g61
(dp4227
g88
g89
ssg70
g4217
sg63
(lp4228
S':'
asbag56
(g77
g58
NtRp4229
(dp4230
g61
(dp4231
sg70
g4217
sg63
(lp4232
g56
(g57
g58
NtRp4233
(dp4234
g61
(dp4235
g69
I3
ssg70
g4229
sg63
(lp4236
S''
asbasbasbasbasbasbasbasbasbasbasbag56
(g72
g58
NtRp4237
(dp4238
g61
(dp4239
sg70
g4003
sg63
(lp4240
g56
(g77
g58
NtRp4241
(dp4242
g61
(dp4243
g81
g82
ssg70
g4237
sg63
(lp4244
S'files'
p4245
asbag56
(g77
g58
NtRp4246
(dp4247
g61
(dp4248
g88
g89
ssg70
g4237
sg63
(lp4249
S':'
asbag56
(g77
g58
NtRp4250
(dp4251
g61
(dp4252
sg70
g4237
sg63
(lp4253
g56
(g57
g58
NtRp4254
(dp4255
g61
(dp4256
g69
I5
ssg70
g4250
sg63
(lp4257
g56
(g65
g58
NtRp4258
(dp4259
g61
(dp4260
g69
I4
ssg70
Nsg63
(lp4261
g56
(g72
g58
NtRp4262
(dp4263
g61
(dp4264
sg70
g4258
sg63
(lp4265
g56
(g77
g58
NtRp4266
(dp4267
g61
(dp4268
sg70
g4262
sg63
(lp4269
g56
(g57
g58
NtRp4270
(dp4271
g61
(dp4272
g69
I4
ssg70
g4266
sg63
(lp4273
S'/places/static/js/jquery.js'
p4274
asbasbasbag56
(g72
g58
NtRp4275
(dp4276
g61
(dp4277
sg70
g4258
sg63
(lp4278
g56
(g77
g58
NtRp4279
(dp4280
g61
(dp4281
sg70
g4275
sg63
(lp4282
g56
(g57
g58
NtRp4283
(dp4284
g61
(dp4285
g69
I4
ssg70
g4279
sg63
(lp4286
S'/places/static/css/anytime.css'
p4287
asbasbasbag56
(g72
g58
NtRp4288
(dp4289
g61
(dp4290
sg70
g4258
sg63
(lp4291
g56
(g77
g58
NtRp4292
(dp4293
g61
(dp4294
sg70
g4288
sg63
(lp4295
g56
(g57
g58
NtRp4296
(dp4297
g61
(dp4298
g69
I4
ssg70
g4292
sg63
(lp4299
S'/places/static/js/anytime.js'
p4300
asbasbasbag56
(g72
g58
NtRp4301
(dp4302
g61
(dp4303
sg70
g4258
sg63
(lp4304
g56
(g77
g58
NtRp4305
(dp4306
g61
(dp4307
sg70
g4301
sg63
(lp4308
g56
(g57
g58
NtRp4309
(dp4310
g61
(dp4311
g69
I4
ssg70
g4305
sg63
(lp4312
S'/places/static/css/base.css'
p4313
asbasbasbag56
(g72
g58
NtRp4314
(dp4315
g61
(dp4316
sg70
g4258
sg63
(lp4317
g56
(g77
g58
NtRp4318
(dp4319
g61
(dp4320
sg70
g4314
sg63
(lp4321
g56
(g57
g58
NtRp4322
(dp4323
g61
(dp4324
g69
I4
ssg70
g4318
sg63
(lp4325
S'/places/static/css/superfish.css'
p4326
asbasbasbag56
(g72
g58
NtRp4327
(dp4328
g61
(dp4329
sg70
g4258
sg63
(lp4330
g56
(g77
g58
NtRp4331
(dp4332
g61
(dp4333
sg70
g4327
sg63
(lp4334
g56
(g57
g58
NtRp4335
(dp4336
g61
(dp4337
g69
I4
ssg70
g4331
sg63
(lp4338
S'/places/static/js/superfish.js'
p4339
asbasbasbasbasbasbasbag56
(g72
g58
NtRp4340
(dp4341
g61
(dp4342
sg70
g4003
sg63
(lp4343
g56
(g77
g58
NtRp4344
(dp4345
g61
(dp4346
g81
g82
ssg70
g4340
sg63
(lp4347
S'flash'
p4348
asbag56
(g77
g58
NtRp4349
(dp4350
g61
(dp4351
g88
g89
ssg70
g4340
sg63
(lp4352
S':'
asbag56
(g77
g58
NtRp4353
(dp4354
g61
(dp4355
sg70
g4340
sg63
(lp4356
g56
(g57
g58
NtRp4357
(dp4358
g61
(dp4359
g69
I5
ssg70
g4353
sg63
(lp4360
S''
asbasbasbag56
(g72
g58
NtRp4361
(dp4362
g61
(dp4363
sg70
g4003
sg63
(lp4364
g56
(g77
g58
NtRp4365
(dp4366
g61
(dp4367
g81
g82
ssg70
g4361
sg63
(lp4368
S'generic_patterns'
p4369
asbag56
(g77
g58
NtRp4370
(dp4371
g61
(dp4372
g88
g89
ssg70
g4361
sg63
(lp4373
S':'
asbag56
(g77
g58
NtRp4374
(dp4375
g61
(dp4376
sg70
g4361
sg63
(lp4377
g56
(g57
g58
NtRp4378
(dp4379
g61
(dp4380
g69
I5
ssg70
g4374
sg63
(lp4381
g56
(g65
g58
NtRp4382
(dp4383
g61
(dp4384
g69
I4
ssg70
Nsg63
(lp4385
g56
(g72
g58
NtRp4386
(dp4387
g61
(dp4388
sg70
g4382
sg63
(lp4389
g56
(g77
g58
NtRp4390
(dp4391
g61
(dp4392
sg70
g4386
sg63
(lp4393
g56
(g57
g58
NtRp4394
(dp4395
g61
(dp4396
g69
I4
ssg70
g4390
sg63
(lp4397
S'*'
asbasbasbasbasbasbasbag56
(g72
g58
NtRp4398
(dp4399
g61
(dp4400
sg70
g4003
sg63
(lp4401
g56
(g77
g58
NtRp4402
(dp4403
g61
(dp4404
g81
g82
ssg70
g4398
sg63
(lp4405
S'headers'
p4406
asbag56
(g77
g58
NtRp4407
(dp4408
g61
(dp4409
g88
g89
ssg70
g4398
sg63
(lp4410
S':'
asbag56
(g77
g58
NtRp4411
(dp4412
g61
(dp4413
sg70
g4398
sg63
(lp4414
g56
(g57
g58
NtRp4415
(dp4416
g61
(dp4417
g69
I5
ssg70
g4411
sg63
(lp4418
g56
(g65
g58
NtRp4419
(dp4420
g61
(dp4421
g69
I4
ssg70
Nsg63
(lp4422
g56
(g72
g58
NtRp4423
(dp4424
g61
(dp4425
sg70
g4419
sg63
(lp4426
g56
(g77
g58
NtRp4427
(dp4428
g61
(dp4429
g81
g82
ssg70
g4423
sg63
(lp4430
S'Cache-Control'
p4431
asbag56
(g77
g58
NtRp4432
(dp4433
g61
(dp4434
g88
g89
ssg70
g4423
sg63
(lp4435
S':'
asbag56
(g77
g58
NtRp4436
(dp4437
g61
(dp4438
sg70
g4423
sg63
(lp4439
g56
(g57
g58
NtRp4440
(dp4441
g61
(dp4442
g69
I4
ssg70
g4436
sg63
(lp4443
S'no-store, no-cache, must-revalidate, post-check=0, pre-check=0'
p4444
asbasbasbag56
(g72
g58
NtRp4445
(dp4446
g61
(dp4447
sg70
g4419
sg63
(lp4448
g56
(g77
g58
NtRp4449
(dp4450
g61
(dp4451
g81
g82
ssg70
g4445
sg63
(lp4452
S'Content-Type'
p4453
asbag56
(g77
g58
NtRp4454
(dp4455
g61
(dp4456
g88
g89
ssg70
g4445
sg63
(lp4457
S':'
asbag56
(g77
g58
NtRp4458
(dp4459
g61
(dp4460
sg70
g4445
sg63
(lp4461
g56
(g57
g58
NtRp4462
(dp4463
g61
(dp4464
g69
I4
ssg70
g4458
sg63
(lp4465
S'text/html; charset=utf-8'
p4466
asbasbasbag56
(g72
g58
NtRp4467
(dp4468
g61
(dp4469
sg70
g4419
sg63
(lp4470
g56
(g77
g58
NtRp4471
(dp4472
g61
(dp4473
g81
g82
ssg70
g4467
sg63
(lp4474
S'Expires'
p4475
asbag56
(g77
g58
NtRp4476
(dp4477
g61
(dp4478
g88
g89
ssg70
g4467
sg63
(lp4479
S':'
asbag56
(g77
g58
NtRp4480
(dp4481
g61
(dp4482
sg70
g4467
sg63
(lp4483
g56
(g57
g58
NtRp4484
(dp4485
g61
(dp4486
g69
I4
ssg70
g4480
sg63
(lp4487
S'Fri, 30 Sep 2011 20:06:53 GMT'
p4488
asbasbasbag56
(g72
g58
NtRp4489
(dp4490
g61
(dp4491
sg70
g4419
sg63
(lp4492
g56
(g77
g58
NtRp4493
(dp4494
g61
(dp4495
g81
g82
ssg70
g4489
sg63
(lp4496
S'Pragma'
p4497
asbag56
(g77
g58
NtRp4498
(dp4499
g61
(dp4500
g88
g89
ssg70
g4489
sg63
(lp4501
S':'
asbag56
(g77
g58
NtRp4502
(dp4503
g61
(dp4504
sg70
g4489
sg63
(lp4505
g56
(g57
g58
NtRp4506
(dp4507
g61
(dp4508
g69
I4
ssg70
g4502
sg63
(lp4509
S'no-cache'
p4510
asbasbasbag56
(g72
g58
NtRp4511
(dp4512
g61
(dp4513
sg70
g4419
sg63
(lp4514
g56
(g77
g58
NtRp4515
(dp4516
g61
(dp4517
g81
g82
ssg70
g4511
sg63
(lp4518
S'X-Powered-By'
p4519
asbag56
(g77
g58
NtRp4520
(dp4521
g61
(dp4522
g88
g89
ssg70
g4511
sg63
(lp4523
S':'
asbag56
(g77
g58
NtRp4524
(dp4525
g61
(dp4526
sg70
g4511
sg63
(lp4527
g56
(g57
g58
NtRp4528
(dp4529
g61
(dp4530
g69
I4
ssg70
g4524
sg63
(lp4531
S'web2py'
p4532
asbasbasbasbasbasbasbag56
(g72
g58
NtRp4533
(dp4534
g61
(dp4535
sg70
g4003
sg63
(lp4536
g56
(g77
g58
NtRp4537
(dp4538
g61
(dp4539
g81
g82
ssg70
g4533
sg63
(lp4540
S'menu'
p4541
asbag56
(g77
g58
NtRp4542
(dp4543
g61
(dp4544
g88
g89
ssg70
g4533
sg63
(lp4545
S':'
asbag56
(g77
g58
NtRp4546
(dp4547
g61
(dp4548
sg70
g4533
sg63
(lp4549
g56
(g57
g58
NtRp4550
(dp4551
g61
(dp4552
g69
I5
ssg70
g4546
sg63
(lp4553
g56
(g65
g58
NtRp4554
(dp4555
g61
(dp4556
g69
I4
ssg70
Nsg63
(lp4557
g56
(g72
g58
NtRp4558
(dp4559
g61
(dp4560
sg70
g4554
sg63
(lp4561
g56
(g77
g58
NtRp4562
(dp4563
g61
(dp4564
sg70
g4558
sg63
(lp4565
g56
(g57
g58
NtRp4566
(dp4567
g61
(dp4568
g69
I4
ssg70
g4562
sg63
(lp4569
g56
(g65
g58
NtRp4570
(dp4571
g61
(dp4572
g69
I3
ssg70
Nsg63
(lp4573
g56
(g72
g58
NtRp4574
(dp4575
g61
(dp4576
sg70
g4570
sg63
(lp4577
g56
(g77
g58
NtRp4578
(dp4579
g61
(dp4580
sg70
g4574
sg63
(lp4581
g56
(g57
g58
NtRp4582
(dp4583
g61
(dp4584
g69
I3
ssg70
g4578
sg63
(lp4585
cgluon.languages
lazyT_unpickle
p4586
(S't\x04\x00\x00\x00Home'
tRp4587
asbasbasbag56
(g72
g58
NtRp4588
(dp4589
g61
(dp4590
sg70
g4570
sg63
(lp4591
g56
(g77
g58
NtRp4592
(dp4593
g61
(dp4594
sg70
g4588
sg63
(lp4595
g56
(g57
g58
NtRp4596
(dp4597
g61
(dp4598
g69
I3
ssg70
g4592
sg63
(lp4599
g99
asbasbasbag56
(g72
g58
NtRp4600
(dp4601
g61
(dp4602
sg70
g4570
sg63
(lp4603
g56
(g77
g58
NtRp4604
(dp4605
g61
(dp4606
sg70
g4600
sg63
(lp4607
g56
(g57
g58
NtRp4608
(dp4609
g61
(dp4610
g69
I3
ssg70
g4604
sg63
(lp4611
S'/places/default/index'
p4612
asbasbasbag56
(g72
g58
NtRp4613
(dp4614
g61
(dp4615
sg70
g4570
sg63
(lp4616
g56
(g77
g58
NtRp4617
(dp4618
g61
(dp4619
sg70
g4613
sg63
(lp4620
g56
(g57
g58
NtRp4621
(dp4622
g61
(dp4623
g69
I3
ssg70
g4617
sg63
(lp4624
g56
(g65
g58
NtRp4625
(dp4626
g61
(dp4627
g69
I2
ssg70
Nsg63
(lp4628
sbasbasbasbasbasbasbasbag56
(g72
g58
NtRp4629
(dp4630
g61
(dp4631
sg70
g4554
sg63
(lp4632
g56
(g77
g58
NtRp4633
(dp4634
g61
(dp4635
sg70
g4629
sg63
(lp4636
g56
(g57
g58
NtRp4637
(dp4638
g61
(dp4639
g69
I4
ssg70
g4633
sg63
(lp4640
g56
(g65
g58
NtRp4641
(dp4642
g61
(dp4643
g69
I3
ssg70
Nsg63
(lp4644
g56
(g72
g58
NtRp4645
(dp4646
g61
(dp4647
sg70
g4641
sg63
(lp4648
g56
(g77
g58
NtRp4649
(dp4650
g61
(dp4651
sg70
g4645
sg63
(lp4652
g56
(g57
g58
NtRp4653
(dp4654
g61
(dp4655
g69
I3
ssg70
g4649
sg63
(lp4656
g4586
(S's\x08\x00\x00\x00This App'
tRp4657
asbasbasbag56
(g72
g58
NtRp4658
(dp4659
g61
(dp4660
sg70
g4641
sg63
(lp4661
g56
(g77
g58
NtRp4662
(dp4663
g61
(dp4664
sg70
g4658
sg63
(lp4665
g56
(g57
g58
NtRp4666
(dp4667
g61
(dp4668
g69
I3
ssg70
g4662
sg63
(lp4669
g99
asbasbasbag56
(g72
g58
NtRp4670
(dp4671
g61
(dp4672
sg70
g4641
sg63
(lp4673
g56
(g77
g58
NtRp4674
(dp4675
g61
(dp4676
sg70
g4670
sg63
(lp4677
g56
(g57
g58
NtRp4678
(dp4679
g61
(dp4680
g69
I3
ssg70
g4674
sg63
(lp4681
S'/admin/default/design/places'
p4682
asbasbasbag56
(g72
g58
NtRp4683
(dp4684
g61
(dp4685
sg70
g4641
sg63
(lp4686
g56
(g77
g58
NtRp4687
(dp4688
g61
(dp4689
sg70
g4683
sg63
(lp4690
g56
(g57
g58
NtRp4691
(dp4692
g61
(dp4693
g69
I3
ssg70
g4687
sg63
(lp4694
g56
(g65
g58
NtRp4695
(dp4696
g61
(dp4697
g69
I2
ssg70
Nsg63
(lp4698
g56
(g72
g58
NtRp4699
(dp4700
g61
(dp4701
sg70
g4695
sg63
(lp4702
g56
(g77
g58
NtRp4703
(dp4704
g61
(dp4705
sg70
g4699
sg63
(lp4706
g56
(g57
g58
NtRp4707
(dp4708
g61
(dp4709
g69
I2
ssg70
g4703
sg63
(lp4710
g56
(g65
g58
NtRp4711
(dp4712
g61
(dp4713
g69
I1
ssg70
Nsg63
(lp4714
g56
(g72
g58
NtRp4715
(dp4716
g61
(dp4717
sg70
g4711
sg63
(lp4718
g56
(g77
g58
NtRp4719
(dp4720
g61
(dp4721
sg70
g4715
sg63
(lp4722
g56
(g57
g58
NtRp4723
(dp4724
g61
(dp4725
g69
I1
ssg70
g4719
sg63
(lp4726
g4586
(S't\n\x00\x00\x00Controller'
tRp4727
asbasbasbag56
(g72
g58
NtRp4728
(dp4729
g61
(dp4730
sg70
g4711
sg63
(lp4731
g56
(g77
g58
NtRp4732
(dp4733
g61
(dp4734
sg70
g4728
sg63
(lp4735
g56
(g57
g58
NtRp4736
(dp4737
g61
(dp4738
g69
I1
ssg70
g4732
sg63
(lp4739
I00
asbasbasbag56
(g72
g58
NtRp4740
(dp4741
g61
(dp4742
sg70
g4711
sg63
(lp4743
g56
(g77
g58
NtRp4744
(dp4745
g61
(dp4746
sg70
g4740
sg63
(lp4747
g56
(g57
g58
NtRp4748
(dp4749
g61
(dp4750
g69
I1
ssg70
g4744
sg63
(lp4751
S'/admin/default/edit/places/controllers/default.py'
p4752
asbasbasbasbasbasbasbag56
(g72
g58
NtRp4753
(dp4754
g61
(dp4755
sg70
g4695
sg63
(lp4756
g56
(g77
g58
NtRp4757
(dp4758
g61
(dp4759
sg70
g4753
sg63
(lp4760
g56
(g57
g58
NtRp4761
(dp4762
g61
(dp4763
g69
I2
ssg70
g4757
sg63
(lp4764
g56
(g65
g58
NtRp4765
(dp4766
g61
(dp4767
g69
I1
ssg70
Nsg63
(lp4768
g56
(g72
g58
NtRp4769
(dp4770
g61
(dp4771
sg70
g4765
sg63
(lp4772
g56
(g77
g58
NtRp4773
(dp4774
g61
(dp4775
sg70
g4769
sg63
(lp4776
g56
(g57
g58
NtRp4777
(dp4778
g61
(dp4779
g69
I1
ssg70
g4773
sg63
(lp4780
g4586
(S't\x04\x00\x00\x00View'
tRp4781
asbasbasbag56
(g72
g58
NtRp4782
(dp4783
g61
(dp4784
sg70
g4765
sg63
(lp4785
g56
(g77
g58
NtRp4786
(dp4787
g61
(dp4788
sg70
g4782
sg63
(lp4789
g56
(g57
g58
NtRp4790
(dp4791
g61
(dp4792
g69
I1
ssg70
g4786
sg63
(lp4793
I00
asbasbasbag56
(g72
g58
NtRp4794
(dp4795
g61
(dp4796
sg70
g4765
sg63
(lp4797
g56
(g77
g58
NtRp4798
(dp4799
g61
(dp4800
sg70
g4794
sg63
(lp4801
g56
(g57
g58
NtRp4802
(dp4803
g61
(dp4804
g69
I1
ssg70
g4798
sg63
(lp4805
S'/admin/default/edit/places/views/default/index.html'
p4806
asbasbasbasbasbasbasbag56
(g72
g58
NtRp4807
(dp4808
g61
(dp4809
sg70
g4695
sg63
(lp4810
g56
(g77
g58
NtRp4811
(dp4812
g61
(dp4813
sg70
g4807
sg63
(lp4814
g56
(g57
g58
NtRp4815
(dp4816
g61
(dp4817
g69
I2
ssg70
g4811
sg63
(lp4818
g56
(g65
g58
NtRp4819
(dp4820
g61
(dp4821
g69
I1
ssg70
Nsg63
(lp4822
g56
(g72
g58
NtRp4823
(dp4824
g61
(dp4825
sg70
g4819
sg63
(lp4826
g56
(g77
g58
NtRp4827
(dp4828
g61
(dp4829
sg70
g4823
sg63
(lp4830
g56
(g57
g58
NtRp4831
(dp4832
g61
(dp4833
g69
I1
ssg70
g4827
sg63
(lp4834
g4586
(S't\x06\x00\x00\x00Layout'
tRp4835
asbasbasbag56
(g72
g58
NtRp4836
(dp4837
g61
(dp4838
sg70
g4819
sg63
(lp4839
g56
(g77
g58
NtRp4840
(dp4841
g61
(dp4842
sg70
g4836
sg63
(lp4843
g56
(g57
g58
NtRp4844
(dp4845
g61
(dp4846
g69
I1
ssg70
g4840
sg63
(lp4847
I00
asbasbasbag56
(g72
g58
NtRp4848
(dp4849
g61
(dp4850
sg70
g4819
sg63
(lp4851
g56
(g77
g58
NtRp4852
(dp4853
g61
(dp4854
sg70
g4848
sg63
(lp4855
g56
(g57
g58
NtRp4856
(dp4857
g61
(dp4858
g69
I1
ssg70
g4852
sg63
(lp4859
S'/admin/default/edit/places/views/layout.html'
p4860
asbasbasbasbasbasbasbag56
(g72
g58
NtRp4861
(dp4862
g61
(dp4863
sg70
g4695
sg63
(lp4864
g56
(g77
g58
NtRp4865
(dp4866
g61
(dp4867
sg70
g4861
sg63
(lp4868
g56
(g57
g58
NtRp4869
(dp4870
g61
(dp4871
g69
I2
ssg70
g4865
sg63
(lp4872
g56
(g65
g58
NtRp4873
(dp4874
g61
(dp4875
g69
I1
ssg70
Nsg63
(lp4876
g56
(g72
g58
NtRp4877
(dp4878
g61
(dp4879
sg70
g4873
sg63
(lp4880
g56
(g77
g58
NtRp4881
(dp4882
g61
(dp4883
sg70
g4877
sg63
(lp4884
g56
(g57
g58
NtRp4885
(dp4886
g61
(dp4887
g69
I1
ssg70
g4881
sg63
(lp4888
g4586
(S't\n\x00\x00\x00Stylesheet'
tRp4889
asbasbasbag56
(g72
g58
NtRp4890
(dp4891
g61
(dp4892
sg70
g4873
sg63
(lp4893
g56
(g77
g58
NtRp4894
(dp4895
g61
(dp4896
sg70
g4890
sg63
(lp4897
g56
(g57
g58
NtRp4898
(dp4899
g61
(dp4900
g69
I1
ssg70
g4894
sg63
(lp4901
I00
asbasbasbag56
(g72
g58
NtRp4902
(dp4903
g61
(dp4904
sg70
g4873
sg63
(lp4905
g56
(g77
g58
NtRp4906
(dp4907
g61
(dp4908
sg70
g4902
sg63
(lp4909
g56
(g57
g58
NtRp4910
(dp4911
g61
(dp4912
g69
I1
ssg70
g4906
sg63
(lp4913
S'/admin/default/edit/places/static/base.css'
p4914
asbasbasbasbasbasbasbag56
(g72
g58
NtRp4915
(dp4916
g61
(dp4917
sg70
g4695
sg63
(lp4918
g56
(g77
g58
NtRp4919
(dp4920
g61
(dp4921
sg70
g4915
sg63
(lp4922
g56
(g57
g58
NtRp4923
(dp4924
g61
(dp4925
g69
I2
ssg70
g4919
sg63
(lp4926
g56
(g65
g58
NtRp4927
(dp4928
g61
(dp4929
g69
I1
ssg70
Nsg63
(lp4930
g56
(g72
g58
NtRp4931
(dp4932
g61
(dp4933
sg70
g4927
sg63
(lp4934
g56
(g77
g58
NtRp4935
(dp4936
g61
(dp4937
sg70
g4931
sg63
(lp4938
g56
(g57
g58
NtRp4939
(dp4940
g61
(dp4941
g69
I1
ssg70
g4935
sg63
(lp4942
g4586
(S's\x08\x00\x00\x00DB Model'
tRp4943
asbasbasbag56
(g72
g58
NtRp4944
(dp4945
g61
(dp4946
sg70
g4927
sg63
(lp4947
g56
(g77
g58
NtRp4948
(dp4949
g61
(dp4950
sg70
g4944
sg63
(lp4951
g56
(g57
g58
NtRp4952
(dp4953
g61
(dp4954
g69
I1
ssg70
g4948
sg63
(lp4955
I00
asbasbasbag56
(g72
g58
NtRp4956
(dp4957
g61
(dp4958
sg70
g4927
sg63
(lp4959
g56
(g77
g58
NtRp4960
(dp4961
g61
(dp4962
sg70
g4956
sg63
(lp4963
g56
(g57
g58
NtRp4964
(dp4965
g61
(dp4966
g69
I1
ssg70
g4960
sg63
(lp4967
S'/admin/default/edit/places/models/db.py'
p4968
asbasbasbasbasbasbasbag56
(g72
g58
NtRp4969
(dp4970
g61
(dp4971
sg70
g4695
sg63
(lp4972
g56
(g77
g58
NtRp4973
(dp4974
g61
(dp4975
sg70
g4969
sg63
(lp4976
g56
(g57
g58
NtRp4977
(dp4978
g61
(dp4979
g69
I2
ssg70
g4973
sg63
(lp4980
g56
(g65
g58
NtRp4981
(dp4982
g61
(dp4983
g69
I1
ssg70
Nsg63
(lp4984
g56
(g72
g58
NtRp4985
(dp4986
g61
(dp4987
sg70
g4981
sg63
(lp4988
g56
(g77
g58
NtRp4989
(dp4990
g61
(dp4991
sg70
g4985
sg63
(lp4992
g56
(g57
g58
NtRp4993
(dp4994
g61
(dp4995
g69
I1
ssg70
g4989
sg63
(lp4996
g4586
(S's\n\x00\x00\x00Menu Model'
tRp4997
asbasbasbag56
(g72
g58
NtRp4998
(dp4999
g61
(dp5000
sg70
g4981
sg63
(lp5001
g56
(g77
g58
NtRp5002
(dp5003
g61
(dp5004
sg70
g4998
sg63
(lp5005
g56
(g57
g58
NtRp5006
(dp5007
g61
(dp5008
g69
I1
ssg70
g5002
sg63
(lp5009
I00
asbasbasbag56
(g72
g58
NtRp5010
(dp5011
g61
(dp5012
sg70
g4981
sg63
(lp5013
g56
(g77
g58
NtRp5014
(dp5015
g61
(dp5016
sg70
g5010
sg63
(lp5017
g56
(g57
g58
NtRp5018
(dp5019
g61
(dp5020
g69
I1
ssg70
g5014
sg63
(lp5021
S'/admin/default/edit/places/models/menu.py'
p5022
asbasbasbasbasbasbasbag56
(g72
g58
NtRp5023
(dp5024
g61
(dp5025
sg70
g4695
sg63
(lp5026
g56
(g77
g58
NtRp5027
(dp5028
g61
(dp5029
sg70
g5023
sg63
(lp5030
g56
(g57
g58
NtRp5031
(dp5032
g61
(dp5033
g69
I2
ssg70
g5027
sg63
(lp5034
g56
(g65
g58
NtRp5035
(dp5036
g61
(dp5037
g69
I1
ssg70
Nsg63
(lp5038
g56
(g72
g58
NtRp5039
(dp5040
g61
(dp5041
sg70
g5035
sg63
(lp5042
g56
(g77
g58
NtRp5043
(dp5044
g61
(dp5045
sg70
g5039
sg63
(lp5046
g56
(g57
g58
NtRp5047
(dp5048
g61
(dp5049
g69
I1
ssg70
g5043
sg63
(lp5050
g4586
(S't\x08\x00\x00\x00Database'
tRp5051
asbasbasbag56
(g72
g58
NtRp5052
(dp5053
g61
(dp5054
sg70
g5035
sg63
(lp5055
g56
(g77
g58
NtRp5056
(dp5057
g61
(dp5058
sg70
g5052
sg63
(lp5059
g56
(g57
g58
NtRp5060
(dp5061
g61
(dp5062
g69
I1
ssg70
g5056
sg63
(lp5063
I00
asbasbasbag56
(g72
g58
NtRp5064
(dp5065
g61
(dp5066
sg70
g5035
sg63
(lp5067
g56
(g77
g58
NtRp5068
(dp5069
g61
(dp5070
sg70
g5064
sg63
(lp5071
g56
(g57
g58
NtRp5072
(dp5073
g61
(dp5074
g69
I1
ssg70
g5068
sg63
(lp5075
S'/places/appadmin/index'
p5076
asbasbasbasbasbasbasbag56
(g72
g58
NtRp5077
(dp5078
g61
(dp5079
sg70
g4695
sg63
(lp5080
g56
(g77
g58
NtRp5081
(dp5082
g61
(dp5083
sg70
g5077
sg63
(lp5084
g56
(g57
g58
NtRp5085
(dp5086
g61
(dp5087
g69
I2
ssg70
g5081
sg63
(lp5088
g56
(g65
g58
NtRp5089
(dp5090
g61
(dp5091
g69
I1
ssg70
Nsg63
(lp5092
g56
(g72
g58
NtRp5093
(dp5094
g61
(dp5095
sg70
g5089
sg63
(lp5096
g56
(g77
g58
NtRp5097
(dp5098
g61
(dp5099
sg70
g5093
sg63
(lp5100
g56
(g57
g58
NtRp5101
(dp5102
g61
(dp5103
g69
I1
ssg70
g5097
sg63
(lp5104
g4586
(S't\x06\x00\x00\x00Errors'
tRp5105
asbasbasbag56
(g72
g58
NtRp5106
(dp5107
g61
(dp5108
sg70
g5089
sg63
(lp5109
g56
(g77
g58
NtRp5110
(dp5111
g61
(dp5112
sg70
g5106
sg63
(lp5113
g56
(g57
g58
NtRp5114
(dp5115
g61
(dp5116
g69
I1
ssg70
g5110
sg63
(lp5117
I00
asbasbasbag56
(g72
g58
NtRp5118
(dp5119
g61
(dp5120
sg70
g5089
sg63
(lp5121
g56
(g77
g58
NtRp5122
(dp5123
g61
(dp5124
sg70
g5118
sg63
(lp5125
g56
(g57
g58
NtRp5126
(dp5127
g61
(dp5128
g69
I1
ssg70
g5122
sg63
(lp5129
S'/admin/default/errors/places'
p5130
asbasbasbasbasbasbasbag56
(g72
g58
NtRp5131
(dp5132
g61
(dp5133
sg70
g4695
sg63
(lp5134
g56
(g77
g58
NtRp5135
(dp5136
g61
(dp5137
sg70
g5131
sg63
(lp5138
g56
(g57
g58
NtRp5139
(dp5140
g61
(dp5141
g69
I2
ssg70
g5135
sg63
(lp5142
g56
(g65
g58
NtRp5143
(dp5144
g61
(dp5145
g69
I1
ssg70
Nsg63
(lp5146
g56
(g72
g58
NtRp5147
(dp5148
g61
(dp5149
sg70
g5143
sg63
(lp5150
g56
(g77
g58
NtRp5151
(dp5152
g61
(dp5153
sg70
g5147
sg63
(lp5154
g56
(g57
g58
NtRp5155
(dp5156
g61
(dp5157
g69
I1
ssg70
g5151
sg63
(lp5158
g4586
(S't\x05\x00\x00\x00About'
tRp5159
asbasbasbag56
(g72
g58
NtRp5160
(dp5161
g61
(dp5162
sg70
g5143
sg63
(lp5163
g56
(g77
g58
NtRp5164
(dp5165
g61
(dp5166
sg70
g5160
sg63
(lp5167
g56
(g57
g58
NtRp5168
(dp5169
g61
(dp5170
g69
I1
ssg70
g5164
sg63
(lp5171
I00
asbasbasbag56
(g72
g58
NtRp5172
(dp5173
g61
(dp5174
sg70
g5143
sg63
(lp5175
g56
(g77
g58
NtRp5176
(dp5177
g61
(dp5178
sg70
g5172
sg63
(lp5179
g56
(g57
g58
NtRp5180
(dp5181
g61
(dp5182
g69
I1
ssg70
g5176
sg63
(lp5183
S'/admin/default/about/places'
p5184
asbasbasbasbasbasbasbasbasbasbasbasbasbasbasbag56
(g72
g58
NtRp5185
(dp5186
g61
(dp5187
sg70
g4554
sg63
(lp5188
g56
(g77
g58
NtRp5189
(dp5190
g61
(dp5191
sg70
g5185
sg63
(lp5192
g56
(g57
g58
NtRp5193
(dp5194
g61
(dp5195
g69
I4
ssg70
g5189
sg63
(lp5196
g56
(g65
g58
NtRp5197
(dp5198
g61
(dp5199
g69
I3
ssg70
Nsg63
(lp5200
g56
(g72
g58
NtRp5201
(dp5202
g61
(dp5203
sg70
g5197
sg63
(lp5204
g56
(g77
g58
NtRp5205
(dp5206
g61
(dp5207
sg70
g5201
sg63
(lp5208
g56
(g57
g58
NtRp5209
(dp5210
g61
(dp5211
g69
I3
ssg70
g5205
sg63
(lp5212
g4586
(S't\t\x00\x00\x00Resources'
tRp5213
asbasbasbag56
(g72
g58
NtRp5214
(dp5215
g61
(dp5216
sg70
g5197
sg63
(lp5217
g56
(g77
g58
NtRp5218
(dp5219
g61
(dp5220
sg70
g5214
sg63
(lp5221
g56
(g57
g58
NtRp5222
(dp5223
g61
(dp5224
g69
I3
ssg70
g5218
sg63
(lp5225
g99
asbasbasbag56
(g72
g58
NtRp5226
(dp5227
g61
(dp5228
sg70
g5197
sg63
(lp5229
g56
(g77
g58
NtRp5230
(dp5231
g61
(dp5232
sg70
g5226
sg63
(lp5233
g56
(g57
g58
NtRp5234
(dp5235
g61
(dp5236
g69
I3
ssg70
g5230
sg63
(lp5237
S'None'
p5238
asbasbasbag56
(g72
g58
NtRp5239
(dp5240
g61
(dp5241
sg70
g5197
sg63
(lp5242
g56
(g77
g58
NtRp5243
(dp5244
g61
(dp5245
sg70
g5239
sg63
(lp5246
g56
(g57
g58
NtRp5247
(dp5248
g61
(dp5249
g69
I3
ssg70
g5243
sg63
(lp5250
g56
(g65
g58
NtRp5251
(dp5252
g61
(dp5253
g69
I2
ssg70
Nsg63
(lp5254
g56
(g72
g58
NtRp5255
(dp5256
g61
(dp5257
sg70
g5251
sg63
(lp5258
g56
(g77
g58
NtRp5259
(dp5260
g61
(dp5261
sg70
g5255
sg63
(lp5262
g56
(g57
g58
NtRp5263
(dp5264
g61
(dp5265
g69
I2
ssg70
g5259
sg63
(lp5266
g56
(g65
g58
NtRp5267
(dp5268
g61
(dp5269
g69
I1
ssg70
Nsg63
(lp5270
g56
(g72
g58
NtRp5271
(dp5272
g61
(dp5273
sg70
g5267
sg63
(lp5274
g56
(g77
g58
NtRp5275
(dp5276
g61
(dp5277
sg70
g5271
sg63
(lp5278
g56
(g57
g58
NtRp5279
(dp5280
g61
(dp5281
g69
I1
ssg70
g5275
sg63
(lp5282
g4586
(S't\r\x00\x00\x00Documentation'
tRp5283
asbasbasbag56
(g72
g58
NtRp5284
(dp5285
g61
(dp5286
sg70
g5267
sg63
(lp5287
g56
(g77
g58
NtRp5288
(dp5289
g61
(dp5290
sg70
g5284
sg63
(lp5291
g56
(g57
g58
NtRp5292
(dp5293
g61
(dp5294
g69
I1
ssg70
g5288
sg63
(lp5295
I00
asbasbasbag56
(g72
g58
NtRp5296
(dp5297
g61
(dp5298
sg70
g5267
sg63
(lp5299
g56
(g77
g58
NtRp5300
(dp5301
g61
(dp5302
sg70
g5296
sg63
(lp5303
g56
(g57
g58
NtRp5304
(dp5305
g61
(dp5306
g69
I1
ssg70
g5300
sg63
(lp5307
S'http://www.web2py.com/book'
p5308
asbasbasbag56
(g72
g58
NtRp5309
(dp5310
g61
(dp5311
sg70
g5267
sg63
(lp5312
g56
(g77
g58
NtRp5313
(dp5314
g61
(dp5315
sg70
g5309
sg63
(lp5316
g56
(g57
g58
NtRp5317
(dp5318
g61
(dp5319
g69
I1
ssg70
g5313
sg63
(lp5320
(lp5321
(g4586
(S't\x07\x00\x00\x00Preface'
tRp5322
I00
S'http://www.web2py.com/book/default/chapter/00'
p5323
tp5324
a(g4586
(S't\x0c\x00\x00\x00Introduction'
tRp5325
I00
S'http://www.web2py.com/book/default/chapter/01'
p5326
tp5327
a(g4586
(S't\x06\x00\x00\x00Python'
tRp5328
I00
S'http://www.web2py.com/book/default/chapter/02'
p5329
tp5330
a(g4586
(S't\x08\x00\x00\x00Overview'
tRp5331
I00
S'http://www.web2py.com/book/default/chapter/03'
p5332
tp5333
a(g4586
(S's\x08\x00\x00\x00The Core'
tRp5334
I00
S'http://www.web2py.com/book/default/chapter/04'
p5335
tp5336
a(g4586
(S's\t\x00\x00\x00The Views'
tRp5337
I00
S'http://www.web2py.com/book/default/chapter/05'
p5338
tp5339
a(g4586
(S't\x08\x00\x00\x00Database'
tRp5340
I00
S'http://www.web2py.com/book/default/chapter/06'
p5341
tp5342
a(g4586
(S's\x14\x00\x00\x00Forms and Validators'
tRp5343
I00
S'http://www.web2py.com/book/default/chapter/07'
p5344
tp5345
a(g4586
(S's\x0e\x00\x00\x00Access Control'
tRp5346
I00
S'http://www.web2py.com/book/default/chapter/08'
p5347
tp5348
a(g4586
(S't\x08\x00\x00\x00Services'
tRp5349
I00
S'http://www.web2py.com/book/default/chapter/09'
p5350
tp5351
a(g4586
(S's\x0c\x00\x00\x00Ajax Recipes'
tRp5352
I00
S'http://www.web2py.com/book/default/chapter/10'
p5353
tp5354
a(g4586
(S's\x12\x00\x00\x00Deployment Recipes'
tRp5355
I00
S'http://www.web2py.com/book/default/chapter/11'
p5356
tp5357
a(g4586
(S's\r\x00\x00\x00Other Recipes'
tRp5358
I00
S'http://www.web2py.com/book/default/chapter/12'
p5359
tp5360
a(g4586
(S's\r\x00\x00\x00Buy this book'
tRp5361
I00
S'http://stores.lulu.com/web2py'
p5362
tp5363
aasbasbasbasbasbasbasbag56
(g72
g58
NtRp5364
(dp5365
g61
(dp5366
sg70
g5251
sg63
(lp5367
g56
(g77
g58
NtRp5368
(dp5369
g61
(dp5370
sg70
g5364
sg63
(lp5371
g56
(g57
g58
NtRp5372
(dp5373
g61
(dp5374
g69
I2
ssg70
g5368
sg63
(lp5375
g56
(g65
g58
NtRp5376
(dp5377
g61
(dp5378
g69
I1
ssg70
Nsg63
(lp5379
g56
(g72
g58
NtRp5380
(dp5381
g61
(dp5382
sg70
g5376
sg63
(lp5383
g56
(g77
g58
NtRp5384
(dp5385
g61
(dp5386
sg70
g5380
sg63
(lp5387
g56
(g57
g58
NtRp5388
(dp5389
g61
(dp5390
g69
I1
ssg70
g5384
sg63
(lp5391
g4586
(S't\t\x00\x00\x00Community'
tRp5392
asbasbasbag56
(g72
g58
NtRp5393
(dp5394
g61
(dp5395
sg70
g5376
sg63
(lp5396
g56
(g77
g58
NtRp5397
(dp5398
g61
(dp5399
sg70
g5393
sg63
(lp5400
g56
(g57
g58
NtRp5401
(dp5402
g61
(dp5403
g69
I1
ssg70
g5397
sg63
(lp5404
I00
asbasbasbag56
(g72
g58
NtRp5405
(dp5406
g61
(dp5407
sg70
g5376
sg63
(lp5408
g56
(g77
g58
NtRp5409
(dp5410
g61
(dp5411
sg70
g5405
sg63
(lp5412
g56
(g57
g58
NtRp5413
(dp5414
g61
(dp5415
g69
I1
ssg70
g5409
sg63
(lp5416
Nasbasbasbag56
(g72
g58
NtRp5417
(dp5418
g61
(dp5419
sg70
g5376
sg63
(lp5420
g56
(g77
g58
NtRp5421
(dp5422
g61
(dp5423
sg70
g5417
sg63
(lp5424
g56
(g57
g58
NtRp5425
(dp5426
g61
(dp5427
g69
I1
ssg70
g5421
sg63
(lp5428
(lp5429
(g4586
(S't\x06\x00\x00\x00Groups'
tRp5430
I00
S'http://www.web2py.com/examples/default/usergroups'
p5431
tp5432
a(g4586
(S't\x07\x00\x00\x00Twitter'
tRp5433
I00
S'http://twitter.com/web2py'
p5434
tp5435
a(g4586
(S's\t\x00\x00\x00Live chat'
tRp5436
I00
S'http://mibbit.com/?channel=%23web2py&server=irc.mibbit.net'
p5437
tp5438
a(g4586
(S's\n\x00\x00\x00User Voice'
tRp5439
I00
S'http://web2py.uservoice.com/'
p5440
tp5441
aasbasbasbasbasbasbasbag56
(g72
g58
NtRp5442
(dp5443
g61
(dp5444
sg70
g5251
sg63
(lp5445
g56
(g77
g58
NtRp5446
(dp5447
g61
(dp5448
sg70
g5442
sg63
(lp5449
g56
(g57
g58
NtRp5450
(dp5451
g61
(dp5452
g69
I2
ssg70
g5446
sg63
(lp5453
g56
(g65
g58
NtRp5454
(dp5455
g61
(dp5456
g69
I1
ssg70
Nsg63
(lp5457
g56
(g72
g58
NtRp5458
(dp5459
g61
(dp5460
sg70
g5454
sg63
(lp5461
g56
(g77
g58
NtRp5462
(dp5463
g61
(dp5464
sg70
g5458
sg63
(lp5465
g56
(g57
g58
NtRp5466
(dp5467
g61
(dp5468
g69
I1
ssg70
g5462
sg63
(lp5469
g4586
(S't\x06\x00\x00\x00Web2py'
tRp5470
asbasbasbag56
(g72
g58
NtRp5471
(dp5472
g61
(dp5473
sg70
g5454
sg63
(lp5474
g56
(g77
g58
NtRp5475
(dp5476
g61
(dp5477
sg70
g5471
sg63
(lp5478
g56
(g57
g58
NtRp5479
(dp5480
g61
(dp5481
g69
I1
ssg70
g5475
sg63
(lp5482
I00
asbasbasbag56
(g72
g58
NtRp5483
(dp5484
g61
(dp5485
sg70
g5454
sg63
(lp5486
g56
(g77
g58
NtRp5487
(dp5488
g61
(dp5489
sg70
g5483
sg63
(lp5490
g56
(g57
g58
NtRp5491
(dp5492
g61
(dp5493
g69
I1
ssg70
g5487
sg63
(lp5494
S'http://www.web2py.com'
p5495
asbasbasbag56
(g72
g58
NtRp5496
(dp5497
g61
(dp5498
sg70
g5454
sg63
(lp5499
g56
(g77
g58
NtRp5500
(dp5501
g61
(dp5502
sg70
g5496
sg63
(lp5503
g56
(g57
g58
NtRp5504
(dp5505
g61
(dp5506
g69
I1
ssg70
g5500
sg63
(lp5507
(lp5508
(g4586
(S't\x08\x00\x00\x00Download'
tRp5509
I00
S'http://www.web2py.com/examples/default/download'
p5510
tp5511
a(g4586
(S't\x07\x00\x00\x00Support'
tRp5512
I00
S'http://www.web2py.com/examples/default/support'
p5513
tp5514
a(g4586
(S's\x0e\x00\x00\x00Quick Examples'
tRp5515
I00
S'http://web2py.com/examples/default/examples'
p5516
tp5517
a(g4586
(S't\x03\x00\x00\x00FAQ'
tRp5518
I00
S'http://web2py.com/AlterEgo'
p5519
tp5520
a(g4586
(S's\x11\x00\x00\x00Free Applications'
tRp5521
I00
S'http://web2py.com/appliances'
p5522
tp5523
a(g4586
(S't\x07\x00\x00\x00Plugins'
tRp5524
I00
S'http://web2py.com/plugins'
p5525
tp5526
a(g4586
(S't\x07\x00\x00\x00Recipes'
tRp5527
I00
S'http://web2pyslices.com/'
p5528
tp5529
a(g4586
(S't\x04\x00\x00\x00Demo'
tRp5530
I00
S'http://web2py.com/demo_admin'
p5531
tp5532
a(g4586
(S't\x08\x00\x00\x00Semantic'
tRp5533
I00
S'http://web2py.com/semantic'
p5534
tp5535
a(g4586
(S't\x07\x00\x00\x00Layouts'
tRp5536
I00
S'http://web2py.com/layouts'
p5537
tp5538
a(g4586
(S't\x06\x00\x00\x00Videos'
tRp5539
I00
S'http://www.web2py.com/examples/default/videos/'
p5540
tp5541
aasbasbasbasbasbasbasbasbasbasbasbasbasbasbasbasbasbasbasbag56
(g72
g58
NtRp5542
(dp5543
g61
(dp5544
sg70
g4003
sg63
(lp5545
g56
(g77
g58
NtRp5546
(dp5547
g61
(dp5548
g81
g82
ssg70
g5542
sg63
(lp5549
S'meta'
p5550
asbag56
(g77
g58
NtRp5551
(dp5552
g61
(dp5553
g88
g89
ssg70
g5542
sg63
(lp5554
S':'
asbag56
(g77
g58
NtRp5555
(dp5556
g61
(dp5557
sg70
g5542
sg63
(lp5558
g56
(g57
g58
NtRp5559
(dp5560
g61
(dp5561
g69
I5
ssg70
g5555
sg63
(lp5562
g56
(g65
g58
NtRp5563
(dp5564
g61
(dp5565
g69
I4
ssg70
Nsg63
(lp5566
g56
(g72
g58
NtRp5567
(dp5568
g61
(dp5569
sg70
g5563
sg63
(lp5570
g56
(g77
g58
NtRp5571
(dp5572
g61
(dp5573
g81
g82
ssg70
g5567
sg63
(lp5574
S'author'
p5575
asbag56
(g77
g58
NtRp5576
(dp5577
g61
(dp5578
g88
g89
ssg70
g5567
sg63
(lp5579
S':'
asbag56
(g77
g58
NtRp5580
(dp5581
g61
(dp5582
sg70
g5567
sg63
(lp5583
g56
(g57
g58
NtRp5584
(dp5585
g61
(dp5586
g69
I4
ssg70
g5580
sg63
(lp5587
S'Your Name <you@example.com>'
p5588
asbasbasbag56
(g72
g58
NtRp5589
(dp5590
g61
(dp5591
sg70
g5563
sg63
(lp5592
g56
(g77
g58
NtRp5593
(dp5594
g61
(dp5595
g81
g82
ssg70
g5589
sg63
(lp5596
S'copyright'
p5597
asbag56
(g77
g58
NtRp5598
(dp5599
g61
(dp5600
g88
g89
ssg70
g5589
sg63
(lp5601
S':'
asbag56
(g77
g58
NtRp5602
(dp5603
g61
(dp5604
sg70
g5589
sg63
(lp5605
g56
(g57
g58
NtRp5606
(dp5607
g61
(dp5608
g69
I4
ssg70
g5602
sg63
(lp5609
S'Copyright 2011'
p5610
asbasbasbag56
(g72
g58
NtRp5611
(dp5612
g61
(dp5613
sg70
g5563
sg63
(lp5614
g56
(g77
g58
NtRp5615
(dp5616
g61
(dp5617
g81
g82
ssg70
g5611
sg63
(lp5618
S'description'
p5619
asbag56
(g77
g58
NtRp5620
(dp5621
g61
(dp5622
g88
g89
ssg70
g5611
sg63
(lp5623
S':'
asbag56
(g77
g58
NtRp5624
(dp5625
g61
(dp5626
sg70
g5611
sg63
(lp5627
g56
(g57
g58
NtRp5628
(dp5629
g61
(dp5630
g69
I4
ssg70
g5624
sg63
(lp5631
S'a cool new app'
p5632
asbasbasbag56
(g72
g58
NtRp5633
(dp5634
g61
(dp5635
sg70
g5563
sg63
(lp5636
g56
(g77
g58
NtRp5637
(dp5638
g61
(dp5639
g81
g82
ssg70
g5633
sg63
(lp5640
S'generator'
p5641
asbag56
(g77
g58
NtRp5642
(dp5643
g61
(dp5644
g88
g89
ssg70
g5633
sg63
(lp5645
S':'
asbag56
(g77
g58
NtRp5646
(dp5647
g61
(dp5648
sg70
g5633
sg63
(lp5649
g56
(g57
g58
NtRp5650
(dp5651
g61
(dp5652
g69
I4
ssg70
g5646
sg63
(lp5653
S'Web2py Web Framework'
p5654
asbasbasbag56
(g72
g58
NtRp5655
(dp5656
g61
(dp5657
sg70
g5563
sg63
(lp5658
g56
(g77
g58
NtRp5659
(dp5660
g61
(dp5661
g81
g82
ssg70
g5655
sg63
(lp5662
S'keywords'
p5663
asbag56
(g77
g58
NtRp5664
(dp5665
g61
(dp5666
g88
g89
ssg70
g5655
sg63
(lp5667
S':'
asbag56
(g77
g58
NtRp5668
(dp5669
g61
(dp5670
sg70
g5655
sg63
(lp5671
g56
(g57
g58
NtRp5672
(dp5673
g61
(dp5674
g69
I4
ssg70
g5668
sg63
(lp5675
S'web2py, python, framework'
p5676
asbasbasbasbasbasbasbag56
(g72
g58
NtRp5677
(dp5678
g61
(dp5679
sg70
g4003
sg63
(lp5680
g56
(g77
g58
NtRp5681
(dp5682
g61
(dp5683
g81
g82
ssg70
g5677
sg63
(lp5684
S'postprocessing'
p5685
asbag56
(g77
g58
NtRp5686
(dp5687
g61
(dp5688
g88
g89
ssg70
g5677
sg63
(lp5689
S':'
asbag56
(g77
g58
NtRp5690
(dp5691
g61
(dp5692
sg70
g5677
sg63
(lp5693
g56
(g57
g58
NtRp5694
(dp5695
g61
(dp5696
g69
I5
ssg70
g5690
sg63
(lp5697
g56
(g65
g58
NtRp5698
(dp5699
g61
(dp5700
g69
I4
ssg70
Nsg63
(lp5701
sbasbasbasbag56
(g72
g58
NtRp5702
(dp5703
g61
(dp5704
sg70
g4003
sg63
(lp5705
g56
(g77
g58
NtRp5706
(dp5707
g61
(dp5708
g81
g82
ssg70
g5702
sg63
(lp5709
S'session_file'
p5710
asbag56
(g77
g58
NtRp5711
(dp5712
g61
(dp5713
g88
g89
ssg70
g5702
sg63
(lp5714
S':'
asbag56
(g77
g58
NtRp5715
(dp5716
g61
(dp5717
sg70
g5702
sg63
(lp5718
g56
(g57
g58
NtRp5719
(dp5720
g61
(dp5721
g69
I5
ssg70
g5715
sg63
(lp5722
S"<open file '/home/ian/Dropbox/Web_Pages/web2py-linux/applications/places/sessions/127.0.0.1-ae378f77-b944-4a55-be06-eed4ce913913', mode 'rb+' at 0x303e300>"
p5723
asbasbasbag56
(g72
g58
NtRp5724
(dp5725
g61
(dp5726
sg70
g4003
sg63
(lp5727
g56
(g77
g58
NtRp5728
(dp5729
g61
(dp5730
g81
g82
ssg70
g5724
sg63
(lp5731
S'session_filename'
p5732
asbag56
(g77
g58
NtRp5733
(dp5734
g61
(dp5735
g88
g89
ssg70
g5724
sg63
(lp5736
S':'
asbag56
(g77
g58
NtRp5737
(dp5738
g61
(dp5739
sg70
g5724
sg63
(lp5740
g56
(g57
g58
NtRp5741
(dp5742
g61
(dp5743
g69
I5
ssg70
g5737
sg63
(lp5744
S'/home/ian/Dropbox/Web_Pages/web2py-linux/applications/places/sessions/127.0.0.1-ae378f77-b944-4a55-be06-eed4ce913913'
p5745
asbasbasbag56
(g72
g58
NtRp5746
(dp5747
g61
(dp5748
sg70
g4003
sg63
(lp5749
g56
(g77
g58
NtRp5750
(dp5751
g61
(dp5752
g81
g82
ssg70
g5746
sg63
(lp5753
S'session_id'
p5754
asbag56
(g77
g58
NtRp5755
(dp5756
g61
(dp5757
g88
g89
ssg70
g5746
sg63
(lp5758
S':'
asbag56
(g77
g58
NtRp5759
(dp5760
g61
(dp5761
sg70
g5746
sg63
(lp5762
g56
(g57
g58
NtRp5763
(dp5764
g61
(dp5765
g69
I5
ssg70
g5759
sg63
(lp5766
S'127.0.0.1-ae378f77-b944-4a55-be06-eed4ce913913'
p5767
asbasbasbag56
(g72
g58
NtRp5768
(dp5769
g61
(dp5770
sg70
g4003
sg63
(lp5771
g56
(g77
g58
NtRp5772
(dp5773
g61
(dp5774
g81
g82
ssg70
g5768
sg63
(lp5775
S'session_id_name'
p5776
asbag56
(g77
g58
NtRp5777
(dp5778
g61
(dp5779
g88
g89
ssg70
g5768
sg63
(lp5780
S':'
asbag56
(g77
g58
NtRp5781
(dp5782
g61
(dp5783
sg70
g5768
sg63
(lp5784
g56
(g57
g58
NtRp5785
(dp5786
g61
(dp5787
g69
I5
ssg70
g5781
sg63
(lp5788
g4060
asbasbasbag56
(g72
g58
NtRp5789
(dp5790
g61
(dp5791
sg70
g4003
sg63
(lp5792
g56
(g77
g58
NtRp5793
(dp5794
g61
(dp5795
g81
g82
ssg70
g5789
sg63
(lp5796
S'session_locked'
p5797
asbag56
(g77
g58
NtRp5798
(dp5799
g61
(dp5800
g88
g89
ssg70
g5789
sg63
(lp5801
S':'
asbag56
(g77
g58
NtRp5802
(dp5803
g61
(dp5804
sg70
g5789
sg63
(lp5805
g56
(g57
g58
NtRp5806
(dp5807
g61
(dp5808
g69
I5
ssg70
g5802
sg63
(lp5809
g2026
asbasbasbag56
(g72
g58
NtRp5810
(dp5811
g61
(dp5812
sg70
g4003
sg63
(lp5813
g56
(g77
g58
NtRp5814
(dp5815
g61
(dp5816
g81
g82
ssg70
g5810
sg63
(lp5817
S'session_new'
p5818
asbag56
(g77
g58
NtRp5819
(dp5820
g61
(dp5821
g88
g89
ssg70
g5810
sg63
(lp5822
S':'
asbag56
(g77
g58
NtRp5823
(dp5824
g61
(dp5825
sg70
g5810
sg63
(lp5826
g56
(g57
g58
NtRp5827
(dp5828
g61
(dp5829
g69
I5
ssg70
g5823
sg63
(lp5830
g99
asbasbasbag56
(g72
g58
NtRp5831
(dp5832
g61
(dp5833
sg70
g4003
sg63
(lp5834
g56
(g77
g58
NtRp5835
(dp5836
g61
(dp5837
g81
g82
ssg70
g5831
sg63
(lp5838
S'status'
p5839
asbag56
(g77
g58
NtRp5840
(dp5841
g61
(dp5842
g88
g89
ssg70
g5831
sg63
(lp5843
S':'
asbag56
(g77
g58
NtRp5844
(dp5845
g61
(dp5846
sg70
g5831
sg63
(lp5847
g56
(g57
g58
NtRp5848
(dp5849
g61
(dp5850
g69
I5
ssg70
g5844
sg63
(lp5851
S'200'
p5852
asbasbasbag56
(g72
g58
NtRp5853
(dp5854
g61
(dp5855
sg70
g4003
sg63
(lp5856
g56
(g77
g58
NtRp5857
(dp5858
g61
(dp5859
g81
g82
ssg70
g5853
sg63
(lp5860
S'subtitle'
p5861
asbag56
(g77
g58
NtRp5862
(dp5863
g61
(dp5864
g88
g89
ssg70
g5853
sg63
(lp5865
S':'
asbag56
(g77
g58
NtRp5866
(dp5867
g61
(dp5868
sg70
g5853
sg63
(lp5869
g56
(g57
g58
NtRp5870
(dp5871
g61
(dp5872
g69
I5
ssg70
g5866
sg63
(lp5873
g4586
(S's\r\x00\x00\x00customize me!'
tRp5874
asbasbasbag56
(g72
g58
NtRp5875
(dp5876
g61
(dp5877
sg70
g4003
sg63
(lp5878
g56
(g77
g58
NtRp5879
(dp5880
g61
(dp5881
g81
g82
ssg70
g5875
sg63
(lp5882
S'title'
p5883
asbag56
(g77
g58
NtRp5884
(dp5885
g61
(dp5886
g88
g89
ssg70
g5875
sg63
(lp5887
S':'
asbag56
(g77
g58
NtRp5888
(dp5889
g61
(dp5890
sg70
g5875
sg63
(lp5891
g56
(g57
g58
NtRp5892
(dp5893
g61
(dp5894
g69
I5
ssg70
g5888
sg63
(lp5895
g121
asbasbasbag56
(g72
g58
NtRp5896
(dp5897
g61
(dp5898
sg70
g4003
sg63
(lp5899
g56
(g77
g58
NtRp5900
(dp5901
g61
(dp5902
g81
g82
ssg70
g5896
sg63
(lp5903
g2670
asbag56
(g77
g58
NtRp5904
(dp5905
g61
(dp5906
g88
g89
ssg70
g5896
sg63
(lp5907
S':'
asbag56
(g77
g58
NtRp5908
(dp5909
g61
(dp5910
sg70
g5896
sg63
(lp5911
g56
(g57
g58
NtRp5912
(dp5913
g61
(dp5914
g69
I5
ssg70
g5908
sg63
(lp5915
g2683
asbasbasbag56
(g72
g58
NtRp5916
(dp5917
g61
(dp5918
sg70
g4003
sg63
(lp5919
g56
(g77
g58
NtRp5920
(dp5921
g61
(dp5922
g81
g82
ssg70
g5916
sg63
(lp5923
S'view'
p5924
asbag56
(g77
g58
NtRp5925
(dp5926
g61
(dp5927
g88
g89
ssg70
g5916
sg63
(lp5928
S':'
asbag56
(g77
g58
NtRp5929
(dp5930
g61
(dp5931
sg70
g5916
sg63
(lp5932
g56
(g57
g58
NtRp5933
(dp5934
g61
(dp5935
g69
I5
ssg70
g5929
sg63
(lp5936
S'default/index.html'
p5937
asbasbasbasbasbsS'locals'
p5938
(dp5939
S'Service'
p5940
S"<class 'gluon.tools.Service'>"
p5941
sS'OBJECT'
p5942
S"<class 'gluon.html.OBJECT'>"
p5943
sS'SQLDB'
p5944
S"<class 'gluon.dal.DAL'>"
p5945
sg3385
S"<Storage {'last_query': 'db.tags.id>0', 'tags': ...reate]': 'a842512c-b0e5-49e5-820c-2809334c3c2e'}>"
p5946
sS'LINK'
p5947
S"<class 'gluon.html.LINK'>"
p5948
sS'BR'
p5949
S"<class 'gluon.html.BR'>"
p5950
sS'local_import'
p5951
S'<function <lambda>>'
p5952
sS'OPTGROUP'
p5953
S"<class 'gluon.html.OPTGROUP'>"
p5954
sS'PRE'
p5955
S"<class 'gluon.html.PRE'>"
p5956
sS'IS_INT_IN_RANGE'
p5957
S"<class 'gluon.validators.IS_INT_IN_RANGE'>"
p5958
sS'left_sidebar_enabled'
p5959
g99
sS'IS_LOWER'
p5960
S"<class 'gluon.validators.IS_LOWER'>"
p5961
sS'IS_STRONG'
p5962
S"<class 'gluon.validators.IS_STRONG'>"
p5963
sS'cache'
p5964
S'<gluon.cache.Cache object>'
p5965
sS'IS_IN_DB'
p5966
S"<class 'gluon.validators.IS_IN_DB'>"
p5967
sS'TAG'
p5968
S'<gluon.html.__TAG__ object>'
p5969
sS'SQLField'
p5970
S"<class 'gluon.dal.Field'>"
p5971
sS'mail'
p5972
S'<gluon.tools.Mail object>'
p5973
sS'BODY'
p5974
S"<class 'gluon.html.BODY'>"
p5975
sS'IS_DATE_IN_RANGE'
p5976
S"<class 'gluon.validators.IS_DATE_IN_RANGE'>"
p5977
sS'TH'
p5978
S"<class 'gluon.html.TH'>"
p5979
sS'URL'
p5980
S'<function URL>'
p5981
sS'__file__'
p5982
S"'/home/ian/Dropbox/Web_Pages/web2py-linux/applications/places/views/default/index.html'"
p5983
sS'db'
p5984
S"<DAL {'auth_event': <Table {'origin': <gluon.dal..., 'id': <gluon.dal.Field object at 0x2fa8510>}>}>"
p5985
sS'auth'
p5986
S'<gluon.tools.Auth object>'
p5987
sS'P'
S"<class 'gluon.html.P'>"
p5988
sS'TFOOT'
p5989
S"<class 'gluon.html.TFOOT'>"
p5990
sS'XHTML'
p5991
S"<class 'gluon.html.XHTML'>"
p5992
sS'ON'
p5993
g2026
sS'OL'
p5994
S"<class 'gluon.html.OL'>"
p5995
sS'TEXTAREA'
p5996
S"<class 'gluon.html.TEXTAREA'>"
p5997
sS'MENU'
p5998
S"<class 'gluon.html.MENU'>"
p5999
sS'LOAD'
p6000
S'<gluon.compileapp.LoadFactory object>'
p6001
sS'CODE'
p6002
S"<class 'gluon.html.CODE'>"
p6003
sS'HTTP'
p6004
S"<class 'gluon.http.HTTP'>"
p6005
sS'HR'
p6006
S"<class 'gluon.html.HR'>"
p6007
sS'IS_DATETIME'
p6008
S"<class 'gluon.validators.IS_DATETIME'>"
p6009
sS'HEAD'
p6010
S"<class 'gluon.html.HEAD'>"
p6011
sS'LABEL'
p6012
S"<class 'gluon.html.LABEL'>"
p6013
sS'CLEANUP'
p6014
S"<class 'gluon.validators.CLEANUP'>"
p6015
sS'plugins'
p6016
S'<gluon.tools.PluginManager object>'
p6017
sS'SELECT'
p6018
S"<class 'gluon.html.SELECT'>"
p6019
sS'use_janrain'
p6020
S'<function use_janrain>'
p6021
sS'CENTER'
p6022
S"<class 'gluon.html.CENTER'>"
p6023
sS'prettydate'
p6024
S'<function prettydate>'
p6025
sS'Crud'
p6026
S"<class 'gluon.tools.Crud'>"
p6027
sS'Auth'
p6028
S"<class 'gluon.tools.Auth'>"
p6029
sS'__builtins__'
p6030
S"{'ArithmeticError': <type 'exceptions.ArithmeticError'>, 'AssertionError': <type 'exceptions.AssertionError'>, 'AttributeError': <type 'exceptions.AttributeError'>, 'BaseException': <type 'exceptions.BaseException'>, 'BufferError': <type 'exceptions.BufferError'>, 'BytesWarning': <type 'exceptions.BytesWarning'>, 'DeprecationWarning': <type 'exceptions.DeprecationWarning'>, 'EOFError': <type 'exceptions.EOFError'>, 'Ellipsis': Ellipsis, 'EnvironmentError': <type 'exceptions.EnvironmentError'>, ...}"
p6031
sS'HTML'
p6032
S"<class 'gluon.html.HTML'>"
p6033
sS'SQLFORM'
p6034
S"<class 'gluon.sqlhtml.SQLFORM'>"
p6035
sS'EM'
p6036
S"<class 'gluon.html.EM'>"
p6037
sS'redirect'
p6038
S'<function redirect>'
p6039
sS'FIELDSET'
p6040
S"<class 'gluon.html.FIELDSET'>"
p6041
sS'IS_EQUAL_TO'
p6042
S"<class 'gluon.validators.IS_EQUAL_TO'>"
p6043
sS'embed64'
p6044
S'<function embed64>'
p6045
sS'IS_LIST_OF'
p6046
S"<class 'gluon.validators.IS_LIST_OF'>"
p6047
sS'INPUT'
p6048
S"<class 'gluon.html.INPUT'>"
p6049
sS'EMBED'
p6050
S"<class 'gluon.html.EMBED'>"
p6051
sS'_'
S'<function _>'
p6052
sS'FORM'
p6053
S"<class 'gluon.html.FORM'>"
p6054
sS'width_content'
p6055
S"'100%'"
p6056
sS'H2'
p6057
S"<class 'gluon.html.H2'>"
p6058
sS'H3'
p6059
S"<class 'gluon.html.H3'>"
p6060
sS'BUTTON'
p6061
S"<class 'gluon.html.BUTTON'>"
p6062
sS'H1'
p6063
S"<class 'gluon.html.H1'>"
p6064
sS'H6'
p6065
S"<class 'gluon.html.H6'>"
p6066
sS'H4'
p6067
S"<class 'gluon.html.H4'>"
p6068
sS'H5'
p6069
S"<class 'gluon.html.H5'>"
p6070
sS'UL'
p6071
S"<class 'gluon.html.UL'>"
p6072
sS'IS_UPPER'
p6073
S"<class 'gluon.validators.IS_UPPER'>"
p6074
sS'xmlescape'
p6075
S'<function xmlescape>'
p6076
sS'IS_TIME'
p6077
S"<class 'gluon.validators.IS_TIME'>"
p6078
sS'OPTION'
p6079
S"<class 'gluon.html.OPTION'>"
p6080
sS'TITLE'
p6081
S"<class 'gluon.html.TITLE'>"
p6082
sS'CRYPT'
p6083
S"<class 'gluon.validators.CRYPT'>"
p6084
sS'IS_EMPTY_OR'
p6085
S"<class 'gluon.validators.IS_EMPTY_OR'>"
p6086
sS'MARKMIN'
p6087
S"<class 'gluon.html.MARKMIN'>"
p6088
sS'COL'
p6089
S"<class 'gluon.html.COL'>"
p6090
sS'service'
p6091
S'<gluon.tools.Service object>'
p6092
sS'SCRIPT'
p6093
S"<class 'gluon.html.SCRIPT'>"
p6094
sS'TABLE'
p6095
S"<class 'gluon.html.TABLE'>"
p6096
sS'IS_IPV4'
p6097
S"<class 'gluon.validators.IS_IPV4'>"
p6098
sS'IS_LENGTH'
p6099
S"<class 'gluon.validators.IS_LENGTH'>"
p6100
sS'XML'
p6101
S"<class 'gluon.html.XML'>"
p6102
sS'B'
S"<class 'gluon.html.B'>"
p6103
sS'IMG'
p6104
S"<class 'gluon.html.IMG'>"
p6105
sS'SQLTABLE'
p6106
S"<class 'gluon.sqlhtml.SQLTABLE'>"
p6107
sS'IS_MATCH'
p6108
S"<class 'gluon.validators.IS_MATCH'>"
p6109
sS'IS_ALPHANUMERIC'
p6110
S"<class 'gluon.validators.IS_ALPHANUMERIC'>"
p6111
sS'SPAN'
p6112
S"<class 'gluon.html.SPAN'>"
p6113
sS'IS_SLUG'
p6114
S"<class 'gluon.validators.IS_SLUG'>"
p6115
sS'BEAUTIFY'
p6116
S"<class 'gluon.html.BEAUTIFY'>"
p6117
sS'META'
p6118
S"<class 'gluon.html.META'>"
p6119
sS'IS_DATE'
p6120
S"<class 'gluon.validators.IS_DATE'>"
p6121
sS'IS_EMAIL'
p6122
S"<class 'gluon.validators.IS_EMAIL'>"
p6123
sS'links'
p6124
S'<gluon.dal.Rows object>'
p6125
sS'IS_NOT_EMPTY'
p6126
S"<class 'gluon.validators.IS_NOT_EMPTY'>"
p6127
sS'IS_FLOAT_IN_RANGE'
p6128
S"<class 'gluon.validators.IS_FLOAT_IN_RANGE'>"
p6129
sS'TBODY'
p6130
S"<class 'gluon.html.TBODY'>"
p6131
sS'CAT'
p6132
S"<class 'gluon.html.CAT'>"
p6133
sS'Field'
p6134
S"<class 'gluon.dal.Field'>"
p6135
sS'tag'
p6136
S"{'id': 1, 'tag': 'kitchen'}"
p6137
sS'DIV'
p6138
S"<class 'gluon.html.DIV'>"
p6139
sS'LEGEND'
p6140
S"<class 'gluon.html.LEGEND'>"
p6141
sS'COLGROUP'
p6142
S"<class 'gluon.html.COLGROUP'>"
p6143
sS'DAL'
p6144
S"<class 'gluon.dal.DAL'>"
p6145
sS'TT'
p6146
S"<class 'gluon.html.TT'>"
p6147
sS'TR'
p6148
S"<class 'gluon.html.TR'>"
p6149
sS'LI'
p6150
S"<class 'gluon.html.LI'>"
p6151
sS'right_sidebar_enabled'
p6152
g99
sS'IFRAME'
p6153
S"<class 'gluon.html.IFRAME'>"
p6154
sS'TD'
p6155
S"<class 'gluon.html.TD'>"
p6156
sS'PluginManager'
p6157
S"<class 'gluon.tools.PluginManager'>"
p6158
sS'IS_URL'
p6159
S"<class 'gluon.validators.IS_URL'>"
p6160
sS'A'
S"<class 'gluon.html.A'>"
p6161
sS'STYLE'
p6162
S"<class 'gluon.html.STYLE'>"
p6163
sS'IS_DATETIME_IN_RANGE'
p6164
S"<class 'gluon.validators.IS_DATETIME_IN_RANGE'>"
p6165
sS'IS_IMAGE'
p6166
S"<class 'gluon.validators.IS_IMAGE'>"
p6167
sS'I'
S"<class 'gluon.html.I'>"
p6168
sS'crud'
p6169
S'<gluon.tools.Crud object>'
p6170
sS'right_sidebar_style'
p6171
S'\'style="display: none;"\''
p6172
sS'IS_NOT_IN_DB'
p6173
S"<class 'gluon.validators.IS_NOT_IN_DB'>"
p6174
sg3998
S"<Storage {'body': <cStringIO.StringO object at 0...da> at 0x3bc69b0>, 'view': 'default/index.html'}>"
p6175
sS'THEAD'
p6176
S"<class 'gluon.html.THEAD'>"
p6177
sS'IS_NULL_OR'
p6178
S"<class 'gluon.validators.IS_EMPTY_OR'>"
p6179
sS'left_sidebar_style'
p6180
S'\'style="display: none;"\''
p6181
sg55
S"<Storage {'body': <cStringIO.StringO object at 0..._vars': <Storage {}>, 'post_vars': <Storage {}>}>"
p6182
sS'IS_EXPR'
p6183
S"<class 'gluon.validators.IS_EXPR'>"
p6184
sS'T'
S'<gluon.languages.translator object>'
p6185
sS'IS_IN_SET'
p6186
S"<class 'gluon.validators.IS_IN_SET'>"
p6187
sS'IS_UPLOAD_FILENAME'
p6188
S"<class 'gluon.validators.IS_UPLOAD_FILENAME'>"
p6189
sS'style_content'
p6190
S'\'style="width: 100%"\''
p6191
sS'IS_DECIMAL_IN_RANGE'
p6192
S"<class 'gluon.validators.IS_DECIMAL_IN_RANGE'>"
p6193
sssS'traceback'
p6194
S'Traceback (most recent call last):\n  File "/home/ian/Dropbox/Web_Pages/web2py-linux/gluon/restricted.py", line 194, in restricted\n    exec ccode in environment\n  File "/home/ian/Dropbox/Web_Pages/web2py-linux/applications/places/views/default/index.html", line 86, in <module>\nAttributeError: \'dict\' object has no attribute \'tag\'\n'
p6195
s.