(dp1
S'output'
p2
S''
sS'layer'
p3
S'/home/ian/Dropbox/Web_Pages/web2py-linux/applications/places/views/default/index.html'
p4
sS'code'
p5
S'left_sidebar_enabled=right_sidebar_enabled=False\nresponse.write(\'\\n\', escape=False)\nresponse.write(\'<!DOCTYPE html>\\n<html lang="\', escape=False)\nresponse.write(T.accepted_language or \'en\')\nresponse.write(\'" class="no-js"><!-- no-js need it for modernzr -->\\n  <head>\\n    \\n    <meta charset="utf-8" />        \\n    <!-- www.phpied.com/conditional-comments-block-downloads/ -->\\n    <!--[if IE]>\\n      <!-- Always force latest IE rendering engine \\n       (even in intranet) & Chrome Frame \\n       Remove this if you use the .htaccess -->\\n      <meta http-equiv="X-UA-Compatible" content="IE=edge,chrome=1">\\n    <![endif]-->    \\n\\n    <title>\', escape=False)\nresponse.write(response.title or request.application)\nresponse.write(\'</title>\\n    \\n    <!-- http://dev.w3.org/html5/markup/meta.name.html -->\\n    <meta name="application-name" content="\', escape=False)\nresponse.write(request.application)\nresponse.write(\'" /> \\n    \\n    <!-- Speaking of Google, don\\\'t forget to set your site up: \\n     http://google.com/webmasters -->\\n    <meta name="google-site-verification" content="" />\\n    \\n    <!--  Mobile Viewport Fix\\n      j.mp/mobileviewport & davidbcalhoun.com/2010/viewport-metatag \\n      device-width: Occupy full width of the screen in its current orientation\\n      initial-scale = 1.0 retains dimensions instead of zooming out if page height > device height\\n      maximum-scale = 1.0 retains dimensions instead of zooming in if page width < device width\\n      -->\\n    <meta name="viewport" content="width=device-width, initial-scale=1.0, maximum-scale=1.0">\\n    \\n    <!-- Place favicon.ico and apple-touch-icon.png in the root of your domain and delete these references -->\\n    <link rel="shortcut icon" href="\', escape=False)\nresponse.write(URL(\'static\',\'favicon.ico\'))\nresponse.write(\'" type="image/x-icon">\\n    <link rel="apple-touch-icon" href="\', escape=False)\nresponse.write(URL(\'static\',\'favicon.png\'))\nresponse.write(\'">\\n\\n    <!-- For the less-enabled mobile browsers like Opera Mini -->\\n    <link rel="stylesheet" media="handheld" href="\', escape=False)\nresponse.write(URL(\'static\',\'css/handheld.css\'))\nresponse.write(\'">\\n    \\n    <!-- All JavaScript at the bottom, except for Modernizr which enables HTML5 elements & feature detects -->\\n    <script src="\', escape=False)\nresponse.write(URL(\'static\',\'js/modernizr-1.7.min.js\'))\nresponse.write(\'"></script>\\n    \\n    \', escape=False)\n#------  require CSS and JS files for this page (read info in base.css) ------\nresponse.write(\'\\n    \', escape=False)\nresponse.files.append(URL(\'static\',\'css/base.css\'))\nresponse.write(\'\\n    \', escape=False)\nresponse.files.append(URL(\'static\',\'css/superfish.css\'))\nresponse.write(\'\\n    \', escape=False)\nresponse.files.append(URL(\'static\',\'js/superfish.js\'))\nresponse.write(\'\\n    \', escape=False)\n#------ include web2py specific js code (jquery, calendar, form stuff) ------\nresponse.write(\'\\n    \', escape=False)\nresponse.files.insert(0,URL(\'static\',\'js/jquery.js\'))\nresponse.files.insert(1,URL(\'static\',\'css/anytime.css\'))\nresponse.files.insert(2,URL(\'static\',\'js/anytime.js\'))\nresponse.include_meta()\nresponse.include_files()\nresponse.write(\'\\n<script type="text/javascript"><!--\\n    // These variables are used by the web2py_ajax_init function in web2py_ajax.js (which is loaded below).\\n    var w2p_ajax_confirm_message = "\', escape=False)\nresponse.write(T(\'Are you sure you want to delete this object?\'))\nresponse.write(\'";\\n    var w2p_ajax_date_format = "\', escape=False)\nresponse.write(T(\'%Y-%m-%d\'))\nresponse.write(\'";\\n    var w2p_ajax_datetime_format = "\', escape=False)\nresponse.write(T(\'%Y-%m-%d %H:%M:%S\'))\nresponse.write(\'";\\n    //--></script>\\n    <script src="\', escape=False)\nresponse.write(URL(\'static\',\'js/web2py_ajax.js\'))\nresponse.write(\'" type="text/javascript"></script>\\n\', escape=False)\nresponse.write(\'\\n\\n    \', escape=False)\n#using sidebars need to know what sidebar you want to use\n#prior of using it, because of static width size of content, you can use\n#left_sidebar, right_sidebar, both or none (False left and right)\nleft_sidebar_enabled = globals().get(\'left_sidebar_enabled\',False)\nright_sidebar_enabled = globals().get(\'right_sidebar_enabled\',False)\nif left_sidebar_enabled and right_sidebar_enabled: width_content=\'63%\'\nelif left_sidebar_enabled != right_sidebar_enabled: width_content=\'740px\'\nelse: width_content=\'100%\'\nif left_sidebar_enabled: left_sidebar_style = \'style="display: block;"\'\nelse: left_sidebar_style = \'style="display: none;"\'\nif right_sidebar_enabled: right_sidebar_style = \'style="display: block;"\'\nelse: right_sidebar_style = \'style="display: none;"\'\nstyle_content = \'style="width: %s"\' % width_content\nresponse.write(\'\\n    \\n    <!-- uncomment here to load jquery-ui -->\\n    \\n    <link rel="stylesheet" href="http://ajax.googleapis.com/ajax/libs/jqueryui/1.8.16/themes/base/jquery-ui.css" type="text/css" media="all" />\\n    <script src="http://ajax.googleapis.com/ajax/libs/jqueryui/1.8.16/jquery-ui.min.js" type="text/javascript"></script>\\n    \\n   <!-- uncomment to load jquery-ui -->\\n    \\n    \\n  </head>\\n  \\n  <!-- paulirish.com/2008/conditional-stylesheets-vs-css-hacks-answer-neither/ -->  \\n  <!--[if lt IE 7 ]> <body class="ie6"> <![endif]-->\\n  <!--[if IE 7 ]>    <body class="ie7"> <![endif]-->\\n  <!--[if IE 8 ]>    <body class="ie8"> <![endif]-->\\n  <!--[if IE 9 ]>    <body class="ie9"> <![endif]-->\\n  <!--[if (gt IE 9)|!(IE)]><!--> <body> <!--<![endif]-->\\n    \\n    <div class="flash">\', escape=False)\nresponse.write(response.flash or \'\')\nresponse.write(\'</div> <!-- notification div -->\\n\\n        \\n\\n    <div id="container">                        \\n      \\n      <div id="wrapper">        \\n      \', escape=False)\ntry:\n    response.write(auth.navbar(action=URL(\'default\',\'user\')))\nexcept:pass\nresponse.write(\'\\n    \\n    <div id="header"> <!-- header and login nav -->\\n      \', escape=False)\nresponse.write(\' <!-- this is default header -->\\n      \\n      <h1>\\n        <span id="appname">\', escape=False)\nresponse.write(request.application.capitalize())\nresponse.write(\'</span>App\\n      </h1>\\n      <div style="clear: both;"></div><!-- Clear the divs -->\\n      \', escape=False)\nresponse.write(\'\\n    </div><!-- header  -->\\n    \\n    <div id="statusbar"><!-- statusbar is menu zone -->\\n      \', escape=False)\nresponse.write(\' <!-- this is default statusbar -->\\n      \', escape=False)\n#------ superfish menu ------\nresponse.write(\'\\n      \', escape=False)\nresponse.write(MENU(response.menu,_class=\'sf-menu\'))\nresponse.write(\'\\n      <script type="text/javascript">\\n        jQuery(document).ready(function(){\\n        jQuery(\\\'ul.sf-menu\\\').superfish();});\\n      </script>\\n\\n      <!-- AddToAny BEGIN -->\\n      <div style="padding: 7px; float:right;" class="a2a_kit a2a_default_style"><a class="a2a_dd" href="http://www.addtoany.com/share_save">Share</a></div><script type="text/javascript" src="http://static.addtoany.com/menu/page.js"></script>\\n      <!-- AddToAny END -->\\n\\n      <div style="clear: both;"></div><!-- Clear the divs -->   \\n      \', escape=False)\nresponse.write(\'               \\n    </div><!-- statusbar -->\\n    \\n    <div id="page"> <!-- Here my central body -->     \\n\\n      \', escape=False)\nif left_sidebar_enabled:\n    response.write(\'\\n          <div id="left_sidebar" \', escape=False)\n    response.write(XML(left_sidebar_style))\n    response.write(\' >\\n            <div style="padding: 4px;">\\n          \', escape=False)\n    response.write(\'New Left Sidebar Content\', escape=False)\n    response.write(\'       \\n            </div>\\n          </div><!-- left_sidebar -->\\n      \', escape=False)\n    pass\nresponse.write(\'\\n\\n      <!-- content -->\\n      <div id="content" \', escape=False)\nresponse.write(XML(style_content))\nresponse.write(\' >\\n        \', escape=False)\nresponse.write(\'\\n\\n<ul>\\n\', escape=False)\nfor tag in session.tags:\n    response.write(\'\\n\\n\', escape=False)\n    response.write(LI(A(tag.tag, _href=URL(\'index.load\', args=[tag.tag]), cid="links")))\n    response.write(\'\\n\\n\', escape=False)\n    pass\nresponse.write(\'\\n\\n</ul>\\n\\n<section id="links">\\n\\n\', escape=False)\nresponse.write(LOAD(\'index.load\',ajax=True))\nresponse.write(\'\\n\\n</section>\\n\\n\', escape=False)\nelse:\n    response.write(\'\\n\', escape=False)\n    response.write(BEAUTIFY(response._vars))\n    response.write(\'\\n\', escape=False)\n    pass\nresponse.write(\'\\n\\n\', escape=False)\nresponse.write(\'\\n\', escape=False)\nresponse.write(\'\\n\', escape=False)\nresponse.write(\' \\n      </div>\\n      <!-- content -->\\n\\n      \', escape=False)\nif right_sidebar_enabled:\n    response.write(\'\\n          <div id="right_sidebar" \', escape=False)\n    response.write(XML(right_sidebar_style))\n    response.write(\' >\\n            <div style="padding: 4px;">\\n              \', escape=False)\n    response.write(\'New Right Sidebar Content\', escape=False)\n    response.write(\'\\n            </div>\\n      </div><!-- right_sidebar -->\\n          \', escape=False)\n    pass\nresponse.write(\'\\n\\n\\n      <div style="clear: both;"></div><!-- Clear the divs -->\\n      \\n    </div><!-- page -->                         \\n    \\n    <div id="footer">\\n      \', escape=False)\nresponse.write(\' <!-- this is default footer -->\\n      <a href="http://www.web2py.com/" style="float: left; padding-right: 6px;">\\n        <img src="\', escape=False)\nresponse.write(URL(\'static\',\'images/poweredby.png\'))\nresponse.write(\'"/>\\n      </a>\\n      \', escape=False)\nresponse.write(T(\'Copyright\'))\nresponse.write(\' &#169; 2011               \\n      <div style="clear: both;"></div><!-- Clear the divs -->\\n      \', escape=False)\nresponse.write(\'\\n\\n    </div><!-- footer -->           \\n      </div><!-- wrapper -->\\n    </div><!-- container -->        \\n    \\n    <!--[if lt IE 7 ]>\\n    <script src="\', escape=False)\nresponse.write(URL(\'static\',\'js/dd_belatedpng.js\'))\nresponse.write(\'"></script>\\n    <script> DD_belatedPNG.fix(\\\'img, .png_bg\\\'); //fix any <img> or .png_bg background-images </script>\\n    <![endif]-->\\n    \', escape=False)\nif response.google_analytics_id:\n    response.write("<script>/* http://mathiasbynens.be/notes/async-analytics-snippet */ var _gaq=[[\'_setAccount\',\'", escape=False)\n    response.write(response.google_analyitics_id)\n    response.write("\'],[\'_trackPageview\']];(function(d,t){var g=d.createElement(t),s=d.getElementsByTagName(t)[0];g.src=\'//www.google-analytics.com/ga.js\';s.parentNode.insertBefore(g,s)}(document,\'script\')) </script>", escape=False)\n    pass\nresponse.write(\'\\n  </body>\\n</html>\\n\', escape=False)'
p6
sS'snapshot'
p7
(dp8
S'exception'
p9
(dp10
S'__getslice__'
p11
S"<method-wrapper '__getslice__' of exceptions.SyntaxError object>"
p12
sS'text'
p13
S"'else:\\n'"
p14
sS'__str__'
p15
S"<method-wrapper '__str__' of exceptions.SyntaxError object>"
p16
sS'__reduce__'
p17
S'<built-in method __reduce__ of exceptions.SyntaxError object>'
p18
sS'__dict__'
p19
S'{}'
p20
sS'__sizeof__'
p21
S'<built-in method __sizeof__ of exceptions.SyntaxError object>'
p22
sS'__init__'
p23
S"<method-wrapper '__init__' of exceptions.SyntaxError object>"
p24
sS'__setattr__'
p25
S"<method-wrapper '__setattr__' of exceptions.SyntaxError object>"
p26
sS'__reduce_ex__'
p27
S'<built-in method __reduce_ex__ of exceptions.SyntaxError object>'
p28
sS'__new__'
p29
S'<built-in method __new__ of type object>'
p30
sS'__format__'
p31
S'<built-in method __format__ of exceptions.SyntaxError object>'
p32
sS'__class__'
p33
S"<type 'exceptions.SyntaxError'>"
p34
sS'filename'
p35
S"'/home/ian/Dropbox/Web_Pages/web2py-linux/applications/places/views/default/index.html'"
p36
sS'lineno'
p37
S'92'
p38
sS'msg'
p39
S"'invalid syntax'"
p40
sS'__doc__'
p41
S"'Invalid syntax.'"
p42
sS'__getitem__'
p43
S"<method-wrapper '__getitem__' of exceptions.SyntaxError object>"
p44
sS'__setstate__'
p45
S'<built-in method __setstate__ of exceptions.SyntaxError object>'
p46
sS'__getattribute__'
p47
S"<method-wrapper '__getattribute__' of exceptions.SyntaxError object>"
p48
sS'print_file_and_line'
p49
S'None'
p50
sS'args'
p51
S"('invalid syntax', ('/home/ian/Dropbox/Web_Pages/web2py-linux/applications/places/views/default/index.html', 92, 4, 'else:\\n'))"
p52
sS'__subclasshook__'
p53
S'<built-in method __subclasshook__ of type object>'
p54
sS'offset'
p55
S'4'
sS'__unicode__'
p56
S'<built-in method __unicode__ of exceptions.SyntaxError object>'
p57
sS'__delattr__'
p58
S"<method-wrapper '__delattr__' of exceptions.SyntaxError object>"
p59
sS'__repr__'
p60
S"<method-wrapper '__repr__' of exceptions.SyntaxError object>"
p61
sS'__hash__'
p62
S"<method-wrapper '__hash__' of exceptions.SyntaxError object>"
p63
ssS'evalue'
p64
S'invalid syntax (index.html, line 92)'
p65
sS'request'
p66
ccopy_reg
_reconstructor
p67
(cgluon.html
BEAUTIFY
p68
c__builtin__
object
p69
NtRp70
(dp71
S'attributes'
p72
(dp73
sS'components'
p74
(lp75
g67
(cgluon.html
TABLE
p76
g69
NtRp77
(dp78
g72
(dp79
S'level'
p80
I5
ssS'parent'
p81
Nsg74
(lp82
g67
(cgluon.html
TR
p83
g69
NtRp84
(dp85
g72
(dp86
sg81
g77
sg74
(lp87
g67
(cgluon.html
TD
p88
g69
NtRp89
(dp90
g72
(dp91
S'_style'
p92
S'font-weight:bold;'
p93
ssg81
g84
sg74
(lp94
S'ajax'
p95
asbag67
(g88
g69
NtRp96
(dp97
g72
(dp98
S'_valign'
p99
S'top'
p100
ssg81
g84
sg74
(lp101
S':'
asbag67
(g88
g69
NtRp102
(dp103
g72
(dp104
sg81
g84
sg74
(lp105
g67
(g68
g69
NtRp106
(dp107
g72
(dp108
g80
I5
ssg81
g102
sg74
(lp109
S'False'
p110
asbasbasbag67
(g83
g69
NtRp111
(dp112
g72
(dp113
sg81
g77
sg74
(lp114
g67
(g88
g69
NtRp115
(dp116
g72
(dp117
g92
g93
ssg81
g111
sg74
(lp118
S'application'
p119
asbag67
(g88
g69
NtRp120
(dp121
g72
(dp122
g99
g100
ssg81
g111
sg74
(lp123
S':'
asbag67
(g88
g69
NtRp124
(dp125
g72
(dp126
sg81
g111
sg74
(lp127
g67
(g68
g69
NtRp128
(dp129
g72
(dp130
g80
I5
ssg81
g124
sg74
(lp131
S'places'
p132
asbasbasbag67
(g83
g69
NtRp133
(dp134
g72
(dp135
sg81
g77
sg74
(lp136
g67
(g88
g69
NtRp137
(dp138
g72
(dp139
g92
g93
ssg81
g133
sg74
(lp140
g51
asbag67
(g88
g69
NtRp141
(dp142
g72
(dp143
g99
g100
ssg81
g133
sg74
(lp144
S':'
asbag67
(g88
g69
NtRp145
(dp146
g72
(dp147
sg81
g133
sg74
(lp148
g67
(g68
g69
NtRp149
(dp150
g72
(dp151
g80
I5
ssg81
g145
sg74
(lp152
g67
(g76
g69
NtRp153
(dp154
g72
(dp155
g80
I4
ssg81
Nsg74
(lp156
sbasbasbasbag67
(g83
g69
NtRp157
(dp158
g72
(dp159
sg81
g77
sg74
(lp160
g67
(g88
g69
NtRp161
(dp162
g72
(dp163
g92
g93
ssg81
g157
sg74
(lp164
S'body'
p165
asbag67
(g88
g69
NtRp166
(dp167
g72
(dp168
g99
g100
ssg81
g157
sg74
(lp169
S':'
asbag67
(g88
g69
NtRp170
(dp171
g72
(dp172
sg81
g157
sg74
(lp173
g67
(g68
g69
NtRp174
(dp175
g72
(dp176
g80
I5
ssg81
g170
sg74
(lp177
S'<cStringIO.StringO object at 0x33ed8b8>'
p178
asbasbasbag67
(g83
g69
NtRp179
(dp180
g72
(dp181
sg81
g77
sg74
(lp182
g67
(g88
g69
NtRp183
(dp184
g72
(dp185
g92
g93
ssg81
g179
sg74
(lp186
S'client'
p187
asbag67
(g88
g69
NtRp188
(dp189
g72
(dp190
g99
g100
ssg81
g179
sg74
(lp191
S':'
asbag67
(g88
g69
NtRp192
(dp193
g72
(dp194
sg81
g179
sg74
(lp195
g67
(g68
g69
NtRp196
(dp197
g72
(dp198
g80
I5
ssg81
g192
sg74
(lp199
S'127.0.0.1'
p200
asbasbasbag67
(g83
g69
NtRp201
(dp202
g72
(dp203
sg81
g77
sg74
(lp204
g67
(g88
g69
NtRp205
(dp206
g72
(dp207
g92
g93
ssg81
g201
sg74
(lp208
S'controller'
p209
asbag67
(g88
g69
NtRp210
(dp211
g72
(dp212
g99
g100
ssg81
g201
sg74
(lp213
S':'
asbag67
(g88
g69
NtRp214
(dp215
g72
(dp216
sg81
g201
sg74
(lp217
g67
(g68
g69
NtRp218
(dp219
g72
(dp220
g80
I5
ssg81
g214
sg74
(lp221
S'default'
p222
asbasbasbag67
(g83
g69
NtRp223
(dp224
g72
(dp225
sg81
g77
sg74
(lp226
g67
(g88
g69
NtRp227
(dp228
g72
(dp229
g92
g93
ssg81
g223
sg74
(lp230
S'cookies'
p231
asbag67
(g88
g69
NtRp232
(dp233
g72
(dp234
g99
g100
ssg81
g223
sg74
(lp235
S':'
asbag67
(g88
g69
NtRp236
(dp237
g72
(dp238
sg81
g223
sg74
(lp239
g67
(g68
g69
NtRp240
(dp241
g72
(dp242
g80
I5
ssg81
g236
sg74
(lp243
g67
(g76
g69
NtRp244
(dp245
g72
(dp246
g80
I4
ssg81
Nsg74
(lp247
g67
(g83
g69
NtRp248
(dp249
g72
(dp250
sg81
g244
sg74
(lp251
g67
(g88
g69
NtRp252
(dp253
g72
(dp254
g92
g93
ssg81
g248
sg74
(lp255
S'session_id_admin'
p256
asbag67
(g88
g69
NtRp257
(dp258
g72
(dp259
g99
g100
ssg81
g248
sg74
(lp260
S':'
asbag67
(g88
g69
NtRp261
(dp262
g72
(dp263
sg81
g248
sg74
(lp264
g67
(g68
g69
NtRp265
(dp266
g72
(dp267
g80
I4
ssg81
g261
sg74
(lp268
g67
(g76
g69
NtRp269
(dp270
g72
(dp271
g80
I3
ssg81
Nsg74
(lp272
g67
(g83
g69
NtRp273
(dp274
g72
(dp275
sg81
g269
sg74
(lp276
g67
(g88
g69
NtRp277
(dp278
g72
(dp279
g92
g93
ssg81
g273
sg74
(lp280
S'comment'
p281
asbag67
(g88
g69
NtRp282
(dp283
g72
(dp284
g99
g100
ssg81
g273
sg74
(lp285
S':'
asbag67
(g88
g69
NtRp286
(dp287
g72
(dp288
sg81
g273
sg74
(lp289
g67
(g68
g69
NtRp290
(dp291
g72
(dp292
g80
I3
ssg81
g286
sg74
(lp293
S''
asbasbasbag67
(g83
g69
NtRp294
(dp295
g72
(dp296
sg81
g269
sg74
(lp297
g67
(g88
g69
NtRp298
(dp299
g72
(dp300
g92
g93
ssg81
g294
sg74
(lp301
S'domain'
p302
asbag67
(g88
g69
NtRp303
(dp304
g72
(dp305
g99
g100
ssg81
g294
sg74
(lp306
S':'
asbag67
(g88
g69
NtRp307
(dp308
g72
(dp309
sg81
g294
sg74
(lp310
g67
(g68
g69
NtRp311
(dp312
g72
(dp313
g80
I3
ssg81
g307
sg74
(lp314
S''
asbasbasbag67
(g83
g69
NtRp315
(dp316
g72
(dp317
sg81
g269
sg74
(lp318
g67
(g88
g69
NtRp319
(dp320
g72
(dp321
g92
g93
ssg81
g315
sg74
(lp322
S'expires'
p323
asbag67
(g88
g69
NtRp324
(dp325
g72
(dp326
g99
g100
ssg81
g315
sg74
(lp327
S':'
asbag67
(g88
g69
NtRp328
(dp329
g72
(dp330
sg81
g315
sg74
(lp331
g67
(g68
g69
NtRp332
(dp333
g72
(dp334
g80
I3
ssg81
g328
sg74
(lp335
S''
asbasbasbag67
(g83
g69
NtRp336
(dp337
g72
(dp338
sg81
g269
sg74
(lp339
g67
(g88
g69
NtRp340
(dp341
g72
(dp342
g92
g93
ssg81
g336
sg74
(lp343
S'httponly'
p344
asbag67
(g88
g69
NtRp345
(dp346
g72
(dp347
g99
g100
ssg81
g336
sg74
(lp348
S':'
asbag67
(g88
g69
NtRp349
(dp350
g72
(dp351
sg81
g336
sg74
(lp352
g67
(g68
g69
NtRp353
(dp354
g72
(dp355
g80
I3
ssg81
g349
sg74
(lp356
S''
asbasbasbag67
(g83
g69
NtRp357
(dp358
g72
(dp359
sg81
g269
sg74
(lp360
g67
(g88
g69
NtRp361
(dp362
g72
(dp363
g92
g93
ssg81
g357
sg74
(lp364
S'max-age'
p365
asbag67
(g88
g69
NtRp366
(dp367
g72
(dp368
g99
g100
ssg81
g357
sg74
(lp369
S':'
asbag67
(g88
g69
NtRp370
(dp371
g72
(dp372
sg81
g357
sg74
(lp373
g67
(g68
g69
NtRp374
(dp375
g72
(dp376
g80
I3
ssg81
g370
sg74
(lp377
S''
asbasbasbag67
(g83
g69
NtRp378
(dp379
g72
(dp380
sg81
g269
sg74
(lp381
g67
(g88
g69
NtRp382
(dp383
g72
(dp384
g92
g93
ssg81
g378
sg74
(lp385
S'path'
p386
asbag67
(g88
g69
NtRp387
(dp388
g72
(dp389
g99
g100
ssg81
g378
sg74
(lp390
S':'
asbag67
(g88
g69
NtRp391
(dp392
g72
(dp393
sg81
g378
sg74
(lp394
g67
(g68
g69
NtRp395
(dp396
g72
(dp397
g80
I3
ssg81
g391
sg74
(lp398
S''
asbasbasbag67
(g83
g69
NtRp399
(dp400
g72
(dp401
sg81
g269
sg74
(lp402
g67
(g88
g69
NtRp403
(dp404
g72
(dp405
g92
g93
ssg81
g399
sg74
(lp406
S'secure'
p407
asbag67
(g88
g69
NtRp408
(dp409
g72
(dp410
g99
g100
ssg81
g399
sg74
(lp411
S':'
asbag67
(g88
g69
NtRp412
(dp413
g72
(dp414
sg81
g399
sg74
(lp415
g67
(g68
g69
NtRp416
(dp417
g72
(dp418
g80
I3
ssg81
g412
sg74
(lp419
S''
asbasbasbag67
(g83
g69
NtRp420
(dp421
g72
(dp422
sg81
g269
sg74
(lp423
g67
(g88
g69
NtRp424
(dp425
g72
(dp426
g92
g93
ssg81
g420
sg74
(lp427
S'version'
p428
asbag67
(g88
g69
NtRp429
(dp430
g72
(dp431
g99
g100
ssg81
g420
sg74
(lp432
S':'
asbag67
(g88
g69
NtRp433
(dp434
g72
(dp435
sg81
g420
sg74
(lp436
g67
(g68
g69
NtRp437
(dp438
g72
(dp439
g80
I3
ssg81
g433
sg74
(lp440
S''
asbasbasbasbasbasbasbag67
(g83
g69
NtRp441
(dp442
g72
(dp443
sg81
g244
sg74
(lp444
g67
(g88
g69
NtRp445
(dp446
g72
(dp447
g92
g93
ssg81
g441
sg74
(lp448
S'session_id_blog'
p449
asbag67
(g88
g69
NtRp450
(dp451
g72
(dp452
g99
g100
ssg81
g441
sg74
(lp453
S':'
asbag67
(g88
g69
NtRp454
(dp455
g72
(dp456
sg81
g441
sg74
(lp457
g67
(g68
g69
NtRp458
(dp459
g72
(dp460
g80
I4
ssg81
g454
sg74
(lp461
g67
(g76
g69
NtRp462
(dp463
g72
(dp464
g80
I3
ssg81
Nsg74
(lp465
g67
(g83
g69
NtRp466
(dp467
g72
(dp468
sg81
g462
sg74
(lp469
g67
(g88
g69
NtRp470
(dp471
g72
(dp472
g92
g93
ssg81
g466
sg74
(lp473
g281
asbag67
(g88
g69
NtRp474
(dp475
g72
(dp476
g99
g100
ssg81
g466
sg74
(lp477
S':'
asbag67
(g88
g69
NtRp478
(dp479
g72
(dp480
sg81
g466
sg74
(lp481
g67
(g68
g69
NtRp482
(dp483
g72
(dp484
g80
I3
ssg81
g478
sg74
(lp485
S''
asbasbasbag67
(g83
g69
NtRp486
(dp487
g72
(dp488
sg81
g462
sg74
(lp489
g67
(g88
g69
NtRp490
(dp491
g72
(dp492
g92
g93
ssg81
g486
sg74
(lp493
g302
asbag67
(g88
g69
NtRp494
(dp495
g72
(dp496
g99
g100
ssg81
g486
sg74
(lp497
S':'
asbag67
(g88
g69
NtRp498
(dp499
g72
(dp500
sg81
g486
sg74
(lp501
g67
(g68
g69
NtRp502
(dp503
g72
(dp504
g80
I3
ssg81
g498
sg74
(lp505
S''
asbasbasbag67
(g83
g69
NtRp506
(dp507
g72
(dp508
sg81
g462
sg74
(lp509
g67
(g88
g69
NtRp510
(dp511
g72
(dp512
g92
g93
ssg81
g506
sg74
(lp513
g323
asbag67
(g88
g69
NtRp514
(dp515
g72
(dp516
g99
g100
ssg81
g506
sg74
(lp517
S':'
asbag67
(g88
g69
NtRp518
(dp519
g72
(dp520
sg81
g506
sg74
(lp521
g67
(g68
g69
NtRp522
(dp523
g72
(dp524
g80
I3
ssg81
g518
sg74
(lp525
S''
asbasbasbag67
(g83
g69
NtRp526
(dp527
g72
(dp528
sg81
g462
sg74
(lp529
g67
(g88
g69
NtRp530
(dp531
g72
(dp532
g92
g93
ssg81
g526
sg74
(lp533
g344
asbag67
(g88
g69
NtRp534
(dp535
g72
(dp536
g99
g100
ssg81
g526
sg74
(lp537
S':'
asbag67
(g88
g69
NtRp538
(dp539
g72
(dp540
sg81
g526
sg74
(lp541
g67
(g68
g69
NtRp542
(dp543
g72
(dp544
g80
I3
ssg81
g538
sg74
(lp545
S''
asbasbasbag67
(g83
g69
NtRp546
(dp547
g72
(dp548
sg81
g462
sg74
(lp549
g67
(g88
g69
NtRp550
(dp551
g72
(dp552
g92
g93
ssg81
g546
sg74
(lp553
g365
asbag67
(g88
g69
NtRp554
(dp555
g72
(dp556
g99
g100
ssg81
g546
sg74
(lp557
S':'
asbag67
(g88
g69
NtRp558
(dp559
g72
(dp560
sg81
g546
sg74
(lp561
g67
(g68
g69
NtRp562
(dp563
g72
(dp564
g80
I3
ssg81
g558
sg74
(lp565
S''
asbasbasbag67
(g83
g69
NtRp566
(dp567
g72
(dp568
sg81
g462
sg74
(lp569
g67
(g88
g69
NtRp570
(dp571
g72
(dp572
g92
g93
ssg81
g566
sg74
(lp573
g386
asbag67
(g88
g69
NtRp574
(dp575
g72
(dp576
g99
g100
ssg81
g566
sg74
(lp577
S':'
asbag67
(g88
g69
NtRp578
(dp579
g72
(dp580
sg81
g566
sg74
(lp581
g67
(g68
g69
NtRp582
(dp583
g72
(dp584
g80
I3
ssg81
g578
sg74
(lp585
S''
asbasbasbag67
(g83
g69
NtRp586
(dp587
g72
(dp588
sg81
g462
sg74
(lp589
g67
(g88
g69
NtRp590
(dp591
g72
(dp592
g92
g93
ssg81
g586
sg74
(lp593
g407
asbag67
(g88
g69
NtRp594
(dp595
g72
(dp596
g99
g100
ssg81
g586
sg74
(lp597
S':'
asbag67
(g88
g69
NtRp598
(dp599
g72
(dp600
sg81
g586
sg74
(lp601
g67
(g68
g69
NtRp602
(dp603
g72
(dp604
g80
I3
ssg81
g598
sg74
(lp605
S''
asbasbasbag67
(g83
g69
NtRp606
(dp607
g72
(dp608
sg81
g462
sg74
(lp609
g67
(g88
g69
NtRp610
(dp611
g72
(dp612
g92
g93
ssg81
g606
sg74
(lp613
g428
asbag67
(g88
g69
NtRp614
(dp615
g72
(dp616
g99
g100
ssg81
g606
sg74
(lp617
S':'
asbag67
(g88
g69
NtRp618
(dp619
g72
(dp620
sg81
g606
sg74
(lp621
g67
(g68
g69
NtRp622
(dp623
g72
(dp624
g80
I3
ssg81
g618
sg74
(lp625
S''
asbasbasbasbasbasbasbag67
(g83
g69
NtRp626
(dp627
g72
(dp628
sg81
g244
sg74
(lp629
g67
(g88
g69
NtRp630
(dp631
g72
(dp632
g92
g93
ssg81
g626
sg74
(lp633
S'session_id_paideia'
p634
asbag67
(g88
g69
NtRp635
(dp636
g72
(dp637
g99
g100
ssg81
g626
sg74
(lp638
S':'
asbag67
(g88
g69
NtRp639
(dp640
g72
(dp641
sg81
g626
sg74
(lp642
g67
(g68
g69
NtRp643
(dp644
g72
(dp645
g80
I4
ssg81
g639
sg74
(lp646
g67
(g76
g69
NtRp647
(dp648
g72
(dp649
g80
I3
ssg81
Nsg74
(lp650
g67
(g83
g69
NtRp651
(dp652
g72
(dp653
sg81
g647
sg74
(lp654
g67
(g88
g69
NtRp655
(dp656
g72
(dp657
g92
g93
ssg81
g651
sg74
(lp658
g281
asbag67
(g88
g69
NtRp659
(dp660
g72
(dp661
g99
g100
ssg81
g651
sg74
(lp662
S':'
asbag67
(g88
g69
NtRp663
(dp664
g72
(dp665
sg81
g651
sg74
(lp666
g67
(g68
g69
NtRp667
(dp668
g72
(dp669
g80
I3
ssg81
g663
sg74
(lp670
S''
asbasbasbag67
(g83
g69
NtRp671
(dp672
g72
(dp673
sg81
g647
sg74
(lp674
g67
(g88
g69
NtRp675
(dp676
g72
(dp677
g92
g93
ssg81
g671
sg74
(lp678
g302
asbag67
(g88
g69
NtRp679
(dp680
g72
(dp681
g99
g100
ssg81
g671
sg74
(lp682
S':'
asbag67
(g88
g69
NtRp683
(dp684
g72
(dp685
sg81
g671
sg74
(lp686
g67
(g68
g69
NtRp687
(dp688
g72
(dp689
g80
I3
ssg81
g683
sg74
(lp690
S''
asbasbasbag67
(g83
g69
NtRp691
(dp692
g72
(dp693
sg81
g647
sg74
(lp694
g67
(g88
g69
NtRp695
(dp696
g72
(dp697
g92
g93
ssg81
g691
sg74
(lp698
g323
asbag67
(g88
g69
NtRp699
(dp700
g72
(dp701
g99
g100
ssg81
g691
sg74
(lp702
S':'
asbag67
(g88
g69
NtRp703
(dp704
g72
(dp705
sg81
g691
sg74
(lp706
g67
(g68
g69
NtRp707
(dp708
g72
(dp709
g80
I3
ssg81
g703
sg74
(lp710
S''
asbasbasbag67
(g83
g69
NtRp711
(dp712
g72
(dp713
sg81
g647
sg74
(lp714
g67
(g88
g69
NtRp715
(dp716
g72
(dp717
g92
g93
ssg81
g711
sg74
(lp718
g344
asbag67
(g88
g69
NtRp719
(dp720
g72
(dp721
g99
g100
ssg81
g711
sg74
(lp722
S':'
asbag67
(g88
g69
NtRp723
(dp724
g72
(dp725
sg81
g711
sg74
(lp726
g67
(g68
g69
NtRp727
(dp728
g72
(dp729
g80
I3
ssg81
g723
sg74
(lp730
S''
asbasbasbag67
(g83
g69
NtRp731
(dp732
g72
(dp733
sg81
g647
sg74
(lp734
g67
(g88
g69
NtRp735
(dp736
g72
(dp737
g92
g93
ssg81
g731
sg74
(lp738
g365
asbag67
(g88
g69
NtRp739
(dp740
g72
(dp741
g99
g100
ssg81
g731
sg74
(lp742
S':'
asbag67
(g88
g69
NtRp743
(dp744
g72
(dp745
sg81
g731
sg74
(lp746
g67
(g68
g69
NtRp747
(dp748
g72
(dp749
g80
I3
ssg81
g743
sg74
(lp750
S''
asbasbasbag67
(g83
g69
NtRp751
(dp752
g72
(dp753
sg81
g647
sg74
(lp754
g67
(g88
g69
NtRp755
(dp756
g72
(dp757
g92
g93
ssg81
g751
sg74
(lp758
g386
asbag67
(g88
g69
NtRp759
(dp760
g72
(dp761
g99
g100
ssg81
g751
sg74
(lp762
S':'
asbag67
(g88
g69
NtRp763
(dp764
g72
(dp765
sg81
g751
sg74
(lp766
g67
(g68
g69
NtRp767
(dp768
g72
(dp769
g80
I3
ssg81
g763
sg74
(lp770
S''
asbasbasbag67
(g83
g69
NtRp771
(dp772
g72
(dp773
sg81
g647
sg74
(lp774
g67
(g88
g69
NtRp775
(dp776
g72
(dp777
g92
g93
ssg81
g771
sg74
(lp778
g407
asbag67
(g88
g69
NtRp779
(dp780
g72
(dp781
g99
g100
ssg81
g771
sg74
(lp782
S':'
asbag67
(g88
g69
NtRp783
(dp784
g72
(dp785
sg81
g771
sg74
(lp786
g67
(g68
g69
NtRp787
(dp788
g72
(dp789
g80
I3
ssg81
g783
sg74
(lp790
S''
asbasbasbag67
(g83
g69
NtRp791
(dp792
g72
(dp793
sg81
g647
sg74
(lp794
g67
(g88
g69
NtRp795
(dp796
g72
(dp797
g92
g93
ssg81
g791
sg74
(lp798
g428
asbag67
(g88
g69
NtRp799
(dp800
g72
(dp801
g99
g100
ssg81
g791
sg74
(lp802
S':'
asbag67
(g88
g69
NtRp803
(dp804
g72
(dp805
sg81
g791
sg74
(lp806
g67
(g68
g69
NtRp807
(dp808
g72
(dp809
g80
I3
ssg81
g803
sg74
(lp810
S''
asbasbasbasbasbasbasbag67
(g83
g69
NtRp811
(dp812
g72
(dp813
sg81
g244
sg74
(lp814
g67
(g88
g69
NtRp815
(dp816
g72
(dp817
g92
g93
ssg81
g811
sg74
(lp818
S'session_id_places'
p819
asbag67
(g88
g69
NtRp820
(dp821
g72
(dp822
g99
g100
ssg81
g811
sg74
(lp823
S':'
asbag67
(g88
g69
NtRp824
(dp825
g72
(dp826
sg81
g811
sg74
(lp827
g67
(g68
g69
NtRp828
(dp829
g72
(dp830
g80
I4
ssg81
g824
sg74
(lp831
g67
(g76
g69
NtRp832
(dp833
g72
(dp834
g80
I3
ssg81
Nsg74
(lp835
g67
(g83
g69
NtRp836
(dp837
g72
(dp838
sg81
g832
sg74
(lp839
g67
(g88
g69
NtRp840
(dp841
g72
(dp842
g92
g93
ssg81
g836
sg74
(lp843
g281
asbag67
(g88
g69
NtRp844
(dp845
g72
(dp846
g99
g100
ssg81
g836
sg74
(lp847
S':'
asbag67
(g88
g69
NtRp848
(dp849
g72
(dp850
sg81
g836
sg74
(lp851
g67
(g68
g69
NtRp852
(dp853
g72
(dp854
g80
I3
ssg81
g848
sg74
(lp855
S''
asbasbasbag67
(g83
g69
NtRp856
(dp857
g72
(dp858
sg81
g832
sg74
(lp859
g67
(g88
g69
NtRp860
(dp861
g72
(dp862
g92
g93
ssg81
g856
sg74
(lp863
g302
asbag67
(g88
g69
NtRp864
(dp865
g72
(dp866
g99
g100
ssg81
g856
sg74
(lp867
S':'
asbag67
(g88
g69
NtRp868
(dp869
g72
(dp870
sg81
g856
sg74
(lp871
g67
(g68
g69
NtRp872
(dp873
g72
(dp874
g80
I3
ssg81
g868
sg74
(lp875
S''
asbasbasbag67
(g83
g69
NtRp876
(dp877
g72
(dp878
sg81
g832
sg74
(lp879
g67
(g88
g69
NtRp880
(dp881
g72
(dp882
g92
g93
ssg81
g876
sg74
(lp883
g323
asbag67
(g88
g69
NtRp884
(dp885
g72
(dp886
g99
g100
ssg81
g876
sg74
(lp887
S':'
asbag67
(g88
g69
NtRp888
(dp889
g72
(dp890
sg81
g876
sg74
(lp891
g67
(g68
g69
NtRp892
(dp893
g72
(dp894
g80
I3
ssg81
g888
sg74
(lp895
S''
asbasbasbag67
(g83
g69
NtRp896
(dp897
g72
(dp898
sg81
g832
sg74
(lp899
g67
(g88
g69
NtRp900
(dp901
g72
(dp902
g92
g93
ssg81
g896
sg74
(lp903
g344
asbag67
(g88
g69
NtRp904
(dp905
g72
(dp906
g99
g100
ssg81
g896
sg74
(lp907
S':'
asbag67
(g88
g69
NtRp908
(dp909
g72
(dp910
sg81
g896
sg74
(lp911
g67
(g68
g69
NtRp912
(dp913
g72
(dp914
g80
I3
ssg81
g908
sg74
(lp915
S''
asbasbasbag67
(g83
g69
NtRp916
(dp917
g72
(dp918
sg81
g832
sg74
(lp919
g67
(g88
g69
NtRp920
(dp921
g72
(dp922
g92
g93
ssg81
g916
sg74
(lp923
g365
asbag67
(g88
g69
NtRp924
(dp925
g72
(dp926
g99
g100
ssg81
g916
sg74
(lp927
S':'
asbag67
(g88
g69
NtRp928
(dp929
g72
(dp930
sg81
g916
sg74
(lp931
g67
(g68
g69
NtRp932
(dp933
g72
(dp934
g80
I3
ssg81
g928
sg74
(lp935
S''
asbasbasbag67
(g83
g69
NtRp936
(dp937
g72
(dp938
sg81
g832
sg74
(lp939
g67
(g88
g69
NtRp940
(dp941
g72
(dp942
g92
g93
ssg81
g936
sg74
(lp943
g386
asbag67
(g88
g69
NtRp944
(dp945
g72
(dp946
g99
g100
ssg81
g936
sg74
(lp947
S':'
asbag67
(g88
g69
NtRp948
(dp949
g72
(dp950
sg81
g936
sg74
(lp951
g67
(g68
g69
NtRp952
(dp953
g72
(dp954
g80
I3
ssg81
g948
sg74
(lp955
S''
asbasbasbag67
(g83
g69
NtRp956
(dp957
g72
(dp958
sg81
g832
sg74
(lp959
g67
(g88
g69
NtRp960
(dp961
g72
(dp962
g92
g93
ssg81
g956
sg74
(lp963
g407
asbag67
(g88
g69
NtRp964
(dp965
g72
(dp966
g99
g100
ssg81
g956
sg74
(lp967
S':'
asbag67
(g88
g69
NtRp968
(dp969
g72
(dp970
sg81
g956
sg74
(lp971
g67
(g68
g69
NtRp972
(dp973
g72
(dp974
g80
I3
ssg81
g968
sg74
(lp975
S''
asbasbasbag67
(g83
g69
NtRp976
(dp977
g72
(dp978
sg81
g832
sg74
(lp979
g67
(g88
g69
NtRp980
(dp981
g72
(dp982
g92
g93
ssg81
g976
sg74
(lp983
g428
asbag67
(g88
g69
NtRp984
(dp985
g72
(dp986
g99
g100
ssg81
g976
sg74
(lp987
S':'
asbag67
(g88
g69
NtRp988
(dp989
g72
(dp990
sg81
g976
sg74
(lp991
g67
(g68
g69
NtRp992
(dp993
g72
(dp994
g80
I3
ssg81
g988
sg74
(lp995
S''
asbasbasbasbasbasbasbag67
(g83
g69
NtRp996
(dp997
g72
(dp998
sg81
g244
sg74
(lp999
g67
(g88
g69
NtRp1000
(dp1001
g72
(dp1002
g92
g93
ssg81
g996
sg74
(lp1003
S'session_id_welcome'
p1004
asbag67
(g88
g69
NtRp1005
(dp1006
g72
(dp1007
g99
g100
ssg81
g996
sg74
(lp1008
S':'
asbag67
(g88
g69
NtRp1009
(dp1010
g72
(dp1011
sg81
g996
sg74
(lp1012
g67
(g68
g69
NtRp1013
(dp1014
g72
(dp1015
g80
I4
ssg81
g1009
sg74
(lp1016
g67
(g76
g69
NtRp1017
(dp1018
g72
(dp1019
g80
I3
ssg81
Nsg74
(lp1020
g67
(g83
g69
NtRp1021
(dp1022
g72
(dp1023
sg81
g1017
sg74
(lp1024
g67
(g88
g69
NtRp1025
(dp1026
g72
(dp1027
g92
g93
ssg81
g1021
sg74
(lp1028
g281
asbag67
(g88
g69
NtRp1029
(dp1030
g72
(dp1031
g99
g100
ssg81
g1021
sg74
(lp1032
S':'
asbag67
(g88
g69
NtRp1033
(dp1034
g72
(dp1035
sg81
g1021
sg74
(lp1036
g67
(g68
g69
NtRp1037
(dp1038
g72
(dp1039
g80
I3
ssg81
g1033
sg74
(lp1040
S''
asbasbasbag67
(g83
g69
NtRp1041
(dp1042
g72
(dp1043
sg81
g1017
sg74
(lp1044
g67
(g88
g69
NtRp1045
(dp1046
g72
(dp1047
g92
g93
ssg81
g1041
sg74
(lp1048
g302
asbag67
(g88
g69
NtRp1049
(dp1050
g72
(dp1051
g99
g100
ssg81
g1041
sg74
(lp1052
S':'
asbag67
(g88
g69
NtRp1053
(dp1054
g72
(dp1055
sg81
g1041
sg74
(lp1056
g67
(g68
g69
NtRp1057
(dp1058
g72
(dp1059
g80
I3
ssg81
g1053
sg74
(lp1060
S''
asbasbasbag67
(g83
g69
NtRp1061
(dp1062
g72
(dp1063
sg81
g1017
sg74
(lp1064
g67
(g88
g69
NtRp1065
(dp1066
g72
(dp1067
g92
g93
ssg81
g1061
sg74
(lp1068
g323
asbag67
(g88
g69
NtRp1069
(dp1070
g72
(dp1071
g99
g100
ssg81
g1061
sg74
(lp1072
S':'
asbag67
(g88
g69
NtRp1073
(dp1074
g72
(dp1075
sg81
g1061
sg74
(lp1076
g67
(g68
g69
NtRp1077
(dp1078
g72
(dp1079
g80
I3
ssg81
g1073
sg74
(lp1080
S''
asbasbasbag67
(g83
g69
NtRp1081
(dp1082
g72
(dp1083
sg81
g1017
sg74
(lp1084
g67
(g88
g69
NtRp1085
(dp1086
g72
(dp1087
g92
g93
ssg81
g1081
sg74
(lp1088
g344
asbag67
(g88
g69
NtRp1089
(dp1090
g72
(dp1091
g99
g100
ssg81
g1081
sg74
(lp1092
S':'
asbag67
(g88
g69
NtRp1093
(dp1094
g72
(dp1095
sg81
g1081
sg74
(lp1096
g67
(g68
g69
NtRp1097
(dp1098
g72
(dp1099
g80
I3
ssg81
g1093
sg74
(lp1100
S''
asbasbasbag67
(g83
g69
NtRp1101
(dp1102
g72
(dp1103
sg81
g1017
sg74
(lp1104
g67
(g88
g69
NtRp1105
(dp1106
g72
(dp1107
g92
g93
ssg81
g1101
sg74
(lp1108
g365
asbag67
(g88
g69
NtRp1109
(dp1110
g72
(dp1111
g99
g100
ssg81
g1101
sg74
(lp1112
S':'
asbag67
(g88
g69
NtRp1113
(dp1114
g72
(dp1115
sg81
g1101
sg74
(lp1116
g67
(g68
g69
NtRp1117
(dp1118
g72
(dp1119
g80
I3
ssg81
g1113
sg74
(lp1120
S''
asbasbasbag67
(g83
g69
NtRp1121
(dp1122
g72
(dp1123
sg81
g1017
sg74
(lp1124
g67
(g88
g69
NtRp1125
(dp1126
g72
(dp1127
g92
g93
ssg81
g1121
sg74
(lp1128
g386
asbag67
(g88
g69
NtRp1129
(dp1130
g72
(dp1131
g99
g100
ssg81
g1121
sg74
(lp1132
S':'
asbag67
(g88
g69
NtRp1133
(dp1134
g72
(dp1135
sg81
g1121
sg74
(lp1136
g67
(g68
g69
NtRp1137
(dp1138
g72
(dp1139
g80
I3
ssg81
g1133
sg74
(lp1140
S''
asbasbasbag67
(g83
g69
NtRp1141
(dp1142
g72
(dp1143
sg81
g1017
sg74
(lp1144
g67
(g88
g69
NtRp1145
(dp1146
g72
(dp1147
g92
g93
ssg81
g1141
sg74
(lp1148
g407
asbag67
(g88
g69
NtRp1149
(dp1150
g72
(dp1151
g99
g100
ssg81
g1141
sg74
(lp1152
S':'
asbag67
(g88
g69
NtRp1153
(dp1154
g72
(dp1155
sg81
g1141
sg74
(lp1156
g67
(g68
g69
NtRp1157
(dp1158
g72
(dp1159
g80
I3
ssg81
g1153
sg74
(lp1160
S''
asbasbasbag67
(g83
g69
NtRp1161
(dp1162
g72
(dp1163
sg81
g1017
sg74
(lp1164
g67
(g88
g69
NtRp1165
(dp1166
g72
(dp1167
g92
g93
ssg81
g1161
sg74
(lp1168
g428
asbag67
(g88
g69
NtRp1169
(dp1170
g72
(dp1171
g99
g100
ssg81
g1161
sg74
(lp1172
S':'
asbag67
(g88
g69
NtRp1173
(dp1174
g72
(dp1175
sg81
g1161
sg74
(lp1176
g67
(g68
g69
NtRp1177
(dp1178
g72
(dp1179
g80
I3
ssg81
g1173
sg74
(lp1180
S''
asbasbasbasbasbasbasbasbasbasbasbag67
(g83
g69
NtRp1181
(dp1182
g72
(dp1183
sg81
g77
sg74
(lp1184
g67
(g88
g69
NtRp1185
(dp1186
g72
(dp1187
g92
g93
ssg81
g1181
sg74
(lp1188
S'env'
p1189
asbag67
(g88
g69
NtRp1190
(dp1191
g72
(dp1192
g99
g100
ssg81
g1181
sg74
(lp1193
S':'
asbag67
(g88
g69
NtRp1194
(dp1195
g72
(dp1196
sg81
g1181
sg74
(lp1197
g67
(g68
g69
NtRp1198
(dp1199
g72
(dp1200
g80
I5
ssg81
g1194
sg74
(lp1201
g67
(g76
g69
NtRp1202
(dp1203
g72
(dp1204
g80
I4
ssg81
Nsg74
(lp1205
g67
(g83
g69
NtRp1206
(dp1207
g72
(dp1208
sg81
g1202
sg74
(lp1209
g67
(g88
g69
NtRp1210
(dp1211
g72
(dp1212
g92
g93
ssg81
g1206
sg74
(lp1213
S'app_folders'
p1214
asbag67
(g88
g69
NtRp1215
(dp1216
g72
(dp1217
g99
g100
ssg81
g1206
sg74
(lp1218
S':'
asbag67
(g88
g69
NtRp1219
(dp1220
g72
(dp1221
sg81
g1206
sg74
(lp1222
g67
(g68
g69
NtRp1223
(dp1224
g72
(dp1225
g80
I4
ssg81
g1219
sg74
(lp1226
S"set(['/home/ian/Dropbox/Web_Pages/web2py-linux/applications/blog/', '/home/ian/Dropbox/Web_Pages/web2py-linux/applications/places/', '/home/ian/Dropbox/Web_Pages/web2py-linux/applications/Paideia/', '/home/ian/Dropbox/Web_Pages/web2py-linux/applications/admin/', '/home/ian/Dropbox/Web_Pages/web2py-linux/applications/welcome/'])"
p1227
asbasbasbag67
(g83
g69
NtRp1228
(dp1229
g72
(dp1230
sg81
g1202
sg74
(lp1231
g67
(g88
g69
NtRp1232
(dp1233
g72
(dp1234
g92
g93
ssg81
g1228
sg74
(lp1235
S'applications_parent'
p1236
asbag67
(g88
g69
NtRp1237
(dp1238
g72
(dp1239
g99
g100
ssg81
g1228
sg74
(lp1240
S':'
asbag67
(g88
g69
NtRp1241
(dp1242
g72
(dp1243
sg81
g1228
sg74
(lp1244
g67
(g68
g69
NtRp1245
(dp1246
g72
(dp1247
g80
I4
ssg81
g1241
sg74
(lp1248
S'/home/ian/Dropbox/Web_Pages/web2py-linux'
p1249
asbasbasbag67
(g83
g69
NtRp1250
(dp1251
g72
(dp1252
sg81
g1202
sg74
(lp1253
g67
(g88
g69
NtRp1254
(dp1255
g72
(dp1256
g92
g93
ssg81
g1250
sg74
(lp1257
S'cmd_args'
p1258
asbag67
(g88
g69
NtRp1259
(dp1260
g72
(dp1261
g99
g100
ssg81
g1250
sg74
(lp1262
S':'
asbag67
(g88
g69
NtRp1263
(dp1264
g72
(dp1265
sg81
g1250
sg74
(lp1266
g67
(g68
g69
NtRp1267
(dp1268
g72
(dp1269
g80
I4
ssg81
g1263
sg74
(lp1270
g67
(g76
g69
NtRp1271
(dp1272
g72
(dp1273
g80
I3
ssg81
Nsg74
(lp1274
sbasbasbasbag67
(g83
g69
NtRp1275
(dp1276
g72
(dp1277
sg81
g1202
sg74
(lp1278
g67
(g88
g69
NtRp1279
(dp1280
g72
(dp1281
g92
g93
ssg81
g1275
sg74
(lp1282
S'cmd_options'
p1283
asbag67
(g88
g69
NtRp1284
(dp1285
g72
(dp1286
g99
g100
ssg81
g1275
sg74
(lp1287
S':'
asbag67
(g88
g69
NtRp1288
(dp1289
g72
(dp1290
sg81
g1275
sg74
(lp1291
g67
(g68
g69
NtRp1292
(dp1293
g72
(dp1294
g80
I4
ssg81
g1288
sg74
(lp1295
S"<Values at 0x2723170: {'verbose': False, 'ip': '127.0.0.1', 'shutdown_timeout': 5, 'taskbar': False, 'nocron': False, 'pid_filename': 'httpserver.pid', 'maxthreads': None, 'softcron': False, 'server_name': 'uriel', 'bpython': False, 'nogui': False, 'port': 8000, 'extcron': False, 'debuglevel': 30, 'test': None, 'folder': '/home/ian/Dropbox/Web_Pages/web2py-linux', 'config': '', 'import_models': False, 'winservice': '', 'shell': None, 'run': '', 'log_filename': 'httpserver.log', 'args': [''], 'ssl_ca_certificate': None, 'scheduler': None, 'profiler_filename': None, 'ssl_private_key': '', 'password': '<ask>', 'request_queue_size': 5, 'ssl_certificate': '', 'cronjob': False, 'plain': False, 'quiet': False, 'interfaces': None, 'minthreads': None, 'timeout': 10, 'numthreads': None, 'nobanner': False}>"
p1296
asbasbasbag67
(g83
g69
NtRp1297
(dp1298
g72
(dp1299
sg81
g1202
sg74
(lp1300
g67
(g88
g69
NtRp1301
(dp1302
g72
(dp1303
g92
g93
ssg81
g1297
sg74
(lp1304
S'db_sessions'
p1305
asbag67
(g88
g69
NtRp1306
(dp1307
g72
(dp1308
g99
g100
ssg81
g1297
sg74
(lp1309
S':'
asbag67
(g88
g69
NtRp1310
(dp1311
g72
(dp1312
sg81
g1297
sg74
(lp1313
g67
(g68
g69
NtRp1314
(dp1315
g72
(dp1316
g80
I4
ssg81
g1310
sg74
(lp1317
S'set([])'
p1318
asbasbasbag67
(g83
g69
NtRp1319
(dp1320
g72
(dp1321
sg81
g1202
sg74
(lp1322
g67
(g88
g69
NtRp1323
(dp1324
g72
(dp1325
g92
g93
ssg81
g1319
sg74
(lp1326
S'debugging'
p1327
asbag67
(g88
g69
NtRp1328
(dp1329
g72
(dp1330
g99
g100
ssg81
g1319
sg74
(lp1331
S':'
asbag67
(g88
g69
NtRp1332
(dp1333
g72
(dp1334
sg81
g1319
sg74
(lp1335
g67
(g68
g69
NtRp1336
(dp1337
g72
(dp1338
g80
I4
ssg81
g1332
sg74
(lp1339
g110
asbasbasbag67
(g83
g69
NtRp1340
(dp1341
g72
(dp1342
sg81
g1202
sg74
(lp1343
g67
(g88
g69
NtRp1344
(dp1345
g72
(dp1346
g92
g93
ssg81
g1340
sg74
(lp1347
S'gluon_parent'
p1348
asbag67
(g88
g69
NtRp1349
(dp1350
g72
(dp1351
g99
g100
ssg81
g1340
sg74
(lp1352
S':'
asbag67
(g88
g69
NtRp1353
(dp1354
g72
(dp1355
sg81
g1340
sg74
(lp1356
g67
(g68
g69
NtRp1357
(dp1358
g72
(dp1359
g80
I4
ssg81
g1353
sg74
(lp1360
S'/home/ian/Dropbox/Web_Pages/web2py-linux'
p1361
asbasbasbag67
(g83
g69
NtRp1362
(dp1363
g72
(dp1364
sg81
g1202
sg74
(lp1365
g67
(g88
g69
NtRp1366
(dp1367
g72
(dp1368
g92
g93
ssg81
g1362
sg74
(lp1369
S'http_accept'
p1370
asbag67
(g88
g69
NtRp1371
(dp1372
g72
(dp1373
g99
g100
ssg81
g1362
sg74
(lp1374
S':'
asbag67
(g88
g69
NtRp1375
(dp1376
g72
(dp1377
sg81
g1362
sg74
(lp1378
g67
(g68
g69
NtRp1379
(dp1380
g72
(dp1381
g80
I4
ssg81
g1375
sg74
(lp1382
S'text/html,application/xhtml+xml,application/xml;q=0.9,*/*;q=0.8'
p1383
asbasbasbag67
(g83
g69
NtRp1384
(dp1385
g72
(dp1386
sg81
g1202
sg74
(lp1387
g67
(g88
g69
NtRp1388
(dp1389
g72
(dp1390
g92
g93
ssg81
g1384
sg74
(lp1391
S'http_accept_charset'
p1392
asbag67
(g88
g69
NtRp1393
(dp1394
g72
(dp1395
g99
g100
ssg81
g1384
sg74
(lp1396
S':'
asbag67
(g88
g69
NtRp1397
(dp1398
g72
(dp1399
sg81
g1384
sg74
(lp1400
g67
(g68
g69
NtRp1401
(dp1402
g72
(dp1403
g80
I4
ssg81
g1397
sg74
(lp1404
S'UTF-8,*'
p1405
asbasbasbag67
(g83
g69
NtRp1406
(dp1407
g72
(dp1408
sg81
g1202
sg74
(lp1409
g67
(g88
g69
NtRp1410
(dp1411
g72
(dp1412
g92
g93
ssg81
g1406
sg74
(lp1413
S'http_accept_encoding'
p1414
asbag67
(g88
g69
NtRp1415
(dp1416
g72
(dp1417
g99
g100
ssg81
g1406
sg74
(lp1418
S':'
asbag67
(g88
g69
NtRp1419
(dp1420
g72
(dp1421
sg81
g1406
sg74
(lp1422
g67
(g68
g69
NtRp1423
(dp1424
g72
(dp1425
g80
I4
ssg81
g1419
sg74
(lp1426
S'gzip, deflate'
p1427
asbasbasbag67
(g83
g69
NtRp1428
(dp1429
g72
(dp1430
sg81
g1202
sg74
(lp1431
g67
(g88
g69
NtRp1432
(dp1433
g72
(dp1434
g92
g93
ssg81
g1428
sg74
(lp1435
S'http_accept_language'
p1436
asbag67
(g88
g69
NtRp1437
(dp1438
g72
(dp1439
g99
g100
ssg81
g1428
sg74
(lp1440
S':'
asbag67
(g88
g69
NtRp1441
(dp1442
g72
(dp1443
sg81
g1428
sg74
(lp1444
g67
(g68
g69
NtRp1445
(dp1446
g72
(dp1447
g80
I4
ssg81
g1441
sg74
(lp1448
S'en-us,en;q=0.5'
p1449
asbasbasbag67
(g83
g69
NtRp1450
(dp1451
g72
(dp1452
sg81
g1202
sg74
(lp1453
g67
(g88
g69
NtRp1454
(dp1455
g72
(dp1456
g92
g93
ssg81
g1450
sg74
(lp1457
S'http_cache_control'
p1458
asbag67
(g88
g69
NtRp1459
(dp1460
g72
(dp1461
g99
g100
ssg81
g1450
sg74
(lp1462
S':'
asbag67
(g88
g69
NtRp1463
(dp1464
g72
(dp1465
sg81
g1450
sg74
(lp1466
g67
(g68
g69
NtRp1467
(dp1468
g72
(dp1469
g80
I4
ssg81
g1463
sg74
(lp1470
S'max-age=0'
p1471
asbasbasbag67
(g83
g69
NtRp1472
(dp1473
g72
(dp1474
sg81
g1202
sg74
(lp1475
g67
(g88
g69
NtRp1476
(dp1477
g72
(dp1478
g92
g93
ssg81
g1472
sg74
(lp1479
S'http_connection'
p1480
asbag67
(g88
g69
NtRp1481
(dp1482
g72
(dp1483
g99
g100
ssg81
g1472
sg74
(lp1484
S':'
asbag67
(g88
g69
NtRp1485
(dp1486
g72
(dp1487
sg81
g1472
sg74
(lp1488
g67
(g68
g69
NtRp1489
(dp1490
g72
(dp1491
g80
I4
ssg81
g1485
sg74
(lp1492
S'keep-alive'
p1493
asbasbasbag67
(g83
g69
NtRp1494
(dp1495
g72
(dp1496
sg81
g1202
sg74
(lp1497
g67
(g88
g69
NtRp1498
(dp1499
g72
(dp1500
g92
g93
ssg81
g1494
sg74
(lp1501
S'http_cookie'
p1502
asbag67
(g88
g69
NtRp1503
(dp1504
g72
(dp1505
g99
g100
ssg81
g1494
sg74
(lp1506
S':'
asbag67
(g88
g69
NtRp1507
(dp1508
g72
(dp1509
sg81
g1494
sg74
(lp1510
g67
(g68
g69
NtRp1511
(dp1512
g72
(dp1513
g80
I4
ssg81
g1507
sg74
(lp1514
S'session_id_blog=127.0.0.1-f221c588-e499-4b63-9882-f52e2f06907c; session_id_welcome=127.0.0.1-c5e18343-d06e-414a-bb07-23cb8cf7ceb8; session_id_paideia=127.0.0.1-81eff388-1cde-41fb-8887-06f0c09ce763; session_id_admin=127.0.0.1-f8ad7263-b87d-41ed-bbe2-215e5232b6dc; session_id_places=127.0.0.1-ae378f77-b944-4a55-be06-eed4ce913913'
p1515
asbasbasbag67
(g83
g69
NtRp1516
(dp1517
g72
(dp1518
sg81
g1202
sg74
(lp1519
g67
(g88
g69
NtRp1520
(dp1521
g72
(dp1522
g92
g93
ssg81
g1516
sg74
(lp1523
S'http_host'
p1524
asbag67
(g88
g69
NtRp1525
(dp1526
g72
(dp1527
g99
g100
ssg81
g1516
sg74
(lp1528
S':'
asbag67
(g88
g69
NtRp1529
(dp1530
g72
(dp1531
sg81
g1516
sg74
(lp1532
g67
(g68
g69
NtRp1533
(dp1534
g72
(dp1535
g80
I4
ssg81
g1529
sg74
(lp1536
S'127.0.0.1:8000'
p1537
asbasbasbag67
(g83
g69
NtRp1538
(dp1539
g72
(dp1540
sg81
g1202
sg74
(lp1541
g67
(g88
g69
NtRp1542
(dp1543
g72
(dp1544
g92
g93
ssg81
g1538
sg74
(lp1545
S'http_referer'
p1546
asbag67
(g88
g69
NtRp1547
(dp1548
g72
(dp1549
g99
g100
ssg81
g1538
sg74
(lp1550
S':'
asbag67
(g88
g69
NtRp1551
(dp1552
g72
(dp1553
sg81
g1538
sg74
(lp1554
g67
(g68
g69
NtRp1555
(dp1556
g72
(dp1557
g80
I4
ssg81
g1551
sg74
(lp1558
S'http://127.0.0.1:8000/places/'
p1559
asbasbasbag67
(g83
g69
NtRp1560
(dp1561
g72
(dp1562
sg81
g1202
sg74
(lp1563
g67
(g88
g69
NtRp1564
(dp1565
g72
(dp1566
g92
g93
ssg81
g1560
sg74
(lp1567
S'http_user_agent'
p1568
asbag67
(g88
g69
NtRp1569
(dp1570
g72
(dp1571
g99
g100
ssg81
g1560
sg74
(lp1572
S':'
asbag67
(g88
g69
NtRp1573
(dp1574
g72
(dp1575
sg81
g1560
sg74
(lp1576
g67
(g68
g69
NtRp1577
(dp1578
g72
(dp1579
g80
I4
ssg81
g1573
sg74
(lp1580
S'Mozilla/5.0 (X11; Linux x86_64; rv:7.0.1) Gecko/20100101 Firefox/7.0.1'
p1581
asbasbasbag67
(g83
g69
NtRp1582
(dp1583
g72
(dp1584
sg81
g1202
sg74
(lp1585
g67
(g88
g69
NtRp1586
(dp1587
g72
(dp1588
g92
g93
ssg81
g1582
sg74
(lp1589
S'is_jython'
p1590
asbag67
(g88
g69
NtRp1591
(dp1592
g72
(dp1593
g99
g100
ssg81
g1582
sg74
(lp1594
S':'
asbag67
(g88
g69
NtRp1595
(dp1596
g72
(dp1597
sg81
g1582
sg74
(lp1598
g67
(g68
g69
NtRp1599
(dp1600
g72
(dp1601
g80
I4
ssg81
g1595
sg74
(lp1602
g110
asbasbasbag67
(g83
g69
NtRp1603
(dp1604
g72
(dp1605
sg81
g1202
sg74
(lp1606
g67
(g88
g69
NtRp1607
(dp1608
g72
(dp1609
g92
g93
ssg81
g1603
sg74
(lp1610
S'path_info'
p1611
asbag67
(g88
g69
NtRp1612
(dp1613
g72
(dp1614
g99
g100
ssg81
g1603
sg74
(lp1615
S':'
asbag67
(g88
g69
NtRp1616
(dp1617
g72
(dp1618
sg81
g1603
sg74
(lp1619
g67
(g68
g69
NtRp1620
(dp1621
g72
(dp1622
g80
I4
ssg81
g1616
sg74
(lp1623
S'/places/default/index'
p1624
asbasbasbag67
(g83
g69
NtRp1625
(dp1626
g72
(dp1627
sg81
g1202
sg74
(lp1628
g67
(g88
g69
NtRp1629
(dp1630
g72
(dp1631
g92
g93
ssg81
g1625
sg74
(lp1632
S'query_string'
p1633
asbag67
(g88
g69
NtRp1634
(dp1635
g72
(dp1636
g99
g100
ssg81
g1625
sg74
(lp1637
S':'
asbag67
(g88
g69
NtRp1638
(dp1639
g72
(dp1640
sg81
g1625
sg74
(lp1641
g67
(g68
g69
NtRp1642
(dp1643
g72
(dp1644
g80
I4
ssg81
g1638
sg74
(lp1645
S''
asbasbasbag67
(g83
g69
NtRp1646
(dp1647
g72
(dp1648
sg81
g1202
sg74
(lp1649
g67
(g88
g69
NtRp1650
(dp1651
g72
(dp1652
g92
g93
ssg81
g1646
sg74
(lp1653
S'remote_addr'
p1654
asbag67
(g88
g69
NtRp1655
(dp1656
g72
(dp1657
g99
g100
ssg81
g1646
sg74
(lp1658
S':'
asbag67
(g88
g69
NtRp1659
(dp1660
g72
(dp1661
sg81
g1646
sg74
(lp1662
g67
(g68
g69
NtRp1663
(dp1664
g72
(dp1665
g80
I4
ssg81
g1659
sg74
(lp1666
g200
asbasbasbag67
(g83
g69
NtRp1667
(dp1668
g72
(dp1669
sg81
g1202
sg74
(lp1670
g67
(g88
g69
NtRp1671
(dp1672
g72
(dp1673
g92
g93
ssg81
g1667
sg74
(lp1674
S'remote_port'
p1675
asbag67
(g88
g69
NtRp1676
(dp1677
g72
(dp1678
g99
g100
ssg81
g1667
sg74
(lp1679
S':'
asbag67
(g88
g69
NtRp1680
(dp1681
g72
(dp1682
sg81
g1667
sg74
(lp1683
g67
(g68
g69
NtRp1684
(dp1685
g72
(dp1686
g80
I4
ssg81
g1680
sg74
(lp1687
S'59911'
p1688
asbasbasbag67
(g83
g69
NtRp1689
(dp1690
g72
(dp1691
sg81
g1202
sg74
(lp1692
g67
(g88
g69
NtRp1693
(dp1694
g72
(dp1695
g92
g93
ssg81
g1689
sg74
(lp1696
S'request_method'
p1697
asbag67
(g88
g69
NtRp1698
(dp1699
g72
(dp1700
g99
g100
ssg81
g1689
sg74
(lp1701
S':'
asbag67
(g88
g69
NtRp1702
(dp1703
g72
(dp1704
sg81
g1689
sg74
(lp1705
g67
(g68
g69
NtRp1706
(dp1707
g72
(dp1708
g80
I4
ssg81
g1702
sg74
(lp1709
S'GET'
p1710
asbasbasbag67
(g83
g69
NtRp1711
(dp1712
g72
(dp1713
sg81
g1202
sg74
(lp1714
g67
(g88
g69
NtRp1715
(dp1716
g72
(dp1717
g92
g93
ssg81
g1711
sg74
(lp1718
S'script_name'
p1719
asbag67
(g88
g69
NtRp1720
(dp1721
g72
(dp1722
g99
g100
ssg81
g1711
sg74
(lp1723
S':'
asbag67
(g88
g69
NtRp1724
(dp1725
g72
(dp1726
sg81
g1711
sg74
(lp1727
g67
(g68
g69
NtRp1728
(dp1729
g72
(dp1730
g80
I4
ssg81
g1724
sg74
(lp1731
S''
asbasbasbag67
(g83
g69
NtRp1732
(dp1733
g72
(dp1734
sg81
g1202
sg74
(lp1735
g67
(g88
g69
NtRp1736
(dp1737
g72
(dp1738
g92
g93
ssg81
g1732
sg74
(lp1739
S'server_name'
p1740
asbag67
(g88
g69
NtRp1741
(dp1742
g72
(dp1743
g99
g100
ssg81
g1732
sg74
(lp1744
S':'
asbag67
(g88
g69
NtRp1745
(dp1746
g72
(dp1747
sg81
g1732
sg74
(lp1748
g67
(g68
g69
NtRp1749
(dp1750
g72
(dp1751
g80
I4
ssg81
g1745
sg74
(lp1752
S'uriel'
p1753
asbasbasbag67
(g83
g69
NtRp1754
(dp1755
g72
(dp1756
sg81
g1202
sg74
(lp1757
g67
(g88
g69
NtRp1758
(dp1759
g72
(dp1760
g92
g93
ssg81
g1754
sg74
(lp1761
S'server_port'
p1762
asbag67
(g88
g69
NtRp1763
(dp1764
g72
(dp1765
g99
g100
ssg81
g1754
sg74
(lp1766
S':'
asbag67
(g88
g69
NtRp1767
(dp1768
g72
(dp1769
sg81
g1754
sg74
(lp1770
g67
(g68
g69
NtRp1771
(dp1772
g72
(dp1773
g80
I4
ssg81
g1767
sg74
(lp1774
S'8000'
p1775
asbasbasbag67
(g83
g69
NtRp1776
(dp1777
g72
(dp1778
sg81
g1202
sg74
(lp1779
g67
(g88
g69
NtRp1780
(dp1781
g72
(dp1782
g92
g93
ssg81
g1776
sg74
(lp1783
S'server_protocol'
p1784
asbag67
(g88
g69
NtRp1785
(dp1786
g72
(dp1787
g99
g100
ssg81
g1776
sg74
(lp1788
S':'
asbag67
(g88
g69
NtRp1789
(dp1790
g72
(dp1791
sg81
g1776
sg74
(lp1792
g67
(g68
g69
NtRp1793
(dp1794
g72
(dp1795
g80
I4
ssg81
g1789
sg74
(lp1796
S'HTTP/1.1'
p1797
asbasbasbag67
(g83
g69
NtRp1798
(dp1799
g72
(dp1800
sg81
g1202
sg74
(lp1801
g67
(g88
g69
NtRp1802
(dp1803
g72
(dp1804
g92
g93
ssg81
g1798
sg74
(lp1805
S'server_software'
p1806
asbag67
(g88
g69
NtRp1807
(dp1808
g72
(dp1809
g99
g100
ssg81
g1798
sg74
(lp1810
S':'
asbag67
(g88
g69
NtRp1811
(dp1812
g72
(dp1813
sg81
g1798
sg74
(lp1814
g67
(g68
g69
NtRp1815
(dp1816
g72
(dp1817
g80
I4
ssg81
g1811
sg74
(lp1818
S'Rocket 1.2.4'
p1819
asbasbasbag67
(g83
g69
NtRp1820
(dp1821
g72
(dp1822
sg81
g1202
sg74
(lp1823
g67
(g88
g69
NtRp1824
(dp1825
g72
(dp1826
g92
g93
ssg81
g1820
sg74
(lp1827
S'web2py_crontype'
p1828
asbag67
(g88
g69
NtRp1829
(dp1830
g72
(dp1831
g99
g100
ssg81
g1820
sg74
(lp1832
S':'
asbag67
(g88
g69
NtRp1833
(dp1834
g72
(dp1835
sg81
g1820
sg74
(lp1836
g67
(g68
g69
NtRp1837
(dp1838
g72
(dp1839
g80
I4
ssg81
g1833
sg74
(lp1840
S'hard'
p1841
asbasbasbag67
(g83
g69
NtRp1842
(dp1843
g72
(dp1844
sg81
g1202
sg74
(lp1845
g67
(g88
g69
NtRp1846
(dp1847
g72
(dp1848
g92
g93
ssg81
g1842
sg74
(lp1849
S'web2py_path'
p1850
asbag67
(g88
g69
NtRp1851
(dp1852
g72
(dp1853
g99
g100
ssg81
g1842
sg74
(lp1854
S':'
asbag67
(g88
g69
NtRp1855
(dp1856
g72
(dp1857
sg81
g1842
sg74
(lp1858
g67
(g68
g69
NtRp1859
(dp1860
g72
(dp1861
g80
I4
ssg81
g1855
sg74
(lp1862
g1249
asbasbasbag67
(g83
g69
NtRp1863
(dp1864
g72
(dp1865
sg81
g1202
sg74
(lp1866
g67
(g88
g69
NtRp1867
(dp1868
g72
(dp1869
g92
g93
ssg81
g1863
sg74
(lp1870
S'web2py_version'
p1871
asbag67
(g88
g69
NtRp1872
(dp1873
g72
(dp1874
g99
g100
ssg81
g1863
sg74
(lp1875
S':'
asbag67
(g88
g69
NtRp1876
(dp1877
g72
(dp1878
sg81
g1863
sg74
(lp1879
g67
(g68
g69
NtRp1880
(dp1881
g72
(dp1882
g80
I4
ssg81
g1876
sg74
(lp1883
g67
(g76
g69
NtRp1884
(dp1885
g72
(dp1886
g80
I3
ssg81
Nsg74
(lp1887
g67
(g83
g69
NtRp1888
(dp1889
g72
(dp1890
sg81
g1884
sg74
(lp1891
g67
(g88
g69
NtRp1892
(dp1893
g72
(dp1894
sg81
g1888
sg74
(lp1895
g67
(g68
g69
NtRp1896
(dp1897
g72
(dp1898
g80
I3
ssg81
g1892
sg74
(lp1899
S'1'
asbasbasbag67
(g83
g69
NtRp1900
(dp1901
g72
(dp1902
sg81
g1884
sg74
(lp1903
g67
(g88
g69
NtRp1904
(dp1905
g72
(dp1906
sg81
g1900
sg74
(lp1907
g67
(g68
g69
NtRp1908
(dp1909
g72
(dp1910
g80
I3
ssg81
g1904
sg74
(lp1911
S'99'
p1912
asbasbasbag67
(g83
g69
NtRp1913
(dp1914
g72
(dp1915
sg81
g1884
sg74
(lp1916
g67
(g88
g69
NtRp1917
(dp1918
g72
(dp1919
sg81
g1913
sg74
(lp1920
g67
(g68
g69
NtRp1921
(dp1922
g72
(dp1923
g80
I3
ssg81
g1917
sg74
(lp1924
S'2'
asbasbasbag67
(g83
g69
NtRp1925
(dp1926
g72
(dp1927
sg81
g1884
sg74
(lp1928
g67
(g88
g69
NtRp1929
(dp1930
g72
(dp1931
sg81
g1925
sg74
(lp1932
g67
(g68
g69
NtRp1933
(dp1934
g72
(dp1935
g80
I3
ssg81
g1929
sg74
(lp1936
S'datetime.datetime(2011, 9, 26, 6, 55, 33)'
p1937
asbasbasbag67
(g83
g69
NtRp1938
(dp1939
g72
(dp1940
sg81
g1884
sg74
(lp1941
g67
(g88
g69
NtRp1942
(dp1943
g72
(dp1944
sg81
g1938
sg74
(lp1945
g67
(g68
g69
NtRp1946
(dp1947
g72
(dp1948
g80
I3
ssg81
g1942
sg74
(lp1949
S'stable'
p1950
asbasbasbasbasbasbasbag67
(g83
g69
NtRp1951
(dp1952
g72
(dp1953
sg81
g1202
sg74
(lp1954
g67
(g88
g69
NtRp1955
(dp1956
g72
(dp1957
g92
g93
ssg81
g1951
sg74
(lp1958
S'wsgi_errors'
p1959
asbag67
(g88
g69
NtRp1960
(dp1961
g72
(dp1962
g99
g100
ssg81
g1951
sg74
(lp1963
S':'
asbag67
(g88
g69
NtRp1964
(dp1965
g72
(dp1966
sg81
g1951
sg74
(lp1967
g67
(g68
g69
NtRp1968
(dp1969
g72
(dp1970
g80
I4
ssg81
g1964
sg74
(lp1971
S"<open file '<stderr>', mode 'w' at 0x7f4a416fc270>"
p1972
asbasbasbag67
(g83
g69
NtRp1973
(dp1974
g72
(dp1975
sg81
g1202
sg74
(lp1976
g67
(g88
g69
NtRp1977
(dp1978
g72
(dp1979
g92
g93
ssg81
g1973
sg74
(lp1980
S'wsgi_file_wrapper'
p1981
asbag67
(g88
g69
NtRp1982
(dp1983
g72
(dp1984
g99
g100
ssg81
g1973
sg74
(lp1985
S':'
asbag67
(g88
g69
NtRp1986
(dp1987
g72
(dp1988
sg81
g1973
sg74
(lp1989
g67
(g68
g69
NtRp1990
(dp1991
g72
(dp1992
g80
I4
ssg81
g1986
sg74
(lp1993
S'<class wsgiref.util.FileWrapper at 0x24b4870>'
p1994
asbasbasbag67
(g83
g69
NtRp1995
(dp1996
g72
(dp1997
sg81
g1202
sg74
(lp1998
g67
(g88
g69
NtRp1999
(dp2000
g72
(dp2001
g92
g93
ssg81
g1995
sg74
(lp2002
S'wsgi_input'
p2003
asbag67
(g88
g69
NtRp2004
(dp2005
g72
(dp2006
g99
g100
ssg81
g1995
sg74
(lp2007
S':'
asbag67
(g88
g69
NtRp2008
(dp2009
g72
(dp2010
sg81
g1995
sg74
(lp2011
g67
(g68
g69
NtRp2012
(dp2013
g72
(dp2014
g80
I4
ssg81
g2008
sg74
(lp2015
S'<socket._fileobject object at 0x2bc5ed0>'
p2016
asbasbasbag67
(g83
g69
NtRp2017
(dp2018
g72
(dp2019
sg81
g1202
sg74
(lp2020
g67
(g88
g69
NtRp2021
(dp2022
g72
(dp2023
g92
g93
ssg81
g2017
sg74
(lp2024
S'wsgi_multiprocess'
p2025
asbag67
(g88
g69
NtRp2026
(dp2027
g72
(dp2028
g99
g100
ssg81
g2017
sg74
(lp2029
S':'
asbag67
(g88
g69
NtRp2030
(dp2031
g72
(dp2032
sg81
g2017
sg74
(lp2033
g67
(g68
g69
NtRp2034
(dp2035
g72
(dp2036
g80
I4
ssg81
g2030
sg74
(lp2037
g110
asbasbasbag67
(g83
g69
NtRp2038
(dp2039
g72
(dp2040
sg81
g1202
sg74
(lp2041
g67
(g88
g69
NtRp2042
(dp2043
g72
(dp2044
g92
g93
ssg81
g2038
sg74
(lp2045
S'wsgi_multithread'
p2046
asbag67
(g88
g69
NtRp2047
(dp2048
g72
(dp2049
g99
g100
ssg81
g2038
sg74
(lp2050
S':'
asbag67
(g88
g69
NtRp2051
(dp2052
g72
(dp2053
sg81
g2038
sg74
(lp2054
g67
(g68
g69
NtRp2055
(dp2056
g72
(dp2057
g80
I4
ssg81
g2051
sg74
(lp2058
S'True'
p2059
asbasbasbag67
(g83
g69
NtRp2060
(dp2061
g72
(dp2062
sg81
g1202
sg74
(lp2063
g67
(g88
g69
NtRp2064
(dp2065
g72
(dp2066
g92
g93
ssg81
g2060
sg74
(lp2067
S'wsgi_run_once'
p2068
asbag67
(g88
g69
NtRp2069
(dp2070
g72
(dp2071
g99
g100
ssg81
g2060
sg74
(lp2072
S':'
asbag67
(g88
g69
NtRp2073
(dp2074
g72
(dp2075
sg81
g2060
sg74
(lp2076
g67
(g68
g69
NtRp2077
(dp2078
g72
(dp2079
g80
I4
ssg81
g2073
sg74
(lp2080
g110
asbasbasbag67
(g83
g69
NtRp2081
(dp2082
g72
(dp2083
sg81
g1202
sg74
(lp2084
g67
(g88
g69
NtRp2085
(dp2086
g72
(dp2087
g92
g93
ssg81
g2081
sg74
(lp2088
S'wsgi_url_scheme'
p2089
asbag67
(g88
g69
NtRp2090
(dp2091
g72
(dp2092
g99
g100
ssg81
g2081
sg74
(lp2093
S':'
asbag67
(g88
g69
NtRp2094
(dp2095
g72
(dp2096
sg81
g2081
sg74
(lp2097
g67
(g68
g69
NtRp2098
(dp2099
g72
(dp2100
g80
I4
ssg81
g2094
sg74
(lp2101
S'http'
p2102
asbasbasbag67
(g83
g69
NtRp2103
(dp2104
g72
(dp2105
sg81
g1202
sg74
(lp2106
g67
(g88
g69
NtRp2107
(dp2108
g72
(dp2109
g92
g93
ssg81
g2103
sg74
(lp2110
S'wsgi_version'
p2111
asbag67
(g88
g69
NtRp2112
(dp2113
g72
(dp2114
g99
g100
ssg81
g2103
sg74
(lp2115
S':'
asbag67
(g88
g69
NtRp2116
(dp2117
g72
(dp2118
sg81
g2103
sg74
(lp2119
g67
(g68
g69
NtRp2120
(dp2121
g72
(dp2122
g80
I4
ssg81
g2116
sg74
(lp2123
g67
(g76
g69
NtRp2124
(dp2125
g72
(dp2126
g80
I3
ssg81
Nsg74
(lp2127
g67
(g83
g69
NtRp2128
(dp2129
g72
(dp2130
sg81
g2124
sg74
(lp2131
g67
(g88
g69
NtRp2132
(dp2133
g72
(dp2134
sg81
g2128
sg74
(lp2135
g67
(g68
g69
NtRp2136
(dp2137
g72
(dp2138
g80
I3
ssg81
g2132
sg74
(lp2139
S'1'
asbasbasbag67
(g83
g69
NtRp2140
(dp2141
g72
(dp2142
sg81
g2124
sg74
(lp2143
g67
(g88
g69
NtRp2144
(dp2145
g72
(dp2146
sg81
g2140
sg74
(lp2147
g67
(g68
g69
NtRp2148
(dp2149
g72
(dp2150
g80
I3
ssg81
g2144
sg74
(lp2151
S'0'
asbasbasbasbasbasbasbasbasbasbasbag67
(g83
g69
NtRp2152
(dp2153
g72
(dp2154
sg81
g77
sg74
(lp2155
g67
(g88
g69
NtRp2156
(dp2157
g72
(dp2158
g92
g93
ssg81
g2152
sg74
(lp2159
S'extension'
p2160
asbag67
(g88
g69
NtRp2161
(dp2162
g72
(dp2163
g99
g100
ssg81
g2152
sg74
(lp2164
S':'
asbag67
(g88
g69
NtRp2165
(dp2166
g72
(dp2167
sg81
g2152
sg74
(lp2168
g67
(g68
g69
NtRp2169
(dp2170
g72
(dp2171
g80
I5
ssg81
g2165
sg74
(lp2172
S'html'
p2173
asbasbasbag67
(g83
g69
NtRp2174
(dp2175
g72
(dp2176
sg81
g77
sg74
(lp2177
g67
(g88
g69
NtRp2178
(dp2179
g72
(dp2180
g92
g93
ssg81
g2174
sg74
(lp2181
S'folder'
p2182
asbag67
(g88
g69
NtRp2183
(dp2184
g72
(dp2185
g99
g100
ssg81
g2174
sg74
(lp2186
S':'
asbag67
(g88
g69
NtRp2187
(dp2188
g72
(dp2189
sg81
g2174
sg74
(lp2190
g67
(g68
g69
NtRp2191
(dp2192
g72
(dp2193
g80
I5
ssg81
g2187
sg74
(lp2194
S'/home/ian/Dropbox/Web_Pages/web2py-linux/applications/places/'
p2195
asbasbasbag67
(g83
g69
NtRp2196
(dp2197
g72
(dp2198
sg81
g77
sg74
(lp2199
g67
(g88
g69
NtRp2200
(dp2201
g72
(dp2202
g92
g93
ssg81
g2196
sg74
(lp2203
S'function'
p2204
asbag67
(g88
g69
NtRp2205
(dp2206
g72
(dp2207
g99
g100
ssg81
g2196
sg74
(lp2208
S':'
asbag67
(g88
g69
NtRp2209
(dp2210
g72
(dp2211
sg81
g2196
sg74
(lp2212
g67
(g68
g69
NtRp2213
(dp2214
g72
(dp2215
g80
I5
ssg81
g2209
sg74
(lp2216
S'index'
p2217
asbasbasbag67
(g83
g69
NtRp2218
(dp2219
g72
(dp2220
sg81
g77
sg74
(lp2221
g67
(g88
g69
NtRp2222
(dp2223
g72
(dp2224
g92
g93
ssg81
g2218
sg74
(lp2225
S'get_vars'
p2226
asbag67
(g88
g69
NtRp2227
(dp2228
g72
(dp2229
g99
g100
ssg81
g2218
sg74
(lp2230
S':'
asbag67
(g88
g69
NtRp2231
(dp2232
g72
(dp2233
sg81
g2218
sg74
(lp2234
g67
(g68
g69
NtRp2235
(dp2236
g72
(dp2237
g80
I5
ssg81
g2231
sg74
(lp2238
g67
(g76
g69
NtRp2239
(dp2240
g72
(dp2241
g80
I4
ssg81
Nsg74
(lp2242
sbasbasbasbag67
(g83
g69
NtRp2243
(dp2244
g72
(dp2245
sg81
g77
sg74
(lp2246
g67
(g88
g69
NtRp2247
(dp2248
g72
(dp2249
g92
g93
ssg81
g2243
sg74
(lp2250
S'global_settings'
p2251
asbag67
(g88
g69
NtRp2252
(dp2253
g72
(dp2254
g99
g100
ssg81
g2243
sg74
(lp2255
S':'
asbag67
(g88
g69
NtRp2256
(dp2257
g72
(dp2258
sg81
g2243
sg74
(lp2259
g67
(g68
g69
NtRp2260
(dp2261
g72
(dp2262
g80
I5
ssg81
g2256
sg74
(lp2263
g67
(g76
g69
NtRp2264
(dp2265
g72
(dp2266
g80
I4
ssg81
Nsg74
(lp2267
g67
(g83
g69
NtRp2268
(dp2269
g72
(dp2270
sg81
g2264
sg74
(lp2271
g67
(g88
g69
NtRp2272
(dp2273
g72
(dp2274
g92
g93
ssg81
g2268
sg74
(lp2275
g1214
asbag67
(g88
g69
NtRp2276
(dp2277
g72
(dp2278
g99
g100
ssg81
g2268
sg74
(lp2279
S':'
asbag67
(g88
g69
NtRp2280
(dp2281
g72
(dp2282
sg81
g2268
sg74
(lp2283
g67
(g68
g69
NtRp2284
(dp2285
g72
(dp2286
g80
I4
ssg81
g2280
sg74
(lp2287
S"set(['/home/ian/Dropbox/Web_Pages/web2py-linux/applications/blog/', '/home/ian/Dropbox/Web_Pages/web2py-linux/applications/places/', '/home/ian/Dropbox/Web_Pages/web2py-linux/applications/Paideia/', '/home/ian/Dropbox/Web_Pages/web2py-linux/applications/admin/', '/home/ian/Dropbox/Web_Pages/web2py-linux/applications/welcome/'])"
p2288
asbasbasbag67
(g83
g69
NtRp2289
(dp2290
g72
(dp2291
sg81
g2264
sg74
(lp2292
g67
(g88
g69
NtRp2293
(dp2294
g72
(dp2295
g92
g93
ssg81
g2289
sg74
(lp2296
g1236
asbag67
(g88
g69
NtRp2297
(dp2298
g72
(dp2299
g99
g100
ssg81
g2289
sg74
(lp2300
S':'
asbag67
(g88
g69
NtRp2301
(dp2302
g72
(dp2303
sg81
g2289
sg74
(lp2304
g67
(g68
g69
NtRp2305
(dp2306
g72
(dp2307
g80
I4
ssg81
g2301
sg74
(lp2308
g1249
asbasbasbag67
(g83
g69
NtRp2309
(dp2310
g72
(dp2311
sg81
g2264
sg74
(lp2312
g67
(g88
g69
NtRp2313
(dp2314
g72
(dp2315
g92
g93
ssg81
g2309
sg74
(lp2316
g1258
asbag67
(g88
g69
NtRp2317
(dp2318
g72
(dp2319
g99
g100
ssg81
g2309
sg74
(lp2320
S':'
asbag67
(g88
g69
NtRp2321
(dp2322
g72
(dp2323
sg81
g2309
sg74
(lp2324
g67
(g68
g69
NtRp2325
(dp2326
g72
(dp2327
g80
I4
ssg81
g2321
sg74
(lp2328
g67
(g76
g69
NtRp2329
(dp2330
g72
(dp2331
g80
I3
ssg81
Nsg74
(lp2332
sbasbasbasbag67
(g83
g69
NtRp2333
(dp2334
g72
(dp2335
sg81
g2264
sg74
(lp2336
g67
(g88
g69
NtRp2337
(dp2338
g72
(dp2339
g92
g93
ssg81
g2333
sg74
(lp2340
g1283
asbag67
(g88
g69
NtRp2341
(dp2342
g72
(dp2343
g99
g100
ssg81
g2333
sg74
(lp2344
S':'
asbag67
(g88
g69
NtRp2345
(dp2346
g72
(dp2347
sg81
g2333
sg74
(lp2348
g67
(g68
g69
NtRp2349
(dp2350
g72
(dp2351
g80
I4
ssg81
g2345
sg74
(lp2352
S"<Values at 0x2723170: {'verbose': False, 'ip': '127.0.0.1', 'shutdown_timeout': 5, 'taskbar': False, 'nocron': False, 'pid_filename': 'httpserver.pid', 'maxthreads': None, 'softcron': False, 'server_name': 'uriel', 'bpython': False, 'nogui': False, 'port': 8000, 'extcron': False, 'debuglevel': 30, 'test': None, 'folder': '/home/ian/Dropbox/Web_Pages/web2py-linux', 'config': '', 'import_models': False, 'winservice': '', 'shell': None, 'run': '', 'log_filename': 'httpserver.log', 'args': [''], 'ssl_ca_certificate': None, 'scheduler': None, 'profiler_filename': None, 'ssl_private_key': '', 'password': '<ask>', 'request_queue_size': 5, 'ssl_certificate': '', 'cronjob': False, 'plain': False, 'quiet': False, 'interfaces': None, 'minthreads': None, 'timeout': 10, 'numthreads': None, 'nobanner': False}>"
p2353
asbasbasbag67
(g83
g69
NtRp2354
(dp2355
g72
(dp2356
sg81
g2264
sg74
(lp2357
g67
(g88
g69
NtRp2358
(dp2359
g72
(dp2360
g92
g93
ssg81
g2354
sg74
(lp2361
g1305
asbag67
(g88
g69
NtRp2362
(dp2363
g72
(dp2364
g99
g100
ssg81
g2354
sg74
(lp2365
S':'
asbag67
(g88
g69
NtRp2366
(dp2367
g72
(dp2368
sg81
g2354
sg74
(lp2369
g67
(g68
g69
NtRp2370
(dp2371
g72
(dp2372
g80
I4
ssg81
g2366
sg74
(lp2373
S'set([])'
p2374
asbasbasbag67
(g83
g69
NtRp2375
(dp2376
g72
(dp2377
sg81
g2264
sg74
(lp2378
g67
(g88
g69
NtRp2379
(dp2380
g72
(dp2381
g92
g93
ssg81
g2375
sg74
(lp2382
g1327
asbag67
(g88
g69
NtRp2383
(dp2384
g72
(dp2385
g99
g100
ssg81
g2375
sg74
(lp2386
S':'
asbag67
(g88
g69
NtRp2387
(dp2388
g72
(dp2389
sg81
g2375
sg74
(lp2390
g67
(g68
g69
NtRp2391
(dp2392
g72
(dp2393
g80
I4
ssg81
g2387
sg74
(lp2394
g110
asbasbasbag67
(g83
g69
NtRp2395
(dp2396
g72
(dp2397
sg81
g2264
sg74
(lp2398
g67
(g88
g69
NtRp2399
(dp2400
g72
(dp2401
g92
g93
ssg81
g2395
sg74
(lp2402
g1348
asbag67
(g88
g69
NtRp2403
(dp2404
g72
(dp2405
g99
g100
ssg81
g2395
sg74
(lp2406
S':'
asbag67
(g88
g69
NtRp2407
(dp2408
g72
(dp2409
sg81
g2395
sg74
(lp2410
g67
(g68
g69
NtRp2411
(dp2412
g72
(dp2413
g80
I4
ssg81
g2407
sg74
(lp2414
g1361
asbasbasbag67
(g83
g69
NtRp2415
(dp2416
g72
(dp2417
sg81
g2264
sg74
(lp2418
g67
(g88
g69
NtRp2419
(dp2420
g72
(dp2421
g92
g93
ssg81
g2415
sg74
(lp2422
g1590
asbag67
(g88
g69
NtRp2423
(dp2424
g72
(dp2425
g99
g100
ssg81
g2415
sg74
(lp2426
S':'
asbag67
(g88
g69
NtRp2427
(dp2428
g72
(dp2429
sg81
g2415
sg74
(lp2430
g67
(g68
g69
NtRp2431
(dp2432
g72
(dp2433
g80
I4
ssg81
g2427
sg74
(lp2434
g110
asbasbasbag67
(g83
g69
NtRp2435
(dp2436
g72
(dp2437
sg81
g2264
sg74
(lp2438
g67
(g88
g69
NtRp2439
(dp2440
g72
(dp2441
g92
g93
ssg81
g2435
sg74
(lp2442
g1828
asbag67
(g88
g69
NtRp2443
(dp2444
g72
(dp2445
g99
g100
ssg81
g2435
sg74
(lp2446
S':'
asbag67
(g88
g69
NtRp2447
(dp2448
g72
(dp2449
sg81
g2435
sg74
(lp2450
g67
(g68
g69
NtRp2451
(dp2452
g72
(dp2453
g80
I4
ssg81
g2447
sg74
(lp2454
g1841
asbasbasbag67
(g83
g69
NtRp2455
(dp2456
g72
(dp2457
sg81
g2264
sg74
(lp2458
g67
(g88
g69
NtRp2459
(dp2460
g72
(dp2461
g92
g93
ssg81
g2455
sg74
(lp2462
g1871
asbag67
(g88
g69
NtRp2463
(dp2464
g72
(dp2465
g99
g100
ssg81
g2455
sg74
(lp2466
S':'
asbag67
(g88
g69
NtRp2467
(dp2468
g72
(dp2469
sg81
g2455
sg74
(lp2470
g67
(g68
g69
NtRp2471
(dp2472
g72
(dp2473
g80
I4
ssg81
g2467
sg74
(lp2474
g67
(g76
g69
NtRp2475
(dp2476
g72
(dp2477
g80
I3
ssg81
Nsg74
(lp2478
g67
(g83
g69
NtRp2479
(dp2480
g72
(dp2481
sg81
g2475
sg74
(lp2482
g67
(g88
g69
NtRp2483
(dp2484
g72
(dp2485
sg81
g2479
sg74
(lp2486
g67
(g68
g69
NtRp2487
(dp2488
g72
(dp2489
g80
I3
ssg81
g2483
sg74
(lp2490
S'1'
asbasbasbag67
(g83
g69
NtRp2491
(dp2492
g72
(dp2493
sg81
g2475
sg74
(lp2494
g67
(g88
g69
NtRp2495
(dp2496
g72
(dp2497
sg81
g2491
sg74
(lp2498
g67
(g68
g69
NtRp2499
(dp2500
g72
(dp2501
g80
I3
ssg81
g2495
sg74
(lp2502
S'99'
p2503
asbasbasbag67
(g83
g69
NtRp2504
(dp2505
g72
(dp2506
sg81
g2475
sg74
(lp2507
g67
(g88
g69
NtRp2508
(dp2509
g72
(dp2510
sg81
g2504
sg74
(lp2511
g67
(g68
g69
NtRp2512
(dp2513
g72
(dp2514
g80
I3
ssg81
g2508
sg74
(lp2515
S'2'
asbasbasbag67
(g83
g69
NtRp2516
(dp2517
g72
(dp2518
sg81
g2475
sg74
(lp2519
g67
(g88
g69
NtRp2520
(dp2521
g72
(dp2522
sg81
g2516
sg74
(lp2523
g67
(g68
g69
NtRp2524
(dp2525
g72
(dp2526
g80
I3
ssg81
g2520
sg74
(lp2527
S'datetime.datetime(2011, 9, 26, 6, 55, 33)'
p2528
asbasbasbag67
(g83
g69
NtRp2529
(dp2530
g72
(dp2531
sg81
g2475
sg74
(lp2532
g67
(g88
g69
NtRp2533
(dp2534
g72
(dp2535
sg81
g2529
sg74
(lp2536
g67
(g68
g69
NtRp2537
(dp2538
g72
(dp2539
g80
I3
ssg81
g2533
sg74
(lp2540
g1950
asbasbasbasbasbasbasbasbasbasbasbag67
(g83
g69
NtRp2541
(dp2542
g72
(dp2543
sg81
g77
sg74
(lp2544
g67
(g88
g69
NtRp2545
(dp2546
g72
(dp2547
g92
g93
ssg81
g2541
sg74
(lp2548
S'is_https'
p2549
asbag67
(g88
g69
NtRp2550
(dp2551
g72
(dp2552
g99
g100
ssg81
g2541
sg74
(lp2553
S':'
asbag67
(g88
g69
NtRp2554
(dp2555
g72
(dp2556
sg81
g2541
sg74
(lp2557
g67
(g68
g69
NtRp2558
(dp2559
g72
(dp2560
g80
I5
ssg81
g2554
sg74
(lp2561
g110
asbasbasbag67
(g83
g69
NtRp2562
(dp2563
g72
(dp2564
sg81
g77
sg74
(lp2565
g67
(g88
g69
NtRp2566
(dp2567
g72
(dp2568
g92
g93
ssg81
g2562
sg74
(lp2569
S'is_local'
p2570
asbag67
(g88
g69
NtRp2571
(dp2572
g72
(dp2573
g99
g100
ssg81
g2562
sg74
(lp2574
S':'
asbag67
(g88
g69
NtRp2575
(dp2576
g72
(dp2577
sg81
g2562
sg74
(lp2578
g67
(g68
g69
NtRp2579
(dp2580
g72
(dp2581
g80
I5
ssg81
g2575
sg74
(lp2582
g2059
asbasbasbag67
(g83
g69
NtRp2583
(dp2584
g72
(dp2585
sg81
g77
sg74
(lp2586
g67
(g88
g69
NtRp2587
(dp2588
g72
(dp2589
g92
g93
ssg81
g2583
sg74
(lp2590
S'is_restful'
p2591
asbag67
(g88
g69
NtRp2592
(dp2593
g72
(dp2594
g99
g100
ssg81
g2583
sg74
(lp2595
S':'
asbag67
(g88
g69
NtRp2596
(dp2597
g72
(dp2598
sg81
g2583
sg74
(lp2599
g67
(g68
g69
NtRp2600
(dp2601
g72
(dp2602
g80
I5
ssg81
g2596
sg74
(lp2603
g110
asbasbasbag67
(g83
g69
NtRp2604
(dp2605
g72
(dp2606
sg81
g77
sg74
(lp2607
g67
(g88
g69
NtRp2608
(dp2609
g72
(dp2610
g92
g93
ssg81
g2604
sg74
(lp2611
S'now'
p2612
asbag67
(g88
g69
NtRp2613
(dp2614
g72
(dp2615
g99
g100
ssg81
g2604
sg74
(lp2616
S':'
asbag67
(g88
g69
NtRp2617
(dp2618
g72
(dp2619
sg81
g2604
sg74
(lp2620
g67
(g68
g69
NtRp2621
(dp2622
g72
(dp2623
g80
I5
ssg81
g2617
sg74
(lp2624
S'datetime.datetime(2011, 9, 30, 16, 8, 56, 20365)'
p2625
asbasbasbag67
(g83
g69
NtRp2626
(dp2627
g72
(dp2628
sg81
g77
sg74
(lp2629
g67
(g88
g69
NtRp2630
(dp2631
g72
(dp2632
g92
g93
ssg81
g2626
sg74
(lp2633
S'post_vars'
p2634
asbag67
(g88
g69
NtRp2635
(dp2636
g72
(dp2637
g99
g100
ssg81
g2626
sg74
(lp2638
S':'
asbag67
(g88
g69
NtRp2639
(dp2640
g72
(dp2641
sg81
g2626
sg74
(lp2642
g67
(g68
g69
NtRp2643
(dp2644
g72
(dp2645
g80
I5
ssg81
g2639
sg74
(lp2646
g67
(g76
g69
NtRp2647
(dp2648
g72
(dp2649
g80
I4
ssg81
Nsg74
(lp2650
sbasbasbasbag67
(g83
g69
NtRp2651
(dp2652
g72
(dp2653
sg81
g77
sg74
(lp2654
g67
(g88
g69
NtRp2655
(dp2656
g72
(dp2657
g92
g93
ssg81
g2651
sg74
(lp2658
S'url'
p2659
asbag67
(g88
g69
NtRp2660
(dp2661
g72
(dp2662
g99
g100
ssg81
g2651
sg74
(lp2663
S':'
asbag67
(g88
g69
NtRp2664
(dp2665
g72
(dp2666
sg81
g2651
sg74
(lp2667
g67
(g68
g69
NtRp2668
(dp2669
g72
(dp2670
g80
I5
ssg81
g2664
sg74
(lp2671
S'/places/default/index'
p2672
asbasbasbag67
(g83
g69
NtRp2673
(dp2674
g72
(dp2675
sg81
g77
sg74
(lp2676
g67
(g88
g69
NtRp2677
(dp2678
g72
(dp2679
g92
g93
ssg81
g2673
sg74
(lp2680
S'utcnow'
p2681
asbag67
(g88
g69
NtRp2682
(dp2683
g72
(dp2684
g99
g100
ssg81
g2673
sg74
(lp2685
S':'
asbag67
(g88
g69
NtRp2686
(dp2687
g72
(dp2688
sg81
g2673
sg74
(lp2689
g67
(g68
g69
NtRp2690
(dp2691
g72
(dp2692
g80
I5
ssg81
g2686
sg74
(lp2693
S'datetime.datetime(2011, 9, 30, 20, 8, 56, 20426)'
p2694
asbasbasbag67
(g83
g69
NtRp2695
(dp2696
g72
(dp2697
sg81
g77
sg74
(lp2698
g67
(g88
g69
NtRp2699
(dp2700
g72
(dp2701
g92
g93
ssg81
g2695
sg74
(lp2702
S'uuid'
p2703
asbag67
(g88
g69
NtRp2704
(dp2705
g72
(dp2706
g99
g100
ssg81
g2695
sg74
(lp2707
S':'
asbag67
(g88
g69
NtRp2708
(dp2709
g72
(dp2710
sg81
g2695
sg74
(lp2711
g67
(g68
g69
NtRp2712
(dp2713
g72
(dp2714
g80
I5
ssg81
g2708
sg74
(lp2715
S'places/127.0.0.1.2011-09-30.16-08-56.198042ab-ea60-4b6a-9ad2-7f176b2445df'
p2716
asbasbasbag67
(g83
g69
NtRp2717
(dp2718
g72
(dp2719
sg81
g77
sg74
(lp2720
g67
(g88
g69
NtRp2721
(dp2722
g72
(dp2723
g92
g93
ssg81
g2717
sg74
(lp2724
S'vars'
p2725
asbag67
(g88
g69
NtRp2726
(dp2727
g72
(dp2728
g99
g100
ssg81
g2717
sg74
(lp2729
S':'
asbag67
(g88
g69
NtRp2730
(dp2731
g72
(dp2732
sg81
g2717
sg74
(lp2733
g67
(g68
g69
NtRp2734
(dp2735
g72
(dp2736
g80
I5
ssg81
g2730
sg74
(lp2737
g67
(g76
g69
NtRp2738
(dp2739
g72
(dp2740
g80
I4
ssg81
Nsg74
(lp2741
sbasbasbasbag67
(g83
g69
NtRp2742
(dp2743
g72
(dp2744
sg81
g77
sg74
(lp2745
g67
(g88
g69
NtRp2746
(dp2747
g72
(dp2748
g92
g93
ssg81
g2742
sg74
(lp2749
S'wsgi'
p2750
asbag67
(g88
g69
NtRp2751
(dp2752
g72
(dp2753
g99
g100
ssg81
g2742
sg74
(lp2754
S':'
asbag67
(g88
g69
NtRp2755
(dp2756
g72
(dp2757
sg81
g2742
sg74
(lp2758
g67
(g68
g69
NtRp2759
(dp2760
g72
(dp2761
g80
I5
ssg81
g2755
sg74
(lp2762
g67
(g76
g69
NtRp2763
(dp2764
g72
(dp2765
g80
I4
ssg81
Nsg74
(lp2766
g67
(g83
g69
NtRp2767
(dp2768
g72
(dp2769
sg81
g2763
sg74
(lp2770
g67
(g88
g69
NtRp2771
(dp2772
g72
(dp2773
g92
g93
ssg81
g2767
sg74
(lp2774
S'environ'
p2775
asbag67
(g88
g69
NtRp2776
(dp2777
g72
(dp2778
g99
g100
ssg81
g2767
sg74
(lp2779
S':'
asbag67
(g88
g69
NtRp2780
(dp2781
g72
(dp2782
sg81
g2767
sg74
(lp2783
g67
(g68
g69
NtRp2784
(dp2785
g72
(dp2786
g80
I4
ssg81
g2780
sg74
(lp2787
g67
(g76
g69
NtRp2788
(dp2789
g72
(dp2790
g80
I3
ssg81
Nsg74
(lp2791
g67
(g83
g69
NtRp2792
(dp2793
g72
(dp2794
sg81
g2788
sg74
(lp2795
g67
(g88
g69
NtRp2796
(dp2797
g72
(dp2798
g92
g93
ssg81
g2792
sg74
(lp2799
S'HTTP_ACCEPT'
p2800
asbag67
(g88
g69
NtRp2801
(dp2802
g72
(dp2803
g99
g100
ssg81
g2792
sg74
(lp2804
S':'
asbag67
(g88
g69
NtRp2805
(dp2806
g72
(dp2807
sg81
g2792
sg74
(lp2808
g67
(g68
g69
NtRp2809
(dp2810
g72
(dp2811
g80
I3
ssg81
g2805
sg74
(lp2812
g1383
asbasbasbag67
(g83
g69
NtRp2813
(dp2814
g72
(dp2815
sg81
g2788
sg74
(lp2816
g67
(g88
g69
NtRp2817
(dp2818
g72
(dp2819
g92
g93
ssg81
g2813
sg74
(lp2820
S'HTTP_ACCEPT_CHARSET'
p2821
asbag67
(g88
g69
NtRp2822
(dp2823
g72
(dp2824
g99
g100
ssg81
g2813
sg74
(lp2825
S':'
asbag67
(g88
g69
NtRp2826
(dp2827
g72
(dp2828
sg81
g2813
sg74
(lp2829
g67
(g68
g69
NtRp2830
(dp2831
g72
(dp2832
g80
I3
ssg81
g2826
sg74
(lp2833
g1405
asbasbasbag67
(g83
g69
NtRp2834
(dp2835
g72
(dp2836
sg81
g2788
sg74
(lp2837
g67
(g88
g69
NtRp2838
(dp2839
g72
(dp2840
g92
g93
ssg81
g2834
sg74
(lp2841
S'HTTP_ACCEPT_ENCODING'
p2842
asbag67
(g88
g69
NtRp2843
(dp2844
g72
(dp2845
g99
g100
ssg81
g2834
sg74
(lp2846
S':'
asbag67
(g88
g69
NtRp2847
(dp2848
g72
(dp2849
sg81
g2834
sg74
(lp2850
g67
(g68
g69
NtRp2851
(dp2852
g72
(dp2853
g80
I3
ssg81
g2847
sg74
(lp2854
g1427
asbasbasbag67
(g83
g69
NtRp2855
(dp2856
g72
(dp2857
sg81
g2788
sg74
(lp2858
g67
(g88
g69
NtRp2859
(dp2860
g72
(dp2861
g92
g93
ssg81
g2855
sg74
(lp2862
S'HTTP_ACCEPT_LANGUAGE'
p2863
asbag67
(g88
g69
NtRp2864
(dp2865
g72
(dp2866
g99
g100
ssg81
g2855
sg74
(lp2867
S':'
asbag67
(g88
g69
NtRp2868
(dp2869
g72
(dp2870
sg81
g2855
sg74
(lp2871
g67
(g68
g69
NtRp2872
(dp2873
g72
(dp2874
g80
I3
ssg81
g2868
sg74
(lp2875
g1449
asbasbasbag67
(g83
g69
NtRp2876
(dp2877
g72
(dp2878
sg81
g2788
sg74
(lp2879
g67
(g88
g69
NtRp2880
(dp2881
g72
(dp2882
g92
g93
ssg81
g2876
sg74
(lp2883
S'HTTP_CACHE_CONTROL'
p2884
asbag67
(g88
g69
NtRp2885
(dp2886
g72
(dp2887
g99
g100
ssg81
g2876
sg74
(lp2888
S':'
asbag67
(g88
g69
NtRp2889
(dp2890
g72
(dp2891
sg81
g2876
sg74
(lp2892
g67
(g68
g69
NtRp2893
(dp2894
g72
(dp2895
g80
I3
ssg81
g2889
sg74
(lp2896
g1471
asbasbasbag67
(g83
g69
NtRp2897
(dp2898
g72
(dp2899
sg81
g2788
sg74
(lp2900
g67
(g88
g69
NtRp2901
(dp2902
g72
(dp2903
g92
g93
ssg81
g2897
sg74
(lp2904
S'HTTP_CONNECTION'
p2905
asbag67
(g88
g69
NtRp2906
(dp2907
g72
(dp2908
g99
g100
ssg81
g2897
sg74
(lp2909
S':'
asbag67
(g88
g69
NtRp2910
(dp2911
g72
(dp2912
sg81
g2897
sg74
(lp2913
g67
(g68
g69
NtRp2914
(dp2915
g72
(dp2916
g80
I3
ssg81
g2910
sg74
(lp2917
g1493
asbasbasbag67
(g83
g69
NtRp2918
(dp2919
g72
(dp2920
sg81
g2788
sg74
(lp2921
g67
(g88
g69
NtRp2922
(dp2923
g72
(dp2924
g92
g93
ssg81
g2918
sg74
(lp2925
S'HTTP_COOKIE'
p2926
asbag67
(g88
g69
NtRp2927
(dp2928
g72
(dp2929
g99
g100
ssg81
g2918
sg74
(lp2930
S':'
asbag67
(g88
g69
NtRp2931
(dp2932
g72
(dp2933
sg81
g2918
sg74
(lp2934
g67
(g68
g69
NtRp2935
(dp2936
g72
(dp2937
g80
I3
ssg81
g2931
sg74
(lp2938
g1515
asbasbasbag67
(g83
g69
NtRp2939
(dp2940
g72
(dp2941
sg81
g2788
sg74
(lp2942
g67
(g88
g69
NtRp2943
(dp2944
g72
(dp2945
g92
g93
ssg81
g2939
sg74
(lp2946
S'HTTP_HOST'
p2947
asbag67
(g88
g69
NtRp2948
(dp2949
g72
(dp2950
g99
g100
ssg81
g2939
sg74
(lp2951
S':'
asbag67
(g88
g69
NtRp2952
(dp2953
g72
(dp2954
sg81
g2939
sg74
(lp2955
g67
(g68
g69
NtRp2956
(dp2957
g72
(dp2958
g80
I3
ssg81
g2952
sg74
(lp2959
g1537
asbasbasbag67
(g83
g69
NtRp2960
(dp2961
g72
(dp2962
sg81
g2788
sg74
(lp2963
g67
(g88
g69
NtRp2964
(dp2965
g72
(dp2966
g92
g93
ssg81
g2960
sg74
(lp2967
S'HTTP_REFERER'
p2968
asbag67
(g88
g69
NtRp2969
(dp2970
g72
(dp2971
g99
g100
ssg81
g2960
sg74
(lp2972
S':'
asbag67
(g88
g69
NtRp2973
(dp2974
g72
(dp2975
sg81
g2960
sg74
(lp2976
g67
(g68
g69
NtRp2977
(dp2978
g72
(dp2979
g80
I3
ssg81
g2973
sg74
(lp2980
g1559
asbasbasbag67
(g83
g69
NtRp2981
(dp2982
g72
(dp2983
sg81
g2788
sg74
(lp2984
g67
(g88
g69
NtRp2985
(dp2986
g72
(dp2987
g92
g93
ssg81
g2981
sg74
(lp2988
S'HTTP_USER_AGENT'
p2989
asbag67
(g88
g69
NtRp2990
(dp2991
g72
(dp2992
g99
g100
ssg81
g2981
sg74
(lp2993
S':'
asbag67
(g88
g69
NtRp2994
(dp2995
g72
(dp2996
sg81
g2981
sg74
(lp2997
g67
(g68
g69
NtRp2998
(dp2999
g72
(dp3000
g80
I3
ssg81
g2994
sg74
(lp3001
g1581
asbasbasbag67
(g83
g69
NtRp3002
(dp3003
g72
(dp3004
sg81
g2788
sg74
(lp3005
g67
(g88
g69
NtRp3006
(dp3007
g72
(dp3008
g92
g93
ssg81
g3002
sg74
(lp3009
S'PATH_INFO'
p3010
asbag67
(g88
g69
NtRp3011
(dp3012
g72
(dp3013
g99
g100
ssg81
g3002
sg74
(lp3014
S':'
asbag67
(g88
g69
NtRp3015
(dp3016
g72
(dp3017
sg81
g3002
sg74
(lp3018
g67
(g68
g69
NtRp3019
(dp3020
g72
(dp3021
g80
I3
ssg81
g3015
sg74
(lp3022
g1624
asbasbasbag67
(g83
g69
NtRp3023
(dp3024
g72
(dp3025
sg81
g2788
sg74
(lp3026
g67
(g88
g69
NtRp3027
(dp3028
g72
(dp3029
g92
g93
ssg81
g3023
sg74
(lp3030
S'QUERY_STRING'
p3031
asbag67
(g88
g69
NtRp3032
(dp3033
g72
(dp3034
g99
g100
ssg81
g3023
sg74
(lp3035
S':'
asbag67
(g88
g69
NtRp3036
(dp3037
g72
(dp3038
sg81
g3023
sg74
(lp3039
g67
(g68
g69
NtRp3040
(dp3041
g72
(dp3042
g80
I3
ssg81
g3036
sg74
(lp3043
S''
asbasbasbag67
(g83
g69
NtRp3044
(dp3045
g72
(dp3046
sg81
g2788
sg74
(lp3047
g67
(g88
g69
NtRp3048
(dp3049
g72
(dp3050
g92
g93
ssg81
g3044
sg74
(lp3051
S'REMOTE_ADDR'
p3052
asbag67
(g88
g69
NtRp3053
(dp3054
g72
(dp3055
g99
g100
ssg81
g3044
sg74
(lp3056
S':'
asbag67
(g88
g69
NtRp3057
(dp3058
g72
(dp3059
sg81
g3044
sg74
(lp3060
g67
(g68
g69
NtRp3061
(dp3062
g72
(dp3063
g80
I3
ssg81
g3057
sg74
(lp3064
g200
asbasbasbag67
(g83
g69
NtRp3065
(dp3066
g72
(dp3067
sg81
g2788
sg74
(lp3068
g67
(g88
g69
NtRp3069
(dp3070
g72
(dp3071
g92
g93
ssg81
g3065
sg74
(lp3072
S'REMOTE_PORT'
p3073
asbag67
(g88
g69
NtRp3074
(dp3075
g72
(dp3076
g99
g100
ssg81
g3065
sg74
(lp3077
S':'
asbag67
(g88
g69
NtRp3078
(dp3079
g72
(dp3080
sg81
g3065
sg74
(lp3081
g67
(g68
g69
NtRp3082
(dp3083
g72
(dp3084
g80
I3
ssg81
g3078
sg74
(lp3085
g1688
asbasbasbag67
(g83
g69
NtRp3086
(dp3087
g72
(dp3088
sg81
g2788
sg74
(lp3089
g67
(g88
g69
NtRp3090
(dp3091
g72
(dp3092
g92
g93
ssg81
g3086
sg74
(lp3093
S'REQUEST_METHOD'
p3094
asbag67
(g88
g69
NtRp3095
(dp3096
g72
(dp3097
g99
g100
ssg81
g3086
sg74
(lp3098
S':'
asbag67
(g88
g69
NtRp3099
(dp3100
g72
(dp3101
sg81
g3086
sg74
(lp3102
g67
(g68
g69
NtRp3103
(dp3104
g72
(dp3105
g80
I3
ssg81
g3099
sg74
(lp3106
g1710
asbasbasbag67
(g83
g69
NtRp3107
(dp3108
g72
(dp3109
sg81
g2788
sg74
(lp3110
g67
(g88
g69
NtRp3111
(dp3112
g72
(dp3113
g92
g93
ssg81
g3107
sg74
(lp3114
S'SCRIPT_NAME'
p3115
asbag67
(g88
g69
NtRp3116
(dp3117
g72
(dp3118
g99
g100
ssg81
g3107
sg74
(lp3119
S':'
asbag67
(g88
g69
NtRp3120
(dp3121
g72
(dp3122
sg81
g3107
sg74
(lp3123
g67
(g68
g69
NtRp3124
(dp3125
g72
(dp3126
g80
I3
ssg81
g3120
sg74
(lp3127
S''
asbasbasbag67
(g83
g69
NtRp3128
(dp3129
g72
(dp3130
sg81
g2788
sg74
(lp3131
g67
(g88
g69
NtRp3132
(dp3133
g72
(dp3134
g92
g93
ssg81
g3128
sg74
(lp3135
S'SERVER_NAME'
p3136
asbag67
(g88
g69
NtRp3137
(dp3138
g72
(dp3139
g99
g100
ssg81
g3128
sg74
(lp3140
S':'
asbag67
(g88
g69
NtRp3141
(dp3142
g72
(dp3143
sg81
g3128
sg74
(lp3144
g67
(g68
g69
NtRp3145
(dp3146
g72
(dp3147
g80
I3
ssg81
g3141
sg74
(lp3148
g1753
asbasbasbag67
(g83
g69
NtRp3149
(dp3150
g72
(dp3151
sg81
g2788
sg74
(lp3152
g67
(g88
g69
NtRp3153
(dp3154
g72
(dp3155
g92
g93
ssg81
g3149
sg74
(lp3156
S'SERVER_PORT'
p3157
asbag67
(g88
g69
NtRp3158
(dp3159
g72
(dp3160
g99
g100
ssg81
g3149
sg74
(lp3161
S':'
asbag67
(g88
g69
NtRp3162
(dp3163
g72
(dp3164
sg81
g3149
sg74
(lp3165
g67
(g68
g69
NtRp3166
(dp3167
g72
(dp3168
g80
I3
ssg81
g3162
sg74
(lp3169
g1775
asbasbasbag67
(g83
g69
NtRp3170
(dp3171
g72
(dp3172
sg81
g2788
sg74
(lp3173
g67
(g88
g69
NtRp3174
(dp3175
g72
(dp3176
g92
g93
ssg81
g3170
sg74
(lp3177
S'SERVER_PROTOCOL'
p3178
asbag67
(g88
g69
NtRp3179
(dp3180
g72
(dp3181
g99
g100
ssg81
g3170
sg74
(lp3182
S':'
asbag67
(g88
g69
NtRp3183
(dp3184
g72
(dp3185
sg81
g3170
sg74
(lp3186
g67
(g68
g69
NtRp3187
(dp3188
g72
(dp3189
g80
I3
ssg81
g3183
sg74
(lp3190
g1797
asbasbasbag67
(g83
g69
NtRp3191
(dp3192
g72
(dp3193
sg81
g2788
sg74
(lp3194
g67
(g88
g69
NtRp3195
(dp3196
g72
(dp3197
g92
g93
ssg81
g3191
sg74
(lp3198
S'SERVER_SOFTWARE'
p3199
asbag67
(g88
g69
NtRp3200
(dp3201
g72
(dp3202
g99
g100
ssg81
g3191
sg74
(lp3203
S':'
asbag67
(g88
g69
NtRp3204
(dp3205
g72
(dp3206
sg81
g3191
sg74
(lp3207
g67
(g68
g69
NtRp3208
(dp3209
g72
(dp3210
g80
I3
ssg81
g3204
sg74
(lp3211
g1819
asbasbasbag67
(g83
g69
NtRp3212
(dp3213
g72
(dp3214
sg81
g2788
sg74
(lp3215
g67
(g88
g69
NtRp3216
(dp3217
g72
(dp3218
g92
g93
ssg81
g3212
sg74
(lp3219
S'wsgi.errors'
p3220
asbag67
(g88
g69
NtRp3221
(dp3222
g72
(dp3223
g99
g100
ssg81
g3212
sg74
(lp3224
S':'
asbag67
(g88
g69
NtRp3225
(dp3226
g72
(dp3227
sg81
g3212
sg74
(lp3228
g67
(g68
g69
NtRp3229
(dp3230
g72
(dp3231
g80
I3
ssg81
g3225
sg74
(lp3232
S"<open file '<stderr>', mode 'w' at 0x7f4a416fc270>"
p3233
asbasbasbag67
(g83
g69
NtRp3234
(dp3235
g72
(dp3236
sg81
g2788
sg74
(lp3237
g67
(g88
g69
NtRp3238
(dp3239
g72
(dp3240
g92
g93
ssg81
g3234
sg74
(lp3241
S'wsgi.file_wrapper'
p3242
asbag67
(g88
g69
NtRp3243
(dp3244
g72
(dp3245
g99
g100
ssg81
g3234
sg74
(lp3246
S':'
asbag67
(g88
g69
NtRp3247
(dp3248
g72
(dp3249
sg81
g3234
sg74
(lp3250
g67
(g68
g69
NtRp3251
(dp3252
g72
(dp3253
g80
I3
ssg81
g3247
sg74
(lp3254
S'<class wsgiref.util.FileWrapper at 0x24b4870>'
p3255
asbasbasbag67
(g83
g69
NtRp3256
(dp3257
g72
(dp3258
sg81
g2788
sg74
(lp3259
g67
(g88
g69
NtRp3260
(dp3261
g72
(dp3262
g92
g93
ssg81
g3256
sg74
(lp3263
S'wsgi.input'
p3264
asbag67
(g88
g69
NtRp3265
(dp3266
g72
(dp3267
g99
g100
ssg81
g3256
sg74
(lp3268
S':'
asbag67
(g88
g69
NtRp3269
(dp3270
g72
(dp3271
sg81
g3256
sg74
(lp3272
g67
(g68
g69
NtRp3273
(dp3274
g72
(dp3275
g80
I3
ssg81
g3269
sg74
(lp3276
S'<cStringIO.StringO object at 0x33ed8b8>'
p3277
asbasbasbag67
(g83
g69
NtRp3278
(dp3279
g72
(dp3280
sg81
g2788
sg74
(lp3281
g67
(g88
g69
NtRp3282
(dp3283
g72
(dp3284
g92
g93
ssg81
g3278
sg74
(lp3285
S'wsgi.multiprocess'
p3286
asbag67
(g88
g69
NtRp3287
(dp3288
g72
(dp3289
g99
g100
ssg81
g3278
sg74
(lp3290
S':'
asbag67
(g88
g69
NtRp3291
(dp3292
g72
(dp3293
sg81
g3278
sg74
(lp3294
g67
(g68
g69
NtRp3295
(dp3296
g72
(dp3297
g80
I3
ssg81
g3291
sg74
(lp3298
g110
asbasbasbag67
(g83
g69
NtRp3299
(dp3300
g72
(dp3301
sg81
g2788
sg74
(lp3302
g67
(g88
g69
NtRp3303
(dp3304
g72
(dp3305
g92
g93
ssg81
g3299
sg74
(lp3306
S'wsgi.multithread'
p3307
asbag67
(g88
g69
NtRp3308
(dp3309
g72
(dp3310
g99
g100
ssg81
g3299
sg74
(lp3311
S':'
asbag67
(g88
g69
NtRp3312
(dp3313
g72
(dp3314
sg81
g3299
sg74
(lp3315
g67
(g68
g69
NtRp3316
(dp3317
g72
(dp3318
g80
I3
ssg81
g3312
sg74
(lp3319
g2059
asbasbasbag67
(g83
g69
NtRp3320
(dp3321
g72
(dp3322
sg81
g2788
sg74
(lp3323
g67
(g88
g69
NtRp3324
(dp3325
g72
(dp3326
g92
g93
ssg81
g3320
sg74
(lp3327
S'wsgi.run_once'
p3328
asbag67
(g88
g69
NtRp3329
(dp3330
g72
(dp3331
g99
g100
ssg81
g3320
sg74
(lp3332
S':'
asbag67
(g88
g69
NtRp3333
(dp3334
g72
(dp3335
sg81
g3320
sg74
(lp3336
g67
(g68
g69
NtRp3337
(dp3338
g72
(dp3339
g80
I3
ssg81
g3333
sg74
(lp3340
g110
asbasbasbag67
(g83
g69
NtRp3341
(dp3342
g72
(dp3343
sg81
g2788
sg74
(lp3344
g67
(g88
g69
NtRp3345
(dp3346
g72
(dp3347
g92
g93
ssg81
g3341
sg74
(lp3348
S'wsgi.url_scheme'
p3349
asbag67
(g88
g69
NtRp3350
(dp3351
g72
(dp3352
g99
g100
ssg81
g3341
sg74
(lp3353
S':'
asbag67
(g88
g69
NtRp3354
(dp3355
g72
(dp3356
sg81
g3341
sg74
(lp3357
g67
(g68
g69
NtRp3358
(dp3359
g72
(dp3360
g80
I3
ssg81
g3354
sg74
(lp3361
g2102
asbasbasbag67
(g83
g69
NtRp3362
(dp3363
g72
(dp3364
sg81
g2788
sg74
(lp3365
g67
(g88
g69
NtRp3366
(dp3367
g72
(dp3368
g92
g93
ssg81
g3362
sg74
(lp3369
S'wsgi.version'
p3370
asbag67
(g88
g69
NtRp3371
(dp3372
g72
(dp3373
g99
g100
ssg81
g3362
sg74
(lp3374
S':'
asbag67
(g88
g69
NtRp3375
(dp3376
g72
(dp3377
sg81
g3362
sg74
(lp3378
g67
(g68
g69
NtRp3379
(dp3380
g72
(dp3381
g80
I3
ssg81
g3375
sg74
(lp3382
S'1'
asbasbasbasbasbasbasbasbasbasbasbasbasbsS'frames'
p3383
(lp3384
(dp3385
S'file'
p3386
S'/home/ian/Dropbox/Web_Pages/web2py-linux/gluon/restricted.py'
p3387
sS'dump'
p3388
(dp3389
S'code'
p3390
S'r"left_sidebar_enabled=right_sidebar_enabled=False...nse.write(\'\\n  </body>\\n</html>\\n\', escape=False)"'
p3391
sS'layer'
p3392
S"'/home/ian/Dropbox/Web_Pages/web2py-linux/applications/places/views/default/index.html'"
p3393
sS'global compile2'
p3394
S'<function compile2>'
p3395
sS'ccode'
p3396
S'undefined'
p3397
ssS'lnum'
p3398
I193
sS'lines'
p3399
(dp3400
I192
S'        else:'
p3401
sI193
S'            ccode = compile2(code,layer)'
p3402
sI194
S'        exec ccode in environment'
p3403
sI195
S'    except HTTP:'
p3404
sI196
S'        raise'
p3405
sI197
S'    except Exception, error:'
p3406
sI188
S"    environment['__file__'] = layer"
p3407
sI189
S'    try:'
p3408
sI190
S'        if type(code) == types.CodeType:'
p3409
sI191
S'            ccode = code'
p3410
ssS'call'
p3411
S'(code=r"left_sidebar_enabled=right_sidebar_enabled=False...nse.write(\'\\n  </body>\\n</html>\\n\', escape=False)", environment={\'A\': <class \'gluon.html.A\'>, \'Auth\': <class \'gluon.tools.Auth\'>, \'B\': <class \'gluon.html.B\'>, \'BEAUTIFY\': <class \'gluon.html.BEAUTIFY\'>, \'BODY\': <class \'gluon.html.BODY\'>, \'BR\': <class \'gluon.html.BR\'>, \'BUTTON\': <class \'gluon.html.BUTTON\'>, \'CAT\': <class \'gluon.html.CAT\'>, \'CENTER\': <class \'gluon.html.CENTER\'>, \'CLEANUP\': <class \'gluon.validators.CLEANUP\'>, ...}, layer=\'/home/ian/Dropbox/Web_Pages/web2py-linux/applications/places/views/default/index.html\')'
p3412
sS'func'
p3413
S'restricted'
p3414
sa(dp3415
g3386
S'/home/ian/Dropbox/Web_Pages/web2py-linux/gluon/restricted.py'
p3416
sg3388
(dp3417
S'builtincompile'
p3418
S'<built-in function compile>'
p3419
sS'code'
p3420
S'r"left_sidebar_enabled=right_sidebar_enabled=False...nse.write(\'\\n  </body>\\n</html>\\n\', escape=False)"'
p3421
sS'code.rstrip'
p3422
S'<built-in method rstrip of str object>'
p3423
sS').replace'
p3424
g3397
sS'layer'
p3425
S"'/home/ian/Dropbox/Web_Pages/web2py-linux/applications/places/views/default/index.html'"
p3426
ssg3398
I179
sg3399
(dp3427
I174
S''
sI175
S'def compile2(code,layer):'
p3428
sI176
S'    """'
p3429
sI177
S"    The +'\\n' is necessary else compile fails when code ends in a comment."
p3430
sI178
S'    """'
p3431
sI179
S"    return compile(code.rstrip().replace('\\r\\n','\\n')+'\\n', layer, 'exec')"
p3432
sI180
S''
sI181
S"def restricted(code, environment=None, layer='Unknown'):"
p3433
sI182
S'    """'
p3434
sI183
S'    runs code in environment and returns the output. if an exception occurs'
p3435
ssg3411
S'(code=r"left_sidebar_enabled=right_sidebar_enabled=False...nse.write(\'\\n  </body>\\n</html>\\n\', escape=False)", layer=\'/home/ian/Dropbox/Web_Pages/web2py-linux/applications/places/views/default/index.html\')'
p3436
sg3413
S'compile2'
p3437
sasS'pyver'
p3438
S'Python 2.7.1+: /usr/bin/python2.7'
p3439
sS'session'
p3440
g67
(g68
g69
NtRp3441
(dp3442
g72
(dp3443
sg74
(lp3444
g67
(g76
g69
NtRp3445
(dp3446
g72
(dp3447
g80
I5
ssg81
Nsg74
(lp3448
g67
(g83
g69
NtRp3449
(dp3450
g72
(dp3451
sg81
g3445
sg74
(lp3452
g67
(g88
g69
NtRp3453
(dp3454
g72
(dp3455
g92
g93
ssg81
g3449
sg74
(lp3456
S'current'
p3457
asbag67
(g88
g69
NtRp3458
(dp3459
g72
(dp3460
g99
g100
ssg81
g3449
sg74
(lp3461
S':'
asbag67
(g88
g69
NtRp3462
(dp3463
g72
(dp3464
sg81
g3449
sg74
(lp3465
g67
(g68
g69
NtRp3466
(dp3467
g72
(dp3468
g80
I5
ssg81
g3462
sg74
(lp3469
S'kitchen'
p3470
asbasbasbag67
(g83
g69
NtRp3471
(dp3472
g72
(dp3473
sg81
g3445
sg74
(lp3474
g67
(g88
g69
NtRp3475
(dp3476
g72
(dp3477
g92
g93
ssg81
g3471
sg74
(lp3478
S'last_query'
p3479
asbag67
(g88
g69
NtRp3480
(dp3481
g72
(dp3482
g99
g100
ssg81
g3471
sg74
(lp3483
S':'
asbag67
(g88
g69
NtRp3484
(dp3485
g72
(dp3486
sg81
g3471
sg74
(lp3487
g67
(g68
g69
NtRp3488
(dp3489
g72
(dp3490
g80
I5
ssg81
g3484
sg74
(lp3491
S'db.tags.id>0'
p3492
asbasbasbag67
(g83
g69
NtRp3493
(dp3494
g72
(dp3495
sg81
g3445
sg74
(lp3496
g67
(g88
g69
NtRp3497
(dp3498
g72
(dp3499
g92
g93
ssg81
g3493
sg74
(lp3500
S'tags'
p3501
asbag67
(g88
g69
NtRp3502
(dp3503
g72
(dp3504
g99
g100
ssg81
g3493
sg74
(lp3505
S':'
asbag67
(g88
g69
NtRp3506
(dp3507
g72
(dp3508
sg81
g3493
sg74
(lp3509
g67
(g68
g69
NtRp3510
(dp3511
g72
(dp3512
g80
I5
ssg81
g3506
sg74
(lp3513
g67
(g76
g69
NtRp3514
(dp3515
g72
(dp3516
g80
I4
ssg81
Nsg74
(lp3517
g67
(g83
g69
NtRp3518
(dp3519
g72
(dp3520
sg81
g3514
sg74
(lp3521
g67
(g88
g69
NtRp3522
(dp3523
g72
(dp3524
sg81
g3518
sg74
(lp3525
g67
(g68
g69
NtRp3526
(dp3527
g72
(dp3528
g80
I4
ssg81
g3522
sg74
(lp3529
g67
(g76
g69
NtRp3530
(dp3531
g72
(dp3532
g80
I3
ssg81
Nsg74
(lp3533
g67
(g83
g69
NtRp3534
(dp3535
g72
(dp3536
sg81
g3530
sg74
(lp3537
g67
(g88
g69
NtRp3538
(dp3539
g72
(dp3540
g92
g93
ssg81
g3534
sg74
(lp3541
S'id'
p3542
asbag67
(g88
g69
NtRp3543
(dp3544
g72
(dp3545
g99
g100
ssg81
g3534
sg74
(lp3546
S':'
asbag67
(g88
g69
NtRp3547
(dp3548
g72
(dp3549
sg81
g3534
sg74
(lp3550
g67
(g68
g69
NtRp3551
(dp3552
g72
(dp3553
g80
I3
ssg81
g3547
sg74
(lp3554
S'1'
asbasbasbag67
(g83
g69
NtRp3555
(dp3556
g72
(dp3557
sg81
g3530
sg74
(lp3558
g67
(g88
g69
NtRp3559
(dp3560
g72
(dp3561
g92
g93
ssg81
g3555
sg74
(lp3562
S'tag'
p3563
asbag67
(g88
g69
NtRp3564
(dp3565
g72
(dp3566
g99
g100
ssg81
g3555
sg74
(lp3567
S':'
asbag67
(g88
g69
NtRp3568
(dp3569
g72
(dp3570
sg81
g3555
sg74
(lp3571
g67
(g68
g69
NtRp3572
(dp3573
g72
(dp3574
g80
I3
ssg81
g3568
sg74
(lp3575
S'kitchen'
p3576
asbasbasbasbasbasbasbag67
(g83
g69
NtRp3577
(dp3578
g72
(dp3579
sg81
g3514
sg74
(lp3580
g67
(g88
g69
NtRp3581
(dp3582
g72
(dp3583
sg81
g3577
sg74
(lp3584
g67
(g68
g69
NtRp3585
(dp3586
g72
(dp3587
g80
I4
ssg81
g3581
sg74
(lp3588
g67
(g76
g69
NtRp3589
(dp3590
g72
(dp3591
g80
I3
ssg81
Nsg74
(lp3592
g67
(g83
g69
NtRp3593
(dp3594
g72
(dp3595
sg81
g3589
sg74
(lp3596
g67
(g88
g69
NtRp3597
(dp3598
g72
(dp3599
g92
g93
ssg81
g3593
sg74
(lp3600
S'id'
p3601
asbag67
(g88
g69
NtRp3602
(dp3603
g72
(dp3604
g99
g100
ssg81
g3593
sg74
(lp3605
S':'
asbag67
(g88
g69
NtRp3606
(dp3607
g72
(dp3608
sg81
g3593
sg74
(lp3609
g67
(g68
g69
NtRp3610
(dp3611
g72
(dp3612
g80
I3
ssg81
g3606
sg74
(lp3613
S'2'
asbasbasbag67
(g83
g69
NtRp3614
(dp3615
g72
(dp3616
sg81
g3589
sg74
(lp3617
g67
(g88
g69
NtRp3618
(dp3619
g72
(dp3620
g92
g93
ssg81
g3614
sg74
(lp3621
S'tag'
p3622
asbag67
(g88
g69
NtRp3623
(dp3624
g72
(dp3625
g99
g100
ssg81
g3614
sg74
(lp3626
S':'
asbag67
(g88
g69
NtRp3627
(dp3628
g72
(dp3629
sg81
g3614
sg74
(lp3630
g67
(g68
g69
NtRp3631
(dp3632
g72
(dp3633
g80
I3
ssg81
g3627
sg74
(lp3634
S'kids'
p3635
asbasbasbasbasbasbasbag67
(g83
g69
NtRp3636
(dp3637
g72
(dp3638
sg81
g3514
sg74
(lp3639
g67
(g88
g69
NtRp3640
(dp3641
g72
(dp3642
sg81
g3636
sg74
(lp3643
g67
(g68
g69
NtRp3644
(dp3645
g72
(dp3646
g80
I4
ssg81
g3640
sg74
(lp3647
g67
(g76
g69
NtRp3648
(dp3649
g72
(dp3650
g80
I3
ssg81
Nsg74
(lp3651
g67
(g83
g69
NtRp3652
(dp3653
g72
(dp3654
sg81
g3648
sg74
(lp3655
g67
(g88
g69
NtRp3656
(dp3657
g72
(dp3658
g92
g93
ssg81
g3652
sg74
(lp3659
S'id'
p3660
asbag67
(g88
g69
NtRp3661
(dp3662
g72
(dp3663
g99
g100
ssg81
g3652
sg74
(lp3664
S':'
asbag67
(g88
g69
NtRp3665
(dp3666
g72
(dp3667
sg81
g3652
sg74
(lp3668
g67
(g68
g69
NtRp3669
(dp3670
g72
(dp3671
g80
I3
ssg81
g3665
sg74
(lp3672
S'3'
asbasbasbag67
(g83
g69
NtRp3673
(dp3674
g72
(dp3675
sg81
g3648
sg74
(lp3676
g67
(g88
g69
NtRp3677
(dp3678
g72
(dp3679
g92
g93
ssg81
g3673
sg74
(lp3680
S'tag'
p3681
asbag67
(g88
g69
NtRp3682
(dp3683
g72
(dp3684
g99
g100
ssg81
g3673
sg74
(lp3685
S':'
asbag67
(g88
g69
NtRp3686
(dp3687
g72
(dp3688
sg81
g3673
sg74
(lp3689
g67
(g68
g69
NtRp3690
(dp3691
g72
(dp3692
g80
I3
ssg81
g3686
sg74
(lp3693
S'research'
p3694
asbasbasbasbasbasbasbag67
(g83
g69
NtRp3695
(dp3696
g72
(dp3697
sg81
g3514
sg74
(lp3698
g67
(g88
g69
NtRp3699
(dp3700
g72
(dp3701
sg81
g3695
sg74
(lp3702
g67
(g68
g69
NtRp3703
(dp3704
g72
(dp3705
g80
I4
ssg81
g3699
sg74
(lp3706
g67
(g76
g69
NtRp3707
(dp3708
g72
(dp3709
g80
I3
ssg81
Nsg74
(lp3710
g67
(g83
g69
NtRp3711
(dp3712
g72
(dp3713
sg81
g3707
sg74
(lp3714
g67
(g88
g69
NtRp3715
(dp3716
g72
(dp3717
g92
g93
ssg81
g3711
sg74
(lp3718
S'id'
p3719
asbag67
(g88
g69
NtRp3720
(dp3721
g72
(dp3722
g99
g100
ssg81
g3711
sg74
(lp3723
S':'
asbag67
(g88
g69
NtRp3724
(dp3725
g72
(dp3726
sg81
g3711
sg74
(lp3727
g67
(g68
g69
NtRp3728
(dp3729
g72
(dp3730
g80
I3
ssg81
g3724
sg74
(lp3731
S'4'
asbasbasbag67
(g83
g69
NtRp3732
(dp3733
g72
(dp3734
sg81
g3707
sg74
(lp3735
g67
(g88
g69
NtRp3736
(dp3737
g72
(dp3738
g92
g93
ssg81
g3732
sg74
(lp3739
S'tag'
p3740
asbag67
(g88
g69
NtRp3741
(dp3742
g72
(dp3743
g99
g100
ssg81
g3732
sg74
(lp3744
S':'
asbag67
(g88
g69
NtRp3745
(dp3746
g72
(dp3747
sg81
g3732
sg74
(lp3748
g67
(g68
g69
NtRp3749
(dp3750
g72
(dp3751
g80
I3
ssg81
g3745
sg74
(lp3752
S'webdev'
p3753
asbasbasbasbasbasbasbag67
(g83
g69
NtRp3754
(dp3755
g72
(dp3756
sg81
g3514
sg74
(lp3757
g67
(g88
g69
NtRp3758
(dp3759
g72
(dp3760
sg81
g3754
sg74
(lp3761
g67
(g68
g69
NtRp3762
(dp3763
g72
(dp3764
g80
I4
ssg81
g3758
sg74
(lp3765
g67
(g76
g69
NtRp3766
(dp3767
g72
(dp3768
g80
I3
ssg81
Nsg74
(lp3769
g67
(g83
g69
NtRp3770
(dp3771
g72
(dp3772
sg81
g3766
sg74
(lp3773
g67
(g88
g69
NtRp3774
(dp3775
g72
(dp3776
g92
g93
ssg81
g3770
sg74
(lp3777
S'id'
p3778
asbag67
(g88
g69
NtRp3779
(dp3780
g72
(dp3781
g99
g100
ssg81
g3770
sg74
(lp3782
S':'
asbag67
(g88
g69
NtRp3783
(dp3784
g72
(dp3785
sg81
g3770
sg74
(lp3786
g67
(g68
g69
NtRp3787
(dp3788
g72
(dp3789
g80
I3
ssg81
g3783
sg74
(lp3790
S'5'
asbasbasbag67
(g83
g69
NtRp3791
(dp3792
g72
(dp3793
sg81
g3766
sg74
(lp3794
g67
(g88
g69
NtRp3795
(dp3796
g72
(dp3797
g92
g93
ssg81
g3791
sg74
(lp3798
S'tag'
p3799
asbag67
(g88
g69
NtRp3800
(dp3801
g72
(dp3802
g99
g100
ssg81
g3791
sg74
(lp3803
S':'
asbag67
(g88
g69
NtRp3804
(dp3805
g72
(dp3806
sg81
g3791
sg74
(lp3807
g67
(g68
g69
NtRp3808
(dp3809
g72
(dp3810
g80
I3
ssg81
g3804
sg74
(lp3811
S'photography'
p3812
asbasbasbasbasbasbasbag67
(g83
g69
NtRp3813
(dp3814
g72
(dp3815
sg81
g3514
sg74
(lp3816
g67
(g88
g69
NtRp3817
(dp3818
g72
(dp3819
sg81
g3813
sg74
(lp3820
g67
(g68
g69
NtRp3821
(dp3822
g72
(dp3823
g80
I4
ssg81
g3817
sg74
(lp3824
g67
(g76
g69
NtRp3825
(dp3826
g72
(dp3827
g80
I3
ssg81
Nsg74
(lp3828
g67
(g83
g69
NtRp3829
(dp3830
g72
(dp3831
sg81
g3825
sg74
(lp3832
g67
(g88
g69
NtRp3833
(dp3834
g72
(dp3835
g92
g93
ssg81
g3829
sg74
(lp3836
S'id'
p3837
asbag67
(g88
g69
NtRp3838
(dp3839
g72
(dp3840
g99
g100
ssg81
g3829
sg74
(lp3841
S':'
asbag67
(g88
g69
NtRp3842
(dp3843
g72
(dp3844
sg81
g3829
sg74
(lp3845
g67
(g68
g69
NtRp3846
(dp3847
g72
(dp3848
g80
I3
ssg81
g3842
sg74
(lp3849
S'6'
asbasbasbag67
(g83
g69
NtRp3850
(dp3851
g72
(dp3852
sg81
g3825
sg74
(lp3853
g67
(g88
g69
NtRp3854
(dp3855
g72
(dp3856
g92
g93
ssg81
g3850
sg74
(lp3857
S'tag'
p3858
asbag67
(g88
g69
NtRp3859
(dp3860
g72
(dp3861
g99
g100
ssg81
g3850
sg74
(lp3862
S':'
asbag67
(g88
g69
NtRp3863
(dp3864
g72
(dp3865
sg81
g3850
sg74
(lp3866
g67
(g68
g69
NtRp3867
(dp3868
g72
(dp3869
g80
I3
ssg81
g3863
sg74
(lp3870
S'entertainment'
p3871
asbasbasbasbasbasbasbag67
(g83
g69
NtRp3872
(dp3873
g72
(dp3874
sg81
g3514
sg74
(lp3875
g67
(g88
g69
NtRp3876
(dp3877
g72
(dp3878
sg81
g3872
sg74
(lp3879
g67
(g68
g69
NtRp3880
(dp3881
g72
(dp3882
g80
I4
ssg81
g3876
sg74
(lp3883
g67
(g76
g69
NtRp3884
(dp3885
g72
(dp3886
g80
I3
ssg81
Nsg74
(lp3887
g67
(g83
g69
NtRp3888
(dp3889
g72
(dp3890
sg81
g3884
sg74
(lp3891
g67
(g88
g69
NtRp3892
(dp3893
g72
(dp3894
g92
g93
ssg81
g3888
sg74
(lp3895
S'id'
p3896
asbag67
(g88
g69
NtRp3897
(dp3898
g72
(dp3899
g99
g100
ssg81
g3888
sg74
(lp3900
S':'
asbag67
(g88
g69
NtRp3901
(dp3902
g72
(dp3903
sg81
g3888
sg74
(lp3904
g67
(g68
g69
NtRp3905
(dp3906
g72
(dp3907
g80
I3
ssg81
g3901
sg74
(lp3908
S'7'
asbasbasbag67
(g83
g69
NtRp3909
(dp3910
g72
(dp3911
sg81
g3884
sg74
(lp3912
g67
(g88
g69
NtRp3913
(dp3914
g72
(dp3915
g92
g93
ssg81
g3909
sg74
(lp3916
S'tag'
p3917
asbag67
(g88
g69
NtRp3918
(dp3919
g72
(dp3920
g99
g100
ssg81
g3909
sg74
(lp3921
S':'
asbag67
(g88
g69
NtRp3922
(dp3923
g72
(dp3924
sg81
g3909
sg74
(lp3925
g67
(g68
g69
NtRp3926
(dp3927
g72
(dp3928
g80
I3
ssg81
g3922
sg74
(lp3929
S'games'
p3930
asbasbasbasbasbasbasbag67
(g83
g69
NtRp3931
(dp3932
g72
(dp3933
sg81
g3514
sg74
(lp3934
g67
(g88
g69
NtRp3935
(dp3936
g72
(dp3937
sg81
g3931
sg74
(lp3938
g67
(g68
g69
NtRp3939
(dp3940
g72
(dp3941
g80
I4
ssg81
g3935
sg74
(lp3942
g67
(g76
g69
NtRp3943
(dp3944
g72
(dp3945
g80
I3
ssg81
Nsg74
(lp3946
g67
(g83
g69
NtRp3947
(dp3948
g72
(dp3949
sg81
g3943
sg74
(lp3950
g67
(g88
g69
NtRp3951
(dp3952
g72
(dp3953
g92
g93
ssg81
g3947
sg74
(lp3954
S'id'
p3955
asbag67
(g88
g69
NtRp3956
(dp3957
g72
(dp3958
g99
g100
ssg81
g3947
sg74
(lp3959
S':'
asbag67
(g88
g69
NtRp3960
(dp3961
g72
(dp3962
sg81
g3947
sg74
(lp3963
g67
(g68
g69
NtRp3964
(dp3965
g72
(dp3966
g80
I3
ssg81
g3960
sg74
(lp3967
S'8'
asbasbasbag67
(g83
g69
NtRp3968
(dp3969
g72
(dp3970
sg81
g3943
sg74
(lp3971
g67
(g88
g69
NtRp3972
(dp3973
g72
(dp3974
g92
g93
ssg81
g3968
sg74
(lp3975
S'tag'
p3976
asbag67
(g88
g69
NtRp3977
(dp3978
g72
(dp3979
g99
g100
ssg81
g3968
sg74
(lp3980
S':'
asbag67
(g88
g69
NtRp3981
(dp3982
g72
(dp3983
sg81
g3968
sg74
(lp3984
g67
(g68
g69
NtRp3985
(dp3986
g72
(dp3987
g80
I3
ssg81
g3981
sg74
(lp3988
S'design'
p3989
asbasbasbasbasbasbasbag67
(g83
g69
NtRp3990
(dp3991
g72
(dp3992
sg81
g3514
sg74
(lp3993
g67
(g88
g69
NtRp3994
(dp3995
g72
(dp3996
sg81
g3990
sg74
(lp3997
g67
(g68
g69
NtRp3998
(dp3999
g72
(dp4000
g80
I4
ssg81
g3994
sg74
(lp4001
g67
(g76
g69
NtRp4002
(dp4003
g72
(dp4004
g80
I3
ssg81
Nsg74
(lp4005
g67
(g83
g69
NtRp4006
(dp4007
g72
(dp4008
sg81
g4002
sg74
(lp4009
g67
(g88
g69
NtRp4010
(dp4011
g72
(dp4012
g92
g93
ssg81
g4006
sg74
(lp4013
S'id'
p4014
asbag67
(g88
g69
NtRp4015
(dp4016
g72
(dp4017
g99
g100
ssg81
g4006
sg74
(lp4018
S':'
asbag67
(g88
g69
NtRp4019
(dp4020
g72
(dp4021
sg81
g4006
sg74
(lp4022
g67
(g68
g69
NtRp4023
(dp4024
g72
(dp4025
g80
I3
ssg81
g4019
sg74
(lp4026
S'9'
asbasbasbag67
(g83
g69
NtRp4027
(dp4028
g72
(dp4029
sg81
g4002
sg74
(lp4030
g67
(g88
g69
NtRp4031
(dp4032
g72
(dp4033
g92
g93
ssg81
g4027
sg74
(lp4034
S'tag'
p4035
asbag67
(g88
g69
NtRp4036
(dp4037
g72
(dp4038
g99
g100
ssg81
g4027
sg74
(lp4039
S':'
asbag67
(g88
g69
NtRp4040
(dp4041
g72
(dp4042
sg81
g4027
sg74
(lp4043
g67
(g68
g69
NtRp4044
(dp4045
g72
(dp4046
g80
I3
ssg81
g4040
sg74
(lp4047
S'research'
p4048
asbasbasbasbasbasbasbasbasbasbasbasbasbsS'etype'
p4049
S"<type 'exceptions.SyntaxError'>"
p4050
sS'date'
p4051
S'Fri Sep 30 16:08:56 2011'
p4052
sS'response'
p4053
g67
(g68
g69
NtRp4054
(dp4055
g72
(dp4056
sg74
(lp4057
g67
(g76
g69
NtRp4058
(dp4059
g72
(dp4060
g80
I5
ssg81
Nsg74
(lp4061
g67
(g83
g69
NtRp4062
(dp4063
g72
(dp4064
sg81
g4058
sg74
(lp4065
g67
(g88
g69
NtRp4066
(dp4067
g72
(dp4068
g92
g93
ssg81
g4062
sg74
(lp4069
g165
asbag67
(g88
g69
NtRp4070
(dp4071
g72
(dp4072
g99
g100
ssg81
g4062
sg74
(lp4073
S':'
asbag67
(g88
g69
NtRp4074
(dp4075
g72
(dp4076
sg81
g4062
sg74
(lp4077
g67
(g68
g69
NtRp4078
(dp4079
g72
(dp4080
g80
I5
ssg81
g4074
sg74
(lp4081
S'<cStringIO.StringO object at 0x2bb5fb8>'
p4082
asbasbasbag67
(g83
g69
NtRp4083
(dp4084
g72
(dp4085
sg81
g4058
sg74
(lp4086
g67
(g88
g69
NtRp4087
(dp4088
g72
(dp4089
g92
g93
ssg81
g4083
sg74
(lp4090
g231
asbag67
(g88
g69
NtRp4091
(dp4092
g72
(dp4093
g99
g100
ssg81
g4083
sg74
(lp4094
S':'
asbag67
(g88
g69
NtRp4095
(dp4096
g72
(dp4097
sg81
g4083
sg74
(lp4098
g67
(g68
g69
NtRp4099
(dp4100
g72
(dp4101
g80
I5
ssg81
g4095
sg74
(lp4102
g67
(g76
g69
NtRp4103
(dp4104
g72
(dp4105
g80
I4
ssg81
Nsg74
(lp4106
g67
(g83
g69
NtRp4107
(dp4108
g72
(dp4109
sg81
g4103
sg74
(lp4110
g67
(g88
g69
NtRp4111
(dp4112
g72
(dp4113
g92
g93
ssg81
g4107
sg74
(lp4114
S'session_id_places'
p4115
asbag67
(g88
g69
NtRp4116
(dp4117
g72
(dp4118
g99
g100
ssg81
g4107
sg74
(lp4119
S':'
asbag67
(g88
g69
NtRp4120
(dp4121
g72
(dp4122
sg81
g4107
sg74
(lp4123
g67
(g68
g69
NtRp4124
(dp4125
g72
(dp4126
g80
I4
ssg81
g4120
sg74
(lp4127
g67
(g76
g69
NtRp4128
(dp4129
g72
(dp4130
g80
I3
ssg81
Nsg74
(lp4131
g67
(g83
g69
NtRp4132
(dp4133
g72
(dp4134
sg81
g4128
sg74
(lp4135
g67
(g88
g69
NtRp4136
(dp4137
g72
(dp4138
g92
g93
ssg81
g4132
sg74
(lp4139
g281
asbag67
(g88
g69
NtRp4140
(dp4141
g72
(dp4142
g99
g100
ssg81
g4132
sg74
(lp4143
S':'
asbag67
(g88
g69
NtRp4144
(dp4145
g72
(dp4146
sg81
g4132
sg74
(lp4147
g67
(g68
g69
NtRp4148
(dp4149
g72
(dp4150
g80
I3
ssg81
g4144
sg74
(lp4151
S''
asbasbasbag67
(g83
g69
NtRp4152
(dp4153
g72
(dp4154
sg81
g4128
sg74
(lp4155
g67
(g88
g69
NtRp4156
(dp4157
g72
(dp4158
g92
g93
ssg81
g4152
sg74
(lp4159
g302
asbag67
(g88
g69
NtRp4160
(dp4161
g72
(dp4162
g99
g100
ssg81
g4152
sg74
(lp4163
S':'
asbag67
(g88
g69
NtRp4164
(dp4165
g72
(dp4166
sg81
g4152
sg74
(lp4167
g67
(g68
g69
NtRp4168
(dp4169
g72
(dp4170
g80
I3
ssg81
g4164
sg74
(lp4171
S''
asbasbasbag67
(g83
g69
NtRp4172
(dp4173
g72
(dp4174
sg81
g4128
sg74
(lp4175
g67
(g88
g69
NtRp4176
(dp4177
g72
(dp4178
g92
g93
ssg81
g4172
sg74
(lp4179
g323
asbag67
(g88
g69
NtRp4180
(dp4181
g72
(dp4182
g99
g100
ssg81
g4172
sg74
(lp4183
S':'
asbag67
(g88
g69
NtRp4184
(dp4185
g72
(dp4186
sg81
g4172
sg74
(lp4187
g67
(g68
g69
NtRp4188
(dp4189
g72
(dp4190
g80
I3
ssg81
g4184
sg74
(lp4191
S''
asbasbasbag67
(g83
g69
NtRp4192
(dp4193
g72
(dp4194
sg81
g4128
sg74
(lp4195
g67
(g88
g69
NtRp4196
(dp4197
g72
(dp4198
g92
g93
ssg81
g4192
sg74
(lp4199
g344
asbag67
(g88
g69
NtRp4200
(dp4201
g72
(dp4202
g99
g100
ssg81
g4192
sg74
(lp4203
S':'
asbag67
(g88
g69
NtRp4204
(dp4205
g72
(dp4206
sg81
g4192
sg74
(lp4207
g67
(g68
g69
NtRp4208
(dp4209
g72
(dp4210
g80
I3
ssg81
g4204
sg74
(lp4211
S''
asbasbasbag67
(g83
g69
NtRp4212
(dp4213
g72
(dp4214
sg81
g4128
sg74
(lp4215
g67
(g88
g69
NtRp4216
(dp4217
g72
(dp4218
g92
g93
ssg81
g4212
sg74
(lp4219
g365
asbag67
(g88
g69
NtRp4220
(dp4221
g72
(dp4222
g99
g100
ssg81
g4212
sg74
(lp4223
S':'
asbag67
(g88
g69
NtRp4224
(dp4225
g72
(dp4226
sg81
g4212
sg74
(lp4227
g67
(g68
g69
NtRp4228
(dp4229
g72
(dp4230
g80
I3
ssg81
g4224
sg74
(lp4231
S''
asbasbasbag67
(g83
g69
NtRp4232
(dp4233
g72
(dp4234
sg81
g4128
sg74
(lp4235
g67
(g88
g69
NtRp4236
(dp4237
g72
(dp4238
g92
g93
ssg81
g4232
sg74
(lp4239
g386
asbag67
(g88
g69
NtRp4240
(dp4241
g72
(dp4242
g99
g100
ssg81
g4232
sg74
(lp4243
S':'
asbag67
(g88
g69
NtRp4244
(dp4245
g72
(dp4246
sg81
g4232
sg74
(lp4247
g67
(g68
g69
NtRp4248
(dp4249
g72
(dp4250
g80
I3
ssg81
g4244
sg74
(lp4251
S'/'
asbasbasbag67
(g83
g69
NtRp4252
(dp4253
g72
(dp4254
sg81
g4128
sg74
(lp4255
g67
(g88
g69
NtRp4256
(dp4257
g72
(dp4258
g92
g93
ssg81
g4252
sg74
(lp4259
g407
asbag67
(g88
g69
NtRp4260
(dp4261
g72
(dp4262
g99
g100
ssg81
g4252
sg74
(lp4263
S':'
asbag67
(g88
g69
NtRp4264
(dp4265
g72
(dp4266
sg81
g4252
sg74
(lp4267
g67
(g68
g69
NtRp4268
(dp4269
g72
(dp4270
g80
I3
ssg81
g4264
sg74
(lp4271
S''
asbasbasbag67
(g83
g69
NtRp4272
(dp4273
g72
(dp4274
sg81
g4128
sg74
(lp4275
g67
(g88
g69
NtRp4276
(dp4277
g72
(dp4278
g92
g93
ssg81
g4272
sg74
(lp4279
g428
asbag67
(g88
g69
NtRp4280
(dp4281
g72
(dp4282
g99
g100
ssg81
g4272
sg74
(lp4283
S':'
asbag67
(g88
g69
NtRp4284
(dp4285
g72
(dp4286
sg81
g4272
sg74
(lp4287
g67
(g68
g69
NtRp4288
(dp4289
g72
(dp4290
g80
I3
ssg81
g4284
sg74
(lp4291
S''
asbasbasbasbasbasbasbasbasbasbasbag67
(g83
g69
NtRp4292
(dp4293
g72
(dp4294
sg81
g4058
sg74
(lp4295
g67
(g88
g69
NtRp4296
(dp4297
g72
(dp4298
g92
g93
ssg81
g4292
sg74
(lp4299
S'files'
p4300
asbag67
(g88
g69
NtRp4301
(dp4302
g72
(dp4303
g99
g100
ssg81
g4292
sg74
(lp4304
S':'
asbag67
(g88
g69
NtRp4305
(dp4306
g72
(dp4307
sg81
g4292
sg74
(lp4308
g67
(g68
g69
NtRp4309
(dp4310
g72
(dp4311
g80
I5
ssg81
g4305
sg74
(lp4312
g67
(g76
g69
NtRp4313
(dp4314
g72
(dp4315
g80
I4
ssg81
Nsg74
(lp4316
sbasbasbasbag67
(g83
g69
NtRp4317
(dp4318
g72
(dp4319
sg81
g4058
sg74
(lp4320
g67
(g88
g69
NtRp4321
(dp4322
g72
(dp4323
g92
g93
ssg81
g4317
sg74
(lp4324
S'flash'
p4325
asbag67
(g88
g69
NtRp4326
(dp4327
g72
(dp4328
g99
g100
ssg81
g4317
sg74
(lp4329
S':'
asbag67
(g88
g69
NtRp4330
(dp4331
g72
(dp4332
sg81
g4317
sg74
(lp4333
g67
(g68
g69
NtRp4334
(dp4335
g72
(dp4336
g80
I5
ssg81
g4330
sg74
(lp4337
S''
asbasbasbag67
(g83
g69
NtRp4338
(dp4339
g72
(dp4340
sg81
g4058
sg74
(lp4341
g67
(g88
g69
NtRp4342
(dp4343
g72
(dp4344
g92
g93
ssg81
g4338
sg74
(lp4345
S'generic_patterns'
p4346
asbag67
(g88
g69
NtRp4347
(dp4348
g72
(dp4349
g99
g100
ssg81
g4338
sg74
(lp4350
S':'
asbag67
(g88
g69
NtRp4351
(dp4352
g72
(dp4353
sg81
g4338
sg74
(lp4354
g67
(g68
g69
NtRp4355
(dp4356
g72
(dp4357
g80
I5
ssg81
g4351
sg74
(lp4358
g67
(g76
g69
NtRp4359
(dp4360
g72
(dp4361
g80
I4
ssg81
Nsg74
(lp4362
g67
(g83
g69
NtRp4363
(dp4364
g72
(dp4365
sg81
g4359
sg74
(lp4366
g67
(g88
g69
NtRp4367
(dp4368
g72
(dp4369
sg81
g4363
sg74
(lp4370
g67
(g68
g69
NtRp4371
(dp4372
g72
(dp4373
g80
I4
ssg81
g4367
sg74
(lp4374
S'*'
asbasbasbasbasbasbasbag67
(g83
g69
NtRp4375
(dp4376
g72
(dp4377
sg81
g4058
sg74
(lp4378
g67
(g88
g69
NtRp4379
(dp4380
g72
(dp4381
g92
g93
ssg81
g4375
sg74
(lp4382
S'headers'
p4383
asbag67
(g88
g69
NtRp4384
(dp4385
g72
(dp4386
g99
g100
ssg81
g4375
sg74
(lp4387
S':'
asbag67
(g88
g69
NtRp4388
(dp4389
g72
(dp4390
sg81
g4375
sg74
(lp4391
g67
(g68
g69
NtRp4392
(dp4393
g72
(dp4394
g80
I5
ssg81
g4388
sg74
(lp4395
g67
(g76
g69
NtRp4396
(dp4397
g72
(dp4398
g80
I4
ssg81
Nsg74
(lp4399
g67
(g83
g69
NtRp4400
(dp4401
g72
(dp4402
sg81
g4396
sg74
(lp4403
g67
(g88
g69
NtRp4404
(dp4405
g72
(dp4406
g92
g93
ssg81
g4400
sg74
(lp4407
S'Cache-Control'
p4408
asbag67
(g88
g69
NtRp4409
(dp4410
g72
(dp4411
g99
g100
ssg81
g4400
sg74
(lp4412
S':'
asbag67
(g88
g69
NtRp4413
(dp4414
g72
(dp4415
sg81
g4400
sg74
(lp4416
g67
(g68
g69
NtRp4417
(dp4418
g72
(dp4419
g80
I4
ssg81
g4413
sg74
(lp4420
S'no-store, no-cache, must-revalidate, post-check=0, pre-check=0'
p4421
asbasbasbag67
(g83
g69
NtRp4422
(dp4423
g72
(dp4424
sg81
g4396
sg74
(lp4425
g67
(g88
g69
NtRp4426
(dp4427
g72
(dp4428
g92
g93
ssg81
g4422
sg74
(lp4429
S'Content-Type'
p4430
asbag67
(g88
g69
NtRp4431
(dp4432
g72
(dp4433
g99
g100
ssg81
g4422
sg74
(lp4434
S':'
asbag67
(g88
g69
NtRp4435
(dp4436
g72
(dp4437
sg81
g4422
sg74
(lp4438
g67
(g68
g69
NtRp4439
(dp4440
g72
(dp4441
g80
I4
ssg81
g4435
sg74
(lp4442
S'text/html; charset=utf-8'
p4443
asbasbasbag67
(g83
g69
NtRp4444
(dp4445
g72
(dp4446
sg81
g4396
sg74
(lp4447
g67
(g88
g69
NtRp4448
(dp4449
g72
(dp4450
g92
g93
ssg81
g4444
sg74
(lp4451
S'Expires'
p4452
asbag67
(g88
g69
NtRp4453
(dp4454
g72
(dp4455
g99
g100
ssg81
g4444
sg74
(lp4456
S':'
asbag67
(g88
g69
NtRp4457
(dp4458
g72
(dp4459
sg81
g4444
sg74
(lp4460
g67
(g68
g69
NtRp4461
(dp4462
g72
(dp4463
g80
I4
ssg81
g4457
sg74
(lp4464
S'Fri, 30 Sep 2011 20:08:56 GMT'
p4465
asbasbasbag67
(g83
g69
NtRp4466
(dp4467
g72
(dp4468
sg81
g4396
sg74
(lp4469
g67
(g88
g69
NtRp4470
(dp4471
g72
(dp4472
g92
g93
ssg81
g4466
sg74
(lp4473
S'Pragma'
p4474
asbag67
(g88
g69
NtRp4475
(dp4476
g72
(dp4477
g99
g100
ssg81
g4466
sg74
(lp4478
S':'
asbag67
(g88
g69
NtRp4479
(dp4480
g72
(dp4481
sg81
g4466
sg74
(lp4482
g67
(g68
g69
NtRp4483
(dp4484
g72
(dp4485
g80
I4
ssg81
g4479
sg74
(lp4486
S'no-cache'
p4487
asbasbasbag67
(g83
g69
NtRp4488
(dp4489
g72
(dp4490
sg81
g4396
sg74
(lp4491
g67
(g88
g69
NtRp4492
(dp4493
g72
(dp4494
g92
g93
ssg81
g4488
sg74
(lp4495
S'X-Powered-By'
p4496
asbag67
(g88
g69
NtRp4497
(dp4498
g72
(dp4499
g99
g100
ssg81
g4488
sg74
(lp4500
S':'
asbag67
(g88
g69
NtRp4501
(dp4502
g72
(dp4503
sg81
g4488
sg74
(lp4504
g67
(g68
g69
NtRp4505
(dp4506
g72
(dp4507
g80
I4
ssg81
g4501
sg74
(lp4508
S'web2py'
p4509
asbasbasbasbasbasbasbag67
(g83
g69
NtRp4510
(dp4511
g72
(dp4512
sg81
g4058
sg74
(lp4513
g67
(g88
g69
NtRp4514
(dp4515
g72
(dp4516
g92
g93
ssg81
g4510
sg74
(lp4517
S'menu'
p4518
asbag67
(g88
g69
NtRp4519
(dp4520
g72
(dp4521
g99
g100
ssg81
g4510
sg74
(lp4522
S':'
asbag67
(g88
g69
NtRp4523
(dp4524
g72
(dp4525
sg81
g4510
sg74
(lp4526
g67
(g68
g69
NtRp4527
(dp4528
g72
(dp4529
g80
I5
ssg81
g4523
sg74
(lp4530
g67
(g76
g69
NtRp4531
(dp4532
g72
(dp4533
g80
I4
ssg81
Nsg74
(lp4534
g67
(g83
g69
NtRp4535
(dp4536
g72
(dp4537
sg81
g4531
sg74
(lp4538
g67
(g88
g69
NtRp4539
(dp4540
g72
(dp4541
sg81
g4535
sg74
(lp4542
g67
(g68
g69
NtRp4543
(dp4544
g72
(dp4545
g80
I4
ssg81
g4539
sg74
(lp4546
g67
(g76
g69
NtRp4547
(dp4548
g72
(dp4549
g80
I3
ssg81
Nsg74
(lp4550
g67
(g83
g69
NtRp4551
(dp4552
g72
(dp4553
sg81
g4547
sg74
(lp4554
g67
(g88
g69
NtRp4555
(dp4556
g72
(dp4557
sg81
g4551
sg74
(lp4558
g67
(g68
g69
NtRp4559
(dp4560
g72
(dp4561
g80
I3
ssg81
g4555
sg74
(lp4562
cgluon.languages
lazyT_unpickle
p4563
(S't\x04\x00\x00\x00Home'
tRp4564
asbasbasbag67
(g83
g69
NtRp4565
(dp4566
g72
(dp4567
sg81
g4547
sg74
(lp4568
g67
(g88
g69
NtRp4569
(dp4570
g72
(dp4571
sg81
g4565
sg74
(lp4572
g67
(g68
g69
NtRp4573
(dp4574
g72
(dp4575
g80
I3
ssg81
g4569
sg74
(lp4576
g110
asbasbasbag67
(g83
g69
NtRp4577
(dp4578
g72
(dp4579
sg81
g4547
sg74
(lp4580
g67
(g88
g69
NtRp4581
(dp4582
g72
(dp4583
sg81
g4577
sg74
(lp4584
g67
(g68
g69
NtRp4585
(dp4586
g72
(dp4587
g80
I3
ssg81
g4581
sg74
(lp4588
S'/places/default/index'
p4589
asbasbasbag67
(g83
g69
NtRp4590
(dp4591
g72
(dp4592
sg81
g4547
sg74
(lp4593
g67
(g88
g69
NtRp4594
(dp4595
g72
(dp4596
sg81
g4590
sg74
(lp4597
g67
(g68
g69
NtRp4598
(dp4599
g72
(dp4600
g80
I3
ssg81
g4594
sg74
(lp4601
g67
(g76
g69
NtRp4602
(dp4603
g72
(dp4604
g80
I2
ssg81
Nsg74
(lp4605
sbasbasbasbasbasbasbasbag67
(g83
g69
NtRp4606
(dp4607
g72
(dp4608
sg81
g4531
sg74
(lp4609
g67
(g88
g69
NtRp4610
(dp4611
g72
(dp4612
sg81
g4606
sg74
(lp4613
g67
(g68
g69
NtRp4614
(dp4615
g72
(dp4616
g80
I4
ssg81
g4610
sg74
(lp4617
g67
(g76
g69
NtRp4618
(dp4619
g72
(dp4620
g80
I3
ssg81
Nsg74
(lp4621
g67
(g83
g69
NtRp4622
(dp4623
g72
(dp4624
sg81
g4618
sg74
(lp4625
g67
(g88
g69
NtRp4626
(dp4627
g72
(dp4628
sg81
g4622
sg74
(lp4629
g67
(g68
g69
NtRp4630
(dp4631
g72
(dp4632
g80
I3
ssg81
g4626
sg74
(lp4633
g4563
(S's\x08\x00\x00\x00This App'
tRp4634
asbasbasbag67
(g83
g69
NtRp4635
(dp4636
g72
(dp4637
sg81
g4618
sg74
(lp4638
g67
(g88
g69
NtRp4639
(dp4640
g72
(dp4641
sg81
g4635
sg74
(lp4642
g67
(g68
g69
NtRp4643
(dp4644
g72
(dp4645
g80
I3
ssg81
g4639
sg74
(lp4646
g110
asbasbasbag67
(g83
g69
NtRp4647
(dp4648
g72
(dp4649
sg81
g4618
sg74
(lp4650
g67
(g88
g69
NtRp4651
(dp4652
g72
(dp4653
sg81
g4647
sg74
(lp4654
g67
(g68
g69
NtRp4655
(dp4656
g72
(dp4657
g80
I3
ssg81
g4651
sg74
(lp4658
S'/admin/default/design/places'
p4659
asbasbasbag67
(g83
g69
NtRp4660
(dp4661
g72
(dp4662
sg81
g4618
sg74
(lp4663
g67
(g88
g69
NtRp4664
(dp4665
g72
(dp4666
sg81
g4660
sg74
(lp4667
g67
(g68
g69
NtRp4668
(dp4669
g72
(dp4670
g80
I3
ssg81
g4664
sg74
(lp4671
g67
(g76
g69
NtRp4672
(dp4673
g72
(dp4674
g80
I2
ssg81
Nsg74
(lp4675
g67
(g83
g69
NtRp4676
(dp4677
g72
(dp4678
sg81
g4672
sg74
(lp4679
g67
(g88
g69
NtRp4680
(dp4681
g72
(dp4682
sg81
g4676
sg74
(lp4683
g67
(g68
g69
NtRp4684
(dp4685
g72
(dp4686
g80
I2
ssg81
g4680
sg74
(lp4687
g67
(g76
g69
NtRp4688
(dp4689
g72
(dp4690
g80
I1
ssg81
Nsg74
(lp4691
g67
(g83
g69
NtRp4692
(dp4693
g72
(dp4694
sg81
g4688
sg74
(lp4695
g67
(g88
g69
NtRp4696
(dp4697
g72
(dp4698
sg81
g4692
sg74
(lp4699
g67
(g68
g69
NtRp4700
(dp4701
g72
(dp4702
g80
I1
ssg81
g4696
sg74
(lp4703
g4563
(S't\n\x00\x00\x00Controller'
tRp4704
asbasbasbag67
(g83
g69
NtRp4705
(dp4706
g72
(dp4707
sg81
g4688
sg74
(lp4708
g67
(g88
g69
NtRp4709
(dp4710
g72
(dp4711
sg81
g4705
sg74
(lp4712
g67
(g68
g69
NtRp4713
(dp4714
g72
(dp4715
g80
I1
ssg81
g4709
sg74
(lp4716
I00
asbasbasbag67
(g83
g69
NtRp4717
(dp4718
g72
(dp4719
sg81
g4688
sg74
(lp4720
g67
(g88
g69
NtRp4721
(dp4722
g72
(dp4723
sg81
g4717
sg74
(lp4724
g67
(g68
g69
NtRp4725
(dp4726
g72
(dp4727
g80
I1
ssg81
g4721
sg74
(lp4728
S'/admin/default/edit/places/controllers/default.py'
p4729
asbasbasbasbasbasbasbag67
(g83
g69
NtRp4730
(dp4731
g72
(dp4732
sg81
g4672
sg74
(lp4733
g67
(g88
g69
NtRp4734
(dp4735
g72
(dp4736
sg81
g4730
sg74
(lp4737
g67
(g68
g69
NtRp4738
(dp4739
g72
(dp4740
g80
I2
ssg81
g4734
sg74
(lp4741
g67
(g76
g69
NtRp4742
(dp4743
g72
(dp4744
g80
I1
ssg81
Nsg74
(lp4745
g67
(g83
g69
NtRp4746
(dp4747
g72
(dp4748
sg81
g4742
sg74
(lp4749
g67
(g88
g69
NtRp4750
(dp4751
g72
(dp4752
sg81
g4746
sg74
(lp4753
g67
(g68
g69
NtRp4754
(dp4755
g72
(dp4756
g80
I1
ssg81
g4750
sg74
(lp4757
g4563
(S't\x04\x00\x00\x00View'
tRp4758
asbasbasbag67
(g83
g69
NtRp4759
(dp4760
g72
(dp4761
sg81
g4742
sg74
(lp4762
g67
(g88
g69
NtRp4763
(dp4764
g72
(dp4765
sg81
g4759
sg74
(lp4766
g67
(g68
g69
NtRp4767
(dp4768
g72
(dp4769
g80
I1
ssg81
g4763
sg74
(lp4770
I00
asbasbasbag67
(g83
g69
NtRp4771
(dp4772
g72
(dp4773
sg81
g4742
sg74
(lp4774
g67
(g88
g69
NtRp4775
(dp4776
g72
(dp4777
sg81
g4771
sg74
(lp4778
g67
(g68
g69
NtRp4779
(dp4780
g72
(dp4781
g80
I1
ssg81
g4775
sg74
(lp4782
S'/admin/default/edit/places/views/default/index.html'
p4783
asbasbasbasbasbasbasbag67
(g83
g69
NtRp4784
(dp4785
g72
(dp4786
sg81
g4672
sg74
(lp4787
g67
(g88
g69
NtRp4788
(dp4789
g72
(dp4790
sg81
g4784
sg74
(lp4791
g67
(g68
g69
NtRp4792
(dp4793
g72
(dp4794
g80
I2
ssg81
g4788
sg74
(lp4795
g67
(g76
g69
NtRp4796
(dp4797
g72
(dp4798
g80
I1
ssg81
Nsg74
(lp4799
g67
(g83
g69
NtRp4800
(dp4801
g72
(dp4802
sg81
g4796
sg74
(lp4803
g67
(g88
g69
NtRp4804
(dp4805
g72
(dp4806
sg81
g4800
sg74
(lp4807
g67
(g68
g69
NtRp4808
(dp4809
g72
(dp4810
g80
I1
ssg81
g4804
sg74
(lp4811
g4563
(S't\x06\x00\x00\x00Layout'
tRp4812
asbasbasbag67
(g83
g69
NtRp4813
(dp4814
g72
(dp4815
sg81
g4796
sg74
(lp4816
g67
(g88
g69
NtRp4817
(dp4818
g72
(dp4819
sg81
g4813
sg74
(lp4820
g67
(g68
g69
NtRp4821
(dp4822
g72
(dp4823
g80
I1
ssg81
g4817
sg74
(lp4824
I00
asbasbasbag67
(g83
g69
NtRp4825
(dp4826
g72
(dp4827
sg81
g4796
sg74
(lp4828
g67
(g88
g69
NtRp4829
(dp4830
g72
(dp4831
sg81
g4825
sg74
(lp4832
g67
(g68
g69
NtRp4833
(dp4834
g72
(dp4835
g80
I1
ssg81
g4829
sg74
(lp4836
S'/admin/default/edit/places/views/layout.html'
p4837
asbasbasbasbasbasbasbag67
(g83
g69
NtRp4838
(dp4839
g72
(dp4840
sg81
g4672
sg74
(lp4841
g67
(g88
g69
NtRp4842
(dp4843
g72
(dp4844
sg81
g4838
sg74
(lp4845
g67
(g68
g69
NtRp4846
(dp4847
g72
(dp4848
g80
I2
ssg81
g4842
sg74
(lp4849
g67
(g76
g69
NtRp4850
(dp4851
g72
(dp4852
g80
I1
ssg81
Nsg74
(lp4853
g67
(g83
g69
NtRp4854
(dp4855
g72
(dp4856
sg81
g4850
sg74
(lp4857
g67
(g88
g69
NtRp4858
(dp4859
g72
(dp4860
sg81
g4854
sg74
(lp4861
g67
(g68
g69
NtRp4862
(dp4863
g72
(dp4864
g80
I1
ssg81
g4858
sg74
(lp4865
g4563
(S't\n\x00\x00\x00Stylesheet'
tRp4866
asbasbasbag67
(g83
g69
NtRp4867
(dp4868
g72
(dp4869
sg81
g4850
sg74
(lp4870
g67
(g88
g69
NtRp4871
(dp4872
g72
(dp4873
sg81
g4867
sg74
(lp4874
g67
(g68
g69
NtRp4875
(dp4876
g72
(dp4877
g80
I1
ssg81
g4871
sg74
(lp4878
I00
asbasbasbag67
(g83
g69
NtRp4879
(dp4880
g72
(dp4881
sg81
g4850
sg74
(lp4882
g67
(g88
g69
NtRp4883
(dp4884
g72
(dp4885
sg81
g4879
sg74
(lp4886
g67
(g68
g69
NtRp4887
(dp4888
g72
(dp4889
g80
I1
ssg81
g4883
sg74
(lp4890
S'/admin/default/edit/places/static/base.css'
p4891
asbasbasbasbasbasbasbag67
(g83
g69
NtRp4892
(dp4893
g72
(dp4894
sg81
g4672
sg74
(lp4895
g67
(g88
g69
NtRp4896
(dp4897
g72
(dp4898
sg81
g4892
sg74
(lp4899
g67
(g68
g69
NtRp4900
(dp4901
g72
(dp4902
g80
I2
ssg81
g4896
sg74
(lp4903
g67
(g76
g69
NtRp4904
(dp4905
g72
(dp4906
g80
I1
ssg81
Nsg74
(lp4907
g67
(g83
g69
NtRp4908
(dp4909
g72
(dp4910
sg81
g4904
sg74
(lp4911
g67
(g88
g69
NtRp4912
(dp4913
g72
(dp4914
sg81
g4908
sg74
(lp4915
g67
(g68
g69
NtRp4916
(dp4917
g72
(dp4918
g80
I1
ssg81
g4912
sg74
(lp4919
g4563
(S's\x08\x00\x00\x00DB Model'
tRp4920
asbasbasbag67
(g83
g69
NtRp4921
(dp4922
g72
(dp4923
sg81
g4904
sg74
(lp4924
g67
(g88
g69
NtRp4925
(dp4926
g72
(dp4927
sg81
g4921
sg74
(lp4928
g67
(g68
g69
NtRp4929
(dp4930
g72
(dp4931
g80
I1
ssg81
g4925
sg74
(lp4932
I00
asbasbasbag67
(g83
g69
NtRp4933
(dp4934
g72
(dp4935
sg81
g4904
sg74
(lp4936
g67
(g88
g69
NtRp4937
(dp4938
g72
(dp4939
sg81
g4933
sg74
(lp4940
g67
(g68
g69
NtRp4941
(dp4942
g72
(dp4943
g80
I1
ssg81
g4937
sg74
(lp4944
S'/admin/default/edit/places/models/db.py'
p4945
asbasbasbasbasbasbasbag67
(g83
g69
NtRp4946
(dp4947
g72
(dp4948
sg81
g4672
sg74
(lp4949
g67
(g88
g69
NtRp4950
(dp4951
g72
(dp4952
sg81
g4946
sg74
(lp4953
g67
(g68
g69
NtRp4954
(dp4955
g72
(dp4956
g80
I2
ssg81
g4950
sg74
(lp4957
g67
(g76
g69
NtRp4958
(dp4959
g72
(dp4960
g80
I1
ssg81
Nsg74
(lp4961
g67
(g83
g69
NtRp4962
(dp4963
g72
(dp4964
sg81
g4958
sg74
(lp4965
g67
(g88
g69
NtRp4966
(dp4967
g72
(dp4968
sg81
g4962
sg74
(lp4969
g67
(g68
g69
NtRp4970
(dp4971
g72
(dp4972
g80
I1
ssg81
g4966
sg74
(lp4973
g4563
(S's\n\x00\x00\x00Menu Model'
tRp4974
asbasbasbag67
(g83
g69
NtRp4975
(dp4976
g72
(dp4977
sg81
g4958
sg74
(lp4978
g67
(g88
g69
NtRp4979
(dp4980
g72
(dp4981
sg81
g4975
sg74
(lp4982
g67
(g68
g69
NtRp4983
(dp4984
g72
(dp4985
g80
I1
ssg81
g4979
sg74
(lp4986
I00
asbasbasbag67
(g83
g69
NtRp4987
(dp4988
g72
(dp4989
sg81
g4958
sg74
(lp4990
g67
(g88
g69
NtRp4991
(dp4992
g72
(dp4993
sg81
g4987
sg74
(lp4994
g67
(g68
g69
NtRp4995
(dp4996
g72
(dp4997
g80
I1
ssg81
g4991
sg74
(lp4998
S'/admin/default/edit/places/models/menu.py'
p4999
asbasbasbasbasbasbasbag67
(g83
g69
NtRp5000
(dp5001
g72
(dp5002
sg81
g4672
sg74
(lp5003
g67
(g88
g69
NtRp5004
(dp5005
g72
(dp5006
sg81
g5000
sg74
(lp5007
g67
(g68
g69
NtRp5008
(dp5009
g72
(dp5010
g80
I2
ssg81
g5004
sg74
(lp5011
g67
(g76
g69
NtRp5012
(dp5013
g72
(dp5014
g80
I1
ssg81
Nsg74
(lp5015
g67
(g83
g69
NtRp5016
(dp5017
g72
(dp5018
sg81
g5012
sg74
(lp5019
g67
(g88
g69
NtRp5020
(dp5021
g72
(dp5022
sg81
g5016
sg74
(lp5023
g67
(g68
g69
NtRp5024
(dp5025
g72
(dp5026
g80
I1
ssg81
g5020
sg74
(lp5027
g4563
(S't\x08\x00\x00\x00Database'
tRp5028
asbasbasbag67
(g83
g69
NtRp5029
(dp5030
g72
(dp5031
sg81
g5012
sg74
(lp5032
g67
(g88
g69
NtRp5033
(dp5034
g72
(dp5035
sg81
g5029
sg74
(lp5036
g67
(g68
g69
NtRp5037
(dp5038
g72
(dp5039
g80
I1
ssg81
g5033
sg74
(lp5040
I00
asbasbasbag67
(g83
g69
NtRp5041
(dp5042
g72
(dp5043
sg81
g5012
sg74
(lp5044
g67
(g88
g69
NtRp5045
(dp5046
g72
(dp5047
sg81
g5041
sg74
(lp5048
g67
(g68
g69
NtRp5049
(dp5050
g72
(dp5051
g80
I1
ssg81
g5045
sg74
(lp5052
S'/places/appadmin/index'
p5053
asbasbasbasbasbasbasbag67
(g83
g69
NtRp5054
(dp5055
g72
(dp5056
sg81
g4672
sg74
(lp5057
g67
(g88
g69
NtRp5058
(dp5059
g72
(dp5060
sg81
g5054
sg74
(lp5061
g67
(g68
g69
NtRp5062
(dp5063
g72
(dp5064
g80
I2
ssg81
g5058
sg74
(lp5065
g67
(g76
g69
NtRp5066
(dp5067
g72
(dp5068
g80
I1
ssg81
Nsg74
(lp5069
g67
(g83
g69
NtRp5070
(dp5071
g72
(dp5072
sg81
g5066
sg74
(lp5073
g67
(g88
g69
NtRp5074
(dp5075
g72
(dp5076
sg81
g5070
sg74
(lp5077
g67
(g68
g69
NtRp5078
(dp5079
g72
(dp5080
g80
I1
ssg81
g5074
sg74
(lp5081
g4563
(S't\x06\x00\x00\x00Errors'
tRp5082
asbasbasbag67
(g83
g69
NtRp5083
(dp5084
g72
(dp5085
sg81
g5066
sg74
(lp5086
g67
(g88
g69
NtRp5087
(dp5088
g72
(dp5089
sg81
g5083
sg74
(lp5090
g67
(g68
g69
NtRp5091
(dp5092
g72
(dp5093
g80
I1
ssg81
g5087
sg74
(lp5094
I00
asbasbasbag67
(g83
g69
NtRp5095
(dp5096
g72
(dp5097
sg81
g5066
sg74
(lp5098
g67
(g88
g69
NtRp5099
(dp5100
g72
(dp5101
sg81
g5095
sg74
(lp5102
g67
(g68
g69
NtRp5103
(dp5104
g72
(dp5105
g80
I1
ssg81
g5099
sg74
(lp5106
S'/admin/default/errors/places'
p5107
asbasbasbasbasbasbasbag67
(g83
g69
NtRp5108
(dp5109
g72
(dp5110
sg81
g4672
sg74
(lp5111
g67
(g88
g69
NtRp5112
(dp5113
g72
(dp5114
sg81
g5108
sg74
(lp5115
g67
(g68
g69
NtRp5116
(dp5117
g72
(dp5118
g80
I2
ssg81
g5112
sg74
(lp5119
g67
(g76
g69
NtRp5120
(dp5121
g72
(dp5122
g80
I1
ssg81
Nsg74
(lp5123
g67
(g83
g69
NtRp5124
(dp5125
g72
(dp5126
sg81
g5120
sg74
(lp5127
g67
(g88
g69
NtRp5128
(dp5129
g72
(dp5130
sg81
g5124
sg74
(lp5131
g67
(g68
g69
NtRp5132
(dp5133
g72
(dp5134
g80
I1
ssg81
g5128
sg74
(lp5135
g4563
(S't\x05\x00\x00\x00About'
tRp5136
asbasbasbag67
(g83
g69
NtRp5137
(dp5138
g72
(dp5139
sg81
g5120
sg74
(lp5140
g67
(g88
g69
NtRp5141
(dp5142
g72
(dp5143
sg81
g5137
sg74
(lp5144
g67
(g68
g69
NtRp5145
(dp5146
g72
(dp5147
g80
I1
ssg81
g5141
sg74
(lp5148
I00
asbasbasbag67
(g83
g69
NtRp5149
(dp5150
g72
(dp5151
sg81
g5120
sg74
(lp5152
g67
(g88
g69
NtRp5153
(dp5154
g72
(dp5155
sg81
g5149
sg74
(lp5156
g67
(g68
g69
NtRp5157
(dp5158
g72
(dp5159
g80
I1
ssg81
g5153
sg74
(lp5160
S'/admin/default/about/places'
p5161
asbasbasbasbasbasbasbasbasbasbasbasbasbasbasbag67
(g83
g69
NtRp5162
(dp5163
g72
(dp5164
sg81
g4531
sg74
(lp5165
g67
(g88
g69
NtRp5166
(dp5167
g72
(dp5168
sg81
g5162
sg74
(lp5169
g67
(g68
g69
NtRp5170
(dp5171
g72
(dp5172
g80
I4
ssg81
g5166
sg74
(lp5173
g67
(g76
g69
NtRp5174
(dp5175
g72
(dp5176
g80
I3
ssg81
Nsg74
(lp5177
g67
(g83
g69
NtRp5178
(dp5179
g72
(dp5180
sg81
g5174
sg74
(lp5181
g67
(g88
g69
NtRp5182
(dp5183
g72
(dp5184
sg81
g5178
sg74
(lp5185
g67
(g68
g69
NtRp5186
(dp5187
g72
(dp5188
g80
I3
ssg81
g5182
sg74
(lp5189
g4563
(S't\t\x00\x00\x00Resources'
tRp5190
asbasbasbag67
(g83
g69
NtRp5191
(dp5192
g72
(dp5193
sg81
g5174
sg74
(lp5194
g67
(g88
g69
NtRp5195
(dp5196
g72
(dp5197
sg81
g5191
sg74
(lp5198
g67
(g68
g69
NtRp5199
(dp5200
g72
(dp5201
g80
I3
ssg81
g5195
sg74
(lp5202
g110
asbasbasbag67
(g83
g69
NtRp5203
(dp5204
g72
(dp5205
sg81
g5174
sg74
(lp5206
g67
(g88
g69
NtRp5207
(dp5208
g72
(dp5209
sg81
g5203
sg74
(lp5210
g67
(g68
g69
NtRp5211
(dp5212
g72
(dp5213
g80
I3
ssg81
g5207
sg74
(lp5214
S'None'
p5215
asbasbasbag67
(g83
g69
NtRp5216
(dp5217
g72
(dp5218
sg81
g5174
sg74
(lp5219
g67
(g88
g69
NtRp5220
(dp5221
g72
(dp5222
sg81
g5216
sg74
(lp5223
g67
(g68
g69
NtRp5224
(dp5225
g72
(dp5226
g80
I3
ssg81
g5220
sg74
(lp5227
g67
(g76
g69
NtRp5228
(dp5229
g72
(dp5230
g80
I2
ssg81
Nsg74
(lp5231
g67
(g83
g69
NtRp5232
(dp5233
g72
(dp5234
sg81
g5228
sg74
(lp5235
g67
(g88
g69
NtRp5236
(dp5237
g72
(dp5238
sg81
g5232
sg74
(lp5239
g67
(g68
g69
NtRp5240
(dp5241
g72
(dp5242
g80
I2
ssg81
g5236
sg74
(lp5243
g67
(g76
g69
NtRp5244
(dp5245
g72
(dp5246
g80
I1
ssg81
Nsg74
(lp5247
g67
(g83
g69
NtRp5248
(dp5249
g72
(dp5250
sg81
g5244
sg74
(lp5251
g67
(g88
g69
NtRp5252
(dp5253
g72
(dp5254
sg81
g5248
sg74
(lp5255
g67
(g68
g69
NtRp5256
(dp5257
g72
(dp5258
g80
I1
ssg81
g5252
sg74
(lp5259
g4563
(S't\r\x00\x00\x00Documentation'
tRp5260
asbasbasbag67
(g83
g69
NtRp5261
(dp5262
g72
(dp5263
sg81
g5244
sg74
(lp5264
g67
(g88
g69
NtRp5265
(dp5266
g72
(dp5267
sg81
g5261
sg74
(lp5268
g67
(g68
g69
NtRp5269
(dp5270
g72
(dp5271
g80
I1
ssg81
g5265
sg74
(lp5272
I00
asbasbasbag67
(g83
g69
NtRp5273
(dp5274
g72
(dp5275
sg81
g5244
sg74
(lp5276
g67
(g88
g69
NtRp5277
(dp5278
g72
(dp5279
sg81
g5273
sg74
(lp5280
g67
(g68
g69
NtRp5281
(dp5282
g72
(dp5283
g80
I1
ssg81
g5277
sg74
(lp5284
S'http://www.web2py.com/book'
p5285
asbasbasbag67
(g83
g69
NtRp5286
(dp5287
g72
(dp5288
sg81
g5244
sg74
(lp5289
g67
(g88
g69
NtRp5290
(dp5291
g72
(dp5292
sg81
g5286
sg74
(lp5293
g67
(g68
g69
NtRp5294
(dp5295
g72
(dp5296
g80
I1
ssg81
g5290
sg74
(lp5297
(lp5298
(g4563
(S't\x07\x00\x00\x00Preface'
tRp5299
I00
S'http://www.web2py.com/book/default/chapter/00'
p5300
tp5301
a(g4563
(S't\x0c\x00\x00\x00Introduction'
tRp5302
I00
S'http://www.web2py.com/book/default/chapter/01'
p5303
tp5304
a(g4563
(S't\x06\x00\x00\x00Python'
tRp5305
I00
S'http://www.web2py.com/book/default/chapter/02'
p5306
tp5307
a(g4563
(S't\x08\x00\x00\x00Overview'
tRp5308
I00
S'http://www.web2py.com/book/default/chapter/03'
p5309
tp5310
a(g4563
(S's\x08\x00\x00\x00The Core'
tRp5311
I00
S'http://www.web2py.com/book/default/chapter/04'
p5312
tp5313
a(g4563
(S's\t\x00\x00\x00The Views'
tRp5314
I00
S'http://www.web2py.com/book/default/chapter/05'
p5315
tp5316
a(g4563
(S't\x08\x00\x00\x00Database'
tRp5317
I00
S'http://www.web2py.com/book/default/chapter/06'
p5318
tp5319
a(g4563
(S's\x14\x00\x00\x00Forms and Validators'
tRp5320
I00
S'http://www.web2py.com/book/default/chapter/07'
p5321
tp5322
a(g4563
(S's\x0e\x00\x00\x00Access Control'
tRp5323
I00
S'http://www.web2py.com/book/default/chapter/08'
p5324
tp5325
a(g4563
(S't\x08\x00\x00\x00Services'
tRp5326
I00
S'http://www.web2py.com/book/default/chapter/09'
p5327
tp5328
a(g4563
(S's\x0c\x00\x00\x00Ajax Recipes'
tRp5329
I00
S'http://www.web2py.com/book/default/chapter/10'
p5330
tp5331
a(g4563
(S's\x12\x00\x00\x00Deployment Recipes'
tRp5332
I00
S'http://www.web2py.com/book/default/chapter/11'
p5333
tp5334
a(g4563
(S's\r\x00\x00\x00Other Recipes'
tRp5335
I00
S'http://www.web2py.com/book/default/chapter/12'
p5336
tp5337
a(g4563
(S's\r\x00\x00\x00Buy this book'
tRp5338
I00
S'http://stores.lulu.com/web2py'
p5339
tp5340
aasbasbasbasbasbasbasbag67
(g83
g69
NtRp5341
(dp5342
g72
(dp5343
sg81
g5228
sg74
(lp5344
g67
(g88
g69
NtRp5345
(dp5346
g72
(dp5347
sg81
g5341
sg74
(lp5348
g67
(g68
g69
NtRp5349
(dp5350
g72
(dp5351
g80
I2
ssg81
g5345
sg74
(lp5352
g67
(g76
g69
NtRp5353
(dp5354
g72
(dp5355
g80
I1
ssg81
Nsg74
(lp5356
g67
(g83
g69
NtRp5357
(dp5358
g72
(dp5359
sg81
g5353
sg74
(lp5360
g67
(g88
g69
NtRp5361
(dp5362
g72
(dp5363
sg81
g5357
sg74
(lp5364
g67
(g68
g69
NtRp5365
(dp5366
g72
(dp5367
g80
I1
ssg81
g5361
sg74
(lp5368
g4563
(S't\t\x00\x00\x00Community'
tRp5369
asbasbasbag67
(g83
g69
NtRp5370
(dp5371
g72
(dp5372
sg81
g5353
sg74
(lp5373
g67
(g88
g69
NtRp5374
(dp5375
g72
(dp5376
sg81
g5370
sg74
(lp5377
g67
(g68
g69
NtRp5378
(dp5379
g72
(dp5380
g80
I1
ssg81
g5374
sg74
(lp5381
I00
asbasbasbag67
(g83
g69
NtRp5382
(dp5383
g72
(dp5384
sg81
g5353
sg74
(lp5385
g67
(g88
g69
NtRp5386
(dp5387
g72
(dp5388
sg81
g5382
sg74
(lp5389
g67
(g68
g69
NtRp5390
(dp5391
g72
(dp5392
g80
I1
ssg81
g5386
sg74
(lp5393
Nasbasbasbag67
(g83
g69
NtRp5394
(dp5395
g72
(dp5396
sg81
g5353
sg74
(lp5397
g67
(g88
g69
NtRp5398
(dp5399
g72
(dp5400
sg81
g5394
sg74
(lp5401
g67
(g68
g69
NtRp5402
(dp5403
g72
(dp5404
g80
I1
ssg81
g5398
sg74
(lp5405
(lp5406
(g4563
(S't\x06\x00\x00\x00Groups'
tRp5407
I00
S'http://www.web2py.com/examples/default/usergroups'
p5408
tp5409
a(g4563
(S't\x07\x00\x00\x00Twitter'
tRp5410
I00
S'http://twitter.com/web2py'
p5411
tp5412
a(g4563
(S's\t\x00\x00\x00Live chat'
tRp5413
I00
S'http://mibbit.com/?channel=%23web2py&server=irc.mibbit.net'
p5414
tp5415
a(g4563
(S's\n\x00\x00\x00User Voice'
tRp5416
I00
S'http://web2py.uservoice.com/'
p5417
tp5418
aasbasbasbasbasbasbasbag67
(g83
g69
NtRp5419
(dp5420
g72
(dp5421
sg81
g5228
sg74
(lp5422
g67
(g88
g69
NtRp5423
(dp5424
g72
(dp5425
sg81
g5419
sg74
(lp5426
g67
(g68
g69
NtRp5427
(dp5428
g72
(dp5429
g80
I2
ssg81
g5423
sg74
(lp5430
g67
(g76
g69
NtRp5431
(dp5432
g72
(dp5433
g80
I1
ssg81
Nsg74
(lp5434
g67
(g83
g69
NtRp5435
(dp5436
g72
(dp5437
sg81
g5431
sg74
(lp5438
g67
(g88
g69
NtRp5439
(dp5440
g72
(dp5441
sg81
g5435
sg74
(lp5442
g67
(g68
g69
NtRp5443
(dp5444
g72
(dp5445
g80
I1
ssg81
g5439
sg74
(lp5446
g4563
(S't\x06\x00\x00\x00Web2py'
tRp5447
asbasbasbag67
(g83
g69
NtRp5448
(dp5449
g72
(dp5450
sg81
g5431
sg74
(lp5451
g67
(g88
g69
NtRp5452
(dp5453
g72
(dp5454
sg81
g5448
sg74
(lp5455
g67
(g68
g69
NtRp5456
(dp5457
g72
(dp5458
g80
I1
ssg81
g5452
sg74
(lp5459
I00
asbasbasbag67
(g83
g69
NtRp5460
(dp5461
g72
(dp5462
sg81
g5431
sg74
(lp5463
g67
(g88
g69
NtRp5464
(dp5465
g72
(dp5466
sg81
g5460
sg74
(lp5467
g67
(g68
g69
NtRp5468
(dp5469
g72
(dp5470
g80
I1
ssg81
g5464
sg74
(lp5471
S'http://www.web2py.com'
p5472
asbasbasbag67
(g83
g69
NtRp5473
(dp5474
g72
(dp5475
sg81
g5431
sg74
(lp5476
g67
(g88
g69
NtRp5477
(dp5478
g72
(dp5479
sg81
g5473
sg74
(lp5480
g67
(g68
g69
NtRp5481
(dp5482
g72
(dp5483
g80
I1
ssg81
g5477
sg74
(lp5484
(lp5485
(g4563
(S't\x08\x00\x00\x00Download'
tRp5486
I00
S'http://www.web2py.com/examples/default/download'
p5487
tp5488
a(g4563
(S't\x07\x00\x00\x00Support'
tRp5489
I00
S'http://www.web2py.com/examples/default/support'
p5490
tp5491
a(g4563
(S's\x0e\x00\x00\x00Quick Examples'
tRp5492
I00
S'http://web2py.com/examples/default/examples'
p5493
tp5494
a(g4563
(S't\x03\x00\x00\x00FAQ'
tRp5495
I00
S'http://web2py.com/AlterEgo'
p5496
tp5497
a(g4563
(S's\x11\x00\x00\x00Free Applications'
tRp5498
I00
S'http://web2py.com/appliances'
p5499
tp5500
a(g4563
(S't\x07\x00\x00\x00Plugins'
tRp5501
I00
S'http://web2py.com/plugins'
p5502
tp5503
a(g4563
(S't\x07\x00\x00\x00Recipes'
tRp5504
I00
S'http://web2pyslices.com/'
p5505
tp5506
a(g4563
(S't\x04\x00\x00\x00Demo'
tRp5507
I00
S'http://web2py.com/demo_admin'
p5508
tp5509
a(g4563
(S't\x08\x00\x00\x00Semantic'
tRp5510
I00
S'http://web2py.com/semantic'
p5511
tp5512
a(g4563
(S't\x07\x00\x00\x00Layouts'
tRp5513
I00
S'http://web2py.com/layouts'
p5514
tp5515
a(g4563
(S't\x06\x00\x00\x00Videos'
tRp5516
I00
S'http://www.web2py.com/examples/default/videos/'
p5517
tp5518
aasbasbasbasbasbasbasbasbasbasbasbasbasbasbasbasbasbasbasbag67
(g83
g69
NtRp5519
(dp5520
g72
(dp5521
sg81
g4058
sg74
(lp5522
g67
(g88
g69
NtRp5523
(dp5524
g72
(dp5525
g92
g93
ssg81
g5519
sg74
(lp5526
S'meta'
p5527
asbag67
(g88
g69
NtRp5528
(dp5529
g72
(dp5530
g99
g100
ssg81
g5519
sg74
(lp5531
S':'
asbag67
(g88
g69
NtRp5532
(dp5533
g72
(dp5534
sg81
g5519
sg74
(lp5535
g67
(g68
g69
NtRp5536
(dp5537
g72
(dp5538
g80
I5
ssg81
g5532
sg74
(lp5539
g67
(g76
g69
NtRp5540
(dp5541
g72
(dp5542
g80
I4
ssg81
Nsg74
(lp5543
g67
(g83
g69
NtRp5544
(dp5545
g72
(dp5546
sg81
g5540
sg74
(lp5547
g67
(g88
g69
NtRp5548
(dp5549
g72
(dp5550
g92
g93
ssg81
g5544
sg74
(lp5551
S'author'
p5552
asbag67
(g88
g69
NtRp5553
(dp5554
g72
(dp5555
g99
g100
ssg81
g5544
sg74
(lp5556
S':'
asbag67
(g88
g69
NtRp5557
(dp5558
g72
(dp5559
sg81
g5544
sg74
(lp5560
g67
(g68
g69
NtRp5561
(dp5562
g72
(dp5563
g80
I4
ssg81
g5557
sg74
(lp5564
S'Your Name <you@example.com>'
p5565
asbasbasbag67
(g83
g69
NtRp5566
(dp5567
g72
(dp5568
sg81
g5540
sg74
(lp5569
g67
(g88
g69
NtRp5570
(dp5571
g72
(dp5572
g92
g93
ssg81
g5566
sg74
(lp5573
S'copyright'
p5574
asbag67
(g88
g69
NtRp5575
(dp5576
g72
(dp5577
g99
g100
ssg81
g5566
sg74
(lp5578
S':'
asbag67
(g88
g69
NtRp5579
(dp5580
g72
(dp5581
sg81
g5566
sg74
(lp5582
g67
(g68
g69
NtRp5583
(dp5584
g72
(dp5585
g80
I4
ssg81
g5579
sg74
(lp5586
S'Copyright 2011'
p5587
asbasbasbag67
(g83
g69
NtRp5588
(dp5589
g72
(dp5590
sg81
g5540
sg74
(lp5591
g67
(g88
g69
NtRp5592
(dp5593
g72
(dp5594
g92
g93
ssg81
g5588
sg74
(lp5595
S'description'
p5596
asbag67
(g88
g69
NtRp5597
(dp5598
g72
(dp5599
g99
g100
ssg81
g5588
sg74
(lp5600
S':'
asbag67
(g88
g69
NtRp5601
(dp5602
g72
(dp5603
sg81
g5588
sg74
(lp5604
g67
(g68
g69
NtRp5605
(dp5606
g72
(dp5607
g80
I4
ssg81
g5601
sg74
(lp5608
S'a cool new app'
p5609
asbasbasbag67
(g83
g69
NtRp5610
(dp5611
g72
(dp5612
sg81
g5540
sg74
(lp5613
g67
(g88
g69
NtRp5614
(dp5615
g72
(dp5616
g92
g93
ssg81
g5610
sg74
(lp5617
S'generator'
p5618
asbag67
(g88
g69
NtRp5619
(dp5620
g72
(dp5621
g99
g100
ssg81
g5610
sg74
(lp5622
S':'
asbag67
(g88
g69
NtRp5623
(dp5624
g72
(dp5625
sg81
g5610
sg74
(lp5626
g67
(g68
g69
NtRp5627
(dp5628
g72
(dp5629
g80
I4
ssg81
g5623
sg74
(lp5630
S'Web2py Web Framework'
p5631
asbasbasbag67
(g83
g69
NtRp5632
(dp5633
g72
(dp5634
sg81
g5540
sg74
(lp5635
g67
(g88
g69
NtRp5636
(dp5637
g72
(dp5638
g92
g93
ssg81
g5632
sg74
(lp5639
S'keywords'
p5640
asbag67
(g88
g69
NtRp5641
(dp5642
g72
(dp5643
g99
g100
ssg81
g5632
sg74
(lp5644
S':'
asbag67
(g88
g69
NtRp5645
(dp5646
g72
(dp5647
sg81
g5632
sg74
(lp5648
g67
(g68
g69
NtRp5649
(dp5650
g72
(dp5651
g80
I4
ssg81
g5645
sg74
(lp5652
S'web2py, python, framework'
p5653
asbasbasbasbasbasbasbag67
(g83
g69
NtRp5654
(dp5655
g72
(dp5656
sg81
g4058
sg74
(lp5657
g67
(g88
g69
NtRp5658
(dp5659
g72
(dp5660
g92
g93
ssg81
g5654
sg74
(lp5661
S'postprocessing'
p5662
asbag67
(g88
g69
NtRp5663
(dp5664
g72
(dp5665
g99
g100
ssg81
g5654
sg74
(lp5666
S':'
asbag67
(g88
g69
NtRp5667
(dp5668
g72
(dp5669
sg81
g5654
sg74
(lp5670
g67
(g68
g69
NtRp5671
(dp5672
g72
(dp5673
g80
I5
ssg81
g5667
sg74
(lp5674
g67
(g76
g69
NtRp5675
(dp5676
g72
(dp5677
g80
I4
ssg81
Nsg74
(lp5678
sbasbasbasbag67
(g83
g69
NtRp5679
(dp5680
g72
(dp5681
sg81
g4058
sg74
(lp5682
g67
(g88
g69
NtRp5683
(dp5684
g72
(dp5685
g92
g93
ssg81
g5679
sg74
(lp5686
S'session_file'
p5687
asbag67
(g88
g69
NtRp5688
(dp5689
g72
(dp5690
g99
g100
ssg81
g5679
sg74
(lp5691
S':'
asbag67
(g88
g69
NtRp5692
(dp5693
g72
(dp5694
sg81
g5679
sg74
(lp5695
g67
(g68
g69
NtRp5696
(dp5697
g72
(dp5698
g80
I5
ssg81
g5692
sg74
(lp5699
S"<open file '/home/ian/Dropbox/Web_Pages/web2py-linux/applications/places/sessions/127.0.0.1-ae378f77-b944-4a55-be06-eed4ce913913', mode 'rb+' at 0x36be1e0>"
p5700
asbasbasbag67
(g83
g69
NtRp5701
(dp5702
g72
(dp5703
sg81
g4058
sg74
(lp5704
g67
(g88
g69
NtRp5705
(dp5706
g72
(dp5707
g92
g93
ssg81
g5701
sg74
(lp5708
S'session_filename'
p5709
asbag67
(g88
g69
NtRp5710
(dp5711
g72
(dp5712
g99
g100
ssg81
g5701
sg74
(lp5713
S':'
asbag67
(g88
g69
NtRp5714
(dp5715
g72
(dp5716
sg81
g5701
sg74
(lp5717
g67
(g68
g69
NtRp5718
(dp5719
g72
(dp5720
g80
I5
ssg81
g5714
sg74
(lp5721
S'/home/ian/Dropbox/Web_Pages/web2py-linux/applications/places/sessions/127.0.0.1-ae378f77-b944-4a55-be06-eed4ce913913'
p5722
asbasbasbag67
(g83
g69
NtRp5723
(dp5724
g72
(dp5725
sg81
g4058
sg74
(lp5726
g67
(g88
g69
NtRp5727
(dp5728
g72
(dp5729
g92
g93
ssg81
g5723
sg74
(lp5730
S'session_id'
p5731
asbag67
(g88
g69
NtRp5732
(dp5733
g72
(dp5734
g99
g100
ssg81
g5723
sg74
(lp5735
S':'
asbag67
(g88
g69
NtRp5736
(dp5737
g72
(dp5738
sg81
g5723
sg74
(lp5739
g67
(g68
g69
NtRp5740
(dp5741
g72
(dp5742
g80
I5
ssg81
g5736
sg74
(lp5743
S'127.0.0.1-ae378f77-b944-4a55-be06-eed4ce913913'
p5744
asbasbasbag67
(g83
g69
NtRp5745
(dp5746
g72
(dp5747
sg81
g4058
sg74
(lp5748
g67
(g88
g69
NtRp5749
(dp5750
g72
(dp5751
g92
g93
ssg81
g5745
sg74
(lp5752
S'session_id_name'
p5753
asbag67
(g88
g69
NtRp5754
(dp5755
g72
(dp5756
g99
g100
ssg81
g5745
sg74
(lp5757
S':'
asbag67
(g88
g69
NtRp5758
(dp5759
g72
(dp5760
sg81
g5745
sg74
(lp5761
g67
(g68
g69
NtRp5762
(dp5763
g72
(dp5764
g80
I5
ssg81
g5758
sg74
(lp5765
g4115
asbasbasbag67
(g83
g69
NtRp5766
(dp5767
g72
(dp5768
sg81
g4058
sg74
(lp5769
g67
(g88
g69
NtRp5770
(dp5771
g72
(dp5772
g92
g93
ssg81
g5766
sg74
(lp5773
S'session_locked'
p5774
asbag67
(g88
g69
NtRp5775
(dp5776
g72
(dp5777
g99
g100
ssg81
g5766
sg74
(lp5778
S':'
asbag67
(g88
g69
NtRp5779
(dp5780
g72
(dp5781
sg81
g5766
sg74
(lp5782
g67
(g68
g69
NtRp5783
(dp5784
g72
(dp5785
g80
I5
ssg81
g5779
sg74
(lp5786
g2059
asbasbasbag67
(g83
g69
NtRp5787
(dp5788
g72
(dp5789
sg81
g4058
sg74
(lp5790
g67
(g88
g69
NtRp5791
(dp5792
g72
(dp5793
g92
g93
ssg81
g5787
sg74
(lp5794
S'session_new'
p5795
asbag67
(g88
g69
NtRp5796
(dp5797
g72
(dp5798
g99
g100
ssg81
g5787
sg74
(lp5799
S':'
asbag67
(g88
g69
NtRp5800
(dp5801
g72
(dp5802
sg81
g5787
sg74
(lp5803
g67
(g68
g69
NtRp5804
(dp5805
g72
(dp5806
g80
I5
ssg81
g5800
sg74
(lp5807
g110
asbasbasbag67
(g83
g69
NtRp5808
(dp5809
g72
(dp5810
sg81
g4058
sg74
(lp5811
g67
(g88
g69
NtRp5812
(dp5813
g72
(dp5814
g92
g93
ssg81
g5808
sg74
(lp5815
S'status'
p5816
asbag67
(g88
g69
NtRp5817
(dp5818
g72
(dp5819
g99
g100
ssg81
g5808
sg74
(lp5820
S':'
asbag67
(g88
g69
NtRp5821
(dp5822
g72
(dp5823
sg81
g5808
sg74
(lp5824
g67
(g68
g69
NtRp5825
(dp5826
g72
(dp5827
g80
I5
ssg81
g5821
sg74
(lp5828
S'200'
p5829
asbasbasbag67
(g83
g69
NtRp5830
(dp5831
g72
(dp5832
sg81
g4058
sg74
(lp5833
g67
(g88
g69
NtRp5834
(dp5835
g72
(dp5836
g92
g93
ssg81
g5830
sg74
(lp5837
S'subtitle'
p5838
asbag67
(g88
g69
NtRp5839
(dp5840
g72
(dp5841
g99
g100
ssg81
g5830
sg74
(lp5842
S':'
asbag67
(g88
g69
NtRp5843
(dp5844
g72
(dp5845
sg81
g5830
sg74
(lp5846
g67
(g68
g69
NtRp5847
(dp5848
g72
(dp5849
g80
I5
ssg81
g5843
sg74
(lp5850
g4563
(S's\r\x00\x00\x00customize me!'
tRp5851
asbasbasbag67
(g83
g69
NtRp5852
(dp5853
g72
(dp5854
sg81
g4058
sg74
(lp5855
g67
(g88
g69
NtRp5856
(dp5857
g72
(dp5858
g92
g93
ssg81
g5852
sg74
(lp5859
S'title'
p5860
asbag67
(g88
g69
NtRp5861
(dp5862
g72
(dp5863
g99
g100
ssg81
g5852
sg74
(lp5864
S':'
asbag67
(g88
g69
NtRp5865
(dp5866
g72
(dp5867
sg81
g5852
sg74
(lp5868
g67
(g68
g69
NtRp5869
(dp5870
g72
(dp5871
g80
I5
ssg81
g5865
sg74
(lp5872
g132
asbasbasbag67
(g83
g69
NtRp5873
(dp5874
g72
(dp5875
sg81
g4058
sg74
(lp5876
g67
(g88
g69
NtRp5877
(dp5878
g72
(dp5879
g92
g93
ssg81
g5873
sg74
(lp5880
g2703
asbag67
(g88
g69
NtRp5881
(dp5882
g72
(dp5883
g99
g100
ssg81
g5873
sg74
(lp5884
S':'
asbag67
(g88
g69
NtRp5885
(dp5886
g72
(dp5887
sg81
g5873
sg74
(lp5888
g67
(g68
g69
NtRp5889
(dp5890
g72
(dp5891
g80
I5
ssg81
g5885
sg74
(lp5892
g2716
asbasbasbag67
(g83
g69
NtRp5893
(dp5894
g72
(dp5895
sg81
g4058
sg74
(lp5896
g67
(g88
g69
NtRp5897
(dp5898
g72
(dp5899
g92
g93
ssg81
g5893
sg74
(lp5900
S'view'
p5901
asbag67
(g88
g69
NtRp5902
(dp5903
g72
(dp5904
g99
g100
ssg81
g5893
sg74
(lp5905
S':'
asbag67
(g88
g69
NtRp5906
(dp5907
g72
(dp5908
sg81
g5893
sg74
(lp5909
g67
(g68
g69
NtRp5910
(dp5911
g72
(dp5912
g80
I5
ssg81
g5906
sg74
(lp5913
S'default/index.html'
p5914
asbasbasbasbasbsS'locals'
p5915
(dp5916
g3
S"'/home/ian/Dropbox/Web_Pages/web2py-linux/applications/places/views/default/index.html'"
p5917
sg5
S'r"left_sidebar_enabled=right_sidebar_enabled=False...nse.write(\'\\n  </body>\\n</html>\\n\', escape=False)"'
p5918
sssS'traceback'
p5919
S'Traceback (most recent call last):\n  File "/home/ian/Dropbox/Web_Pages/web2py-linux/gluon/restricted.py", line 193, in restricted\n    ccode = compile2(code,layer)\n  File "/home/ian/Dropbox/Web_Pages/web2py-linux/gluon/restricted.py", line 179, in compile2\n    return compile(code.rstrip().replace(\'\\r\\n\',\'\\n\')+\'\\n\', layer, \'exec\')\n  File "/home/ian/Dropbox/Web_Pages/web2py-linux/applications/places/views/default/index.html", line 92\n    else:\n       ^\nSyntaxError: invalid syntax\n'
p5920
s.