(dp1
S'output'
p2
S''
sS'layer'
p3
S'/home/ian/Dropbox/Web_Pages/web2py-linux/applications/places/controllers/default.py'
p4
sS'code'
p5
S'# -*- coding: utf-8 -*-\n# this file is released under public domain and you can use without limitations\n\n#########################################################################\n## This is a samples controller\n## - index is the default action of any application\n## - user is required for authentication and authorization\n## - download is for downloading files uploaded in the db (does streaming)\n## - call exposes all registered services (none by default)\n#########################################################################\n\ndef index():\n    """\n    example action using the internationalization operator T and flash\n    rendered by views/default/index.html or views/generic.html\n    """   \n    if not session.tags:\n        session.tags = db(db.tags).select()\n    if session.tag:\n        current = session.tag\n    else:\n        current = session.tags[0].tag\n\n    links = db(db.links.tags.contains(session.tag)).select()\n    \n    return dict(links = links, current = current)\n\ndef user():\n    """\n    exposes:\n    http://..../[app]/default/user/login\n    http://..../[app]/default/user/logout\n    http://..../[app]/default/user/register\n    http://..../[app]/default/user/profile\n    http://..../[app]/default/user/retrieve_password\n    http://..../[app]/default/user/change_password\n    use @auth.requires_login()\n        @auth.requires_membership(\'group name\')\n        @auth.requires_permission(\'read\',\'table name\',record_id)\n    to decorate functions that need access control\n    """\n    return dict(form=auth())\n\n\ndef download():\n    """\n    allows downloading of uploaded files\n    http://..../[app]/default/download/[filename]\n    """\n    return response.download(request,db)\n\n\ndef call():\n    """\n    exposes services. for example:\n    http://..../[app]/default/call/jsonrpc\n    decorate with @services.jsonrpc the functions to expose\n    supports xml, json, xmlrpc, jsonrpc, amfrpc, rss, csv\n    """\n    return service()\n\n\n@auth.requires_signature()\ndef data():\n    """\n    http://..../[app]/default/data/tables\n    http://..../[app]/default/data/create/[table]\n    http://..../[app]/default/data/read/[table]/[id]\n    http://..../[app]/default/data/update/[table]/[id]\n    http://..../[app]/default/data/delete/[table]/[id]\n    http://..../[app]/default/data/select/[table]\n    http://..../[app]/default/data/search/[table]\n    but URLs bust be signed, i.e. linked with\n      A(\'table\',_href=URL(\'data/tables\',user_signature=True))\n    or with the signed load operator\n      LOAD(\'default\',\'data.load\',args=\'tables\',ajax=True,user_signature=True)\n    """\n    return dict(form=crud())\n\nresponse._vars=response._caller(index)\n'
p6
sS'snapshot'
p7
(dp8
S'exception'
p9
(dp10
S'__hash__'
p11
S"<method-wrapper '__hash__' of exceptions.TypeError object>"
p12
sS'__setattr__'
p13
S"<method-wrapper '__setattr__' of exceptions.TypeError object>"
p14
sS'__reduce_ex__'
p15
S'<built-in method __reduce_ex__ of exceptions.TypeError object>'
p16
sS'__getslice__'
p17
S"<method-wrapper '__getslice__' of exceptions.TypeError object>"
p18
sS'__getitem__'
p19
S"<method-wrapper '__getitem__' of exceptions.TypeError object>"
p20
sS'__setstate__'
p21
S'<built-in method __setstate__ of exceptions.TypeError object>'
p22
sS'args'
p23
S"('CONTAINS() takes exactly 3 arguments (2 given)',)"
p24
sS'__reduce__'
p25
S'<built-in method __reduce__ of exceptions.TypeError object>'
p26
sS'__str__'
p27
S"<method-wrapper '__str__' of exceptions.TypeError object>"
p28
sS'__format__'
p29
S'<built-in method __format__ of exceptions.TypeError object>'
p30
sS'__getattribute__'
p31
S"<method-wrapper '__getattribute__' of exceptions.TypeError object>"
p32
sS'__class__'
p33
S"<type 'exceptions.TypeError'>"
p34
sS'__unicode__'
p35
S'<built-in method __unicode__ of exceptions.TypeError object>'
p36
sS'__delattr__'
p37
S"<method-wrapper '__delattr__' of exceptions.TypeError object>"
p38
sS'__subclasshook__'
p39
S'<built-in method __subclasshook__ of type object>'
p40
sS'__repr__'
p41
S"<method-wrapper '__repr__' of exceptions.TypeError object>"
p42
sS'__dict__'
p43
S'{}'
p44
sS'__sizeof__'
p45
S'<built-in method __sizeof__ of exceptions.TypeError object>'
p46
sS'__doc__'
p47
S"'Inappropriate argument type.'"
p48
sS'__init__'
p49
S"<method-wrapper '__init__' of exceptions.TypeError object>"
p50
sS'__new__'
p51
S'<built-in method __new__ of type object>'
p52
ssS'evalue'
p53
S'CONTAINS() takes exactly 3 arguments (2 given)'
p54
sS'request'
p55
ccopy_reg
_reconstructor
p56
(cgluon.html
BEAUTIFY
p57
c__builtin__
object
p58
NtRp59
(dp60
S'attributes'
p61
(dp62
sS'components'
p63
(lp64
g56
(cgluon.html
TABLE
p65
g58
NtRp66
(dp67
g61
(dp68
S'level'
p69
I5
ssS'parent'
p70
Nsg63
(lp71
g56
(cgluon.html
TR
p72
g58
NtRp73
(dp74
g61
(dp75
sg70
g66
sg63
(lp76
g56
(cgluon.html
TD
p77
g58
NtRp78
(dp79
g61
(dp80
S'_style'
p81
S'font-weight:bold;'
p82
ssg70
g73
sg63
(lp83
S'ajax'
p84
asbag56
(g77
g58
NtRp85
(dp86
g61
(dp87
S'_valign'
p88
S'top'
p89
ssg70
g73
sg63
(lp90
S':'
asbag56
(g77
g58
NtRp91
(dp92
g61
(dp93
sg70
g73
sg63
(lp94
g56
(g57
g58
NtRp95
(dp96
g61
(dp97
g69
I5
ssg70
g91
sg63
(lp98
S'False'
p99
asbasbasbag56
(g72
g58
NtRp100
(dp101
g61
(dp102
sg70
g66
sg63
(lp103
g56
(g77
g58
NtRp104
(dp105
g61
(dp106
g81
g82
ssg70
g100
sg63
(lp107
S'application'
p108
asbag56
(g77
g58
NtRp109
(dp110
g61
(dp111
g88
g89
ssg70
g100
sg63
(lp112
S':'
asbag56
(g77
g58
NtRp113
(dp114
g61
(dp115
sg70
g100
sg63
(lp116
g56
(g57
g58
NtRp117
(dp118
g61
(dp119
g69
I5
ssg70
g113
sg63
(lp120
S'places'
p121
asbasbasbag56
(g72
g58
NtRp122
(dp123
g61
(dp124
sg70
g66
sg63
(lp125
g56
(g77
g58
NtRp126
(dp127
g61
(dp128
g81
g82
ssg70
g122
sg63
(lp129
g23
asbag56
(g77
g58
NtRp130
(dp131
g61
(dp132
g88
g89
ssg70
g122
sg63
(lp133
S':'
asbag56
(g77
g58
NtRp134
(dp135
g61
(dp136
sg70
g122
sg63
(lp137
g56
(g57
g58
NtRp138
(dp139
g61
(dp140
g69
I5
ssg70
g134
sg63
(lp141
g56
(g65
g58
NtRp142
(dp143
g61
(dp144
g69
I4
ssg70
Nsg63
(lp145
sbasbasbasbag56
(g72
g58
NtRp146
(dp147
g61
(dp148
sg70
g66
sg63
(lp149
g56
(g77
g58
NtRp150
(dp151
g61
(dp152
g81
g82
ssg70
g146
sg63
(lp153
S'body'
p154
asbag56
(g77
g58
NtRp155
(dp156
g61
(dp157
g88
g89
ssg70
g146
sg63
(lp158
S':'
asbag56
(g77
g58
NtRp159
(dp160
g61
(dp161
sg70
g146
sg63
(lp162
g56
(g57
g58
NtRp163
(dp164
g61
(dp165
g69
I5
ssg70
g159
sg63
(lp166
S'<cStringIO.StringO object at 0x340ab58>'
p167
asbasbasbag56
(g72
g58
NtRp168
(dp169
g61
(dp170
sg70
g66
sg63
(lp171
g56
(g77
g58
NtRp172
(dp173
g61
(dp174
g81
g82
ssg70
g168
sg63
(lp175
S'client'
p176
asbag56
(g77
g58
NtRp177
(dp178
g61
(dp179
g88
g89
ssg70
g168
sg63
(lp180
S':'
asbag56
(g77
g58
NtRp181
(dp182
g61
(dp183
sg70
g168
sg63
(lp184
g56
(g57
g58
NtRp185
(dp186
g61
(dp187
g69
I5
ssg70
g181
sg63
(lp188
S'127.0.0.1'
p189
asbasbasbag56
(g72
g58
NtRp190
(dp191
g61
(dp192
sg70
g66
sg63
(lp193
g56
(g77
g58
NtRp194
(dp195
g61
(dp196
g81
g82
ssg70
g190
sg63
(lp197
S'controller'
p198
asbag56
(g77
g58
NtRp199
(dp200
g61
(dp201
g88
g89
ssg70
g190
sg63
(lp202
S':'
asbag56
(g77
g58
NtRp203
(dp204
g61
(dp205
sg70
g190
sg63
(lp206
g56
(g57
g58
NtRp207
(dp208
g61
(dp209
g69
I5
ssg70
g203
sg63
(lp210
S'default'
p211
asbasbasbag56
(g72
g58
NtRp212
(dp213
g61
(dp214
sg70
g66
sg63
(lp215
g56
(g77
g58
NtRp216
(dp217
g61
(dp218
g81
g82
ssg70
g212
sg63
(lp219
S'cookies'
p220
asbag56
(g77
g58
NtRp221
(dp222
g61
(dp223
g88
g89
ssg70
g212
sg63
(lp224
S':'
asbag56
(g77
g58
NtRp225
(dp226
g61
(dp227
sg70
g212
sg63
(lp228
g56
(g57
g58
NtRp229
(dp230
g61
(dp231
g69
I5
ssg70
g225
sg63
(lp232
g56
(g65
g58
NtRp233
(dp234
g61
(dp235
g69
I4
ssg70
Nsg63
(lp236
g56
(g72
g58
NtRp237
(dp238
g61
(dp239
sg70
g233
sg63
(lp240
g56
(g77
g58
NtRp241
(dp242
g61
(dp243
g81
g82
ssg70
g237
sg63
(lp244
S'session_id_admin'
p245
asbag56
(g77
g58
NtRp246
(dp247
g61
(dp248
g88
g89
ssg70
g237
sg63
(lp249
S':'
asbag56
(g77
g58
NtRp250
(dp251
g61
(dp252
sg70
g237
sg63
(lp253
g56
(g57
g58
NtRp254
(dp255
g61
(dp256
g69
I4
ssg70
g250
sg63
(lp257
g56
(g65
g58
NtRp258
(dp259
g61
(dp260
g69
I3
ssg70
Nsg63
(lp261
g56
(g72
g58
NtRp262
(dp263
g61
(dp264
sg70
g258
sg63
(lp265
g56
(g77
g58
NtRp266
(dp267
g61
(dp268
g81
g82
ssg70
g262
sg63
(lp269
S'comment'
p270
asbag56
(g77
g58
NtRp271
(dp272
g61
(dp273
g88
g89
ssg70
g262
sg63
(lp274
S':'
asbag56
(g77
g58
NtRp275
(dp276
g61
(dp277
sg70
g262
sg63
(lp278
g56
(g57
g58
NtRp279
(dp280
g61
(dp281
g69
I3
ssg70
g275
sg63
(lp282
S''
asbasbasbag56
(g72
g58
NtRp283
(dp284
g61
(dp285
sg70
g258
sg63
(lp286
g56
(g77
g58
NtRp287
(dp288
g61
(dp289
g81
g82
ssg70
g283
sg63
(lp290
S'domain'
p291
asbag56
(g77
g58
NtRp292
(dp293
g61
(dp294
g88
g89
ssg70
g283
sg63
(lp295
S':'
asbag56
(g77
g58
NtRp296
(dp297
g61
(dp298
sg70
g283
sg63
(lp299
g56
(g57
g58
NtRp300
(dp301
g61
(dp302
g69
I3
ssg70
g296
sg63
(lp303
S''
asbasbasbag56
(g72
g58
NtRp304
(dp305
g61
(dp306
sg70
g258
sg63
(lp307
g56
(g77
g58
NtRp308
(dp309
g61
(dp310
g81
g82
ssg70
g304
sg63
(lp311
S'expires'
p312
asbag56
(g77
g58
NtRp313
(dp314
g61
(dp315
g88
g89
ssg70
g304
sg63
(lp316
S':'
asbag56
(g77
g58
NtRp317
(dp318
g61
(dp319
sg70
g304
sg63
(lp320
g56
(g57
g58
NtRp321
(dp322
g61
(dp323
g69
I3
ssg70
g317
sg63
(lp324
S''
asbasbasbag56
(g72
g58
NtRp325
(dp326
g61
(dp327
sg70
g258
sg63
(lp328
g56
(g77
g58
NtRp329
(dp330
g61
(dp331
g81
g82
ssg70
g325
sg63
(lp332
S'httponly'
p333
asbag56
(g77
g58
NtRp334
(dp335
g61
(dp336
g88
g89
ssg70
g325
sg63
(lp337
S':'
asbag56
(g77
g58
NtRp338
(dp339
g61
(dp340
sg70
g325
sg63
(lp341
g56
(g57
g58
NtRp342
(dp343
g61
(dp344
g69
I3
ssg70
g338
sg63
(lp345
S''
asbasbasbag56
(g72
g58
NtRp346
(dp347
g61
(dp348
sg70
g258
sg63
(lp349
g56
(g77
g58
NtRp350
(dp351
g61
(dp352
g81
g82
ssg70
g346
sg63
(lp353
S'max-age'
p354
asbag56
(g77
g58
NtRp355
(dp356
g61
(dp357
g88
g89
ssg70
g346
sg63
(lp358
S':'
asbag56
(g77
g58
NtRp359
(dp360
g61
(dp361
sg70
g346
sg63
(lp362
g56
(g57
g58
NtRp363
(dp364
g61
(dp365
g69
I3
ssg70
g359
sg63
(lp366
S''
asbasbasbag56
(g72
g58
NtRp367
(dp368
g61
(dp369
sg70
g258
sg63
(lp370
g56
(g77
g58
NtRp371
(dp372
g61
(dp373
g81
g82
ssg70
g367
sg63
(lp374
S'path'
p375
asbag56
(g77
g58
NtRp376
(dp377
g61
(dp378
g88
g89
ssg70
g367
sg63
(lp379
S':'
asbag56
(g77
g58
NtRp380
(dp381
g61
(dp382
sg70
g367
sg63
(lp383
g56
(g57
g58
NtRp384
(dp385
g61
(dp386
g69
I3
ssg70
g380
sg63
(lp387
S''
asbasbasbag56
(g72
g58
NtRp388
(dp389
g61
(dp390
sg70
g258
sg63
(lp391
g56
(g77
g58
NtRp392
(dp393
g61
(dp394
g81
g82
ssg70
g388
sg63
(lp395
S'secure'
p396
asbag56
(g77
g58
NtRp397
(dp398
g61
(dp399
g88
g89
ssg70
g388
sg63
(lp400
S':'
asbag56
(g77
g58
NtRp401
(dp402
g61
(dp403
sg70
g388
sg63
(lp404
g56
(g57
g58
NtRp405
(dp406
g61
(dp407
g69
I3
ssg70
g401
sg63
(lp408
S''
asbasbasbag56
(g72
g58
NtRp409
(dp410
g61
(dp411
sg70
g258
sg63
(lp412
g56
(g77
g58
NtRp413
(dp414
g61
(dp415
g81
g82
ssg70
g409
sg63
(lp416
S'version'
p417
asbag56
(g77
g58
NtRp418
(dp419
g61
(dp420
g88
g89
ssg70
g409
sg63
(lp421
S':'
asbag56
(g77
g58
NtRp422
(dp423
g61
(dp424
sg70
g409
sg63
(lp425
g56
(g57
g58
NtRp426
(dp427
g61
(dp428
g69
I3
ssg70
g422
sg63
(lp429
S''
asbasbasbasbasbasbasbag56
(g72
g58
NtRp430
(dp431
g61
(dp432
sg70
g233
sg63
(lp433
g56
(g77
g58
NtRp434
(dp435
g61
(dp436
g81
g82
ssg70
g430
sg63
(lp437
S'session_id_blog'
p438
asbag56
(g77
g58
NtRp439
(dp440
g61
(dp441
g88
g89
ssg70
g430
sg63
(lp442
S':'
asbag56
(g77
g58
NtRp443
(dp444
g61
(dp445
sg70
g430
sg63
(lp446
g56
(g57
g58
NtRp447
(dp448
g61
(dp449
g69
I4
ssg70
g443
sg63
(lp450
g56
(g65
g58
NtRp451
(dp452
g61
(dp453
g69
I3
ssg70
Nsg63
(lp454
g56
(g72
g58
NtRp455
(dp456
g61
(dp457
sg70
g451
sg63
(lp458
g56
(g77
g58
NtRp459
(dp460
g61
(dp461
g81
g82
ssg70
g455
sg63
(lp462
g270
asbag56
(g77
g58
NtRp463
(dp464
g61
(dp465
g88
g89
ssg70
g455
sg63
(lp466
S':'
asbag56
(g77
g58
NtRp467
(dp468
g61
(dp469
sg70
g455
sg63
(lp470
g56
(g57
g58
NtRp471
(dp472
g61
(dp473
g69
I3
ssg70
g467
sg63
(lp474
S''
asbasbasbag56
(g72
g58
NtRp475
(dp476
g61
(dp477
sg70
g451
sg63
(lp478
g56
(g77
g58
NtRp479
(dp480
g61
(dp481
g81
g82
ssg70
g475
sg63
(lp482
g291
asbag56
(g77
g58
NtRp483
(dp484
g61
(dp485
g88
g89
ssg70
g475
sg63
(lp486
S':'
asbag56
(g77
g58
NtRp487
(dp488
g61
(dp489
sg70
g475
sg63
(lp490
g56
(g57
g58
NtRp491
(dp492
g61
(dp493
g69
I3
ssg70
g487
sg63
(lp494
S''
asbasbasbag56
(g72
g58
NtRp495
(dp496
g61
(dp497
sg70
g451
sg63
(lp498
g56
(g77
g58
NtRp499
(dp500
g61
(dp501
g81
g82
ssg70
g495
sg63
(lp502
g312
asbag56
(g77
g58
NtRp503
(dp504
g61
(dp505
g88
g89
ssg70
g495
sg63
(lp506
S':'
asbag56
(g77
g58
NtRp507
(dp508
g61
(dp509
sg70
g495
sg63
(lp510
g56
(g57
g58
NtRp511
(dp512
g61
(dp513
g69
I3
ssg70
g507
sg63
(lp514
S''
asbasbasbag56
(g72
g58
NtRp515
(dp516
g61
(dp517
sg70
g451
sg63
(lp518
g56
(g77
g58
NtRp519
(dp520
g61
(dp521
g81
g82
ssg70
g515
sg63
(lp522
g333
asbag56
(g77
g58
NtRp523
(dp524
g61
(dp525
g88
g89
ssg70
g515
sg63
(lp526
S':'
asbag56
(g77
g58
NtRp527
(dp528
g61
(dp529
sg70
g515
sg63
(lp530
g56
(g57
g58
NtRp531
(dp532
g61
(dp533
g69
I3
ssg70
g527
sg63
(lp534
S''
asbasbasbag56
(g72
g58
NtRp535
(dp536
g61
(dp537
sg70
g451
sg63
(lp538
g56
(g77
g58
NtRp539
(dp540
g61
(dp541
g81
g82
ssg70
g535
sg63
(lp542
g354
asbag56
(g77
g58
NtRp543
(dp544
g61
(dp545
g88
g89
ssg70
g535
sg63
(lp546
S':'
asbag56
(g77
g58
NtRp547
(dp548
g61
(dp549
sg70
g535
sg63
(lp550
g56
(g57
g58
NtRp551
(dp552
g61
(dp553
g69
I3
ssg70
g547
sg63
(lp554
S''
asbasbasbag56
(g72
g58
NtRp555
(dp556
g61
(dp557
sg70
g451
sg63
(lp558
g56
(g77
g58
NtRp559
(dp560
g61
(dp561
g81
g82
ssg70
g555
sg63
(lp562
g375
asbag56
(g77
g58
NtRp563
(dp564
g61
(dp565
g88
g89
ssg70
g555
sg63
(lp566
S':'
asbag56
(g77
g58
NtRp567
(dp568
g61
(dp569
sg70
g555
sg63
(lp570
g56
(g57
g58
NtRp571
(dp572
g61
(dp573
g69
I3
ssg70
g567
sg63
(lp574
S''
asbasbasbag56
(g72
g58
NtRp575
(dp576
g61
(dp577
sg70
g451
sg63
(lp578
g56
(g77
g58
NtRp579
(dp580
g61
(dp581
g81
g82
ssg70
g575
sg63
(lp582
g396
asbag56
(g77
g58
NtRp583
(dp584
g61
(dp585
g88
g89
ssg70
g575
sg63
(lp586
S':'
asbag56
(g77
g58
NtRp587
(dp588
g61
(dp589
sg70
g575
sg63
(lp590
g56
(g57
g58
NtRp591
(dp592
g61
(dp593
g69
I3
ssg70
g587
sg63
(lp594
S''
asbasbasbag56
(g72
g58
NtRp595
(dp596
g61
(dp597
sg70
g451
sg63
(lp598
g56
(g77
g58
NtRp599
(dp600
g61
(dp601
g81
g82
ssg70
g595
sg63
(lp602
g417
asbag56
(g77
g58
NtRp603
(dp604
g61
(dp605
g88
g89
ssg70
g595
sg63
(lp606
S':'
asbag56
(g77
g58
NtRp607
(dp608
g61
(dp609
sg70
g595
sg63
(lp610
g56
(g57
g58
NtRp611
(dp612
g61
(dp613
g69
I3
ssg70
g607
sg63
(lp614
S''
asbasbasbasbasbasbasbag56
(g72
g58
NtRp615
(dp616
g61
(dp617
sg70
g233
sg63
(lp618
g56
(g77
g58
NtRp619
(dp620
g61
(dp621
g81
g82
ssg70
g615
sg63
(lp622
S'session_id_paideia'
p623
asbag56
(g77
g58
NtRp624
(dp625
g61
(dp626
g88
g89
ssg70
g615
sg63
(lp627
S':'
asbag56
(g77
g58
NtRp628
(dp629
g61
(dp630
sg70
g615
sg63
(lp631
g56
(g57
g58
NtRp632
(dp633
g61
(dp634
g69
I4
ssg70
g628
sg63
(lp635
g56
(g65
g58
NtRp636
(dp637
g61
(dp638
g69
I3
ssg70
Nsg63
(lp639
g56
(g72
g58
NtRp640
(dp641
g61
(dp642
sg70
g636
sg63
(lp643
g56
(g77
g58
NtRp644
(dp645
g61
(dp646
g81
g82
ssg70
g640
sg63
(lp647
g270
asbag56
(g77
g58
NtRp648
(dp649
g61
(dp650
g88
g89
ssg70
g640
sg63
(lp651
S':'
asbag56
(g77
g58
NtRp652
(dp653
g61
(dp654
sg70
g640
sg63
(lp655
g56
(g57
g58
NtRp656
(dp657
g61
(dp658
g69
I3
ssg70
g652
sg63
(lp659
S''
asbasbasbag56
(g72
g58
NtRp660
(dp661
g61
(dp662
sg70
g636
sg63
(lp663
g56
(g77
g58
NtRp664
(dp665
g61
(dp666
g81
g82
ssg70
g660
sg63
(lp667
g291
asbag56
(g77
g58
NtRp668
(dp669
g61
(dp670
g88
g89
ssg70
g660
sg63
(lp671
S':'
asbag56
(g77
g58
NtRp672
(dp673
g61
(dp674
sg70
g660
sg63
(lp675
g56
(g57
g58
NtRp676
(dp677
g61
(dp678
g69
I3
ssg70
g672
sg63
(lp679
S''
asbasbasbag56
(g72
g58
NtRp680
(dp681
g61
(dp682
sg70
g636
sg63
(lp683
g56
(g77
g58
NtRp684
(dp685
g61
(dp686
g81
g82
ssg70
g680
sg63
(lp687
g312
asbag56
(g77
g58
NtRp688
(dp689
g61
(dp690
g88
g89
ssg70
g680
sg63
(lp691
S':'
asbag56
(g77
g58
NtRp692
(dp693
g61
(dp694
sg70
g680
sg63
(lp695
g56
(g57
g58
NtRp696
(dp697
g61
(dp698
g69
I3
ssg70
g692
sg63
(lp699
S''
asbasbasbag56
(g72
g58
NtRp700
(dp701
g61
(dp702
sg70
g636
sg63
(lp703
g56
(g77
g58
NtRp704
(dp705
g61
(dp706
g81
g82
ssg70
g700
sg63
(lp707
g333
asbag56
(g77
g58
NtRp708
(dp709
g61
(dp710
g88
g89
ssg70
g700
sg63
(lp711
S':'
asbag56
(g77
g58
NtRp712
(dp713
g61
(dp714
sg70
g700
sg63
(lp715
g56
(g57
g58
NtRp716
(dp717
g61
(dp718
g69
I3
ssg70
g712
sg63
(lp719
S''
asbasbasbag56
(g72
g58
NtRp720
(dp721
g61
(dp722
sg70
g636
sg63
(lp723
g56
(g77
g58
NtRp724
(dp725
g61
(dp726
g81
g82
ssg70
g720
sg63
(lp727
g354
asbag56
(g77
g58
NtRp728
(dp729
g61
(dp730
g88
g89
ssg70
g720
sg63
(lp731
S':'
asbag56
(g77
g58
NtRp732
(dp733
g61
(dp734
sg70
g720
sg63
(lp735
g56
(g57
g58
NtRp736
(dp737
g61
(dp738
g69
I3
ssg70
g732
sg63
(lp739
S''
asbasbasbag56
(g72
g58
NtRp740
(dp741
g61
(dp742
sg70
g636
sg63
(lp743
g56
(g77
g58
NtRp744
(dp745
g61
(dp746
g81
g82
ssg70
g740
sg63
(lp747
g375
asbag56
(g77
g58
NtRp748
(dp749
g61
(dp750
g88
g89
ssg70
g740
sg63
(lp751
S':'
asbag56
(g77
g58
NtRp752
(dp753
g61
(dp754
sg70
g740
sg63
(lp755
g56
(g57
g58
NtRp756
(dp757
g61
(dp758
g69
I3
ssg70
g752
sg63
(lp759
S''
asbasbasbag56
(g72
g58
NtRp760
(dp761
g61
(dp762
sg70
g636
sg63
(lp763
g56
(g77
g58
NtRp764
(dp765
g61
(dp766
g81
g82
ssg70
g760
sg63
(lp767
g396
asbag56
(g77
g58
NtRp768
(dp769
g61
(dp770
g88
g89
ssg70
g760
sg63
(lp771
S':'
asbag56
(g77
g58
NtRp772
(dp773
g61
(dp774
sg70
g760
sg63
(lp775
g56
(g57
g58
NtRp776
(dp777
g61
(dp778
g69
I3
ssg70
g772
sg63
(lp779
S''
asbasbasbag56
(g72
g58
NtRp780
(dp781
g61
(dp782
sg70
g636
sg63
(lp783
g56
(g77
g58
NtRp784
(dp785
g61
(dp786
g81
g82
ssg70
g780
sg63
(lp787
g417
asbag56
(g77
g58
NtRp788
(dp789
g61
(dp790
g88
g89
ssg70
g780
sg63
(lp791
S':'
asbag56
(g77
g58
NtRp792
(dp793
g61
(dp794
sg70
g780
sg63
(lp795
g56
(g57
g58
NtRp796
(dp797
g61
(dp798
g69
I3
ssg70
g792
sg63
(lp799
S''
asbasbasbasbasbasbasbag56
(g72
g58
NtRp800
(dp801
g61
(dp802
sg70
g233
sg63
(lp803
g56
(g77
g58
NtRp804
(dp805
g61
(dp806
g81
g82
ssg70
g800
sg63
(lp807
S'session_id_places'
p808
asbag56
(g77
g58
NtRp809
(dp810
g61
(dp811
g88
g89
ssg70
g800
sg63
(lp812
S':'
asbag56
(g77
g58
NtRp813
(dp814
g61
(dp815
sg70
g800
sg63
(lp816
g56
(g57
g58
NtRp817
(dp818
g61
(dp819
g69
I4
ssg70
g813
sg63
(lp820
g56
(g65
g58
NtRp821
(dp822
g61
(dp823
g69
I3
ssg70
Nsg63
(lp824
g56
(g72
g58
NtRp825
(dp826
g61
(dp827
sg70
g821
sg63
(lp828
g56
(g77
g58
NtRp829
(dp830
g61
(dp831
g81
g82
ssg70
g825
sg63
(lp832
g270
asbag56
(g77
g58
NtRp833
(dp834
g61
(dp835
g88
g89
ssg70
g825
sg63
(lp836
S':'
asbag56
(g77
g58
NtRp837
(dp838
g61
(dp839
sg70
g825
sg63
(lp840
g56
(g57
g58
NtRp841
(dp842
g61
(dp843
g69
I3
ssg70
g837
sg63
(lp844
S''
asbasbasbag56
(g72
g58
NtRp845
(dp846
g61
(dp847
sg70
g821
sg63
(lp848
g56
(g77
g58
NtRp849
(dp850
g61
(dp851
g81
g82
ssg70
g845
sg63
(lp852
g291
asbag56
(g77
g58
NtRp853
(dp854
g61
(dp855
g88
g89
ssg70
g845
sg63
(lp856
S':'
asbag56
(g77
g58
NtRp857
(dp858
g61
(dp859
sg70
g845
sg63
(lp860
g56
(g57
g58
NtRp861
(dp862
g61
(dp863
g69
I3
ssg70
g857
sg63
(lp864
S''
asbasbasbag56
(g72
g58
NtRp865
(dp866
g61
(dp867
sg70
g821
sg63
(lp868
g56
(g77
g58
NtRp869
(dp870
g61
(dp871
g81
g82
ssg70
g865
sg63
(lp872
g312
asbag56
(g77
g58
NtRp873
(dp874
g61
(dp875
g88
g89
ssg70
g865
sg63
(lp876
S':'
asbag56
(g77
g58
NtRp877
(dp878
g61
(dp879
sg70
g865
sg63
(lp880
g56
(g57
g58
NtRp881
(dp882
g61
(dp883
g69
I3
ssg70
g877
sg63
(lp884
S''
asbasbasbag56
(g72
g58
NtRp885
(dp886
g61
(dp887
sg70
g821
sg63
(lp888
g56
(g77
g58
NtRp889
(dp890
g61
(dp891
g81
g82
ssg70
g885
sg63
(lp892
g333
asbag56
(g77
g58
NtRp893
(dp894
g61
(dp895
g88
g89
ssg70
g885
sg63
(lp896
S':'
asbag56
(g77
g58
NtRp897
(dp898
g61
(dp899
sg70
g885
sg63
(lp900
g56
(g57
g58
NtRp901
(dp902
g61
(dp903
g69
I3
ssg70
g897
sg63
(lp904
S''
asbasbasbag56
(g72
g58
NtRp905
(dp906
g61
(dp907
sg70
g821
sg63
(lp908
g56
(g77
g58
NtRp909
(dp910
g61
(dp911
g81
g82
ssg70
g905
sg63
(lp912
g354
asbag56
(g77
g58
NtRp913
(dp914
g61
(dp915
g88
g89
ssg70
g905
sg63
(lp916
S':'
asbag56
(g77
g58
NtRp917
(dp918
g61
(dp919
sg70
g905
sg63
(lp920
g56
(g57
g58
NtRp921
(dp922
g61
(dp923
g69
I3
ssg70
g917
sg63
(lp924
S''
asbasbasbag56
(g72
g58
NtRp925
(dp926
g61
(dp927
sg70
g821
sg63
(lp928
g56
(g77
g58
NtRp929
(dp930
g61
(dp931
g81
g82
ssg70
g925
sg63
(lp932
g375
asbag56
(g77
g58
NtRp933
(dp934
g61
(dp935
g88
g89
ssg70
g925
sg63
(lp936
S':'
asbag56
(g77
g58
NtRp937
(dp938
g61
(dp939
sg70
g925
sg63
(lp940
g56
(g57
g58
NtRp941
(dp942
g61
(dp943
g69
I3
ssg70
g937
sg63
(lp944
S''
asbasbasbag56
(g72
g58
NtRp945
(dp946
g61
(dp947
sg70
g821
sg63
(lp948
g56
(g77
g58
NtRp949
(dp950
g61
(dp951
g81
g82
ssg70
g945
sg63
(lp952
g396
asbag56
(g77
g58
NtRp953
(dp954
g61
(dp955
g88
g89
ssg70
g945
sg63
(lp956
S':'
asbag56
(g77
g58
NtRp957
(dp958
g61
(dp959
sg70
g945
sg63
(lp960
g56
(g57
g58
NtRp961
(dp962
g61
(dp963
g69
I3
ssg70
g957
sg63
(lp964
S''
asbasbasbag56
(g72
g58
NtRp965
(dp966
g61
(dp967
sg70
g821
sg63
(lp968
g56
(g77
g58
NtRp969
(dp970
g61
(dp971
g81
g82
ssg70
g965
sg63
(lp972
g417
asbag56
(g77
g58
NtRp973
(dp974
g61
(dp975
g88
g89
ssg70
g965
sg63
(lp976
S':'
asbag56
(g77
g58
NtRp977
(dp978
g61
(dp979
sg70
g965
sg63
(lp980
g56
(g57
g58
NtRp981
(dp982
g61
(dp983
g69
I3
ssg70
g977
sg63
(lp984
S''
asbasbasbasbasbasbasbag56
(g72
g58
NtRp985
(dp986
g61
(dp987
sg70
g233
sg63
(lp988
g56
(g77
g58
NtRp989
(dp990
g61
(dp991
g81
g82
ssg70
g985
sg63
(lp992
S'session_id_welcome'
p993
asbag56
(g77
g58
NtRp994
(dp995
g61
(dp996
g88
g89
ssg70
g985
sg63
(lp997
S':'
asbag56
(g77
g58
NtRp998
(dp999
g61
(dp1000
sg70
g985
sg63
(lp1001
g56
(g57
g58
NtRp1002
(dp1003
g61
(dp1004
g69
I4
ssg70
g998
sg63
(lp1005
g56
(g65
g58
NtRp1006
(dp1007
g61
(dp1008
g69
I3
ssg70
Nsg63
(lp1009
g56
(g72
g58
NtRp1010
(dp1011
g61
(dp1012
sg70
g1006
sg63
(lp1013
g56
(g77
g58
NtRp1014
(dp1015
g61
(dp1016
g81
g82
ssg70
g1010
sg63
(lp1017
g270
asbag56
(g77
g58
NtRp1018
(dp1019
g61
(dp1020
g88
g89
ssg70
g1010
sg63
(lp1021
S':'
asbag56
(g77
g58
NtRp1022
(dp1023
g61
(dp1024
sg70
g1010
sg63
(lp1025
g56
(g57
g58
NtRp1026
(dp1027
g61
(dp1028
g69
I3
ssg70
g1022
sg63
(lp1029
S''
asbasbasbag56
(g72
g58
NtRp1030
(dp1031
g61
(dp1032
sg70
g1006
sg63
(lp1033
g56
(g77
g58
NtRp1034
(dp1035
g61
(dp1036
g81
g82
ssg70
g1030
sg63
(lp1037
g291
asbag56
(g77
g58
NtRp1038
(dp1039
g61
(dp1040
g88
g89
ssg70
g1030
sg63
(lp1041
S':'
asbag56
(g77
g58
NtRp1042
(dp1043
g61
(dp1044
sg70
g1030
sg63
(lp1045
g56
(g57
g58
NtRp1046
(dp1047
g61
(dp1048
g69
I3
ssg70
g1042
sg63
(lp1049
S''
asbasbasbag56
(g72
g58
NtRp1050
(dp1051
g61
(dp1052
sg70
g1006
sg63
(lp1053
g56
(g77
g58
NtRp1054
(dp1055
g61
(dp1056
g81
g82
ssg70
g1050
sg63
(lp1057
g312
asbag56
(g77
g58
NtRp1058
(dp1059
g61
(dp1060
g88
g89
ssg70
g1050
sg63
(lp1061
S':'
asbag56
(g77
g58
NtRp1062
(dp1063
g61
(dp1064
sg70
g1050
sg63
(lp1065
g56
(g57
g58
NtRp1066
(dp1067
g61
(dp1068
g69
I3
ssg70
g1062
sg63
(lp1069
S''
asbasbasbag56
(g72
g58
NtRp1070
(dp1071
g61
(dp1072
sg70
g1006
sg63
(lp1073
g56
(g77
g58
NtRp1074
(dp1075
g61
(dp1076
g81
g82
ssg70
g1070
sg63
(lp1077
g333
asbag56
(g77
g58
NtRp1078
(dp1079
g61
(dp1080
g88
g89
ssg70
g1070
sg63
(lp1081
S':'
asbag56
(g77
g58
NtRp1082
(dp1083
g61
(dp1084
sg70
g1070
sg63
(lp1085
g56
(g57
g58
NtRp1086
(dp1087
g61
(dp1088
g69
I3
ssg70
g1082
sg63
(lp1089
S''
asbasbasbag56
(g72
g58
NtRp1090
(dp1091
g61
(dp1092
sg70
g1006
sg63
(lp1093
g56
(g77
g58
NtRp1094
(dp1095
g61
(dp1096
g81
g82
ssg70
g1090
sg63
(lp1097
g354
asbag56
(g77
g58
NtRp1098
(dp1099
g61
(dp1100
g88
g89
ssg70
g1090
sg63
(lp1101
S':'
asbag56
(g77
g58
NtRp1102
(dp1103
g61
(dp1104
sg70
g1090
sg63
(lp1105
g56
(g57
g58
NtRp1106
(dp1107
g61
(dp1108
g69
I3
ssg70
g1102
sg63
(lp1109
S''
asbasbasbag56
(g72
g58
NtRp1110
(dp1111
g61
(dp1112
sg70
g1006
sg63
(lp1113
g56
(g77
g58
NtRp1114
(dp1115
g61
(dp1116
g81
g82
ssg70
g1110
sg63
(lp1117
g375
asbag56
(g77
g58
NtRp1118
(dp1119
g61
(dp1120
g88
g89
ssg70
g1110
sg63
(lp1121
S':'
asbag56
(g77
g58
NtRp1122
(dp1123
g61
(dp1124
sg70
g1110
sg63
(lp1125
g56
(g57
g58
NtRp1126
(dp1127
g61
(dp1128
g69
I3
ssg70
g1122
sg63
(lp1129
S''
asbasbasbag56
(g72
g58
NtRp1130
(dp1131
g61
(dp1132
sg70
g1006
sg63
(lp1133
g56
(g77
g58
NtRp1134
(dp1135
g61
(dp1136
g81
g82
ssg70
g1130
sg63
(lp1137
g396
asbag56
(g77
g58
NtRp1138
(dp1139
g61
(dp1140
g88
g89
ssg70
g1130
sg63
(lp1141
S':'
asbag56
(g77
g58
NtRp1142
(dp1143
g61
(dp1144
sg70
g1130
sg63
(lp1145
g56
(g57
g58
NtRp1146
(dp1147
g61
(dp1148
g69
I3
ssg70
g1142
sg63
(lp1149
S''
asbasbasbag56
(g72
g58
NtRp1150
(dp1151
g61
(dp1152
sg70
g1006
sg63
(lp1153
g56
(g77
g58
NtRp1154
(dp1155
g61
(dp1156
g81
g82
ssg70
g1150
sg63
(lp1157
g417
asbag56
(g77
g58
NtRp1158
(dp1159
g61
(dp1160
g88
g89
ssg70
g1150
sg63
(lp1161
S':'
asbag56
(g77
g58
NtRp1162
(dp1163
g61
(dp1164
sg70
g1150
sg63
(lp1165
g56
(g57
g58
NtRp1166
(dp1167
g61
(dp1168
g69
I3
ssg70
g1162
sg63
(lp1169
S''
asbasbasbasbasbasbasbasbasbasbasbag56
(g72
g58
NtRp1170
(dp1171
g61
(dp1172
sg70
g66
sg63
(lp1173
g56
(g77
g58
NtRp1174
(dp1175
g61
(dp1176
g81
g82
ssg70
g1170
sg63
(lp1177
S'env'
p1178
asbag56
(g77
g58
NtRp1179
(dp1180
g61
(dp1181
g88
g89
ssg70
g1170
sg63
(lp1182
S':'
asbag56
(g77
g58
NtRp1183
(dp1184
g61
(dp1185
sg70
g1170
sg63
(lp1186
g56
(g57
g58
NtRp1187
(dp1188
g61
(dp1189
g69
I5
ssg70
g1183
sg63
(lp1190
g56
(g65
g58
NtRp1191
(dp1192
g61
(dp1193
g69
I4
ssg70
Nsg63
(lp1194
g56
(g72
g58
NtRp1195
(dp1196
g61
(dp1197
sg70
g1191
sg63
(lp1198
g56
(g77
g58
NtRp1199
(dp1200
g61
(dp1201
g81
g82
ssg70
g1195
sg63
(lp1202
S'app_folders'
p1203
asbag56
(g77
g58
NtRp1204
(dp1205
g61
(dp1206
g88
g89
ssg70
g1195
sg63
(lp1207
S':'
asbag56
(g77
g58
NtRp1208
(dp1209
g61
(dp1210
sg70
g1195
sg63
(lp1211
g56
(g57
g58
NtRp1212
(dp1213
g61
(dp1214
g69
I4
ssg70
g1208
sg63
(lp1215
S"set(['/home/ian/Dropbox/Web_Pages/web2py-linux/applications/blog/', '/home/ian/Dropbox/Web_Pages/web2py-linux/applications/places/', '/home/ian/Dropbox/Web_Pages/web2py-linux/applications/Paideia/', '/home/ian/Dropbox/Web_Pages/web2py-linux/applications/admin/', '/home/ian/Dropbox/Web_Pages/web2py-linux/applications/welcome/'])"
p1216
asbasbasbag56
(g72
g58
NtRp1217
(dp1218
g61
(dp1219
sg70
g1191
sg63
(lp1220
g56
(g77
g58
NtRp1221
(dp1222
g61
(dp1223
g81
g82
ssg70
g1217
sg63
(lp1224
S'applications_parent'
p1225
asbag56
(g77
g58
NtRp1226
(dp1227
g61
(dp1228
g88
g89
ssg70
g1217
sg63
(lp1229
S':'
asbag56
(g77
g58
NtRp1230
(dp1231
g61
(dp1232
sg70
g1217
sg63
(lp1233
g56
(g57
g58
NtRp1234
(dp1235
g61
(dp1236
g69
I4
ssg70
g1230
sg63
(lp1237
S'/home/ian/Dropbox/Web_Pages/web2py-linux'
p1238
asbasbasbag56
(g72
g58
NtRp1239
(dp1240
g61
(dp1241
sg70
g1191
sg63
(lp1242
g56
(g77
g58
NtRp1243
(dp1244
g61
(dp1245
g81
g82
ssg70
g1239
sg63
(lp1246
S'cmd_args'
p1247
asbag56
(g77
g58
NtRp1248
(dp1249
g61
(dp1250
g88
g89
ssg70
g1239
sg63
(lp1251
S':'
asbag56
(g77
g58
NtRp1252
(dp1253
g61
(dp1254
sg70
g1239
sg63
(lp1255
g56
(g57
g58
NtRp1256
(dp1257
g61
(dp1258
g69
I4
ssg70
g1252
sg63
(lp1259
g56
(g65
g58
NtRp1260
(dp1261
g61
(dp1262
g69
I3
ssg70
Nsg63
(lp1263
sbasbasbasbag56
(g72
g58
NtRp1264
(dp1265
g61
(dp1266
sg70
g1191
sg63
(lp1267
g56
(g77
g58
NtRp1268
(dp1269
g61
(dp1270
g81
g82
ssg70
g1264
sg63
(lp1271
S'cmd_options'
p1272
asbag56
(g77
g58
NtRp1273
(dp1274
g61
(dp1275
g88
g89
ssg70
g1264
sg63
(lp1276
S':'
asbag56
(g77
g58
NtRp1277
(dp1278
g61
(dp1279
sg70
g1264
sg63
(lp1280
g56
(g57
g58
NtRp1281
(dp1282
g61
(dp1283
g69
I4
ssg70
g1277
sg63
(lp1284
S"<Values at 0x2723170: {'verbose': False, 'ip': '127.0.0.1', 'shutdown_timeout': 5, 'taskbar': False, 'nocron': False, 'pid_filename': 'httpserver.pid', 'maxthreads': None, 'softcron': False, 'server_name': 'uriel', 'bpython': False, 'nogui': False, 'port': 8000, 'extcron': False, 'debuglevel': 30, 'test': None, 'folder': '/home/ian/Dropbox/Web_Pages/web2py-linux', 'config': '', 'import_models': False, 'winservice': '', 'shell': None, 'run': '', 'log_filename': 'httpserver.log', 'args': [''], 'ssl_ca_certificate': None, 'scheduler': None, 'profiler_filename': None, 'ssl_private_key': '', 'password': '<ask>', 'request_queue_size': 5, 'ssl_certificate': '', 'cronjob': False, 'plain': False, 'quiet': False, 'interfaces': None, 'minthreads': None, 'timeout': 10, 'numthreads': None, 'nobanner': False}>"
p1285
asbasbasbag56
(g72
g58
NtRp1286
(dp1287
g61
(dp1288
sg70
g1191
sg63
(lp1289
g56
(g77
g58
NtRp1290
(dp1291
g61
(dp1292
g81
g82
ssg70
g1286
sg63
(lp1293
S'db_sessions'
p1294
asbag56
(g77
g58
NtRp1295
(dp1296
g61
(dp1297
g88
g89
ssg70
g1286
sg63
(lp1298
S':'
asbag56
(g77
g58
NtRp1299
(dp1300
g61
(dp1301
sg70
g1286
sg63
(lp1302
g56
(g57
g58
NtRp1303
(dp1304
g61
(dp1305
g69
I4
ssg70
g1299
sg63
(lp1306
S'set([])'
p1307
asbasbasbag56
(g72
g58
NtRp1308
(dp1309
g61
(dp1310
sg70
g1191
sg63
(lp1311
g56
(g77
g58
NtRp1312
(dp1313
g61
(dp1314
g81
g82
ssg70
g1308
sg63
(lp1315
S'debugging'
p1316
asbag56
(g77
g58
NtRp1317
(dp1318
g61
(dp1319
g88
g89
ssg70
g1308
sg63
(lp1320
S':'
asbag56
(g77
g58
NtRp1321
(dp1322
g61
(dp1323
sg70
g1308
sg63
(lp1324
g56
(g57
g58
NtRp1325
(dp1326
g61
(dp1327
g69
I4
ssg70
g1321
sg63
(lp1328
g99
asbasbasbag56
(g72
g58
NtRp1329
(dp1330
g61
(dp1331
sg70
g1191
sg63
(lp1332
g56
(g77
g58
NtRp1333
(dp1334
g61
(dp1335
g81
g82
ssg70
g1329
sg63
(lp1336
S'gluon_parent'
p1337
asbag56
(g77
g58
NtRp1338
(dp1339
g61
(dp1340
g88
g89
ssg70
g1329
sg63
(lp1341
S':'
asbag56
(g77
g58
NtRp1342
(dp1343
g61
(dp1344
sg70
g1329
sg63
(lp1345
g56
(g57
g58
NtRp1346
(dp1347
g61
(dp1348
g69
I4
ssg70
g1342
sg63
(lp1349
S'/home/ian/Dropbox/Web_Pages/web2py-linux'
p1350
asbasbasbag56
(g72
g58
NtRp1351
(dp1352
g61
(dp1353
sg70
g1191
sg63
(lp1354
g56
(g77
g58
NtRp1355
(dp1356
g61
(dp1357
g81
g82
ssg70
g1351
sg63
(lp1358
S'http_accept'
p1359
asbag56
(g77
g58
NtRp1360
(dp1361
g61
(dp1362
g88
g89
ssg70
g1351
sg63
(lp1363
S':'
asbag56
(g77
g58
NtRp1364
(dp1365
g61
(dp1366
sg70
g1351
sg63
(lp1367
g56
(g57
g58
NtRp1368
(dp1369
g61
(dp1370
g69
I4
ssg70
g1364
sg63
(lp1371
S'text/html,application/xhtml+xml,application/xml;q=0.9,*/*;q=0.8'
p1372
asbasbasbag56
(g72
g58
NtRp1373
(dp1374
g61
(dp1375
sg70
g1191
sg63
(lp1376
g56
(g77
g58
NtRp1377
(dp1378
g61
(dp1379
g81
g82
ssg70
g1373
sg63
(lp1380
S'http_accept_charset'
p1381
asbag56
(g77
g58
NtRp1382
(dp1383
g61
(dp1384
g88
g89
ssg70
g1373
sg63
(lp1385
S':'
asbag56
(g77
g58
NtRp1386
(dp1387
g61
(dp1388
sg70
g1373
sg63
(lp1389
g56
(g57
g58
NtRp1390
(dp1391
g61
(dp1392
g69
I4
ssg70
g1386
sg63
(lp1393
S'UTF-8,*'
p1394
asbasbasbag56
(g72
g58
NtRp1395
(dp1396
g61
(dp1397
sg70
g1191
sg63
(lp1398
g56
(g77
g58
NtRp1399
(dp1400
g61
(dp1401
g81
g82
ssg70
g1395
sg63
(lp1402
S'http_accept_encoding'
p1403
asbag56
(g77
g58
NtRp1404
(dp1405
g61
(dp1406
g88
g89
ssg70
g1395
sg63
(lp1407
S':'
asbag56
(g77
g58
NtRp1408
(dp1409
g61
(dp1410
sg70
g1395
sg63
(lp1411
g56
(g57
g58
NtRp1412
(dp1413
g61
(dp1414
g69
I4
ssg70
g1408
sg63
(lp1415
S'gzip, deflate'
p1416
asbasbasbag56
(g72
g58
NtRp1417
(dp1418
g61
(dp1419
sg70
g1191
sg63
(lp1420
g56
(g77
g58
NtRp1421
(dp1422
g61
(dp1423
g81
g82
ssg70
g1417
sg63
(lp1424
S'http_accept_language'
p1425
asbag56
(g77
g58
NtRp1426
(dp1427
g61
(dp1428
g88
g89
ssg70
g1417
sg63
(lp1429
S':'
asbag56
(g77
g58
NtRp1430
(dp1431
g61
(dp1432
sg70
g1417
sg63
(lp1433
g56
(g57
g58
NtRp1434
(dp1435
g61
(dp1436
g69
I4
ssg70
g1430
sg63
(lp1437
S'en-us,en;q=0.5'
p1438
asbasbasbag56
(g72
g58
NtRp1439
(dp1440
g61
(dp1441
sg70
g1191
sg63
(lp1442
g56
(g77
g58
NtRp1443
(dp1444
g61
(dp1445
g81
g82
ssg70
g1439
sg63
(lp1446
S'http_cache_control'
p1447
asbag56
(g77
g58
NtRp1448
(dp1449
g61
(dp1450
g88
g89
ssg70
g1439
sg63
(lp1451
S':'
asbag56
(g77
g58
NtRp1452
(dp1453
g61
(dp1454
sg70
g1439
sg63
(lp1455
g56
(g57
g58
NtRp1456
(dp1457
g61
(dp1458
g69
I4
ssg70
g1452
sg63
(lp1459
S'max-age=0'
p1460
asbasbasbag56
(g72
g58
NtRp1461
(dp1462
g61
(dp1463
sg70
g1191
sg63
(lp1464
g56
(g77
g58
NtRp1465
(dp1466
g61
(dp1467
g81
g82
ssg70
g1461
sg63
(lp1468
S'http_connection'
p1469
asbag56
(g77
g58
NtRp1470
(dp1471
g61
(dp1472
g88
g89
ssg70
g1461
sg63
(lp1473
S':'
asbag56
(g77
g58
NtRp1474
(dp1475
g61
(dp1476
sg70
g1461
sg63
(lp1477
g56
(g57
g58
NtRp1478
(dp1479
g61
(dp1480
g69
I4
ssg70
g1474
sg63
(lp1481
S'keep-alive'
p1482
asbasbasbag56
(g72
g58
NtRp1483
(dp1484
g61
(dp1485
sg70
g1191
sg63
(lp1486
g56
(g77
g58
NtRp1487
(dp1488
g61
(dp1489
g81
g82
ssg70
g1483
sg63
(lp1490
S'http_cookie'
p1491
asbag56
(g77
g58
NtRp1492
(dp1493
g61
(dp1494
g88
g89
ssg70
g1483
sg63
(lp1495
S':'
asbag56
(g77
g58
NtRp1496
(dp1497
g61
(dp1498
sg70
g1483
sg63
(lp1499
g56
(g57
g58
NtRp1500
(dp1501
g61
(dp1502
g69
I4
ssg70
g1496
sg63
(lp1503
S'session_id_blog=127.0.0.1-f221c588-e499-4b63-9882-f52e2f06907c; session_id_welcome=127.0.0.1-c5e18343-d06e-414a-bb07-23cb8cf7ceb8; session_id_paideia=127.0.0.1-81eff388-1cde-41fb-8887-06f0c09ce763; session_id_admin=127.0.0.1-f8ad7263-b87d-41ed-bbe2-215e5232b6dc; session_id_places=127.0.0.1-ae378f77-b944-4a55-be06-eed4ce913913'
p1504
asbasbasbag56
(g72
g58
NtRp1505
(dp1506
g61
(dp1507
sg70
g1191
sg63
(lp1508
g56
(g77
g58
NtRp1509
(dp1510
g61
(dp1511
g81
g82
ssg70
g1505
sg63
(lp1512
S'http_host'
p1513
asbag56
(g77
g58
NtRp1514
(dp1515
g61
(dp1516
g88
g89
ssg70
g1505
sg63
(lp1517
S':'
asbag56
(g77
g58
NtRp1518
(dp1519
g61
(dp1520
sg70
g1505
sg63
(lp1521
g56
(g57
g58
NtRp1522
(dp1523
g61
(dp1524
g69
I4
ssg70
g1518
sg63
(lp1525
S'127.0.0.1:8000'
p1526
asbasbasbag56
(g72
g58
NtRp1527
(dp1528
g61
(dp1529
sg70
g1191
sg63
(lp1530
g56
(g77
g58
NtRp1531
(dp1532
g61
(dp1533
g81
g82
ssg70
g1527
sg63
(lp1534
S'http_user_agent'
p1535
asbag56
(g77
g58
NtRp1536
(dp1537
g61
(dp1538
g88
g89
ssg70
g1527
sg63
(lp1539
S':'
asbag56
(g77
g58
NtRp1540
(dp1541
g61
(dp1542
sg70
g1527
sg63
(lp1543
g56
(g57
g58
NtRp1544
(dp1545
g61
(dp1546
g69
I4
ssg70
g1540
sg63
(lp1547
S'Mozilla/5.0 (X11; Linux x86_64; rv:7.0.1) Gecko/20100101 Firefox/7.0.1'
p1548
asbasbasbag56
(g72
g58
NtRp1549
(dp1550
g61
(dp1551
sg70
g1191
sg63
(lp1552
g56
(g77
g58
NtRp1553
(dp1554
g61
(dp1555
g81
g82
ssg70
g1549
sg63
(lp1556
S'is_jython'
p1557
asbag56
(g77
g58
NtRp1558
(dp1559
g61
(dp1560
g88
g89
ssg70
g1549
sg63
(lp1561
S':'
asbag56
(g77
g58
NtRp1562
(dp1563
g61
(dp1564
sg70
g1549
sg63
(lp1565
g56
(g57
g58
NtRp1566
(dp1567
g61
(dp1568
g69
I4
ssg70
g1562
sg63
(lp1569
g99
asbasbasbag56
(g72
g58
NtRp1570
(dp1571
g61
(dp1572
sg70
g1191
sg63
(lp1573
g56
(g77
g58
NtRp1574
(dp1575
g61
(dp1576
g81
g82
ssg70
g1570
sg63
(lp1577
S'path_info'
p1578
asbag56
(g77
g58
NtRp1579
(dp1580
g61
(dp1581
g88
g89
ssg70
g1570
sg63
(lp1582
S':'
asbag56
(g77
g58
NtRp1583
(dp1584
g61
(dp1585
sg70
g1570
sg63
(lp1586
g56
(g57
g58
NtRp1587
(dp1588
g61
(dp1589
g69
I4
ssg70
g1583
sg63
(lp1590
S'/places/'
p1591
asbasbasbag56
(g72
g58
NtRp1592
(dp1593
g61
(dp1594
sg70
g1191
sg63
(lp1595
g56
(g77
g58
NtRp1596
(dp1597
g61
(dp1598
g81
g82
ssg70
g1592
sg63
(lp1599
S'query_string'
p1600
asbag56
(g77
g58
NtRp1601
(dp1602
g61
(dp1603
g88
g89
ssg70
g1592
sg63
(lp1604
S':'
asbag56
(g77
g58
NtRp1605
(dp1606
g61
(dp1607
sg70
g1592
sg63
(lp1608
g56
(g57
g58
NtRp1609
(dp1610
g61
(dp1611
g69
I4
ssg70
g1605
sg63
(lp1612
S''
asbasbasbag56
(g72
g58
NtRp1613
(dp1614
g61
(dp1615
sg70
g1191
sg63
(lp1616
g56
(g77
g58
NtRp1617
(dp1618
g61
(dp1619
g81
g82
ssg70
g1613
sg63
(lp1620
S'remote_addr'
p1621
asbag56
(g77
g58
NtRp1622
(dp1623
g61
(dp1624
g88
g89
ssg70
g1613
sg63
(lp1625
S':'
asbag56
(g77
g58
NtRp1626
(dp1627
g61
(dp1628
sg70
g1613
sg63
(lp1629
g56
(g57
g58
NtRp1630
(dp1631
g61
(dp1632
g69
I4
ssg70
g1626
sg63
(lp1633
g189
asbasbasbag56
(g72
g58
NtRp1634
(dp1635
g61
(dp1636
sg70
g1191
sg63
(lp1637
g56
(g77
g58
NtRp1638
(dp1639
g61
(dp1640
g81
g82
ssg70
g1634
sg63
(lp1641
S'remote_port'
p1642
asbag56
(g77
g58
NtRp1643
(dp1644
g61
(dp1645
g88
g89
ssg70
g1634
sg63
(lp1646
S':'
asbag56
(g77
g58
NtRp1647
(dp1648
g61
(dp1649
sg70
g1634
sg63
(lp1650
g56
(g57
g58
NtRp1651
(dp1652
g61
(dp1653
g69
I4
ssg70
g1647
sg63
(lp1654
S'48342'
p1655
asbasbasbag56
(g72
g58
NtRp1656
(dp1657
g61
(dp1658
sg70
g1191
sg63
(lp1659
g56
(g77
g58
NtRp1660
(dp1661
g61
(dp1662
g81
g82
ssg70
g1656
sg63
(lp1663
S'request_method'
p1664
asbag56
(g77
g58
NtRp1665
(dp1666
g61
(dp1667
g88
g89
ssg70
g1656
sg63
(lp1668
S':'
asbag56
(g77
g58
NtRp1669
(dp1670
g61
(dp1671
sg70
g1656
sg63
(lp1672
g56
(g57
g58
NtRp1673
(dp1674
g61
(dp1675
g69
I4
ssg70
g1669
sg63
(lp1676
S'GET'
p1677
asbasbasbag56
(g72
g58
NtRp1678
(dp1679
g61
(dp1680
sg70
g1191
sg63
(lp1681
g56
(g77
g58
NtRp1682
(dp1683
g61
(dp1684
g81
g82
ssg70
g1678
sg63
(lp1685
S'script_name'
p1686
asbag56
(g77
g58
NtRp1687
(dp1688
g61
(dp1689
g88
g89
ssg70
g1678
sg63
(lp1690
S':'
asbag56
(g77
g58
NtRp1691
(dp1692
g61
(dp1693
sg70
g1678
sg63
(lp1694
g56
(g57
g58
NtRp1695
(dp1696
g61
(dp1697
g69
I4
ssg70
g1691
sg63
(lp1698
S''
asbasbasbag56
(g72
g58
NtRp1699
(dp1700
g61
(dp1701
sg70
g1191
sg63
(lp1702
g56
(g77
g58
NtRp1703
(dp1704
g61
(dp1705
g81
g82
ssg70
g1699
sg63
(lp1706
S'server_name'
p1707
asbag56
(g77
g58
NtRp1708
(dp1709
g61
(dp1710
g88
g89
ssg70
g1699
sg63
(lp1711
S':'
asbag56
(g77
g58
NtRp1712
(dp1713
g61
(dp1714
sg70
g1699
sg63
(lp1715
g56
(g57
g58
NtRp1716
(dp1717
g61
(dp1718
g69
I4
ssg70
g1712
sg63
(lp1719
S'uriel'
p1720
asbasbasbag56
(g72
g58
NtRp1721
(dp1722
g61
(dp1723
sg70
g1191
sg63
(lp1724
g56
(g77
g58
NtRp1725
(dp1726
g61
(dp1727
g81
g82
ssg70
g1721
sg63
(lp1728
S'server_port'
p1729
asbag56
(g77
g58
NtRp1730
(dp1731
g61
(dp1732
g88
g89
ssg70
g1721
sg63
(lp1733
S':'
asbag56
(g77
g58
NtRp1734
(dp1735
g61
(dp1736
sg70
g1721
sg63
(lp1737
g56
(g57
g58
NtRp1738
(dp1739
g61
(dp1740
g69
I4
ssg70
g1734
sg63
(lp1741
S'8000'
p1742
asbasbasbag56
(g72
g58
NtRp1743
(dp1744
g61
(dp1745
sg70
g1191
sg63
(lp1746
g56
(g77
g58
NtRp1747
(dp1748
g61
(dp1749
g81
g82
ssg70
g1743
sg63
(lp1750
S'server_protocol'
p1751
asbag56
(g77
g58
NtRp1752
(dp1753
g61
(dp1754
g88
g89
ssg70
g1743
sg63
(lp1755
S':'
asbag56
(g77
g58
NtRp1756
(dp1757
g61
(dp1758
sg70
g1743
sg63
(lp1759
g56
(g57
g58
NtRp1760
(dp1761
g61
(dp1762
g69
I4
ssg70
g1756
sg63
(lp1763
S'HTTP/1.1'
p1764
asbasbasbag56
(g72
g58
NtRp1765
(dp1766
g61
(dp1767
sg70
g1191
sg63
(lp1768
g56
(g77
g58
NtRp1769
(dp1770
g61
(dp1771
g81
g82
ssg70
g1765
sg63
(lp1772
S'server_software'
p1773
asbag56
(g77
g58
NtRp1774
(dp1775
g61
(dp1776
g88
g89
ssg70
g1765
sg63
(lp1777
S':'
asbag56
(g77
g58
NtRp1778
(dp1779
g61
(dp1780
sg70
g1765
sg63
(lp1781
g56
(g57
g58
NtRp1782
(dp1783
g61
(dp1784
g69
I4
ssg70
g1778
sg63
(lp1785
S'Rocket 1.2.4'
p1786
asbasbasbag56
(g72
g58
NtRp1787
(dp1788
g61
(dp1789
sg70
g1191
sg63
(lp1790
g56
(g77
g58
NtRp1791
(dp1792
g61
(dp1793
g81
g82
ssg70
g1787
sg63
(lp1794
S'web2py_crontype'
p1795
asbag56
(g77
g58
NtRp1796
(dp1797
g61
(dp1798
g88
g89
ssg70
g1787
sg63
(lp1799
S':'
asbag56
(g77
g58
NtRp1800
(dp1801
g61
(dp1802
sg70
g1787
sg63
(lp1803
g56
(g57
g58
NtRp1804
(dp1805
g61
(dp1806
g69
I4
ssg70
g1800
sg63
(lp1807
S'hard'
p1808
asbasbasbag56
(g72
g58
NtRp1809
(dp1810
g61
(dp1811
sg70
g1191
sg63
(lp1812
g56
(g77
g58
NtRp1813
(dp1814
g61
(dp1815
g81
g82
ssg70
g1809
sg63
(lp1816
S'web2py_path'
p1817
asbag56
(g77
g58
NtRp1818
(dp1819
g61
(dp1820
g88
g89
ssg70
g1809
sg63
(lp1821
S':'
asbag56
(g77
g58
NtRp1822
(dp1823
g61
(dp1824
sg70
g1809
sg63
(lp1825
g56
(g57
g58
NtRp1826
(dp1827
g61
(dp1828
g69
I4
ssg70
g1822
sg63
(lp1829
g1238
asbasbasbag56
(g72
g58
NtRp1830
(dp1831
g61
(dp1832
sg70
g1191
sg63
(lp1833
g56
(g77
g58
NtRp1834
(dp1835
g61
(dp1836
g81
g82
ssg70
g1830
sg63
(lp1837
S'web2py_version'
p1838
asbag56
(g77
g58
NtRp1839
(dp1840
g61
(dp1841
g88
g89
ssg70
g1830
sg63
(lp1842
S':'
asbag56
(g77
g58
NtRp1843
(dp1844
g61
(dp1845
sg70
g1830
sg63
(lp1846
g56
(g57
g58
NtRp1847
(dp1848
g61
(dp1849
g69
I4
ssg70
g1843
sg63
(lp1850
g56
(g65
g58
NtRp1851
(dp1852
g61
(dp1853
g69
I3
ssg70
Nsg63
(lp1854
g56
(g72
g58
NtRp1855
(dp1856
g61
(dp1857
sg70
g1851
sg63
(lp1858
g56
(g77
g58
NtRp1859
(dp1860
g61
(dp1861
sg70
g1855
sg63
(lp1862
g56
(g57
g58
NtRp1863
(dp1864
g61
(dp1865
g69
I3
ssg70
g1859
sg63
(lp1866
S'1'
asbasbasbag56
(g72
g58
NtRp1867
(dp1868
g61
(dp1869
sg70
g1851
sg63
(lp1870
g56
(g77
g58
NtRp1871
(dp1872
g61
(dp1873
sg70
g1867
sg63
(lp1874
g56
(g57
g58
NtRp1875
(dp1876
g61
(dp1877
g69
I3
ssg70
g1871
sg63
(lp1878
S'99'
p1879
asbasbasbag56
(g72
g58
NtRp1880
(dp1881
g61
(dp1882
sg70
g1851
sg63
(lp1883
g56
(g77
g58
NtRp1884
(dp1885
g61
(dp1886
sg70
g1880
sg63
(lp1887
g56
(g57
g58
NtRp1888
(dp1889
g61
(dp1890
g69
I3
ssg70
g1884
sg63
(lp1891
S'2'
asbasbasbag56
(g72
g58
NtRp1892
(dp1893
g61
(dp1894
sg70
g1851
sg63
(lp1895
g56
(g77
g58
NtRp1896
(dp1897
g61
(dp1898
sg70
g1892
sg63
(lp1899
g56
(g57
g58
NtRp1900
(dp1901
g61
(dp1902
g69
I3
ssg70
g1896
sg63
(lp1903
S'datetime.datetime(2011, 9, 26, 6, 55, 33)'
p1904
asbasbasbag56
(g72
g58
NtRp1905
(dp1906
g61
(dp1907
sg70
g1851
sg63
(lp1908
g56
(g77
g58
NtRp1909
(dp1910
g61
(dp1911
sg70
g1905
sg63
(lp1912
g56
(g57
g58
NtRp1913
(dp1914
g61
(dp1915
g69
I3
ssg70
g1909
sg63
(lp1916
S'stable'
p1917
asbasbasbasbasbasbasbag56
(g72
g58
NtRp1918
(dp1919
g61
(dp1920
sg70
g1191
sg63
(lp1921
g56
(g77
g58
NtRp1922
(dp1923
g61
(dp1924
g81
g82
ssg70
g1918
sg63
(lp1925
S'wsgi_errors'
p1926
asbag56
(g77
g58
NtRp1927
(dp1928
g61
(dp1929
g88
g89
ssg70
g1918
sg63
(lp1930
S':'
asbag56
(g77
g58
NtRp1931
(dp1932
g61
(dp1933
sg70
g1918
sg63
(lp1934
g56
(g57
g58
NtRp1935
(dp1936
g61
(dp1937
g69
I4
ssg70
g1931
sg63
(lp1938
S"<open file '<stderr>', mode 'w' at 0x7f4a416fc270>"
p1939
asbasbasbag56
(g72
g58
NtRp1940
(dp1941
g61
(dp1942
sg70
g1191
sg63
(lp1943
g56
(g77
g58
NtRp1944
(dp1945
g61
(dp1946
g81
g82
ssg70
g1940
sg63
(lp1947
S'wsgi_file_wrapper'
p1948
asbag56
(g77
g58
NtRp1949
(dp1950
g61
(dp1951
g88
g89
ssg70
g1940
sg63
(lp1952
S':'
asbag56
(g77
g58
NtRp1953
(dp1954
g61
(dp1955
sg70
g1940
sg63
(lp1956
g56
(g57
g58
NtRp1957
(dp1958
g61
(dp1959
g69
I4
ssg70
g1953
sg63
(lp1960
S'<class wsgiref.util.FileWrapper at 0x24b4870>'
p1961
asbasbasbag56
(g72
g58
NtRp1962
(dp1963
g61
(dp1964
sg70
g1191
sg63
(lp1965
g56
(g77
g58
NtRp1966
(dp1967
g61
(dp1968
g81
g82
ssg70
g1962
sg63
(lp1969
S'wsgi_input'
p1970
asbag56
(g77
g58
NtRp1971
(dp1972
g61
(dp1973
g88
g89
ssg70
g1962
sg63
(lp1974
S':'
asbag56
(g77
g58
NtRp1975
(dp1976
g61
(dp1977
sg70
g1962
sg63
(lp1978
g56
(g57
g58
NtRp1979
(dp1980
g61
(dp1981
g69
I4
ssg70
g1975
sg63
(lp1982
S'<socket._fileobject object at 0x32e2f50>'
p1983
asbasbasbag56
(g72
g58
NtRp1984
(dp1985
g61
(dp1986
sg70
g1191
sg63
(lp1987
g56
(g77
g58
NtRp1988
(dp1989
g61
(dp1990
g81
g82
ssg70
g1984
sg63
(lp1991
S'wsgi_multiprocess'
p1992
asbag56
(g77
g58
NtRp1993
(dp1994
g61
(dp1995
g88
g89
ssg70
g1984
sg63
(lp1996
S':'
asbag56
(g77
g58
NtRp1997
(dp1998
g61
(dp1999
sg70
g1984
sg63
(lp2000
g56
(g57
g58
NtRp2001
(dp2002
g61
(dp2003
g69
I4
ssg70
g1997
sg63
(lp2004
g99
asbasbasbag56
(g72
g58
NtRp2005
(dp2006
g61
(dp2007
sg70
g1191
sg63
(lp2008
g56
(g77
g58
NtRp2009
(dp2010
g61
(dp2011
g81
g82
ssg70
g2005
sg63
(lp2012
S'wsgi_multithread'
p2013
asbag56
(g77
g58
NtRp2014
(dp2015
g61
(dp2016
g88
g89
ssg70
g2005
sg63
(lp2017
S':'
asbag56
(g77
g58
NtRp2018
(dp2019
g61
(dp2020
sg70
g2005
sg63
(lp2021
g56
(g57
g58
NtRp2022
(dp2023
g61
(dp2024
g69
I4
ssg70
g2018
sg63
(lp2025
S'True'
p2026
asbasbasbag56
(g72
g58
NtRp2027
(dp2028
g61
(dp2029
sg70
g1191
sg63
(lp2030
g56
(g77
g58
NtRp2031
(dp2032
g61
(dp2033
g81
g82
ssg70
g2027
sg63
(lp2034
S'wsgi_run_once'
p2035
asbag56
(g77
g58
NtRp2036
(dp2037
g61
(dp2038
g88
g89
ssg70
g2027
sg63
(lp2039
S':'
asbag56
(g77
g58
NtRp2040
(dp2041
g61
(dp2042
sg70
g2027
sg63
(lp2043
g56
(g57
g58
NtRp2044
(dp2045
g61
(dp2046
g69
I4
ssg70
g2040
sg63
(lp2047
g99
asbasbasbag56
(g72
g58
NtRp2048
(dp2049
g61
(dp2050
sg70
g1191
sg63
(lp2051
g56
(g77
g58
NtRp2052
(dp2053
g61
(dp2054
g81
g82
ssg70
g2048
sg63
(lp2055
S'wsgi_url_scheme'
p2056
asbag56
(g77
g58
NtRp2057
(dp2058
g61
(dp2059
g88
g89
ssg70
g2048
sg63
(lp2060
S':'
asbag56
(g77
g58
NtRp2061
(dp2062
g61
(dp2063
sg70
g2048
sg63
(lp2064
g56
(g57
g58
NtRp2065
(dp2066
g61
(dp2067
g69
I4
ssg70
g2061
sg63
(lp2068
S'http'
p2069
asbasbasbag56
(g72
g58
NtRp2070
(dp2071
g61
(dp2072
sg70
g1191
sg63
(lp2073
g56
(g77
g58
NtRp2074
(dp2075
g61
(dp2076
g81
g82
ssg70
g2070
sg63
(lp2077
S'wsgi_version'
p2078
asbag56
(g77
g58
NtRp2079
(dp2080
g61
(dp2081
g88
g89
ssg70
g2070
sg63
(lp2082
S':'
asbag56
(g77
g58
NtRp2083
(dp2084
g61
(dp2085
sg70
g2070
sg63
(lp2086
g56
(g57
g58
NtRp2087
(dp2088
g61
(dp2089
g69
I4
ssg70
g2083
sg63
(lp2090
g56
(g65
g58
NtRp2091
(dp2092
g61
(dp2093
g69
I3
ssg70
Nsg63
(lp2094
g56
(g72
g58
NtRp2095
(dp2096
g61
(dp2097
sg70
g2091
sg63
(lp2098
g56
(g77
g58
NtRp2099
(dp2100
g61
(dp2101
sg70
g2095
sg63
(lp2102
g56
(g57
g58
NtRp2103
(dp2104
g61
(dp2105
g69
I3
ssg70
g2099
sg63
(lp2106
S'1'
asbasbasbag56
(g72
g58
NtRp2107
(dp2108
g61
(dp2109
sg70
g2091
sg63
(lp2110
g56
(g77
g58
NtRp2111
(dp2112
g61
(dp2113
sg70
g2107
sg63
(lp2114
g56
(g57
g58
NtRp2115
(dp2116
g61
(dp2117
g69
I3
ssg70
g2111
sg63
(lp2118
S'0'
asbasbasbasbasbasbasbasbasbasbasbag56
(g72
g58
NtRp2119
(dp2120
g61
(dp2121
sg70
g66
sg63
(lp2122
g56
(g77
g58
NtRp2123
(dp2124
g61
(dp2125
g81
g82
ssg70
g2119
sg63
(lp2126
S'extension'
p2127
asbag56
(g77
g58
NtRp2128
(dp2129
g61
(dp2130
g88
g89
ssg70
g2119
sg63
(lp2131
S':'
asbag56
(g77
g58
NtRp2132
(dp2133
g61
(dp2134
sg70
g2119
sg63
(lp2135
g56
(g57
g58
NtRp2136
(dp2137
g61
(dp2138
g69
I5
ssg70
g2132
sg63
(lp2139
S'html'
p2140
asbasbasbag56
(g72
g58
NtRp2141
(dp2142
g61
(dp2143
sg70
g66
sg63
(lp2144
g56
(g77
g58
NtRp2145
(dp2146
g61
(dp2147
g81
g82
ssg70
g2141
sg63
(lp2148
S'folder'
p2149
asbag56
(g77
g58
NtRp2150
(dp2151
g61
(dp2152
g88
g89
ssg70
g2141
sg63
(lp2153
S':'
asbag56
(g77
g58
NtRp2154
(dp2155
g61
(dp2156
sg70
g2141
sg63
(lp2157
g56
(g57
g58
NtRp2158
(dp2159
g61
(dp2160
g69
I5
ssg70
g2154
sg63
(lp2161
S'/home/ian/Dropbox/Web_Pages/web2py-linux/applications/places/'
p2162
asbasbasbag56
(g72
g58
NtRp2163
(dp2164
g61
(dp2165
sg70
g66
sg63
(lp2166
g56
(g77
g58
NtRp2167
(dp2168
g61
(dp2169
g81
g82
ssg70
g2163
sg63
(lp2170
S'function'
p2171
asbag56
(g77
g58
NtRp2172
(dp2173
g61
(dp2174
g88
g89
ssg70
g2163
sg63
(lp2175
S':'
asbag56
(g77
g58
NtRp2176
(dp2177
g61
(dp2178
sg70
g2163
sg63
(lp2179
g56
(g57
g58
NtRp2180
(dp2181
g61
(dp2182
g69
I5
ssg70
g2176
sg63
(lp2183
S'index'
p2184
asbasbasbag56
(g72
g58
NtRp2185
(dp2186
g61
(dp2187
sg70
g66
sg63
(lp2188
g56
(g77
g58
NtRp2189
(dp2190
g61
(dp2191
g81
g82
ssg70
g2185
sg63
(lp2192
S'get_vars'
p2193
asbag56
(g77
g58
NtRp2194
(dp2195
g61
(dp2196
g88
g89
ssg70
g2185
sg63
(lp2197
S':'
asbag56
(g77
g58
NtRp2198
(dp2199
g61
(dp2200
sg70
g2185
sg63
(lp2201
g56
(g57
g58
NtRp2202
(dp2203
g61
(dp2204
g69
I5
ssg70
g2198
sg63
(lp2205
g56
(g65
g58
NtRp2206
(dp2207
g61
(dp2208
g69
I4
ssg70
Nsg63
(lp2209
sbasbasbasbag56
(g72
g58
NtRp2210
(dp2211
g61
(dp2212
sg70
g66
sg63
(lp2213
g56
(g77
g58
NtRp2214
(dp2215
g61
(dp2216
g81
g82
ssg70
g2210
sg63
(lp2217
S'global_settings'
p2218
asbag56
(g77
g58
NtRp2219
(dp2220
g61
(dp2221
g88
g89
ssg70
g2210
sg63
(lp2222
S':'
asbag56
(g77
g58
NtRp2223
(dp2224
g61
(dp2225
sg70
g2210
sg63
(lp2226
g56
(g57
g58
NtRp2227
(dp2228
g61
(dp2229
g69
I5
ssg70
g2223
sg63
(lp2230
g56
(g65
g58
NtRp2231
(dp2232
g61
(dp2233
g69
I4
ssg70
Nsg63
(lp2234
g56
(g72
g58
NtRp2235
(dp2236
g61
(dp2237
sg70
g2231
sg63
(lp2238
g56
(g77
g58
NtRp2239
(dp2240
g61
(dp2241
g81
g82
ssg70
g2235
sg63
(lp2242
g1203
asbag56
(g77
g58
NtRp2243
(dp2244
g61
(dp2245
g88
g89
ssg70
g2235
sg63
(lp2246
S':'
asbag56
(g77
g58
NtRp2247
(dp2248
g61
(dp2249
sg70
g2235
sg63
(lp2250
g56
(g57
g58
NtRp2251
(dp2252
g61
(dp2253
g69
I4
ssg70
g2247
sg63
(lp2254
S"set(['/home/ian/Dropbox/Web_Pages/web2py-linux/applications/blog/', '/home/ian/Dropbox/Web_Pages/web2py-linux/applications/places/', '/home/ian/Dropbox/Web_Pages/web2py-linux/applications/Paideia/', '/home/ian/Dropbox/Web_Pages/web2py-linux/applications/admin/', '/home/ian/Dropbox/Web_Pages/web2py-linux/applications/welcome/'])"
p2255
asbasbasbag56
(g72
g58
NtRp2256
(dp2257
g61
(dp2258
sg70
g2231
sg63
(lp2259
g56
(g77
g58
NtRp2260
(dp2261
g61
(dp2262
g81
g82
ssg70
g2256
sg63
(lp2263
g1225
asbag56
(g77
g58
NtRp2264
(dp2265
g61
(dp2266
g88
g89
ssg70
g2256
sg63
(lp2267
S':'
asbag56
(g77
g58
NtRp2268
(dp2269
g61
(dp2270
sg70
g2256
sg63
(lp2271
g56
(g57
g58
NtRp2272
(dp2273
g61
(dp2274
g69
I4
ssg70
g2268
sg63
(lp2275
g1238
asbasbasbag56
(g72
g58
NtRp2276
(dp2277
g61
(dp2278
sg70
g2231
sg63
(lp2279
g56
(g77
g58
NtRp2280
(dp2281
g61
(dp2282
g81
g82
ssg70
g2276
sg63
(lp2283
g1247
asbag56
(g77
g58
NtRp2284
(dp2285
g61
(dp2286
g88
g89
ssg70
g2276
sg63
(lp2287
S':'
asbag56
(g77
g58
NtRp2288
(dp2289
g61
(dp2290
sg70
g2276
sg63
(lp2291
g56
(g57
g58
NtRp2292
(dp2293
g61
(dp2294
g69
I4
ssg70
g2288
sg63
(lp2295
g56
(g65
g58
NtRp2296
(dp2297
g61
(dp2298
g69
I3
ssg70
Nsg63
(lp2299
sbasbasbasbag56
(g72
g58
NtRp2300
(dp2301
g61
(dp2302
sg70
g2231
sg63
(lp2303
g56
(g77
g58
NtRp2304
(dp2305
g61
(dp2306
g81
g82
ssg70
g2300
sg63
(lp2307
g1272
asbag56
(g77
g58
NtRp2308
(dp2309
g61
(dp2310
g88
g89
ssg70
g2300
sg63
(lp2311
S':'
asbag56
(g77
g58
NtRp2312
(dp2313
g61
(dp2314
sg70
g2300
sg63
(lp2315
g56
(g57
g58
NtRp2316
(dp2317
g61
(dp2318
g69
I4
ssg70
g2312
sg63
(lp2319
S"<Values at 0x2723170: {'verbose': False, 'ip': '127.0.0.1', 'shutdown_timeout': 5, 'taskbar': False, 'nocron': False, 'pid_filename': 'httpserver.pid', 'maxthreads': None, 'softcron': False, 'server_name': 'uriel', 'bpython': False, 'nogui': False, 'port': 8000, 'extcron': False, 'debuglevel': 30, 'test': None, 'folder': '/home/ian/Dropbox/Web_Pages/web2py-linux', 'config': '', 'import_models': False, 'winservice': '', 'shell': None, 'run': '', 'log_filename': 'httpserver.log', 'args': [''], 'ssl_ca_certificate': None, 'scheduler': None, 'profiler_filename': None, 'ssl_private_key': '', 'password': '<ask>', 'request_queue_size': 5, 'ssl_certificate': '', 'cronjob': False, 'plain': False, 'quiet': False, 'interfaces': None, 'minthreads': None, 'timeout': 10, 'numthreads': None, 'nobanner': False}>"
p2320
asbasbasbag56
(g72
g58
NtRp2321
(dp2322
g61
(dp2323
sg70
g2231
sg63
(lp2324
g56
(g77
g58
NtRp2325
(dp2326
g61
(dp2327
g81
g82
ssg70
g2321
sg63
(lp2328
g1294
asbag56
(g77
g58
NtRp2329
(dp2330
g61
(dp2331
g88
g89
ssg70
g2321
sg63
(lp2332
S':'
asbag56
(g77
g58
NtRp2333
(dp2334
g61
(dp2335
sg70
g2321
sg63
(lp2336
g56
(g57
g58
NtRp2337
(dp2338
g61
(dp2339
g69
I4
ssg70
g2333
sg63
(lp2340
S'set([])'
p2341
asbasbasbag56
(g72
g58
NtRp2342
(dp2343
g61
(dp2344
sg70
g2231
sg63
(lp2345
g56
(g77
g58
NtRp2346
(dp2347
g61
(dp2348
g81
g82
ssg70
g2342
sg63
(lp2349
g1316
asbag56
(g77
g58
NtRp2350
(dp2351
g61
(dp2352
g88
g89
ssg70
g2342
sg63
(lp2353
S':'
asbag56
(g77
g58
NtRp2354
(dp2355
g61
(dp2356
sg70
g2342
sg63
(lp2357
g56
(g57
g58
NtRp2358
(dp2359
g61
(dp2360
g69
I4
ssg70
g2354
sg63
(lp2361
g99
asbasbasbag56
(g72
g58
NtRp2362
(dp2363
g61
(dp2364
sg70
g2231
sg63
(lp2365
g56
(g77
g58
NtRp2366
(dp2367
g61
(dp2368
g81
g82
ssg70
g2362
sg63
(lp2369
g1337
asbag56
(g77
g58
NtRp2370
(dp2371
g61
(dp2372
g88
g89
ssg70
g2362
sg63
(lp2373
S':'
asbag56
(g77
g58
NtRp2374
(dp2375
g61
(dp2376
sg70
g2362
sg63
(lp2377
g56
(g57
g58
NtRp2378
(dp2379
g61
(dp2380
g69
I4
ssg70
g2374
sg63
(lp2381
g1350
asbasbasbag56
(g72
g58
NtRp2382
(dp2383
g61
(dp2384
sg70
g2231
sg63
(lp2385
g56
(g77
g58
NtRp2386
(dp2387
g61
(dp2388
g81
g82
ssg70
g2382
sg63
(lp2389
g1557
asbag56
(g77
g58
NtRp2390
(dp2391
g61
(dp2392
g88
g89
ssg70
g2382
sg63
(lp2393
S':'
asbag56
(g77
g58
NtRp2394
(dp2395
g61
(dp2396
sg70
g2382
sg63
(lp2397
g56
(g57
g58
NtRp2398
(dp2399
g61
(dp2400
g69
I4
ssg70
g2394
sg63
(lp2401
g99
asbasbasbag56
(g72
g58
NtRp2402
(dp2403
g61
(dp2404
sg70
g2231
sg63
(lp2405
g56
(g77
g58
NtRp2406
(dp2407
g61
(dp2408
g81
g82
ssg70
g2402
sg63
(lp2409
g1795
asbag56
(g77
g58
NtRp2410
(dp2411
g61
(dp2412
g88
g89
ssg70
g2402
sg63
(lp2413
S':'
asbag56
(g77
g58
NtRp2414
(dp2415
g61
(dp2416
sg70
g2402
sg63
(lp2417
g56
(g57
g58
NtRp2418
(dp2419
g61
(dp2420
g69
I4
ssg70
g2414
sg63
(lp2421
g1808
asbasbasbag56
(g72
g58
NtRp2422
(dp2423
g61
(dp2424
sg70
g2231
sg63
(lp2425
g56
(g77
g58
NtRp2426
(dp2427
g61
(dp2428
g81
g82
ssg70
g2422
sg63
(lp2429
g1838
asbag56
(g77
g58
NtRp2430
(dp2431
g61
(dp2432
g88
g89
ssg70
g2422
sg63
(lp2433
S':'
asbag56
(g77
g58
NtRp2434
(dp2435
g61
(dp2436
sg70
g2422
sg63
(lp2437
g56
(g57
g58
NtRp2438
(dp2439
g61
(dp2440
g69
I4
ssg70
g2434
sg63
(lp2441
g56
(g65
g58
NtRp2442
(dp2443
g61
(dp2444
g69
I3
ssg70
Nsg63
(lp2445
g56
(g72
g58
NtRp2446
(dp2447
g61
(dp2448
sg70
g2442
sg63
(lp2449
g56
(g77
g58
NtRp2450
(dp2451
g61
(dp2452
sg70
g2446
sg63
(lp2453
g56
(g57
g58
NtRp2454
(dp2455
g61
(dp2456
g69
I3
ssg70
g2450
sg63
(lp2457
S'1'
asbasbasbag56
(g72
g58
NtRp2458
(dp2459
g61
(dp2460
sg70
g2442
sg63
(lp2461
g56
(g77
g58
NtRp2462
(dp2463
g61
(dp2464
sg70
g2458
sg63
(lp2465
g56
(g57
g58
NtRp2466
(dp2467
g61
(dp2468
g69
I3
ssg70
g2462
sg63
(lp2469
S'99'
p2470
asbasbasbag56
(g72
g58
NtRp2471
(dp2472
g61
(dp2473
sg70
g2442
sg63
(lp2474
g56
(g77
g58
NtRp2475
(dp2476
g61
(dp2477
sg70
g2471
sg63
(lp2478
g56
(g57
g58
NtRp2479
(dp2480
g61
(dp2481
g69
I3
ssg70
g2475
sg63
(lp2482
S'2'
asbasbasbag56
(g72
g58
NtRp2483
(dp2484
g61
(dp2485
sg70
g2442
sg63
(lp2486
g56
(g77
g58
NtRp2487
(dp2488
g61
(dp2489
sg70
g2483
sg63
(lp2490
g56
(g57
g58
NtRp2491
(dp2492
g61
(dp2493
g69
I3
ssg70
g2487
sg63
(lp2494
S'datetime.datetime(2011, 9, 26, 6, 55, 33)'
p2495
asbasbasbag56
(g72
g58
NtRp2496
(dp2497
g61
(dp2498
sg70
g2442
sg63
(lp2499
g56
(g77
g58
NtRp2500
(dp2501
g61
(dp2502
sg70
g2496
sg63
(lp2503
g56
(g57
g58
NtRp2504
(dp2505
g61
(dp2506
g69
I3
ssg70
g2500
sg63
(lp2507
g1917
asbasbasbasbasbasbasbasbasbasbasbag56
(g72
g58
NtRp2508
(dp2509
g61
(dp2510
sg70
g66
sg63
(lp2511
g56
(g77
g58
NtRp2512
(dp2513
g61
(dp2514
g81
g82
ssg70
g2508
sg63
(lp2515
S'is_https'
p2516
asbag56
(g77
g58
NtRp2517
(dp2518
g61
(dp2519
g88
g89
ssg70
g2508
sg63
(lp2520
S':'
asbag56
(g77
g58
NtRp2521
(dp2522
g61
(dp2523
sg70
g2508
sg63
(lp2524
g56
(g57
g58
NtRp2525
(dp2526
g61
(dp2527
g69
I5
ssg70
g2521
sg63
(lp2528
g99
asbasbasbag56
(g72
g58
NtRp2529
(dp2530
g61
(dp2531
sg70
g66
sg63
(lp2532
g56
(g77
g58
NtRp2533
(dp2534
g61
(dp2535
g81
g82
ssg70
g2529
sg63
(lp2536
S'is_local'
p2537
asbag56
(g77
g58
NtRp2538
(dp2539
g61
(dp2540
g88
g89
ssg70
g2529
sg63
(lp2541
S':'
asbag56
(g77
g58
NtRp2542
(dp2543
g61
(dp2544
sg70
g2529
sg63
(lp2545
g56
(g57
g58
NtRp2546
(dp2547
g61
(dp2548
g69
I5
ssg70
g2542
sg63
(lp2549
g2026
asbasbasbag56
(g72
g58
NtRp2550
(dp2551
g61
(dp2552
sg70
g66
sg63
(lp2553
g56
(g77
g58
NtRp2554
(dp2555
g61
(dp2556
g81
g82
ssg70
g2550
sg63
(lp2557
S'is_restful'
p2558
asbag56
(g77
g58
NtRp2559
(dp2560
g61
(dp2561
g88
g89
ssg70
g2550
sg63
(lp2562
S':'
asbag56
(g77
g58
NtRp2563
(dp2564
g61
(dp2565
sg70
g2550
sg63
(lp2566
g56
(g57
g58
NtRp2567
(dp2568
g61
(dp2569
g69
I5
ssg70
g2563
sg63
(lp2570
g99
asbasbasbag56
(g72
g58
NtRp2571
(dp2572
g61
(dp2573
sg70
g66
sg63
(lp2574
g56
(g77
g58
NtRp2575
(dp2576
g61
(dp2577
g81
g82
ssg70
g2571
sg63
(lp2578
S'now'
p2579
asbag56
(g77
g58
NtRp2580
(dp2581
g61
(dp2582
g88
g89
ssg70
g2571
sg63
(lp2583
S':'
asbag56
(g77
g58
NtRp2584
(dp2585
g61
(dp2586
sg70
g2571
sg63
(lp2587
g56
(g57
g58
NtRp2588
(dp2589
g61
(dp2590
g69
I5
ssg70
g2584
sg63
(lp2591
S'datetime.datetime(2011, 9, 30, 15, 54, 15, 790641)'
p2592
asbasbasbag56
(g72
g58
NtRp2593
(dp2594
g61
(dp2595
sg70
g66
sg63
(lp2596
g56
(g77
g58
NtRp2597
(dp2598
g61
(dp2599
g81
g82
ssg70
g2593
sg63
(lp2600
S'post_vars'
p2601
asbag56
(g77
g58
NtRp2602
(dp2603
g61
(dp2604
g88
g89
ssg70
g2593
sg63
(lp2605
S':'
asbag56
(g77
g58
NtRp2606
(dp2607
g61
(dp2608
sg70
g2593
sg63
(lp2609
g56
(g57
g58
NtRp2610
(dp2611
g61
(dp2612
g69
I5
ssg70
g2606
sg63
(lp2613
g56
(g65
g58
NtRp2614
(dp2615
g61
(dp2616
g69
I4
ssg70
Nsg63
(lp2617
sbasbasbasbag56
(g72
g58
NtRp2618
(dp2619
g61
(dp2620
sg70
g66
sg63
(lp2621
g56
(g77
g58
NtRp2622
(dp2623
g61
(dp2624
g81
g82
ssg70
g2618
sg63
(lp2625
S'url'
p2626
asbag56
(g77
g58
NtRp2627
(dp2628
g61
(dp2629
g88
g89
ssg70
g2618
sg63
(lp2630
S':'
asbag56
(g77
g58
NtRp2631
(dp2632
g61
(dp2633
sg70
g2618
sg63
(lp2634
g56
(g57
g58
NtRp2635
(dp2636
g61
(dp2637
g69
I5
ssg70
g2631
sg63
(lp2638
S'/places/default/index'
p2639
asbasbasbag56
(g72
g58
NtRp2640
(dp2641
g61
(dp2642
sg70
g66
sg63
(lp2643
g56
(g77
g58
NtRp2644
(dp2645
g61
(dp2646
g81
g82
ssg70
g2640
sg63
(lp2647
S'utcnow'
p2648
asbag56
(g77
g58
NtRp2649
(dp2650
g61
(dp2651
g88
g89
ssg70
g2640
sg63
(lp2652
S':'
asbag56
(g77
g58
NtRp2653
(dp2654
g61
(dp2655
sg70
g2640
sg63
(lp2656
g56
(g57
g58
NtRp2657
(dp2658
g61
(dp2659
g69
I5
ssg70
g2653
sg63
(lp2660
S'datetime.datetime(2011, 9, 30, 19, 54, 15, 790685)'
p2661
asbasbasbag56
(g72
g58
NtRp2662
(dp2663
g61
(dp2664
sg70
g66
sg63
(lp2665
g56
(g77
g58
NtRp2666
(dp2667
g61
(dp2668
g81
g82
ssg70
g2662
sg63
(lp2669
S'uuid'
p2670
asbag56
(g77
g58
NtRp2671
(dp2672
g61
(dp2673
g88
g89
ssg70
g2662
sg63
(lp2674
S':'
asbag56
(g77
g58
NtRp2675
(dp2676
g61
(dp2677
sg70
g2662
sg63
(lp2678
g56
(g57
g58
NtRp2679
(dp2680
g61
(dp2681
g69
I5
ssg70
g2675
sg63
(lp2682
S'places/127.0.0.1.2011-09-30.15-54-15.2daff757-9716-4df0-93fb-a660726992e6'
p2683
asbasbasbag56
(g72
g58
NtRp2684
(dp2685
g61
(dp2686
sg70
g66
sg63
(lp2687
g56
(g77
g58
NtRp2688
(dp2689
g61
(dp2690
g81
g82
ssg70
g2684
sg63
(lp2691
S'vars'
p2692
asbag56
(g77
g58
NtRp2693
(dp2694
g61
(dp2695
g88
g89
ssg70
g2684
sg63
(lp2696
S':'
asbag56
(g77
g58
NtRp2697
(dp2698
g61
(dp2699
sg70
g2684
sg63
(lp2700
g56
(g57
g58
NtRp2701
(dp2702
g61
(dp2703
g69
I5
ssg70
g2697
sg63
(lp2704
g56
(g65
g58
NtRp2705
(dp2706
g61
(dp2707
g69
I4
ssg70
Nsg63
(lp2708
sbasbasbasbag56
(g72
g58
NtRp2709
(dp2710
g61
(dp2711
sg70
g66
sg63
(lp2712
g56
(g77
g58
NtRp2713
(dp2714
g61
(dp2715
g81
g82
ssg70
g2709
sg63
(lp2716
S'wsgi'
p2717
asbag56
(g77
g58
NtRp2718
(dp2719
g61
(dp2720
g88
g89
ssg70
g2709
sg63
(lp2721
S':'
asbag56
(g77
g58
NtRp2722
(dp2723
g61
(dp2724
sg70
g2709
sg63
(lp2725
g56
(g57
g58
NtRp2726
(dp2727
g61
(dp2728
g69
I5
ssg70
g2722
sg63
(lp2729
g56
(g65
g58
NtRp2730
(dp2731
g61
(dp2732
g69
I4
ssg70
Nsg63
(lp2733
g56
(g72
g58
NtRp2734
(dp2735
g61
(dp2736
sg70
g2730
sg63
(lp2737
g56
(g77
g58
NtRp2738
(dp2739
g61
(dp2740
g81
g82
ssg70
g2734
sg63
(lp2741
S'environ'
p2742
asbag56
(g77
g58
NtRp2743
(dp2744
g61
(dp2745
g88
g89
ssg70
g2734
sg63
(lp2746
S':'
asbag56
(g77
g58
NtRp2747
(dp2748
g61
(dp2749
sg70
g2734
sg63
(lp2750
g56
(g57
g58
NtRp2751
(dp2752
g61
(dp2753
g69
I4
ssg70
g2747
sg63
(lp2754
g56
(g65
g58
NtRp2755
(dp2756
g61
(dp2757
g69
I3
ssg70
Nsg63
(lp2758
g56
(g72
g58
NtRp2759
(dp2760
g61
(dp2761
sg70
g2755
sg63
(lp2762
g56
(g77
g58
NtRp2763
(dp2764
g61
(dp2765
g81
g82
ssg70
g2759
sg63
(lp2766
S'HTTP_ACCEPT'
p2767
asbag56
(g77
g58
NtRp2768
(dp2769
g61
(dp2770
g88
g89
ssg70
g2759
sg63
(lp2771
S':'
asbag56
(g77
g58
NtRp2772
(dp2773
g61
(dp2774
sg70
g2759
sg63
(lp2775
g56
(g57
g58
NtRp2776
(dp2777
g61
(dp2778
g69
I3
ssg70
g2772
sg63
(lp2779
g1372
asbasbasbag56
(g72
g58
NtRp2780
(dp2781
g61
(dp2782
sg70
g2755
sg63
(lp2783
g56
(g77
g58
NtRp2784
(dp2785
g61
(dp2786
g81
g82
ssg70
g2780
sg63
(lp2787
S'HTTP_ACCEPT_CHARSET'
p2788
asbag56
(g77
g58
NtRp2789
(dp2790
g61
(dp2791
g88
g89
ssg70
g2780
sg63
(lp2792
S':'
asbag56
(g77
g58
NtRp2793
(dp2794
g61
(dp2795
sg70
g2780
sg63
(lp2796
g56
(g57
g58
NtRp2797
(dp2798
g61
(dp2799
g69
I3
ssg70
g2793
sg63
(lp2800
g1394
asbasbasbag56
(g72
g58
NtRp2801
(dp2802
g61
(dp2803
sg70
g2755
sg63
(lp2804
g56
(g77
g58
NtRp2805
(dp2806
g61
(dp2807
g81
g82
ssg70
g2801
sg63
(lp2808
S'HTTP_ACCEPT_ENCODING'
p2809
asbag56
(g77
g58
NtRp2810
(dp2811
g61
(dp2812
g88
g89
ssg70
g2801
sg63
(lp2813
S':'
asbag56
(g77
g58
NtRp2814
(dp2815
g61
(dp2816
sg70
g2801
sg63
(lp2817
g56
(g57
g58
NtRp2818
(dp2819
g61
(dp2820
g69
I3
ssg70
g2814
sg63
(lp2821
g1416
asbasbasbag56
(g72
g58
NtRp2822
(dp2823
g61
(dp2824
sg70
g2755
sg63
(lp2825
g56
(g77
g58
NtRp2826
(dp2827
g61
(dp2828
g81
g82
ssg70
g2822
sg63
(lp2829
S'HTTP_ACCEPT_LANGUAGE'
p2830
asbag56
(g77
g58
NtRp2831
(dp2832
g61
(dp2833
g88
g89
ssg70
g2822
sg63
(lp2834
S':'
asbag56
(g77
g58
NtRp2835
(dp2836
g61
(dp2837
sg70
g2822
sg63
(lp2838
g56
(g57
g58
NtRp2839
(dp2840
g61
(dp2841
g69
I3
ssg70
g2835
sg63
(lp2842
g1438
asbasbasbag56
(g72
g58
NtRp2843
(dp2844
g61
(dp2845
sg70
g2755
sg63
(lp2846
g56
(g77
g58
NtRp2847
(dp2848
g61
(dp2849
g81
g82
ssg70
g2843
sg63
(lp2850
S'HTTP_CACHE_CONTROL'
p2851
asbag56
(g77
g58
NtRp2852
(dp2853
g61
(dp2854
g88
g89
ssg70
g2843
sg63
(lp2855
S':'
asbag56
(g77
g58
NtRp2856
(dp2857
g61
(dp2858
sg70
g2843
sg63
(lp2859
g56
(g57
g58
NtRp2860
(dp2861
g61
(dp2862
g69
I3
ssg70
g2856
sg63
(lp2863
g1460
asbasbasbag56
(g72
g58
NtRp2864
(dp2865
g61
(dp2866
sg70
g2755
sg63
(lp2867
g56
(g77
g58
NtRp2868
(dp2869
g61
(dp2870
g81
g82
ssg70
g2864
sg63
(lp2871
S'HTTP_CONNECTION'
p2872
asbag56
(g77
g58
NtRp2873
(dp2874
g61
(dp2875
g88
g89
ssg70
g2864
sg63
(lp2876
S':'
asbag56
(g77
g58
NtRp2877
(dp2878
g61
(dp2879
sg70
g2864
sg63
(lp2880
g56
(g57
g58
NtRp2881
(dp2882
g61
(dp2883
g69
I3
ssg70
g2877
sg63
(lp2884
g1482
asbasbasbag56
(g72
g58
NtRp2885
(dp2886
g61
(dp2887
sg70
g2755
sg63
(lp2888
g56
(g77
g58
NtRp2889
(dp2890
g61
(dp2891
g81
g82
ssg70
g2885
sg63
(lp2892
S'HTTP_COOKIE'
p2893
asbag56
(g77
g58
NtRp2894
(dp2895
g61
(dp2896
g88
g89
ssg70
g2885
sg63
(lp2897
S':'
asbag56
(g77
g58
NtRp2898
(dp2899
g61
(dp2900
sg70
g2885
sg63
(lp2901
g56
(g57
g58
NtRp2902
(dp2903
g61
(dp2904
g69
I3
ssg70
g2898
sg63
(lp2905
g1504
asbasbasbag56
(g72
g58
NtRp2906
(dp2907
g61
(dp2908
sg70
g2755
sg63
(lp2909
g56
(g77
g58
NtRp2910
(dp2911
g61
(dp2912
g81
g82
ssg70
g2906
sg63
(lp2913
S'HTTP_HOST'
p2914
asbag56
(g77
g58
NtRp2915
(dp2916
g61
(dp2917
g88
g89
ssg70
g2906
sg63
(lp2918
S':'
asbag56
(g77
g58
NtRp2919
(dp2920
g61
(dp2921
sg70
g2906
sg63
(lp2922
g56
(g57
g58
NtRp2923
(dp2924
g61
(dp2925
g69
I3
ssg70
g2919
sg63
(lp2926
g1526
asbasbasbag56
(g72
g58
NtRp2927
(dp2928
g61
(dp2929
sg70
g2755
sg63
(lp2930
g56
(g77
g58
NtRp2931
(dp2932
g61
(dp2933
g81
g82
ssg70
g2927
sg63
(lp2934
S'HTTP_USER_AGENT'
p2935
asbag56
(g77
g58
NtRp2936
(dp2937
g61
(dp2938
g88
g89
ssg70
g2927
sg63
(lp2939
S':'
asbag56
(g77
g58
NtRp2940
(dp2941
g61
(dp2942
sg70
g2927
sg63
(lp2943
g56
(g57
g58
NtRp2944
(dp2945
g61
(dp2946
g69
I3
ssg70
g2940
sg63
(lp2947
g1548
asbasbasbag56
(g72
g58
NtRp2948
(dp2949
g61
(dp2950
sg70
g2755
sg63
(lp2951
g56
(g77
g58
NtRp2952
(dp2953
g61
(dp2954
g81
g82
ssg70
g2948
sg63
(lp2955
S'PATH_INFO'
p2956
asbag56
(g77
g58
NtRp2957
(dp2958
g61
(dp2959
g88
g89
ssg70
g2948
sg63
(lp2960
S':'
asbag56
(g77
g58
NtRp2961
(dp2962
g61
(dp2963
sg70
g2948
sg63
(lp2964
g56
(g57
g58
NtRp2965
(dp2966
g61
(dp2967
g69
I3
ssg70
g2961
sg63
(lp2968
g1591
asbasbasbag56
(g72
g58
NtRp2969
(dp2970
g61
(dp2971
sg70
g2755
sg63
(lp2972
g56
(g77
g58
NtRp2973
(dp2974
g61
(dp2975
g81
g82
ssg70
g2969
sg63
(lp2976
S'QUERY_STRING'
p2977
asbag56
(g77
g58
NtRp2978
(dp2979
g61
(dp2980
g88
g89
ssg70
g2969
sg63
(lp2981
S':'
asbag56
(g77
g58
NtRp2982
(dp2983
g61
(dp2984
sg70
g2969
sg63
(lp2985
g56
(g57
g58
NtRp2986
(dp2987
g61
(dp2988
g69
I3
ssg70
g2982
sg63
(lp2989
S''
asbasbasbag56
(g72
g58
NtRp2990
(dp2991
g61
(dp2992
sg70
g2755
sg63
(lp2993
g56
(g77
g58
NtRp2994
(dp2995
g61
(dp2996
g81
g82
ssg70
g2990
sg63
(lp2997
S'REMOTE_ADDR'
p2998
asbag56
(g77
g58
NtRp2999
(dp3000
g61
(dp3001
g88
g89
ssg70
g2990
sg63
(lp3002
S':'
asbag56
(g77
g58
NtRp3003
(dp3004
g61
(dp3005
sg70
g2990
sg63
(lp3006
g56
(g57
g58
NtRp3007
(dp3008
g61
(dp3009
g69
I3
ssg70
g3003
sg63
(lp3010
g189
asbasbasbag56
(g72
g58
NtRp3011
(dp3012
g61
(dp3013
sg70
g2755
sg63
(lp3014
g56
(g77
g58
NtRp3015
(dp3016
g61
(dp3017
g81
g82
ssg70
g3011
sg63
(lp3018
S'REMOTE_PORT'
p3019
asbag56
(g77
g58
NtRp3020
(dp3021
g61
(dp3022
g88
g89
ssg70
g3011
sg63
(lp3023
S':'
asbag56
(g77
g58
NtRp3024
(dp3025
g61
(dp3026
sg70
g3011
sg63
(lp3027
g56
(g57
g58
NtRp3028
(dp3029
g61
(dp3030
g69
I3
ssg70
g3024
sg63
(lp3031
g1655
asbasbasbag56
(g72
g58
NtRp3032
(dp3033
g61
(dp3034
sg70
g2755
sg63
(lp3035
g56
(g77
g58
NtRp3036
(dp3037
g61
(dp3038
g81
g82
ssg70
g3032
sg63
(lp3039
S'REQUEST_METHOD'
p3040
asbag56
(g77
g58
NtRp3041
(dp3042
g61
(dp3043
g88
g89
ssg70
g3032
sg63
(lp3044
S':'
asbag56
(g77
g58
NtRp3045
(dp3046
g61
(dp3047
sg70
g3032
sg63
(lp3048
g56
(g57
g58
NtRp3049
(dp3050
g61
(dp3051
g69
I3
ssg70
g3045
sg63
(lp3052
g1677
asbasbasbag56
(g72
g58
NtRp3053
(dp3054
g61
(dp3055
sg70
g2755
sg63
(lp3056
g56
(g77
g58
NtRp3057
(dp3058
g61
(dp3059
g81
g82
ssg70
g3053
sg63
(lp3060
S'SCRIPT_NAME'
p3061
asbag56
(g77
g58
NtRp3062
(dp3063
g61
(dp3064
g88
g89
ssg70
g3053
sg63
(lp3065
S':'
asbag56
(g77
g58
NtRp3066
(dp3067
g61
(dp3068
sg70
g3053
sg63
(lp3069
g56
(g57
g58
NtRp3070
(dp3071
g61
(dp3072
g69
I3
ssg70
g3066
sg63
(lp3073
S''
asbasbasbag56
(g72
g58
NtRp3074
(dp3075
g61
(dp3076
sg70
g2755
sg63
(lp3077
g56
(g77
g58
NtRp3078
(dp3079
g61
(dp3080
g81
g82
ssg70
g3074
sg63
(lp3081
S'SERVER_NAME'
p3082
asbag56
(g77
g58
NtRp3083
(dp3084
g61
(dp3085
g88
g89
ssg70
g3074
sg63
(lp3086
S':'
asbag56
(g77
g58
NtRp3087
(dp3088
g61
(dp3089
sg70
g3074
sg63
(lp3090
g56
(g57
g58
NtRp3091
(dp3092
g61
(dp3093
g69
I3
ssg70
g3087
sg63
(lp3094
g1720
asbasbasbag56
(g72
g58
NtRp3095
(dp3096
g61
(dp3097
sg70
g2755
sg63
(lp3098
g56
(g77
g58
NtRp3099
(dp3100
g61
(dp3101
g81
g82
ssg70
g3095
sg63
(lp3102
S'SERVER_PORT'
p3103
asbag56
(g77
g58
NtRp3104
(dp3105
g61
(dp3106
g88
g89
ssg70
g3095
sg63
(lp3107
S':'
asbag56
(g77
g58
NtRp3108
(dp3109
g61
(dp3110
sg70
g3095
sg63
(lp3111
g56
(g57
g58
NtRp3112
(dp3113
g61
(dp3114
g69
I3
ssg70
g3108
sg63
(lp3115
g1742
asbasbasbag56
(g72
g58
NtRp3116
(dp3117
g61
(dp3118
sg70
g2755
sg63
(lp3119
g56
(g77
g58
NtRp3120
(dp3121
g61
(dp3122
g81
g82
ssg70
g3116
sg63
(lp3123
S'SERVER_PROTOCOL'
p3124
asbag56
(g77
g58
NtRp3125
(dp3126
g61
(dp3127
g88
g89
ssg70
g3116
sg63
(lp3128
S':'
asbag56
(g77
g58
NtRp3129
(dp3130
g61
(dp3131
sg70
g3116
sg63
(lp3132
g56
(g57
g58
NtRp3133
(dp3134
g61
(dp3135
g69
I3
ssg70
g3129
sg63
(lp3136
g1764
asbasbasbag56
(g72
g58
NtRp3137
(dp3138
g61
(dp3139
sg70
g2755
sg63
(lp3140
g56
(g77
g58
NtRp3141
(dp3142
g61
(dp3143
g81
g82
ssg70
g3137
sg63
(lp3144
S'SERVER_SOFTWARE'
p3145
asbag56
(g77
g58
NtRp3146
(dp3147
g61
(dp3148
g88
g89
ssg70
g3137
sg63
(lp3149
S':'
asbag56
(g77
g58
NtRp3150
(dp3151
g61
(dp3152
sg70
g3137
sg63
(lp3153
g56
(g57
g58
NtRp3154
(dp3155
g61
(dp3156
g69
I3
ssg70
g3150
sg63
(lp3157
g1786
asbasbasbag56
(g72
g58
NtRp3158
(dp3159
g61
(dp3160
sg70
g2755
sg63
(lp3161
g56
(g77
g58
NtRp3162
(dp3163
g61
(dp3164
g81
g82
ssg70
g3158
sg63
(lp3165
S'wsgi.errors'
p3166
asbag56
(g77
g58
NtRp3167
(dp3168
g61
(dp3169
g88
g89
ssg70
g3158
sg63
(lp3170
S':'
asbag56
(g77
g58
NtRp3171
(dp3172
g61
(dp3173
sg70
g3158
sg63
(lp3174
g56
(g57
g58
NtRp3175
(dp3176
g61
(dp3177
g69
I3
ssg70
g3171
sg63
(lp3178
S"<open file '<stderr>', mode 'w' at 0x7f4a416fc270>"
p3179
asbasbasbag56
(g72
g58
NtRp3180
(dp3181
g61
(dp3182
sg70
g2755
sg63
(lp3183
g56
(g77
g58
NtRp3184
(dp3185
g61
(dp3186
g81
g82
ssg70
g3180
sg63
(lp3187
S'wsgi.file_wrapper'
p3188
asbag56
(g77
g58
NtRp3189
(dp3190
g61
(dp3191
g88
g89
ssg70
g3180
sg63
(lp3192
S':'
asbag56
(g77
g58
NtRp3193
(dp3194
g61
(dp3195
sg70
g3180
sg63
(lp3196
g56
(g57
g58
NtRp3197
(dp3198
g61
(dp3199
g69
I3
ssg70
g3193
sg63
(lp3200
S'<class wsgiref.util.FileWrapper at 0x24b4870>'
p3201
asbasbasbag56
(g72
g58
NtRp3202
(dp3203
g61
(dp3204
sg70
g2755
sg63
(lp3205
g56
(g77
g58
NtRp3206
(dp3207
g61
(dp3208
g81
g82
ssg70
g3202
sg63
(lp3209
S'wsgi.input'
p3210
asbag56
(g77
g58
NtRp3211
(dp3212
g61
(dp3213
g88
g89
ssg70
g3202
sg63
(lp3214
S':'
asbag56
(g77
g58
NtRp3215
(dp3216
g61
(dp3217
sg70
g3202
sg63
(lp3218
g56
(g57
g58
NtRp3219
(dp3220
g61
(dp3221
g69
I3
ssg70
g3215
sg63
(lp3222
S'<cStringIO.StringO object at 0x340ab58>'
p3223
asbasbasbag56
(g72
g58
NtRp3224
(dp3225
g61
(dp3226
sg70
g2755
sg63
(lp3227
g56
(g77
g58
NtRp3228
(dp3229
g61
(dp3230
g81
g82
ssg70
g3224
sg63
(lp3231
S'wsgi.multiprocess'
p3232
asbag56
(g77
g58
NtRp3233
(dp3234
g61
(dp3235
g88
g89
ssg70
g3224
sg63
(lp3236
S':'
asbag56
(g77
g58
NtRp3237
(dp3238
g61
(dp3239
sg70
g3224
sg63
(lp3240
g56
(g57
g58
NtRp3241
(dp3242
g61
(dp3243
g69
I3
ssg70
g3237
sg63
(lp3244
g99
asbasbasbag56
(g72
g58
NtRp3245
(dp3246
g61
(dp3247
sg70
g2755
sg63
(lp3248
g56
(g77
g58
NtRp3249
(dp3250
g61
(dp3251
g81
g82
ssg70
g3245
sg63
(lp3252
S'wsgi.multithread'
p3253
asbag56
(g77
g58
NtRp3254
(dp3255
g61
(dp3256
g88
g89
ssg70
g3245
sg63
(lp3257
S':'
asbag56
(g77
g58
NtRp3258
(dp3259
g61
(dp3260
sg70
g3245
sg63
(lp3261
g56
(g57
g58
NtRp3262
(dp3263
g61
(dp3264
g69
I3
ssg70
g3258
sg63
(lp3265
g2026
asbasbasbag56
(g72
g58
NtRp3266
(dp3267
g61
(dp3268
sg70
g2755
sg63
(lp3269
g56
(g77
g58
NtRp3270
(dp3271
g61
(dp3272
g81
g82
ssg70
g3266
sg63
(lp3273
S'wsgi.run_once'
p3274
asbag56
(g77
g58
NtRp3275
(dp3276
g61
(dp3277
g88
g89
ssg70
g3266
sg63
(lp3278
S':'
asbag56
(g77
g58
NtRp3279
(dp3280
g61
(dp3281
sg70
g3266
sg63
(lp3282
g56
(g57
g58
NtRp3283
(dp3284
g61
(dp3285
g69
I3
ssg70
g3279
sg63
(lp3286
g99
asbasbasbag56
(g72
g58
NtRp3287
(dp3288
g61
(dp3289
sg70
g2755
sg63
(lp3290
g56
(g77
g58
NtRp3291
(dp3292
g61
(dp3293
g81
g82
ssg70
g3287
sg63
(lp3294
S'wsgi.url_scheme'
p3295
asbag56
(g77
g58
NtRp3296
(dp3297
g61
(dp3298
g88
g89
ssg70
g3287
sg63
(lp3299
S':'
asbag56
(g77
g58
NtRp3300
(dp3301
g61
(dp3302
sg70
g3287
sg63
(lp3303
g56
(g57
g58
NtRp3304
(dp3305
g61
(dp3306
g69
I3
ssg70
g3300
sg63
(lp3307
g2069
asbasbasbag56
(g72
g58
NtRp3308
(dp3309
g61
(dp3310
sg70
g2755
sg63
(lp3311
g56
(g77
g58
NtRp3312
(dp3313
g61
(dp3314
g81
g82
ssg70
g3308
sg63
(lp3315
S'wsgi.version'
p3316
asbag56
(g77
g58
NtRp3317
(dp3318
g61
(dp3319
g88
g89
ssg70
g3308
sg63
(lp3320
S':'
asbag56
(g77
g58
NtRp3321
(dp3322
g61
(dp3323
sg70
g3308
sg63
(lp3324
g56
(g57
g58
NtRp3325
(dp3326
g61
(dp3327
g69
I3
ssg70
g3321
sg63
(lp3328
S'1'
asbasbasbasbasbasbasbasbasbasbasbasbasbsS'frames'
p3329
(lp3330
(dp3331
S'file'
p3332
S'/home/ian/Dropbox/Web_Pages/web2py-linux/gluon/restricted.py'
p3333
sS'dump'
p3334
(dp3335
S'environment'
p3336
S"{'A': <class 'gluon.html.A'>, 'Auth': <class 'gluon.tools.Auth'>, 'B': <class 'gluon.html.B'>, 'BEAUTIFY': <class 'gluon.html.BEAUTIFY'>, 'BODY': <class 'gluon.html.BODY'>, 'BR': <class 'gluon.html.BR'>, 'BUTTON': <class 'gluon.html.BUTTON'>, 'CAT': <class 'gluon.html.CAT'>, 'CENTER': <class 'gluon.html.CENTER'>, 'CLEANUP': <class 'gluon.validators.CLEANUP'>, ...}"
p3337
sS'ccode'
p3338
S'<code object <module> at 0x2d42db0, file "/home/...ications/places/controllers/default.py", line 12>'
p3339
ssS'lnum'
p3340
I194
sS'lines'
p3341
(dp3342
I192
S'        else:'
p3343
sI193
S'            ccode = compile2(code,layer)'
p3344
sI194
S'        exec ccode in environment'
p3345
sI195
S'    except HTTP:'
p3346
sI196
S'        raise'
p3347
sI197
S'    except Exception, error:'
p3348
sI198
S'        # XXX Show exception in Wing IDE if running in debugger'
p3349
sI189
S'    try:'
p3350
sI190
S'        if type(code) == types.CodeType:'
p3351
sI191
S'            ccode = code'
p3352
ssS'call'
p3353
S"(code='# -*- coding: utf-8 -*-\\n# this file is released ...=crud())\\n\\nresponse._vars=response._caller(index)\\n', environment={'A': <class 'gluon.html.A'>, 'Auth': <class 'gluon.tools.Auth'>, 'B': <class 'gluon.html.B'>, 'BEAUTIFY': <class 'gluon.html.BEAUTIFY'>, 'BODY': <class 'gluon.html.BODY'>, 'BR': <class 'gluon.html.BR'>, 'BUTTON': <class 'gluon.html.BUTTON'>, 'CAT': <class 'gluon.html.CAT'>, 'CENTER': <class 'gluon.html.CENTER'>, 'CLEANUP': <class 'gluon.validators.CLEANUP'>, ...}, layer='/home/ian/Dropbox/Web_Pages/web2py-linux/applications/places/controllers/default.py')"
p3354
sS'func'
p3355
S'restricted'
p3356
sa(dp3357
g3332
S'/home/ian/Dropbox/Web_Pages/web2py-linux/applications/places/controllers/default.py'
p3358
sg3334
(dp3359
sg3340
I80
sg3341
(dp3360
I69
S'    http://..../[app]/default/data/update/[table]/[id]'
p3361
sI70
S'    http://..../[app]/default/data/delete/[table]/[id]'
p3362
sI71
S'    http://..../[app]/default/data/select/[table]'
p3363
sI72
S'    http://..../[app]/default/data/search/[table]'
p3364
sI73
S'    but URLs bust be signed, i.e. linked with'
p3365
sI74
S"      A('table',_href=URL('data/tables',user_signature=True))"
p3366
sI75
S'    or with the signed load operator'
p3367
sI76
S"      LOAD('default','data.load',args='tables',ajax=True,user_signature=True)"
p3368
sI77
S'    """'
p3369
sI78
S'    return dict(form=crud())'
p3370
ssg3353
S'()'
p3371
sg3355
S'<module>'
p3372
sa(dp3373
g3332
S'/home/ian/Dropbox/Web_Pages/web2py-linux/gluon/globals.py'
p3374
sg3334
(dp3375
S'self'
p3376
S'undefined'
p3377
sS'f'
S'<function index>'
p3378
ssg3340
I149
sg3341
(dp3379
I144
S'        self.meta = Storage()      # used by web2py_ajax.html'
p3380
sI145
S'        self.menu = []             # used by the default view layout'
p3381
sI146
S'        self.files = []            # used by web2py_ajax.html'
p3382
sI147
S'        self.generic_patterns = [] # patterns to allow generic views'
p3383
sI148
S'        self._vars = None'
p3384
sI149
S'        self._caller = lambda f: f()'
p3385
sI150
S'        self._view_environment = None'
p3386
sI151
S'        self._custom_commit = None'
p3387
sI152
S'        self._custom_rollback = None'
p3388
sI153
S''
ssg3353
S'(f=<function index>)'
p3389
sg3355
S'<lambda>'
p3390
sa(dp3391
g3332
S'/home/ian/Dropbox/Web_Pages/web2py-linux/applications/places/controllers/default.py'
p3392
sg3334
(dp3393
S'global session'
p3394
S"<Storage {'tags': <gluon.dal.Rows object at 0x35...reate]': 'db058c09-05ed-4172-972c-564d86eeac15'}>"
p3395
sS'links'
p3396
g3377
sS'db.links'
p3397
S"<Table {'link_url': <gluon.dal.Field object at 0...0>, 'id': <gluon.dal.Field object at 0x35b7590>}>"
p3398
sS').select'
p3399
g3377
sS'db.links.tags.contains'
p3400
S'<bound method Field.contains of <gluon.dal.Field object>>'
p3401
sS'db.links.tags'
p3402
S'<gluon.dal.Field object>'
p3403
sS'global db'
p3404
S"<DAL {'auth_event': <Table {'origin': <gluon.dal..., 'id': <gluon.dal.Field object at 0x3030c50>}>}>"
p3405
sS'session.tag'
p3406
S'None'
p3407
ssg3340
I24
sg3341
(dp3408
I19
S'    if session.tag:'
p3409
sI20
S'        current = session.tag'
p3410
sI21
S'    else:'
p3411
sI22
S'        current = session.tags[0].tag'
p3412
sI23
S''
sI24
S'    links = db(db.links.tags.contains(session.tag)).select()'
p3413
sI25
S''
sI26
S'    return dict(links = links, current = current)'
p3414
sI27
S''
sI28
S'def user():'
p3415
ssg3353
S'()'
p3416
sg3355
g2184
sa(dp3417
g3332
S'/home/ian/Dropbox/Web_Pages/web2py-linux/gluon/dal.py'
p3418
sg3334
(dp3419
S'self.query'
p3420
S'<gluon.dal.Query object>'
p3421
sS'fields'
p3422
S'()'
p3423
sS'self'
p3424
S'<gluon.dal.Set object>'
p3425
sS'self.db._adapter.select'
p3426
S'<bound method SQLiteAdapter.select of <gluon.dal.SQLiteAdapter object>>'
p3427
sS'self.db._adapter'
p3428
S'<gluon.dal.SQLiteAdapter object>'
p3429
sS'attributes'
p3430
g44
sS'self.db'
p3431
S"<DAL {'auth_event': <Table {'origin': <gluon.dal..., 'id': <gluon.dal.Field object at 0x3030c50>}>}>"
p3432
ssg3340
I5697
sg3341
(dp3433
I5696
S'    def select(self, *fields, **attributes):'
p3434
sI5697
S'        return self.db._adapter.select(self.query,fields,attributes)'
p3435
sI5698
S''
sI5699
S'    def delete(self):'
p3436
sI5700
S'        tablename=self.db._adapter.get_table(self.query)'
p3437
sI5701
S'        self.delete_uploaded_files()'
p3438
sI5692
S''
sI5693
S'    def count(self,distinct=None):'
p3439
sI5694
S'        return self.db._adapter.count(self.query,distinct)'
p3440
sI5695
S''
ssg3353
S'(self=<gluon.dal.Set object>, *fields=(), **attributes={})'
p3441
sg3355
S'select'
p3442
sa(dp3443
g3332
S'/home/ian/Dropbox/Web_Pages/web2py-linux/gluon/dal.py'
p3444
sg3334
(dp3445
S'self._select'
p3446
S'<bound method SQLiteAdapter._select of <gluon.dal.SQLiteAdapter object>>'
p3447
sS'fields'
p3448
S'()'
p3449
sS'self'
p3450
S'<gluon.dal.SQLiteAdapter object>'
p3451
sS'sql'
p3452
g3377
sS'query'
p3453
S'<gluon.dal.Query object>'
p3454
sS'attributes'
p3455
g44
ssg3340
I1225
sg3341
(dp3456
I1220
S'        Always returns a Rows object, even if it may be empty'
p3457
sI1221
S'        """'
p3458
sI1222
S'        def response(sql):'
p3459
sI1223
S'            self.execute(sql)'
p3460
sI1224
S'            return self.cursor.fetchall()'
p3461
sI1225
S'        sql = self._select(query,fields,attributes)'
p3462
sI1226
S"        if attributes.get('cache', None):"
p3463
sI1227
S"            (cache_model, time_expire) = attributes['cache']"
p3464
sI1228
S"            del attributes['cache']"
p3465
sI1229
S"            key = self.uri + '/' + sql"
p3466
ssg3353
S'(self=<gluon.dal.SQLiteAdapter object>, query=<gluon.dal.Query object>, fields=(), attributes={})'
p3467
sg3355
g3442
sa(dp3468
g3332
S'/home/ian/Dropbox/Web_Pages/web2py-linux/gluon/dal.py'
p3469
sg3334
(dp3470
S'query'
p3471
S'<gluon.dal.Query object>'
p3472
sS'self'
p3473
S'<gluon.dal.SQLiteAdapter object>'
p3474
sS'sql_w'
p3475
g3377
sS'self.expand'
p3476
S'<bound method SQLiteAdapter.expand of <gluon.dal.SQLiteAdapter object>>'
p3477
ssg3340
I1132
sg3341
(dp3478
I1127
S'        if len(tablenames) < 1:'
p3479
sI1128
S"            raise SyntaxError, 'Set: no tables selected'"
p3480
sI1129
S"        sql_f = ', '.join(map(self.expand,fields))"
p3481
sI1130
S"        self._colnames = [c.strip() for c in sql_f.split(', ')]"
p3482
sI1131
S'        if query:'
p3483
sI1132
S"            sql_w = ' WHERE ' + self.expand(query)"
p3484
sI1133
S'        else:'
p3485
sI1134
S"            sql_w = ''"
p3486
sI1135
S"        sql_o = ''"
p3487
sI1136
S"        sql_s = ''"
p3488
ssg3353
S'(self=<gluon.dal.SQLiteAdapter object>, query=<gluon.dal.Query object>, fields=[<gluon.dal.Field object>, <gluon.dal.Field object>, <gluon.dal.Field object>, <gluon.dal.Field object>], attributes={})'
p3489
sg3355
S'_select'
p3490
sa(dp3491
g3332
S'/home/ian/Dropbox/Web_Pages/web2py-linux/gluon/dal.py'
p3492
sg3334
(dp3493
S'expression.op'
p3494
S'<bound method SQLiteAdapter.CONTAINS of <gluon.dal.SQLiteAdapter object>>'
p3495
sS'expression'
p3496
S'<gluon.dal.Query object>'
p3497
sS'expression.first'
p3498
S'<gluon.dal.Field object>'
p3499
ssg3340
I989
sg3341
(dp3500
I992
S'            else:'
p3501
sI993
S"                return '(%s)' % expression.op"
p3502
sI984
S'            return str(expression)'
p3503
sI985
S'        elif isinstance(expression, (Expression, Query)):'
p3504
sI986
S'            if not expression.second is None:'
p3505
sI987
S'                return expression.op(expression.first, expression.second)'
p3506
sI988
S'            elif not expression.first is None:'
p3507
sI989
S'                return expression.op(expression.first)'
p3508
sI990
S'            elif not isinstance(expression.op,str):'
p3509
sI991
S'                return expression.op()'
p3510
ssg3353
S'(self=<gluon.dal.SQLiteAdapter object>, expression=<gluon.dal.Query object>, field_type=None)'
p3511
sg3355
S'expand'
p3512
sasS'pyver'
p3513
S'Python 2.7.1+: /usr/bin/python2.7'
p3514
sS'session'
p3515
g56
(g57
g58
NtRp3516
(dp3517
g61
(dp3518
sg63
(lp3519
g56
(g65
g58
NtRp3520
(dp3521
g61
(dp3522
g69
I5
ssg70
Nsg63
(lp3523
g56
(g72
g58
NtRp3524
(dp3525
g61
(dp3526
sg70
g3520
sg63
(lp3527
g56
(g77
g58
NtRp3528
(dp3529
g61
(dp3530
g81
g82
ssg70
g3524
sg63
(lp3531
S'last_query'
p3532
asbag56
(g77
g58
NtRp3533
(dp3534
g61
(dp3535
g88
g89
ssg70
g3524
sg63
(lp3536
S':'
asbag56
(g77
g58
NtRp3537
(dp3538
g61
(dp3539
sg70
g3524
sg63
(lp3540
g56
(g57
g58
NtRp3541
(dp3542
g61
(dp3543
g69
I5
ssg70
g3537
sg63
(lp3544
S'db.tags.id>0'
p3545
asbasbasbag56
(g72
g58
NtRp3546
(dp3547
g61
(dp3548
sg70
g3520
sg63
(lp3549
g56
(g77
g58
NtRp3550
(dp3551
g61
(dp3552
g81
g82
ssg70
g3546
sg63
(lp3553
S'tags'
p3554
asbag56
(g77
g58
NtRp3555
(dp3556
g61
(dp3557
g88
g89
ssg70
g3546
sg63
(lp3558
S':'
asbag56
(g77
g58
NtRp3559
(dp3560
g61
(dp3561
sg70
g3546
sg63
(lp3562
g56
(g57
g58
NtRp3563
(dp3564
g61
(dp3565
g69
I5
ssg70
g3559
sg63
(lp3566
cgluon.dal
Rows_unpickler
p3567
(S"(lp1\n(dp2\nS'tag'\np3\nS'kitchen'\np4\nsS'id'\np5\nI1\nsa(dp6\nS'tag'\np7\nS'kids'\np8\nsS'id'\np9\nI2\nsa(dp10\nS'tag'\np11\nS'research'\np12\nsS'id'\np13\nI3\nsa(dp14\nS'tag'\np15\nS'webdev'\np16\nsS'id'\np17\nI4\nsa(dp18\nS'tag'\np19\nS'photography'\np20\nsS'id'\np21\nI5\nsa(dp22\nS'tag'\np23\nS'entertainment'\np24\nsS'id'\np25\nI6\nsa(dp26\nS'tag'\np27\nS'games'\np28\nsS'id'\np29\nI7\nsa(dp30\nS'tag'\np31\nS'design'\np32\nsS'id'\np33\nI8\nsa(dp34\nS'tag'\np35\nS'research'\np36\nsS'id'\np37\nI9\nsa."
tRp3568
asbasbasbasbasbsS'etype'
p3569
S"<type 'exceptions.TypeError'>"
p3570
sS'date'
p3571
S'Fri Sep 30 15:54:15 2011'
p3572
sS'response'
p3573
g56
(g57
g58
NtRp3574
(dp3575
g61
(dp3576
sg63
(lp3577
g56
(g65
g58
NtRp3578
(dp3579
g61
(dp3580
g69
I5
ssg70
Nsg63
(lp3581
g56
(g72
g58
NtRp3582
(dp3583
g61
(dp3584
sg70
g3578
sg63
(lp3585
g56
(g77
g58
NtRp3586
(dp3587
g61
(dp3588
g81
g82
ssg70
g3582
sg63
(lp3589
g154
asbag56
(g77
g58
NtRp3590
(dp3591
g61
(dp3592
g88
g89
ssg70
g3582
sg63
(lp3593
S':'
asbag56
(g77
g58
NtRp3594
(dp3595
g61
(dp3596
sg70
g3582
sg63
(lp3597
g56
(g57
g58
NtRp3598
(dp3599
g61
(dp3600
g69
I5
ssg70
g3594
sg63
(lp3601
S'<cStringIO.StringO object at 0x36dbb90>'
p3602
asbasbasbag56
(g72
g58
NtRp3603
(dp3604
g61
(dp3605
sg70
g3578
sg63
(lp3606
g56
(g77
g58
NtRp3607
(dp3608
g61
(dp3609
g81
g82
ssg70
g3603
sg63
(lp3610
g220
asbag56
(g77
g58
NtRp3611
(dp3612
g61
(dp3613
g88
g89
ssg70
g3603
sg63
(lp3614
S':'
asbag56
(g77
g58
NtRp3615
(dp3616
g61
(dp3617
sg70
g3603
sg63
(lp3618
g56
(g57
g58
NtRp3619
(dp3620
g61
(dp3621
g69
I5
ssg70
g3615
sg63
(lp3622
g56
(g65
g58
NtRp3623
(dp3624
g61
(dp3625
g69
I4
ssg70
Nsg63
(lp3626
g56
(g72
g58
NtRp3627
(dp3628
g61
(dp3629
sg70
g3623
sg63
(lp3630
g56
(g77
g58
NtRp3631
(dp3632
g61
(dp3633
g81
g82
ssg70
g3627
sg63
(lp3634
S'session_id_places'
p3635
asbag56
(g77
g58
NtRp3636
(dp3637
g61
(dp3638
g88
g89
ssg70
g3627
sg63
(lp3639
S':'
asbag56
(g77
g58
NtRp3640
(dp3641
g61
(dp3642
sg70
g3627
sg63
(lp3643
g56
(g57
g58
NtRp3644
(dp3645
g61
(dp3646
g69
I4
ssg70
g3640
sg63
(lp3647
g56
(g65
g58
NtRp3648
(dp3649
g61
(dp3650
g69
I3
ssg70
Nsg63
(lp3651
g56
(g72
g58
NtRp3652
(dp3653
g61
(dp3654
sg70
g3648
sg63
(lp3655
g56
(g77
g58
NtRp3656
(dp3657
g61
(dp3658
g81
g82
ssg70
g3652
sg63
(lp3659
g270
asbag56
(g77
g58
NtRp3660
(dp3661
g61
(dp3662
g88
g89
ssg70
g3652
sg63
(lp3663
S':'
asbag56
(g77
g58
NtRp3664
(dp3665
g61
(dp3666
sg70
g3652
sg63
(lp3667
g56
(g57
g58
NtRp3668
(dp3669
g61
(dp3670
g69
I3
ssg70
g3664
sg63
(lp3671
S''
asbasbasbag56
(g72
g58
NtRp3672
(dp3673
g61
(dp3674
sg70
g3648
sg63
(lp3675
g56
(g77
g58
NtRp3676
(dp3677
g61
(dp3678
g81
g82
ssg70
g3672
sg63
(lp3679
g291
asbag56
(g77
g58
NtRp3680
(dp3681
g61
(dp3682
g88
g89
ssg70
g3672
sg63
(lp3683
S':'
asbag56
(g77
g58
NtRp3684
(dp3685
g61
(dp3686
sg70
g3672
sg63
(lp3687
g56
(g57
g58
NtRp3688
(dp3689
g61
(dp3690
g69
I3
ssg70
g3684
sg63
(lp3691
S''
asbasbasbag56
(g72
g58
NtRp3692
(dp3693
g61
(dp3694
sg70
g3648
sg63
(lp3695
g56
(g77
g58
NtRp3696
(dp3697
g61
(dp3698
g81
g82
ssg70
g3692
sg63
(lp3699
g312
asbag56
(g77
g58
NtRp3700
(dp3701
g61
(dp3702
g88
g89
ssg70
g3692
sg63
(lp3703
S':'
asbag56
(g77
g58
NtRp3704
(dp3705
g61
(dp3706
sg70
g3692
sg63
(lp3707
g56
(g57
g58
NtRp3708
(dp3709
g61
(dp3710
g69
I3
ssg70
g3704
sg63
(lp3711
S''
asbasbasbag56
(g72
g58
NtRp3712
(dp3713
g61
(dp3714
sg70
g3648
sg63
(lp3715
g56
(g77
g58
NtRp3716
(dp3717
g61
(dp3718
g81
g82
ssg70
g3712
sg63
(lp3719
g333
asbag56
(g77
g58
NtRp3720
(dp3721
g61
(dp3722
g88
g89
ssg70
g3712
sg63
(lp3723
S':'
asbag56
(g77
g58
NtRp3724
(dp3725
g61
(dp3726
sg70
g3712
sg63
(lp3727
g56
(g57
g58
NtRp3728
(dp3729
g61
(dp3730
g69
I3
ssg70
g3724
sg63
(lp3731
S''
asbasbasbag56
(g72
g58
NtRp3732
(dp3733
g61
(dp3734
sg70
g3648
sg63
(lp3735
g56
(g77
g58
NtRp3736
(dp3737
g61
(dp3738
g81
g82
ssg70
g3732
sg63
(lp3739
g354
asbag56
(g77
g58
NtRp3740
(dp3741
g61
(dp3742
g88
g89
ssg70
g3732
sg63
(lp3743
S':'
asbag56
(g77
g58
NtRp3744
(dp3745
g61
(dp3746
sg70
g3732
sg63
(lp3747
g56
(g57
g58
NtRp3748
(dp3749
g61
(dp3750
g69
I3
ssg70
g3744
sg63
(lp3751
S''
asbasbasbag56
(g72
g58
NtRp3752
(dp3753
g61
(dp3754
sg70
g3648
sg63
(lp3755
g56
(g77
g58
NtRp3756
(dp3757
g61
(dp3758
g81
g82
ssg70
g3752
sg63
(lp3759
g375
asbag56
(g77
g58
NtRp3760
(dp3761
g61
(dp3762
g88
g89
ssg70
g3752
sg63
(lp3763
S':'
asbag56
(g77
g58
NtRp3764
(dp3765
g61
(dp3766
sg70
g3752
sg63
(lp3767
g56
(g57
g58
NtRp3768
(dp3769
g61
(dp3770
g69
I3
ssg70
g3764
sg63
(lp3771
S'/'
asbasbasbag56
(g72
g58
NtRp3772
(dp3773
g61
(dp3774
sg70
g3648
sg63
(lp3775
g56
(g77
g58
NtRp3776
(dp3777
g61
(dp3778
g81
g82
ssg70
g3772
sg63
(lp3779
g396
asbag56
(g77
g58
NtRp3780
(dp3781
g61
(dp3782
g88
g89
ssg70
g3772
sg63
(lp3783
S':'
asbag56
(g77
g58
NtRp3784
(dp3785
g61
(dp3786
sg70
g3772
sg63
(lp3787
g56
(g57
g58
NtRp3788
(dp3789
g61
(dp3790
g69
I3
ssg70
g3784
sg63
(lp3791
S''
asbasbasbag56
(g72
g58
NtRp3792
(dp3793
g61
(dp3794
sg70
g3648
sg63
(lp3795
g56
(g77
g58
NtRp3796
(dp3797
g61
(dp3798
g81
g82
ssg70
g3792
sg63
(lp3799
g417
asbag56
(g77
g58
NtRp3800
(dp3801
g61
(dp3802
g88
g89
ssg70
g3792
sg63
(lp3803
S':'
asbag56
(g77
g58
NtRp3804
(dp3805
g61
(dp3806
sg70
g3792
sg63
(lp3807
g56
(g57
g58
NtRp3808
(dp3809
g61
(dp3810
g69
I3
ssg70
g3804
sg63
(lp3811
S''
asbasbasbasbasbasbasbasbasbasbasbag56
(g72
g58
NtRp3812
(dp3813
g61
(dp3814
sg70
g3578
sg63
(lp3815
g56
(g77
g58
NtRp3816
(dp3817
g61
(dp3818
g81
g82
ssg70
g3812
sg63
(lp3819
S'files'
p3820
asbag56
(g77
g58
NtRp3821
(dp3822
g61
(dp3823
g88
g89
ssg70
g3812
sg63
(lp3824
S':'
asbag56
(g77
g58
NtRp3825
(dp3826
g61
(dp3827
sg70
g3812
sg63
(lp3828
g56
(g57
g58
NtRp3829
(dp3830
g61
(dp3831
g69
I5
ssg70
g3825
sg63
(lp3832
g56
(g65
g58
NtRp3833
(dp3834
g61
(dp3835
g69
I4
ssg70
Nsg63
(lp3836
sbasbasbasbag56
(g72
g58
NtRp3837
(dp3838
g61
(dp3839
sg70
g3578
sg63
(lp3840
g56
(g77
g58
NtRp3841
(dp3842
g61
(dp3843
g81
g82
ssg70
g3837
sg63
(lp3844
S'flash'
p3845
asbag56
(g77
g58
NtRp3846
(dp3847
g61
(dp3848
g88
g89
ssg70
g3837
sg63
(lp3849
S':'
asbag56
(g77
g58
NtRp3850
(dp3851
g61
(dp3852
sg70
g3837
sg63
(lp3853
g56
(g57
g58
NtRp3854
(dp3855
g61
(dp3856
g69
I5
ssg70
g3850
sg63
(lp3857
S''
asbasbasbag56
(g72
g58
NtRp3858
(dp3859
g61
(dp3860
sg70
g3578
sg63
(lp3861
g56
(g77
g58
NtRp3862
(dp3863
g61
(dp3864
g81
g82
ssg70
g3858
sg63
(lp3865
S'generic_patterns'
p3866
asbag56
(g77
g58
NtRp3867
(dp3868
g61
(dp3869
g88
g89
ssg70
g3858
sg63
(lp3870
S':'
asbag56
(g77
g58
NtRp3871
(dp3872
g61
(dp3873
sg70
g3858
sg63
(lp3874
g56
(g57
g58
NtRp3875
(dp3876
g61
(dp3877
g69
I5
ssg70
g3871
sg63
(lp3878
g56
(g65
g58
NtRp3879
(dp3880
g61
(dp3881
g69
I4
ssg70
Nsg63
(lp3882
g56
(g72
g58
NtRp3883
(dp3884
g61
(dp3885
sg70
g3879
sg63
(lp3886
g56
(g77
g58
NtRp3887
(dp3888
g61
(dp3889
sg70
g3883
sg63
(lp3890
g56
(g57
g58
NtRp3891
(dp3892
g61
(dp3893
g69
I4
ssg70
g3887
sg63
(lp3894
S'*'
asbasbasbasbasbasbasbag56
(g72
g58
NtRp3895
(dp3896
g61
(dp3897
sg70
g3578
sg63
(lp3898
g56
(g77
g58
NtRp3899
(dp3900
g61
(dp3901
g81
g82
ssg70
g3895
sg63
(lp3902
S'headers'
p3903
asbag56
(g77
g58
NtRp3904
(dp3905
g61
(dp3906
g88
g89
ssg70
g3895
sg63
(lp3907
S':'
asbag56
(g77
g58
NtRp3908
(dp3909
g61
(dp3910
sg70
g3895
sg63
(lp3911
g56
(g57
g58
NtRp3912
(dp3913
g61
(dp3914
g69
I5
ssg70
g3908
sg63
(lp3915
g56
(g65
g58
NtRp3916
(dp3917
g61
(dp3918
g69
I4
ssg70
Nsg63
(lp3919
g56
(g72
g58
NtRp3920
(dp3921
g61
(dp3922
sg70
g3916
sg63
(lp3923
g56
(g77
g58
NtRp3924
(dp3925
g61
(dp3926
g81
g82
ssg70
g3920
sg63
(lp3927
S'Cache-Control'
p3928
asbag56
(g77
g58
NtRp3929
(dp3930
g61
(dp3931
g88
g89
ssg70
g3920
sg63
(lp3932
S':'
asbag56
(g77
g58
NtRp3933
(dp3934
g61
(dp3935
sg70
g3920
sg63
(lp3936
g56
(g57
g58
NtRp3937
(dp3938
g61
(dp3939
g69
I4
ssg70
g3933
sg63
(lp3940
S'no-store, no-cache, must-revalidate, post-check=0, pre-check=0'
p3941
asbasbasbag56
(g72
g58
NtRp3942
(dp3943
g61
(dp3944
sg70
g3916
sg63
(lp3945
g56
(g77
g58
NtRp3946
(dp3947
g61
(dp3948
g81
g82
ssg70
g3942
sg63
(lp3949
S'Content-Type'
p3950
asbag56
(g77
g58
NtRp3951
(dp3952
g61
(dp3953
g88
g89
ssg70
g3942
sg63
(lp3954
S':'
asbag56
(g77
g58
NtRp3955
(dp3956
g61
(dp3957
sg70
g3942
sg63
(lp3958
g56
(g57
g58
NtRp3959
(dp3960
g61
(dp3961
g69
I4
ssg70
g3955
sg63
(lp3962
S'text/html; charset=utf-8'
p3963
asbasbasbag56
(g72
g58
NtRp3964
(dp3965
g61
(dp3966
sg70
g3916
sg63
(lp3967
g56
(g77
g58
NtRp3968
(dp3969
g61
(dp3970
g81
g82
ssg70
g3964
sg63
(lp3971
S'Expires'
p3972
asbag56
(g77
g58
NtRp3973
(dp3974
g61
(dp3975
g88
g89
ssg70
g3964
sg63
(lp3976
S':'
asbag56
(g77
g58
NtRp3977
(dp3978
g61
(dp3979
sg70
g3964
sg63
(lp3980
g56
(g57
g58
NtRp3981
(dp3982
g61
(dp3983
g69
I4
ssg70
g3977
sg63
(lp3984
S'Fri, 30 Sep 2011 19:54:15 GMT'
p3985
asbasbasbag56
(g72
g58
NtRp3986
(dp3987
g61
(dp3988
sg70
g3916
sg63
(lp3989
g56
(g77
g58
NtRp3990
(dp3991
g61
(dp3992
g81
g82
ssg70
g3986
sg63
(lp3993
S'Pragma'
p3994
asbag56
(g77
g58
NtRp3995
(dp3996
g61
(dp3997
g88
g89
ssg70
g3986
sg63
(lp3998
S':'
asbag56
(g77
g58
NtRp3999
(dp4000
g61
(dp4001
sg70
g3986
sg63
(lp4002
g56
(g57
g58
NtRp4003
(dp4004
g61
(dp4005
g69
I4
ssg70
g3999
sg63
(lp4006
S'no-cache'
p4007
asbasbasbag56
(g72
g58
NtRp4008
(dp4009
g61
(dp4010
sg70
g3916
sg63
(lp4011
g56
(g77
g58
NtRp4012
(dp4013
g61
(dp4014
g81
g82
ssg70
g4008
sg63
(lp4015
S'X-Powered-By'
p4016
asbag56
(g77
g58
NtRp4017
(dp4018
g61
(dp4019
g88
g89
ssg70
g4008
sg63
(lp4020
S':'
asbag56
(g77
g58
NtRp4021
(dp4022
g61
(dp4023
sg70
g4008
sg63
(lp4024
g56
(g57
g58
NtRp4025
(dp4026
g61
(dp4027
g69
I4
ssg70
g4021
sg63
(lp4028
S'web2py'
p4029
asbasbasbasbasbasbasbag56
(g72
g58
NtRp4030
(dp4031
g61
(dp4032
sg70
g3578
sg63
(lp4033
g56
(g77
g58
NtRp4034
(dp4035
g61
(dp4036
g81
g82
ssg70
g4030
sg63
(lp4037
S'menu'
p4038
asbag56
(g77
g58
NtRp4039
(dp4040
g61
(dp4041
g88
g89
ssg70
g4030
sg63
(lp4042
S':'
asbag56
(g77
g58
NtRp4043
(dp4044
g61
(dp4045
sg70
g4030
sg63
(lp4046
g56
(g57
g58
NtRp4047
(dp4048
g61
(dp4049
g69
I5
ssg70
g4043
sg63
(lp4050
g56
(g65
g58
NtRp4051
(dp4052
g61
(dp4053
g69
I4
ssg70
Nsg63
(lp4054
g56
(g72
g58
NtRp4055
(dp4056
g61
(dp4057
sg70
g4051
sg63
(lp4058
g56
(g77
g58
NtRp4059
(dp4060
g61
(dp4061
sg70
g4055
sg63
(lp4062
g56
(g57
g58
NtRp4063
(dp4064
g61
(dp4065
g69
I4
ssg70
g4059
sg63
(lp4066
g56
(g65
g58
NtRp4067
(dp4068
g61
(dp4069
g69
I3
ssg70
Nsg63
(lp4070
g56
(g72
g58
NtRp4071
(dp4072
g61
(dp4073
sg70
g4067
sg63
(lp4074
g56
(g77
g58
NtRp4075
(dp4076
g61
(dp4077
sg70
g4071
sg63
(lp4078
g56
(g57
g58
NtRp4079
(dp4080
g61
(dp4081
g69
I3
ssg70
g4075
sg63
(lp4082
cgluon.languages
lazyT_unpickle
p4083
(S't\x04\x00\x00\x00Home'
tRp4084
asbasbasbag56
(g72
g58
NtRp4085
(dp4086
g61
(dp4087
sg70
g4067
sg63
(lp4088
g56
(g77
g58
NtRp4089
(dp4090
g61
(dp4091
sg70
g4085
sg63
(lp4092
g56
(g57
g58
NtRp4093
(dp4094
g61
(dp4095
g69
I3
ssg70
g4089
sg63
(lp4096
g99
asbasbasbag56
(g72
g58
NtRp4097
(dp4098
g61
(dp4099
sg70
g4067
sg63
(lp4100
g56
(g77
g58
NtRp4101
(dp4102
g61
(dp4103
sg70
g4097
sg63
(lp4104
g56
(g57
g58
NtRp4105
(dp4106
g61
(dp4107
g69
I3
ssg70
g4101
sg63
(lp4108
S'/places/default/index'
p4109
asbasbasbag56
(g72
g58
NtRp4110
(dp4111
g61
(dp4112
sg70
g4067
sg63
(lp4113
g56
(g77
g58
NtRp4114
(dp4115
g61
(dp4116
sg70
g4110
sg63
(lp4117
g56
(g57
g58
NtRp4118
(dp4119
g61
(dp4120
g69
I3
ssg70
g4114
sg63
(lp4121
g56
(g65
g58
NtRp4122
(dp4123
g61
(dp4124
g69
I2
ssg70
Nsg63
(lp4125
sbasbasbasbasbasbasbasbag56
(g72
g58
NtRp4126
(dp4127
g61
(dp4128
sg70
g4051
sg63
(lp4129
g56
(g77
g58
NtRp4130
(dp4131
g61
(dp4132
sg70
g4126
sg63
(lp4133
g56
(g57
g58
NtRp4134
(dp4135
g61
(dp4136
g69
I4
ssg70
g4130
sg63
(lp4137
g56
(g65
g58
NtRp4138
(dp4139
g61
(dp4140
g69
I3
ssg70
Nsg63
(lp4141
g56
(g72
g58
NtRp4142
(dp4143
g61
(dp4144
sg70
g4138
sg63
(lp4145
g56
(g77
g58
NtRp4146
(dp4147
g61
(dp4148
sg70
g4142
sg63
(lp4149
g56
(g57
g58
NtRp4150
(dp4151
g61
(dp4152
g69
I3
ssg70
g4146
sg63
(lp4153
g4083
(S's\x08\x00\x00\x00This App'
tRp4154
asbasbasbag56
(g72
g58
NtRp4155
(dp4156
g61
(dp4157
sg70
g4138
sg63
(lp4158
g56
(g77
g58
NtRp4159
(dp4160
g61
(dp4161
sg70
g4155
sg63
(lp4162
g56
(g57
g58
NtRp4163
(dp4164
g61
(dp4165
g69
I3
ssg70
g4159
sg63
(lp4166
g99
asbasbasbag56
(g72
g58
NtRp4167
(dp4168
g61
(dp4169
sg70
g4138
sg63
(lp4170
g56
(g77
g58
NtRp4171
(dp4172
g61
(dp4173
sg70
g4167
sg63
(lp4174
g56
(g57
g58
NtRp4175
(dp4176
g61
(dp4177
g69
I3
ssg70
g4171
sg63
(lp4178
S'/admin/default/design/places'
p4179
asbasbasbag56
(g72
g58
NtRp4180
(dp4181
g61
(dp4182
sg70
g4138
sg63
(lp4183
g56
(g77
g58
NtRp4184
(dp4185
g61
(dp4186
sg70
g4180
sg63
(lp4187
g56
(g57
g58
NtRp4188
(dp4189
g61
(dp4190
g69
I3
ssg70
g4184
sg63
(lp4191
g56
(g65
g58
NtRp4192
(dp4193
g61
(dp4194
g69
I2
ssg70
Nsg63
(lp4195
g56
(g72
g58
NtRp4196
(dp4197
g61
(dp4198
sg70
g4192
sg63
(lp4199
g56
(g77
g58
NtRp4200
(dp4201
g61
(dp4202
sg70
g4196
sg63
(lp4203
g56
(g57
g58
NtRp4204
(dp4205
g61
(dp4206
g69
I2
ssg70
g4200
sg63
(lp4207
g56
(g65
g58
NtRp4208
(dp4209
g61
(dp4210
g69
I1
ssg70
Nsg63
(lp4211
g56
(g72
g58
NtRp4212
(dp4213
g61
(dp4214
sg70
g4208
sg63
(lp4215
g56
(g77
g58
NtRp4216
(dp4217
g61
(dp4218
sg70
g4212
sg63
(lp4219
g56
(g57
g58
NtRp4220
(dp4221
g61
(dp4222
g69
I1
ssg70
g4216
sg63
(lp4223
g4083
(S't\n\x00\x00\x00Controller'
tRp4224
asbasbasbag56
(g72
g58
NtRp4225
(dp4226
g61
(dp4227
sg70
g4208
sg63
(lp4228
g56
(g77
g58
NtRp4229
(dp4230
g61
(dp4231
sg70
g4225
sg63
(lp4232
g56
(g57
g58
NtRp4233
(dp4234
g61
(dp4235
g69
I1
ssg70
g4229
sg63
(lp4236
I00
asbasbasbag56
(g72
g58
NtRp4237
(dp4238
g61
(dp4239
sg70
g4208
sg63
(lp4240
g56
(g77
g58
NtRp4241
(dp4242
g61
(dp4243
sg70
g4237
sg63
(lp4244
g56
(g57
g58
NtRp4245
(dp4246
g61
(dp4247
g69
I1
ssg70
g4241
sg63
(lp4248
S'/admin/default/edit/places/controllers/default.py'
p4249
asbasbasbasbasbasbasbag56
(g72
g58
NtRp4250
(dp4251
g61
(dp4252
sg70
g4192
sg63
(lp4253
g56
(g77
g58
NtRp4254
(dp4255
g61
(dp4256
sg70
g4250
sg63
(lp4257
g56
(g57
g58
NtRp4258
(dp4259
g61
(dp4260
g69
I2
ssg70
g4254
sg63
(lp4261
g56
(g65
g58
NtRp4262
(dp4263
g61
(dp4264
g69
I1
ssg70
Nsg63
(lp4265
g56
(g72
g58
NtRp4266
(dp4267
g61
(dp4268
sg70
g4262
sg63
(lp4269
g56
(g77
g58
NtRp4270
(dp4271
g61
(dp4272
sg70
g4266
sg63
(lp4273
g56
(g57
g58
NtRp4274
(dp4275
g61
(dp4276
g69
I1
ssg70
g4270
sg63
(lp4277
g4083
(S't\x04\x00\x00\x00View'
tRp4278
asbasbasbag56
(g72
g58
NtRp4279
(dp4280
g61
(dp4281
sg70
g4262
sg63
(lp4282
g56
(g77
g58
NtRp4283
(dp4284
g61
(dp4285
sg70
g4279
sg63
(lp4286
g56
(g57
g58
NtRp4287
(dp4288
g61
(dp4289
g69
I1
ssg70
g4283
sg63
(lp4290
I00
asbasbasbag56
(g72
g58
NtRp4291
(dp4292
g61
(dp4293
sg70
g4262
sg63
(lp4294
g56
(g77
g58
NtRp4295
(dp4296
g61
(dp4297
sg70
g4291
sg63
(lp4298
g56
(g57
g58
NtRp4299
(dp4300
g61
(dp4301
g69
I1
ssg70
g4295
sg63
(lp4302
S'/admin/default/edit/places/views/default/index.html'
p4303
asbasbasbasbasbasbasbag56
(g72
g58
NtRp4304
(dp4305
g61
(dp4306
sg70
g4192
sg63
(lp4307
g56
(g77
g58
NtRp4308
(dp4309
g61
(dp4310
sg70
g4304
sg63
(lp4311
g56
(g57
g58
NtRp4312
(dp4313
g61
(dp4314
g69
I2
ssg70
g4308
sg63
(lp4315
g56
(g65
g58
NtRp4316
(dp4317
g61
(dp4318
g69
I1
ssg70
Nsg63
(lp4319
g56
(g72
g58
NtRp4320
(dp4321
g61
(dp4322
sg70
g4316
sg63
(lp4323
g56
(g77
g58
NtRp4324
(dp4325
g61
(dp4326
sg70
g4320
sg63
(lp4327
g56
(g57
g58
NtRp4328
(dp4329
g61
(dp4330
g69
I1
ssg70
g4324
sg63
(lp4331
g4083
(S't\x06\x00\x00\x00Layout'
tRp4332
asbasbasbag56
(g72
g58
NtRp4333
(dp4334
g61
(dp4335
sg70
g4316
sg63
(lp4336
g56
(g77
g58
NtRp4337
(dp4338
g61
(dp4339
sg70
g4333
sg63
(lp4340
g56
(g57
g58
NtRp4341
(dp4342
g61
(dp4343
g69
I1
ssg70
g4337
sg63
(lp4344
I00
asbasbasbag56
(g72
g58
NtRp4345
(dp4346
g61
(dp4347
sg70
g4316
sg63
(lp4348
g56
(g77
g58
NtRp4349
(dp4350
g61
(dp4351
sg70
g4345
sg63
(lp4352
g56
(g57
g58
NtRp4353
(dp4354
g61
(dp4355
g69
I1
ssg70
g4349
sg63
(lp4356
S'/admin/default/edit/places/views/layout.html'
p4357
asbasbasbasbasbasbasbag56
(g72
g58
NtRp4358
(dp4359
g61
(dp4360
sg70
g4192
sg63
(lp4361
g56
(g77
g58
NtRp4362
(dp4363
g61
(dp4364
sg70
g4358
sg63
(lp4365
g56
(g57
g58
NtRp4366
(dp4367
g61
(dp4368
g69
I2
ssg70
g4362
sg63
(lp4369
g56
(g65
g58
NtRp4370
(dp4371
g61
(dp4372
g69
I1
ssg70
Nsg63
(lp4373
g56
(g72
g58
NtRp4374
(dp4375
g61
(dp4376
sg70
g4370
sg63
(lp4377
g56
(g77
g58
NtRp4378
(dp4379
g61
(dp4380
sg70
g4374
sg63
(lp4381
g56
(g57
g58
NtRp4382
(dp4383
g61
(dp4384
g69
I1
ssg70
g4378
sg63
(lp4385
g4083
(S't\n\x00\x00\x00Stylesheet'
tRp4386
asbasbasbag56
(g72
g58
NtRp4387
(dp4388
g61
(dp4389
sg70
g4370
sg63
(lp4390
g56
(g77
g58
NtRp4391
(dp4392
g61
(dp4393
sg70
g4387
sg63
(lp4394
g56
(g57
g58
NtRp4395
(dp4396
g61
(dp4397
g69
I1
ssg70
g4391
sg63
(lp4398
I00
asbasbasbag56
(g72
g58
NtRp4399
(dp4400
g61
(dp4401
sg70
g4370
sg63
(lp4402
g56
(g77
g58
NtRp4403
(dp4404
g61
(dp4405
sg70
g4399
sg63
(lp4406
g56
(g57
g58
NtRp4407
(dp4408
g61
(dp4409
g69
I1
ssg70
g4403
sg63
(lp4410
S'/admin/default/edit/places/static/base.css'
p4411
asbasbasbasbasbasbasbag56
(g72
g58
NtRp4412
(dp4413
g61
(dp4414
sg70
g4192
sg63
(lp4415
g56
(g77
g58
NtRp4416
(dp4417
g61
(dp4418
sg70
g4412
sg63
(lp4419
g56
(g57
g58
NtRp4420
(dp4421
g61
(dp4422
g69
I2
ssg70
g4416
sg63
(lp4423
g56
(g65
g58
NtRp4424
(dp4425
g61
(dp4426
g69
I1
ssg70
Nsg63
(lp4427
g56
(g72
g58
NtRp4428
(dp4429
g61
(dp4430
sg70
g4424
sg63
(lp4431
g56
(g77
g58
NtRp4432
(dp4433
g61
(dp4434
sg70
g4428
sg63
(lp4435
g56
(g57
g58
NtRp4436
(dp4437
g61
(dp4438
g69
I1
ssg70
g4432
sg63
(lp4439
g4083
(S's\x08\x00\x00\x00DB Model'
tRp4440
asbasbasbag56
(g72
g58
NtRp4441
(dp4442
g61
(dp4443
sg70
g4424
sg63
(lp4444
g56
(g77
g58
NtRp4445
(dp4446
g61
(dp4447
sg70
g4441
sg63
(lp4448
g56
(g57
g58
NtRp4449
(dp4450
g61
(dp4451
g69
I1
ssg70
g4445
sg63
(lp4452
I00
asbasbasbag56
(g72
g58
NtRp4453
(dp4454
g61
(dp4455
sg70
g4424
sg63
(lp4456
g56
(g77
g58
NtRp4457
(dp4458
g61
(dp4459
sg70
g4453
sg63
(lp4460
g56
(g57
g58
NtRp4461
(dp4462
g61
(dp4463
g69
I1
ssg70
g4457
sg63
(lp4464
S'/admin/default/edit/places/models/db.py'
p4465
asbasbasbasbasbasbasbag56
(g72
g58
NtRp4466
(dp4467
g61
(dp4468
sg70
g4192
sg63
(lp4469
g56
(g77
g58
NtRp4470
(dp4471
g61
(dp4472
sg70
g4466
sg63
(lp4473
g56
(g57
g58
NtRp4474
(dp4475
g61
(dp4476
g69
I2
ssg70
g4470
sg63
(lp4477
g56
(g65
g58
NtRp4478
(dp4479
g61
(dp4480
g69
I1
ssg70
Nsg63
(lp4481
g56
(g72
g58
NtRp4482
(dp4483
g61
(dp4484
sg70
g4478
sg63
(lp4485
g56
(g77
g58
NtRp4486
(dp4487
g61
(dp4488
sg70
g4482
sg63
(lp4489
g56
(g57
g58
NtRp4490
(dp4491
g61
(dp4492
g69
I1
ssg70
g4486
sg63
(lp4493
g4083
(S's\n\x00\x00\x00Menu Model'
tRp4494
asbasbasbag56
(g72
g58
NtRp4495
(dp4496
g61
(dp4497
sg70
g4478
sg63
(lp4498
g56
(g77
g58
NtRp4499
(dp4500
g61
(dp4501
sg70
g4495
sg63
(lp4502
g56
(g57
g58
NtRp4503
(dp4504
g61
(dp4505
g69
I1
ssg70
g4499
sg63
(lp4506
I00
asbasbasbag56
(g72
g58
NtRp4507
(dp4508
g61
(dp4509
sg70
g4478
sg63
(lp4510
g56
(g77
g58
NtRp4511
(dp4512
g61
(dp4513
sg70
g4507
sg63
(lp4514
g56
(g57
g58
NtRp4515
(dp4516
g61
(dp4517
g69
I1
ssg70
g4511
sg63
(lp4518
S'/admin/default/edit/places/models/menu.py'
p4519
asbasbasbasbasbasbasbag56
(g72
g58
NtRp4520
(dp4521
g61
(dp4522
sg70
g4192
sg63
(lp4523
g56
(g77
g58
NtRp4524
(dp4525
g61
(dp4526
sg70
g4520
sg63
(lp4527
g56
(g57
g58
NtRp4528
(dp4529
g61
(dp4530
g69
I2
ssg70
g4524
sg63
(lp4531
g56
(g65
g58
NtRp4532
(dp4533
g61
(dp4534
g69
I1
ssg70
Nsg63
(lp4535
g56
(g72
g58
NtRp4536
(dp4537
g61
(dp4538
sg70
g4532
sg63
(lp4539
g56
(g77
g58
NtRp4540
(dp4541
g61
(dp4542
sg70
g4536
sg63
(lp4543
g56
(g57
g58
NtRp4544
(dp4545
g61
(dp4546
g69
I1
ssg70
g4540
sg63
(lp4547
g4083
(S't\x08\x00\x00\x00Database'
tRp4548
asbasbasbag56
(g72
g58
NtRp4549
(dp4550
g61
(dp4551
sg70
g4532
sg63
(lp4552
g56
(g77
g58
NtRp4553
(dp4554
g61
(dp4555
sg70
g4549
sg63
(lp4556
g56
(g57
g58
NtRp4557
(dp4558
g61
(dp4559
g69
I1
ssg70
g4553
sg63
(lp4560
I00
asbasbasbag56
(g72
g58
NtRp4561
(dp4562
g61
(dp4563
sg70
g4532
sg63
(lp4564
g56
(g77
g58
NtRp4565
(dp4566
g61
(dp4567
sg70
g4561
sg63
(lp4568
g56
(g57
g58
NtRp4569
(dp4570
g61
(dp4571
g69
I1
ssg70
g4565
sg63
(lp4572
S'/places/appadmin/index'
p4573
asbasbasbasbasbasbasbag56
(g72
g58
NtRp4574
(dp4575
g61
(dp4576
sg70
g4192
sg63
(lp4577
g56
(g77
g58
NtRp4578
(dp4579
g61
(dp4580
sg70
g4574
sg63
(lp4581
g56
(g57
g58
NtRp4582
(dp4583
g61
(dp4584
g69
I2
ssg70
g4578
sg63
(lp4585
g56
(g65
g58
NtRp4586
(dp4587
g61
(dp4588
g69
I1
ssg70
Nsg63
(lp4589
g56
(g72
g58
NtRp4590
(dp4591
g61
(dp4592
sg70
g4586
sg63
(lp4593
g56
(g77
g58
NtRp4594
(dp4595
g61
(dp4596
sg70
g4590
sg63
(lp4597
g56
(g57
g58
NtRp4598
(dp4599
g61
(dp4600
g69
I1
ssg70
g4594
sg63
(lp4601
g4083
(S't\x06\x00\x00\x00Errors'
tRp4602
asbasbasbag56
(g72
g58
NtRp4603
(dp4604
g61
(dp4605
sg70
g4586
sg63
(lp4606
g56
(g77
g58
NtRp4607
(dp4608
g61
(dp4609
sg70
g4603
sg63
(lp4610
g56
(g57
g58
NtRp4611
(dp4612
g61
(dp4613
g69
I1
ssg70
g4607
sg63
(lp4614
I00
asbasbasbag56
(g72
g58
NtRp4615
(dp4616
g61
(dp4617
sg70
g4586
sg63
(lp4618
g56
(g77
g58
NtRp4619
(dp4620
g61
(dp4621
sg70
g4615
sg63
(lp4622
g56
(g57
g58
NtRp4623
(dp4624
g61
(dp4625
g69
I1
ssg70
g4619
sg63
(lp4626
S'/admin/default/errors/places'
p4627
asbasbasbasbasbasbasbag56
(g72
g58
NtRp4628
(dp4629
g61
(dp4630
sg70
g4192
sg63
(lp4631
g56
(g77
g58
NtRp4632
(dp4633
g61
(dp4634
sg70
g4628
sg63
(lp4635
g56
(g57
g58
NtRp4636
(dp4637
g61
(dp4638
g69
I2
ssg70
g4632
sg63
(lp4639
g56
(g65
g58
NtRp4640
(dp4641
g61
(dp4642
g69
I1
ssg70
Nsg63
(lp4643
g56
(g72
g58
NtRp4644
(dp4645
g61
(dp4646
sg70
g4640
sg63
(lp4647
g56
(g77
g58
NtRp4648
(dp4649
g61
(dp4650
sg70
g4644
sg63
(lp4651
g56
(g57
g58
NtRp4652
(dp4653
g61
(dp4654
g69
I1
ssg70
g4648
sg63
(lp4655
g4083
(S't\x05\x00\x00\x00About'
tRp4656
asbasbasbag56
(g72
g58
NtRp4657
(dp4658
g61
(dp4659
sg70
g4640
sg63
(lp4660
g56
(g77
g58
NtRp4661
(dp4662
g61
(dp4663
sg70
g4657
sg63
(lp4664
g56
(g57
g58
NtRp4665
(dp4666
g61
(dp4667
g69
I1
ssg70
g4661
sg63
(lp4668
I00
asbasbasbag56
(g72
g58
NtRp4669
(dp4670
g61
(dp4671
sg70
g4640
sg63
(lp4672
g56
(g77
g58
NtRp4673
(dp4674
g61
(dp4675
sg70
g4669
sg63
(lp4676
g56
(g57
g58
NtRp4677
(dp4678
g61
(dp4679
g69
I1
ssg70
g4673
sg63
(lp4680
S'/admin/default/about/places'
p4681
asbasbasbasbasbasbasbasbasbasbasbasbasbasbasbag56
(g72
g58
NtRp4682
(dp4683
g61
(dp4684
sg70
g4051
sg63
(lp4685
g56
(g77
g58
NtRp4686
(dp4687
g61
(dp4688
sg70
g4682
sg63
(lp4689
g56
(g57
g58
NtRp4690
(dp4691
g61
(dp4692
g69
I4
ssg70
g4686
sg63
(lp4693
g56
(g65
g58
NtRp4694
(dp4695
g61
(dp4696
g69
I3
ssg70
Nsg63
(lp4697
g56
(g72
g58
NtRp4698
(dp4699
g61
(dp4700
sg70
g4694
sg63
(lp4701
g56
(g77
g58
NtRp4702
(dp4703
g61
(dp4704
sg70
g4698
sg63
(lp4705
g56
(g57
g58
NtRp4706
(dp4707
g61
(dp4708
g69
I3
ssg70
g4702
sg63
(lp4709
g4083
(S't\t\x00\x00\x00Resources'
tRp4710
asbasbasbag56
(g72
g58
NtRp4711
(dp4712
g61
(dp4713
sg70
g4694
sg63
(lp4714
g56
(g77
g58
NtRp4715
(dp4716
g61
(dp4717
sg70
g4711
sg63
(lp4718
g56
(g57
g58
NtRp4719
(dp4720
g61
(dp4721
g69
I3
ssg70
g4715
sg63
(lp4722
g99
asbasbasbag56
(g72
g58
NtRp4723
(dp4724
g61
(dp4725
sg70
g4694
sg63
(lp4726
g56
(g77
g58
NtRp4727
(dp4728
g61
(dp4729
sg70
g4723
sg63
(lp4730
g56
(g57
g58
NtRp4731
(dp4732
g61
(dp4733
g69
I3
ssg70
g4727
sg63
(lp4734
S'None'
p4735
asbasbasbag56
(g72
g58
NtRp4736
(dp4737
g61
(dp4738
sg70
g4694
sg63
(lp4739
g56
(g77
g58
NtRp4740
(dp4741
g61
(dp4742
sg70
g4736
sg63
(lp4743
g56
(g57
g58
NtRp4744
(dp4745
g61
(dp4746
g69
I3
ssg70
g4740
sg63
(lp4747
g56
(g65
g58
NtRp4748
(dp4749
g61
(dp4750
g69
I2
ssg70
Nsg63
(lp4751
g56
(g72
g58
NtRp4752
(dp4753
g61
(dp4754
sg70
g4748
sg63
(lp4755
g56
(g77
g58
NtRp4756
(dp4757
g61
(dp4758
sg70
g4752
sg63
(lp4759
g56
(g57
g58
NtRp4760
(dp4761
g61
(dp4762
g69
I2
ssg70
g4756
sg63
(lp4763
g56
(g65
g58
NtRp4764
(dp4765
g61
(dp4766
g69
I1
ssg70
Nsg63
(lp4767
g56
(g72
g58
NtRp4768
(dp4769
g61
(dp4770
sg70
g4764
sg63
(lp4771
g56
(g77
g58
NtRp4772
(dp4773
g61
(dp4774
sg70
g4768
sg63
(lp4775
g56
(g57
g58
NtRp4776
(dp4777
g61
(dp4778
g69
I1
ssg70
g4772
sg63
(lp4779
g4083
(S't\r\x00\x00\x00Documentation'
tRp4780
asbasbasbag56
(g72
g58
NtRp4781
(dp4782
g61
(dp4783
sg70
g4764
sg63
(lp4784
g56
(g77
g58
NtRp4785
(dp4786
g61
(dp4787
sg70
g4781
sg63
(lp4788
g56
(g57
g58
NtRp4789
(dp4790
g61
(dp4791
g69
I1
ssg70
g4785
sg63
(lp4792
I00
asbasbasbag56
(g72
g58
NtRp4793
(dp4794
g61
(dp4795
sg70
g4764
sg63
(lp4796
g56
(g77
g58
NtRp4797
(dp4798
g61
(dp4799
sg70
g4793
sg63
(lp4800
g56
(g57
g58
NtRp4801
(dp4802
g61
(dp4803
g69
I1
ssg70
g4797
sg63
(lp4804
S'http://www.web2py.com/book'
p4805
asbasbasbag56
(g72
g58
NtRp4806
(dp4807
g61
(dp4808
sg70
g4764
sg63
(lp4809
g56
(g77
g58
NtRp4810
(dp4811
g61
(dp4812
sg70
g4806
sg63
(lp4813
g56
(g57
g58
NtRp4814
(dp4815
g61
(dp4816
g69
I1
ssg70
g4810
sg63
(lp4817
(lp4818
(g4083
(S't\x07\x00\x00\x00Preface'
tRp4819
I00
S'http://www.web2py.com/book/default/chapter/00'
p4820
tp4821
a(g4083
(S't\x0c\x00\x00\x00Introduction'
tRp4822
I00
S'http://www.web2py.com/book/default/chapter/01'
p4823
tp4824
a(g4083
(S't\x06\x00\x00\x00Python'
tRp4825
I00
S'http://www.web2py.com/book/default/chapter/02'
p4826
tp4827
a(g4083
(S't\x08\x00\x00\x00Overview'
tRp4828
I00
S'http://www.web2py.com/book/default/chapter/03'
p4829
tp4830
a(g4083
(S's\x08\x00\x00\x00The Core'
tRp4831
I00
S'http://www.web2py.com/book/default/chapter/04'
p4832
tp4833
a(g4083
(S's\t\x00\x00\x00The Views'
tRp4834
I00
S'http://www.web2py.com/book/default/chapter/05'
p4835
tp4836
a(g4083
(S't\x08\x00\x00\x00Database'
tRp4837
I00
S'http://www.web2py.com/book/default/chapter/06'
p4838
tp4839
a(g4083
(S's\x14\x00\x00\x00Forms and Validators'
tRp4840
I00
S'http://www.web2py.com/book/default/chapter/07'
p4841
tp4842
a(g4083
(S's\x0e\x00\x00\x00Access Control'
tRp4843
I00
S'http://www.web2py.com/book/default/chapter/08'
p4844
tp4845
a(g4083
(S't\x08\x00\x00\x00Services'
tRp4846
I00
S'http://www.web2py.com/book/default/chapter/09'
p4847
tp4848
a(g4083
(S's\x0c\x00\x00\x00Ajax Recipes'
tRp4849
I00
S'http://www.web2py.com/book/default/chapter/10'
p4850
tp4851
a(g4083
(S's\x12\x00\x00\x00Deployment Recipes'
tRp4852
I00
S'http://www.web2py.com/book/default/chapter/11'
p4853
tp4854
a(g4083
(S's\r\x00\x00\x00Other Recipes'
tRp4855
I00
S'http://www.web2py.com/book/default/chapter/12'
p4856
tp4857
a(g4083
(S's\r\x00\x00\x00Buy this book'
tRp4858
I00
S'http://stores.lulu.com/web2py'
p4859
tp4860
aasbasbasbasbasbasbasbag56
(g72
g58
NtRp4861
(dp4862
g61
(dp4863
sg70
g4748
sg63
(lp4864
g56
(g77
g58
NtRp4865
(dp4866
g61
(dp4867
sg70
g4861
sg63
(lp4868
g56
(g57
g58
NtRp4869
(dp4870
g61
(dp4871
g69
I2
ssg70
g4865
sg63
(lp4872
g56
(g65
g58
NtRp4873
(dp4874
g61
(dp4875
g69
I1
ssg70
Nsg63
(lp4876
g56
(g72
g58
NtRp4877
(dp4878
g61
(dp4879
sg70
g4873
sg63
(lp4880
g56
(g77
g58
NtRp4881
(dp4882
g61
(dp4883
sg70
g4877
sg63
(lp4884
g56
(g57
g58
NtRp4885
(dp4886
g61
(dp4887
g69
I1
ssg70
g4881
sg63
(lp4888
g4083
(S't\t\x00\x00\x00Community'
tRp4889
asbasbasbag56
(g72
g58
NtRp4890
(dp4891
g61
(dp4892
sg70
g4873
sg63
(lp4893
g56
(g77
g58
NtRp4894
(dp4895
g61
(dp4896
sg70
g4890
sg63
(lp4897
g56
(g57
g58
NtRp4898
(dp4899
g61
(dp4900
g69
I1
ssg70
g4894
sg63
(lp4901
I00
asbasbasbag56
(g72
g58
NtRp4902
(dp4903
g61
(dp4904
sg70
g4873
sg63
(lp4905
g56
(g77
g58
NtRp4906
(dp4907
g61
(dp4908
sg70
g4902
sg63
(lp4909
g56
(g57
g58
NtRp4910
(dp4911
g61
(dp4912
g69
I1
ssg70
g4906
sg63
(lp4913
Nasbasbasbag56
(g72
g58
NtRp4914
(dp4915
g61
(dp4916
sg70
g4873
sg63
(lp4917
g56
(g77
g58
NtRp4918
(dp4919
g61
(dp4920
sg70
g4914
sg63
(lp4921
g56
(g57
g58
NtRp4922
(dp4923
g61
(dp4924
g69
I1
ssg70
g4918
sg63
(lp4925
(lp4926
(g4083
(S't\x06\x00\x00\x00Groups'
tRp4927
I00
S'http://www.web2py.com/examples/default/usergroups'
p4928
tp4929
a(g4083
(S't\x07\x00\x00\x00Twitter'
tRp4930
I00
S'http://twitter.com/web2py'
p4931
tp4932
a(g4083
(S's\t\x00\x00\x00Live chat'
tRp4933
I00
S'http://mibbit.com/?channel=%23web2py&server=irc.mibbit.net'
p4934
tp4935
a(g4083
(S's\n\x00\x00\x00User Voice'
tRp4936
I00
S'http://web2py.uservoice.com/'
p4937
tp4938
aasbasbasbasbasbasbasbag56
(g72
g58
NtRp4939
(dp4940
g61
(dp4941
sg70
g4748
sg63
(lp4942
g56
(g77
g58
NtRp4943
(dp4944
g61
(dp4945
sg70
g4939
sg63
(lp4946
g56
(g57
g58
NtRp4947
(dp4948
g61
(dp4949
g69
I2
ssg70
g4943
sg63
(lp4950
g56
(g65
g58
NtRp4951
(dp4952
g61
(dp4953
g69
I1
ssg70
Nsg63
(lp4954
g56
(g72
g58
NtRp4955
(dp4956
g61
(dp4957
sg70
g4951
sg63
(lp4958
g56
(g77
g58
NtRp4959
(dp4960
g61
(dp4961
sg70
g4955
sg63
(lp4962
g56
(g57
g58
NtRp4963
(dp4964
g61
(dp4965
g69
I1
ssg70
g4959
sg63
(lp4966
g4083
(S't\x06\x00\x00\x00Web2py'
tRp4967
asbasbasbag56
(g72
g58
NtRp4968
(dp4969
g61
(dp4970
sg70
g4951
sg63
(lp4971
g56
(g77
g58
NtRp4972
(dp4973
g61
(dp4974
sg70
g4968
sg63
(lp4975
g56
(g57
g58
NtRp4976
(dp4977
g61
(dp4978
g69
I1
ssg70
g4972
sg63
(lp4979
I00
asbasbasbag56
(g72
g58
NtRp4980
(dp4981
g61
(dp4982
sg70
g4951
sg63
(lp4983
g56
(g77
g58
NtRp4984
(dp4985
g61
(dp4986
sg70
g4980
sg63
(lp4987
g56
(g57
g58
NtRp4988
(dp4989
g61
(dp4990
g69
I1
ssg70
g4984
sg63
(lp4991
S'http://www.web2py.com'
p4992
asbasbasbag56
(g72
g58
NtRp4993
(dp4994
g61
(dp4995
sg70
g4951
sg63
(lp4996
g56
(g77
g58
NtRp4997
(dp4998
g61
(dp4999
sg70
g4993
sg63
(lp5000
g56
(g57
g58
NtRp5001
(dp5002
g61
(dp5003
g69
I1
ssg70
g4997
sg63
(lp5004
(lp5005
(g4083
(S't\x08\x00\x00\x00Download'
tRp5006
I00
S'http://www.web2py.com/examples/default/download'
p5007
tp5008
a(g4083
(S't\x07\x00\x00\x00Support'
tRp5009
I00
S'http://www.web2py.com/examples/default/support'
p5010
tp5011
a(g4083
(S's\x0e\x00\x00\x00Quick Examples'
tRp5012
I00
S'http://web2py.com/examples/default/examples'
p5013
tp5014
a(g4083
(S't\x03\x00\x00\x00FAQ'
tRp5015
I00
S'http://web2py.com/AlterEgo'
p5016
tp5017
a(g4083
(S's\x11\x00\x00\x00Free Applications'
tRp5018
I00
S'http://web2py.com/appliances'
p5019
tp5020
a(g4083
(S't\x07\x00\x00\x00Plugins'
tRp5021
I00
S'http://web2py.com/plugins'
p5022
tp5023
a(g4083
(S't\x07\x00\x00\x00Recipes'
tRp5024
I00
S'http://web2pyslices.com/'
p5025
tp5026
a(g4083
(S't\x04\x00\x00\x00Demo'
tRp5027
I00
S'http://web2py.com/demo_admin'
p5028
tp5029
a(g4083
(S't\x08\x00\x00\x00Semantic'
tRp5030
I00
S'http://web2py.com/semantic'
p5031
tp5032
a(g4083
(S't\x07\x00\x00\x00Layouts'
tRp5033
I00
S'http://web2py.com/layouts'
p5034
tp5035
a(g4083
(S't\x06\x00\x00\x00Videos'
tRp5036
I00
S'http://www.web2py.com/examples/default/videos/'
p5037
tp5038
aasbasbasbasbasbasbasbasbasbasbasbasbasbasbasbasbasbasbasbag56
(g72
g58
NtRp5039
(dp5040
g61
(dp5041
sg70
g3578
sg63
(lp5042
g56
(g77
g58
NtRp5043
(dp5044
g61
(dp5045
g81
g82
ssg70
g5039
sg63
(lp5046
S'meta'
p5047
asbag56
(g77
g58
NtRp5048
(dp5049
g61
(dp5050
g88
g89
ssg70
g5039
sg63
(lp5051
S':'
asbag56
(g77
g58
NtRp5052
(dp5053
g61
(dp5054
sg70
g5039
sg63
(lp5055
g56
(g57
g58
NtRp5056
(dp5057
g61
(dp5058
g69
I5
ssg70
g5052
sg63
(lp5059
g56
(g65
g58
NtRp5060
(dp5061
g61
(dp5062
g69
I4
ssg70
Nsg63
(lp5063
g56
(g72
g58
NtRp5064
(dp5065
g61
(dp5066
sg70
g5060
sg63
(lp5067
g56
(g77
g58
NtRp5068
(dp5069
g61
(dp5070
g81
g82
ssg70
g5064
sg63
(lp5071
S'author'
p5072
asbag56
(g77
g58
NtRp5073
(dp5074
g61
(dp5075
g88
g89
ssg70
g5064
sg63
(lp5076
S':'
asbag56
(g77
g58
NtRp5077
(dp5078
g61
(dp5079
sg70
g5064
sg63
(lp5080
g56
(g57
g58
NtRp5081
(dp5082
g61
(dp5083
g69
I4
ssg70
g5077
sg63
(lp5084
S'Your Name <you@example.com>'
p5085
asbasbasbag56
(g72
g58
NtRp5086
(dp5087
g61
(dp5088
sg70
g5060
sg63
(lp5089
g56
(g77
g58
NtRp5090
(dp5091
g61
(dp5092
g81
g82
ssg70
g5086
sg63
(lp5093
S'copyright'
p5094
asbag56
(g77
g58
NtRp5095
(dp5096
g61
(dp5097
g88
g89
ssg70
g5086
sg63
(lp5098
S':'
asbag56
(g77
g58
NtRp5099
(dp5100
g61
(dp5101
sg70
g5086
sg63
(lp5102
g56
(g57
g58
NtRp5103
(dp5104
g61
(dp5105
g69
I4
ssg70
g5099
sg63
(lp5106
S'Copyright 2011'
p5107
asbasbasbag56
(g72
g58
NtRp5108
(dp5109
g61
(dp5110
sg70
g5060
sg63
(lp5111
g56
(g77
g58
NtRp5112
(dp5113
g61
(dp5114
g81
g82
ssg70
g5108
sg63
(lp5115
S'description'
p5116
asbag56
(g77
g58
NtRp5117
(dp5118
g61
(dp5119
g88
g89
ssg70
g5108
sg63
(lp5120
S':'
asbag56
(g77
g58
NtRp5121
(dp5122
g61
(dp5123
sg70
g5108
sg63
(lp5124
g56
(g57
g58
NtRp5125
(dp5126
g61
(dp5127
g69
I4
ssg70
g5121
sg63
(lp5128
S'a cool new app'
p5129
asbasbasbag56
(g72
g58
NtRp5130
(dp5131
g61
(dp5132
sg70
g5060
sg63
(lp5133
g56
(g77
g58
NtRp5134
(dp5135
g61
(dp5136
g81
g82
ssg70
g5130
sg63
(lp5137
S'generator'
p5138
asbag56
(g77
g58
NtRp5139
(dp5140
g61
(dp5141
g88
g89
ssg70
g5130
sg63
(lp5142
S':'
asbag56
(g77
g58
NtRp5143
(dp5144
g61
(dp5145
sg70
g5130
sg63
(lp5146
g56
(g57
g58
NtRp5147
(dp5148
g61
(dp5149
g69
I4
ssg70
g5143
sg63
(lp5150
S'Web2py Web Framework'
p5151
asbasbasbag56
(g72
g58
NtRp5152
(dp5153
g61
(dp5154
sg70
g5060
sg63
(lp5155
g56
(g77
g58
NtRp5156
(dp5157
g61
(dp5158
g81
g82
ssg70
g5152
sg63
(lp5159
S'keywords'
p5160
asbag56
(g77
g58
NtRp5161
(dp5162
g61
(dp5163
g88
g89
ssg70
g5152
sg63
(lp5164
S':'
asbag56
(g77
g58
NtRp5165
(dp5166
g61
(dp5167
sg70
g5152
sg63
(lp5168
g56
(g57
g58
NtRp5169
(dp5170
g61
(dp5171
g69
I4
ssg70
g5165
sg63
(lp5172
S'web2py, python, framework'
p5173
asbasbasbasbasbasbasbag56
(g72
g58
NtRp5174
(dp5175
g61
(dp5176
sg70
g3578
sg63
(lp5177
g56
(g77
g58
NtRp5178
(dp5179
g61
(dp5180
g81
g82
ssg70
g5174
sg63
(lp5181
S'postprocessing'
p5182
asbag56
(g77
g58
NtRp5183
(dp5184
g61
(dp5185
g88
g89
ssg70
g5174
sg63
(lp5186
S':'
asbag56
(g77
g58
NtRp5187
(dp5188
g61
(dp5189
sg70
g5174
sg63
(lp5190
g56
(g57
g58
NtRp5191
(dp5192
g61
(dp5193
g69
I5
ssg70
g5187
sg63
(lp5194
g56
(g65
g58
NtRp5195
(dp5196
g61
(dp5197
g69
I4
ssg70
Nsg63
(lp5198
sbasbasbasbag56
(g72
g58
NtRp5199
(dp5200
g61
(dp5201
sg70
g3578
sg63
(lp5202
g56
(g77
g58
NtRp5203
(dp5204
g61
(dp5205
g81
g82
ssg70
g5199
sg63
(lp5206
S'session_file'
p5207
asbag56
(g77
g58
NtRp5208
(dp5209
g61
(dp5210
g88
g89
ssg70
g5199
sg63
(lp5211
S':'
asbag56
(g77
g58
NtRp5212
(dp5213
g61
(dp5214
sg70
g5199
sg63
(lp5215
g56
(g57
g58
NtRp5216
(dp5217
g61
(dp5218
g69
I5
ssg70
g5212
sg63
(lp5219
S"<open file '/home/ian/Dropbox/Web_Pages/web2py-linux/applications/places/sessions/127.0.0.1-ae378f77-b944-4a55-be06-eed4ce913913', mode 'rb+' at 0x36be930>"
p5220
asbasbasbag56
(g72
g58
NtRp5221
(dp5222
g61
(dp5223
sg70
g3578
sg63
(lp5224
g56
(g77
g58
NtRp5225
(dp5226
g61
(dp5227
g81
g82
ssg70
g5221
sg63
(lp5228
S'session_filename'
p5229
asbag56
(g77
g58
NtRp5230
(dp5231
g61
(dp5232
g88
g89
ssg70
g5221
sg63
(lp5233
S':'
asbag56
(g77
g58
NtRp5234
(dp5235
g61
(dp5236
sg70
g5221
sg63
(lp5237
g56
(g57
g58
NtRp5238
(dp5239
g61
(dp5240
g69
I5
ssg70
g5234
sg63
(lp5241
S'/home/ian/Dropbox/Web_Pages/web2py-linux/applications/places/sessions/127.0.0.1-ae378f77-b944-4a55-be06-eed4ce913913'
p5242
asbasbasbag56
(g72
g58
NtRp5243
(dp5244
g61
(dp5245
sg70
g3578
sg63
(lp5246
g56
(g77
g58
NtRp5247
(dp5248
g61
(dp5249
g81
g82
ssg70
g5243
sg63
(lp5250
S'session_id'
p5251
asbag56
(g77
g58
NtRp5252
(dp5253
g61
(dp5254
g88
g89
ssg70
g5243
sg63
(lp5255
S':'
asbag56
(g77
g58
NtRp5256
(dp5257
g61
(dp5258
sg70
g5243
sg63
(lp5259
g56
(g57
g58
NtRp5260
(dp5261
g61
(dp5262
g69
I5
ssg70
g5256
sg63
(lp5263
S'127.0.0.1-ae378f77-b944-4a55-be06-eed4ce913913'
p5264
asbasbasbag56
(g72
g58
NtRp5265
(dp5266
g61
(dp5267
sg70
g3578
sg63
(lp5268
g56
(g77
g58
NtRp5269
(dp5270
g61
(dp5271
g81
g82
ssg70
g5265
sg63
(lp5272
S'session_id_name'
p5273
asbag56
(g77
g58
NtRp5274
(dp5275
g61
(dp5276
g88
g89
ssg70
g5265
sg63
(lp5277
S':'
asbag56
(g77
g58
NtRp5278
(dp5279
g61
(dp5280
sg70
g5265
sg63
(lp5281
g56
(g57
g58
NtRp5282
(dp5283
g61
(dp5284
g69
I5
ssg70
g5278
sg63
(lp5285
g3635
asbasbasbag56
(g72
g58
NtRp5286
(dp5287
g61
(dp5288
sg70
g3578
sg63
(lp5289
g56
(g77
g58
NtRp5290
(dp5291
g61
(dp5292
g81
g82
ssg70
g5286
sg63
(lp5293
S'session_locked'
p5294
asbag56
(g77
g58
NtRp5295
(dp5296
g61
(dp5297
g88
g89
ssg70
g5286
sg63
(lp5298
S':'
asbag56
(g77
g58
NtRp5299
(dp5300
g61
(dp5301
sg70
g5286
sg63
(lp5302
g56
(g57
g58
NtRp5303
(dp5304
g61
(dp5305
g69
I5
ssg70
g5299
sg63
(lp5306
g2026
asbasbasbag56
(g72
g58
NtRp5307
(dp5308
g61
(dp5309
sg70
g3578
sg63
(lp5310
g56
(g77
g58
NtRp5311
(dp5312
g61
(dp5313
g81
g82
ssg70
g5307
sg63
(lp5314
S'session_new'
p5315
asbag56
(g77
g58
NtRp5316
(dp5317
g61
(dp5318
g88
g89
ssg70
g5307
sg63
(lp5319
S':'
asbag56
(g77
g58
NtRp5320
(dp5321
g61
(dp5322
sg70
g5307
sg63
(lp5323
g56
(g57
g58
NtRp5324
(dp5325
g61
(dp5326
g69
I5
ssg70
g5320
sg63
(lp5327
g99
asbasbasbag56
(g72
g58
NtRp5328
(dp5329
g61
(dp5330
sg70
g3578
sg63
(lp5331
g56
(g77
g58
NtRp5332
(dp5333
g61
(dp5334
g81
g82
ssg70
g5328
sg63
(lp5335
S'status'
p5336
asbag56
(g77
g58
NtRp5337
(dp5338
g61
(dp5339
g88
g89
ssg70
g5328
sg63
(lp5340
S':'
asbag56
(g77
g58
NtRp5341
(dp5342
g61
(dp5343
sg70
g5328
sg63
(lp5344
g56
(g57
g58
NtRp5345
(dp5346
g61
(dp5347
g69
I5
ssg70
g5341
sg63
(lp5348
S'200'
p5349
asbasbasbag56
(g72
g58
NtRp5350
(dp5351
g61
(dp5352
sg70
g3578
sg63
(lp5353
g56
(g77
g58
NtRp5354
(dp5355
g61
(dp5356
g81
g82
ssg70
g5350
sg63
(lp5357
S'subtitle'
p5358
asbag56
(g77
g58
NtRp5359
(dp5360
g61
(dp5361
g88
g89
ssg70
g5350
sg63
(lp5362
S':'
asbag56
(g77
g58
NtRp5363
(dp5364
g61
(dp5365
sg70
g5350
sg63
(lp5366
g56
(g57
g58
NtRp5367
(dp5368
g61
(dp5369
g69
I5
ssg70
g5363
sg63
(lp5370
g4083
(S's\r\x00\x00\x00customize me!'
tRp5371
asbasbasbag56
(g72
g58
NtRp5372
(dp5373
g61
(dp5374
sg70
g3578
sg63
(lp5375
g56
(g77
g58
NtRp5376
(dp5377
g61
(dp5378
g81
g82
ssg70
g5372
sg63
(lp5379
S'title'
p5380
asbag56
(g77
g58
NtRp5381
(dp5382
g61
(dp5383
g88
g89
ssg70
g5372
sg63
(lp5384
S':'
asbag56
(g77
g58
NtRp5385
(dp5386
g61
(dp5387
sg70
g5372
sg63
(lp5388
g56
(g57
g58
NtRp5389
(dp5390
g61
(dp5391
g69
I5
ssg70
g5385
sg63
(lp5392
g121
asbasbasbag56
(g72
g58
NtRp5393
(dp5394
g61
(dp5395
sg70
g3578
sg63
(lp5396
g56
(g77
g58
NtRp5397
(dp5398
g61
(dp5399
g81
g82
ssg70
g5393
sg63
(lp5400
g2670
asbag56
(g77
g58
NtRp5401
(dp5402
g61
(dp5403
g88
g89
ssg70
g5393
sg63
(lp5404
S':'
asbag56
(g77
g58
NtRp5405
(dp5406
g61
(dp5407
sg70
g5393
sg63
(lp5408
g56
(g57
g58
NtRp5409
(dp5410
g61
(dp5411
g69
I5
ssg70
g5405
sg63
(lp5412
g2683
asbasbasbag56
(g72
g58
NtRp5413
(dp5414
g61
(dp5415
sg70
g3578
sg63
(lp5416
g56
(g77
g58
NtRp5417
(dp5418
g61
(dp5419
g81
g82
ssg70
g5413
sg63
(lp5420
S'view'
p5421
asbag56
(g77
g58
NtRp5422
(dp5423
g61
(dp5424
g88
g89
ssg70
g5413
sg63
(lp5425
S':'
asbag56
(g77
g58
NtRp5426
(dp5427
g61
(dp5428
sg70
g5413
sg63
(lp5429
g56
(g57
g58
NtRp5430
(dp5431
g61
(dp5432
g69
I5
ssg70
g5426
sg63
(lp5433
S'default/index.html'
p5434
asbasbasbasbasbsS'locals'
p5435
(dp5436
S'field_type'
p5437
S'None'
p5438
sS'self'
p5439
S'<gluon.dal.SQLiteAdapter object>'
p5440
sS'expression'
p5441
S'<gluon.dal.Query object>'
p5442
sssS'traceback'
p5443
S'Traceback (most recent call last):\n  File "/home/ian/Dropbox/Web_Pages/web2py-linux/gluon/restricted.py", line 194, in restricted\n    exec ccode in environment\n  File "/home/ian/Dropbox/Web_Pages/web2py-linux/applications/places/controllers/default.py", line 80, in <module>\n  File "/home/ian/Dropbox/Web_Pages/web2py-linux/gluon/globals.py", line 149, in <lambda>\n    self._caller = lambda f: f()\n  File "/home/ian/Dropbox/Web_Pages/web2py-linux/applications/places/controllers/default.py", line 24, in index\n    links = db(db.links.tags.contains(session.tag)).select()\n  File "/home/ian/Dropbox/Web_Pages/web2py-linux/gluon/dal.py", line 5697, in select\n    return self.db._adapter.select(self.query,fields,attributes)\n  File "/home/ian/Dropbox/Web_Pages/web2py-linux/gluon/dal.py", line 1225, in select\n    sql = self._select(query,fields,attributes)\n  File "/home/ian/Dropbox/Web_Pages/web2py-linux/gluon/dal.py", line 1132, in _select\n    sql_w = \' WHERE \' + self.expand(query)\n  File "/home/ian/Dropbox/Web_Pages/web2py-linux/gluon/dal.py", line 989, in expand\n    return expression.op(expression.first)\nTypeError: CONTAINS() takes exactly 3 arguments (2 given)\n'
p5444
s.