(dp1
S'output'
p2
S''
sS'layer'
p3
S'/home/ian/Dropbox/Web_Pages/web2py-linux/applications/places/views/default/index.html'
p4
sS'code'
p5
S'left_sidebar_enabled=right_sidebar_enabled=False\nresponse.write(\'\\n\', escape=False)\nresponse.write(\'<!DOCTYPE html>\\n<html lang="\', escape=False)\nresponse.write(T.accepted_language or \'en\')\nresponse.write(\'" class="no-js"><!-- no-js need it for modernzr -->\\n  <head>\\n    \\n    <meta charset="utf-8" />        \\n    <!-- www.phpied.com/conditional-comments-block-downloads/ -->\\n    <!--[if IE]>\\n      <!-- Always force latest IE rendering engine \\n       (even in intranet) & Chrome Frame \\n       Remove this if you use the .htaccess -->\\n      <meta http-equiv="X-UA-Compatible" content="IE=edge,chrome=1">\\n    <![endif]-->    \\n\\n    <title>\', escape=False)\nresponse.write(response.title or request.application)\nresponse.write(\'</title>\\n    \\n    <!-- http://dev.w3.org/html5/markup/meta.name.html -->\\n    <meta name="application-name" content="\', escape=False)\nresponse.write(request.application)\nresponse.write(\'" /> \\n    \\n    <!-- Speaking of Google, don\\\'t forget to set your site up: \\n     http://google.com/webmasters -->\\n    <meta name="google-site-verification" content="" />\\n    \\n    <!--  Mobile Viewport Fix\\n      j.mp/mobileviewport & davidbcalhoun.com/2010/viewport-metatag \\n      device-width: Occupy full width of the screen in its current orientation\\n      initial-scale = 1.0 retains dimensions instead of zooming out if page height > device height\\n      maximum-scale = 1.0 retains dimensions instead of zooming in if page width < device width\\n      -->\\n    <meta name="viewport" content="width=device-width, initial-scale=1.0, maximum-scale=1.0">\\n    \\n    <!-- Place favicon.ico and apple-touch-icon.png in the root of your domain and delete these references -->\\n    <link rel="shortcut icon" href="\', escape=False)\nresponse.write(URL(\'static\',\'favicon.ico\'))\nresponse.write(\'" type="image/x-icon">\\n    <link rel="apple-touch-icon" href="\', escape=False)\nresponse.write(URL(\'static\',\'favicon.png\'))\nresponse.write(\'">\\n\\n    <!-- For the less-enabled mobile browsers like Opera Mini -->\\n    <link rel="stylesheet" media="handheld" href="\', escape=False)\nresponse.write(URL(\'static\',\'css/handheld.css\'))\nresponse.write(\'">\\n    \\n    <!-- All JavaScript at the bottom, except for Modernizr which enables HTML5 elements & feature detects -->\\n    <script src="\', escape=False)\nresponse.write(URL(\'static\',\'js/modernizr-1.7.min.js\'))\nresponse.write(\'"></script>\\n    \\n    \', escape=False)\n#------  require CSS and JS files for this page (read info in base.css) ------\nresponse.write(\'\\n    \', escape=False)\nresponse.files.append(URL(\'static\',\'css/base.css\'))\nresponse.write(\'\\n    \', escape=False)\nresponse.files.append(URL(\'static\',\'css/superfish.css\'))\nresponse.write(\'\\n    \', escape=False)\nresponse.files.append(URL(\'static\',\'js/superfish.js\'))\nresponse.write(\'\\n    \', escape=False)\n#------ include web2py specific js code (jquery, calendar, form stuff) ------\nresponse.write(\'\\n    \', escape=False)\nresponse.files.insert(0,URL(\'static\',\'js/jquery.js\'))\nresponse.files.insert(1,URL(\'static\',\'css/anytime.css\'))\nresponse.files.insert(2,URL(\'static\',\'js/anytime.js\'))\nresponse.include_meta()\nresponse.include_files()\nresponse.write(\'\\n<script type="text/javascript"><!--\\n    // These variables are used by the web2py_ajax_init function in web2py_ajax.js (which is loaded below).\\n    var w2p_ajax_confirm_message = "\', escape=False)\nresponse.write(T(\'Are you sure you want to delete this object?\'))\nresponse.write(\'";\\n    var w2p_ajax_date_format = "\', escape=False)\nresponse.write(T(\'%Y-%m-%d\'))\nresponse.write(\'";\\n    var w2p_ajax_datetime_format = "\', escape=False)\nresponse.write(T(\'%Y-%m-%d %H:%M:%S\'))\nresponse.write(\'";\\n    //--></script>\\n    <script src="\', escape=False)\nresponse.write(URL(\'static\',\'js/web2py_ajax.js\'))\nresponse.write(\'" type="text/javascript"></script>\\n\', escape=False)\nresponse.write(\'\\n\\n    \', escape=False)\n#using sidebars need to know what sidebar you want to use\n#prior of using it, because of static width size of content, you can use\n#left_sidebar, right_sidebar, both or none (False left and right)\nleft_sidebar_enabled = globals().get(\'left_sidebar_enabled\',False)\nright_sidebar_enabled = globals().get(\'right_sidebar_enabled\',False)\nif left_sidebar_enabled and right_sidebar_enabled: width_content=\'63%\'\nelif left_sidebar_enabled != right_sidebar_enabled: width_content=\'740px\'\nelse: width_content=\'100%\'\nif left_sidebar_enabled: left_sidebar_style = \'style="display: block;"\'\nelse: left_sidebar_style = \'style="display: none;"\'\nif right_sidebar_enabled: right_sidebar_style = \'style="display: block;"\'\nelse: right_sidebar_style = \'style="display: none;"\'\nstyle_content = \'style="width: %s"\' % width_content\nresponse.write(\'\\n    \\n    <!-- uncomment here to load jquery-ui -->\\n    \\n    <link rel="stylesheet" href="http://ajax.googleapis.com/ajax/libs/jqueryui/1.8.16/themes/base/jquery-ui.css" type="text/css" media="all" />\\n    <script src="http://ajax.googleapis.com/ajax/libs/jqueryui/1.8.16/jquery-ui.min.js" type="text/javascript"></script>\\n    \\n   <!-- uncomment to load jquery-ui -->\\n    \\n    \\n  </head>\\n  \\n  <!-- paulirish.com/2008/conditional-stylesheets-vs-css-hacks-answer-neither/ -->  \\n  <!--[if lt IE 7 ]> <body class="ie6"> <![endif]-->\\n  <!--[if IE 7 ]>    <body class="ie7"> <![endif]-->\\n  <!--[if IE 8 ]>    <body class="ie8"> <![endif]-->\\n  <!--[if IE 9 ]>    <body class="ie9"> <![endif]-->\\n  <!--[if (gt IE 9)|!(IE)]><!--> <body> <!--<![endif]-->\\n    \\n    <div class="flash">\', escape=False)\nresponse.write(response.flash or \'\')\nresponse.write(\'</div> <!-- notification div -->\\n\\n        \\n\\n    <div id="container">                        \\n      \\n      <div id="wrapper">        \\n      \', escape=False)\ntry:\n    response.write(auth.navbar(action=URL(\'default\',\'user\')))\nexcept:pass\nresponse.write(\'\\n    \\n    <div id="header"> <!-- header and login nav -->\\n      \', escape=False)\nresponse.write(\' <!-- this is default header -->\\n      \\n      <h1>\\n        <span id="appname">\', escape=False)\nresponse.write(request.application.capitalize())\nresponse.write(\'</span>App\\n      </h1>\\n      <div style="clear: both;"></div><!-- Clear the divs -->\\n      \', escape=False)\nresponse.write(\'\\n    </div><!-- header  -->\\n    \\n    <div id="statusbar"><!-- statusbar is menu zone -->\\n      \', escape=False)\nresponse.write(\' <!-- this is default statusbar -->\\n      \', escape=False)\n#------ superfish menu ------\nresponse.write(\'\\n      \', escape=False)\nresponse.write(MENU(response.menu,_class=\'sf-menu\'))\nresponse.write(\'\\n      <script type="text/javascript">\\n        jQuery(document).ready(function(){\\n        jQuery(\\\'ul.sf-menu\\\').superfish();});\\n      </script>\\n\\n      <!-- AddToAny BEGIN -->\\n      <div style="padding: 7px; float:right;" class="a2a_kit a2a_default_style"><a class="a2a_dd" href="http://www.addtoany.com/share_save">Share</a></div><script type="text/javascript" src="http://static.addtoany.com/menu/page.js"></script>\\n      <!-- AddToAny END -->\\n\\n      <div style="clear: both;"></div><!-- Clear the divs -->   \\n      \', escape=False)\nresponse.write(\'               \\n    </div><!-- statusbar -->\\n    \\n    <div id="page"> <!-- Here my central body -->     \\n\\n      \', escape=False)\nif left_sidebar_enabled:\n    response.write(\'\\n          <div id="left_sidebar" \', escape=False)\n    response.write(XML(left_sidebar_style))\n    response.write(\' >\\n            <div style="padding: 4px;">\\n          \', escape=False)\n    response.write(\'New Left Sidebar Content\', escape=False)\n    response.write(\'       \\n            </div>\\n          </div><!-- left_sidebar -->\\n      \', escape=False)\n    pass\nresponse.write(\'\\n\\n      <!-- content -->\\n      <div id="content" \', escape=False)\nresponse.write(XML(style_content))\nresponse.write(\' >\\n        \', escape=False)\nresponse.write(\'\\n\\n<ul>\\n\', escape=False)\nfor tag in session.tags:\n    response.write(\'\\n\\n\', escape=False)\n    response.write(LI(A(tag.tag, _href=URL(\'index.load\', args=[tag.tag]), cid="links")))\n    response.write(\'\\n\\n\', escape=False)\n    pass\nresponse.write(\'\\n\\n</ul>\\n\\n<section id="links">\\n\\n\', escape=False)\nresponse.write(LOAD(\'index.load\',ajax=True))\nresponse.write(\'\\n\\n</section>\\n\\n\', escape=False)\n#=BEAUTIFY(response._vars)\nresponse.write(\'\\n\\n\', escape=False)\nresponse.write(\'\\n\', escape=False)\nresponse.write(\'\\n\', escape=False)\nresponse.write(\' \\n      </div>\\n      <!-- content -->\\n\\n      \', escape=False)\nif right_sidebar_enabled:\n    response.write(\'\\n          <div id="right_sidebar" \', escape=False)\n    response.write(XML(right_sidebar_style))\n    response.write(\' >\\n            <div style="padding: 4px;">\\n              \', escape=False)\n    response.write(\'New Right Sidebar Content\', escape=False)\n    response.write(\'\\n            </div>\\n      </div><!-- right_sidebar -->\\n          \', escape=False)\n    pass\nresponse.write(\'\\n\\n\\n      <div style="clear: both;"></div><!-- Clear the divs -->\\n      \\n    </div><!-- page -->                         \\n    \\n    <div id="footer">\\n      \', escape=False)\nresponse.write(\' <!-- this is default footer -->\\n      <a href="http://www.web2py.com/" style="float: left; padding-right: 6px;">\\n        <img src="\', escape=False)\nresponse.write(URL(\'static\',\'images/poweredby.png\'))\nresponse.write(\'"/>\\n      </a>\\n      \', escape=False)\nresponse.write(T(\'Copyright\'))\nresponse.write(\' &#169; 2011               \\n      <div style="clear: both;"></div><!-- Clear the divs -->\\n      \', escape=False)\nresponse.write(\'\\n\\n    </div><!-- footer -->           \\n      </div><!-- wrapper -->\\n    </div><!-- container -->        \\n    \\n    <!--[if lt IE 7 ]>\\n    <script src="\', escape=False)\nresponse.write(URL(\'static\',\'js/dd_belatedpng.js\'))\nresponse.write(\'"></script>\\n    <script> DD_belatedPNG.fix(\\\'img, .png_bg\\\'); //fix any <img> or .png_bg background-images </script>\\n    <![endif]-->\\n    \', escape=False)\nif response.google_analytics_id:\n    response.write("<script>/* http://mathiasbynens.be/notes/async-analytics-snippet */ var _gaq=[[\'_setAccount\',\'", escape=False)\n    response.write(response.google_analyitics_id)\n    response.write("\'],[\'_trackPageview\']];(function(d,t){var g=d.createElement(t),s=d.getElementsByTagName(t)[0];g.src=\'//www.google-analytics.com/ga.js\';s.parentNode.insertBefore(g,s)}(document,\'script\')) </script>", escape=False)\n    pass\nresponse.write(\'\\n  </body>\\n</html>\\n\', escape=False)'
p6
sS'snapshot'
p7
(dp8
S'exception'
p9
(dp10
S'__hash__'
p11
S"<method-wrapper '__hash__' of exceptions.AttributeError object>"
p12
sS'__setattr__'
p13
S"<method-wrapper '__setattr__' of exceptions.AttributeError object>"
p14
sS'__reduce_ex__'
p15
S'<built-in method __reduce_ex__ of exceptions.AttributeError object>'
p16
sS'__getslice__'
p17
S"<method-wrapper '__getslice__' of exceptions.AttributeError object>"
p18
sS'__getitem__'
p19
S"<method-wrapper '__getitem__' of exceptions.AttributeError object>"
p20
sS'__setstate__'
p21
S'<built-in method __setstate__ of exceptions.AttributeError object>'
p22
sS'args'
p23
S'("\'dict\' object has no attribute \'tag\'",)'
p24
sS'__reduce__'
p25
S'<built-in method __reduce__ of exceptions.AttributeError object>'
p26
sS'__str__'
p27
S"<method-wrapper '__str__' of exceptions.AttributeError object>"
p28
sS'__format__'
p29
S'<built-in method __format__ of exceptions.AttributeError object>'
p30
sS'__getattribute__'
p31
S"<method-wrapper '__getattribute__' of exceptions.AttributeError object>"
p32
sS'__class__'
p33
S"<type 'exceptions.AttributeError'>"
p34
sS'__unicode__'
p35
S'<built-in method __unicode__ of exceptions.AttributeError object>'
p36
sS'__delattr__'
p37
S"<method-wrapper '__delattr__' of exceptions.AttributeError object>"
p38
sS'__subclasshook__'
p39
S'<built-in method __subclasshook__ of type object>'
p40
sS'__repr__'
p41
S"<method-wrapper '__repr__' of exceptions.AttributeError object>"
p42
sS'__dict__'
p43
S'{}'
p44
sS'__sizeof__'
p45
S'<built-in method __sizeof__ of exceptions.AttributeError object>'
p46
sS'__doc__'
p47
S"'Attribute not found.'"
p48
sS'__init__'
p49
S"<method-wrapper '__init__' of exceptions.AttributeError object>"
p50
sS'__new__'
p51
S'<built-in method __new__ of type object>'
p52
ssS'evalue'
p53
S"'dict' object has no attribute 'tag'"
p54
sS'request'
p55
ccopy_reg
_reconstructor
p56
(cgluon.html
BEAUTIFY
p57
c__builtin__
object
p58
NtRp59
(dp60
S'attributes'
p61
(dp62
sS'components'
p63
(lp64
g56
(cgluon.html
TABLE
p65
g58
NtRp66
(dp67
g61
(dp68
S'level'
p69
I5
ssS'parent'
p70
Nsg63
(lp71
g56
(cgluon.html
TR
p72
g58
NtRp73
(dp74
g61
(dp75
sg70
g66
sg63
(lp76
g56
(cgluon.html
TD
p77
g58
NtRp78
(dp79
g61
(dp80
S'_style'
p81
S'font-weight:bold;'
p82
ssg70
g73
sg63
(lp83
S'ajax'
p84
asbag56
(g77
g58
NtRp85
(dp86
g61
(dp87
S'_valign'
p88
S'top'
p89
ssg70
g73
sg63
(lp90
S':'
asbag56
(g77
g58
NtRp91
(dp92
g61
(dp93
sg70
g73
sg63
(lp94
g56
(g57
g58
NtRp95
(dp96
g61
(dp97
g69
I5
ssg70
g91
sg63
(lp98
S'False'
p99
asbasbasbag56
(g72
g58
NtRp100
(dp101
g61
(dp102
sg70
g66
sg63
(lp103
g56
(g77
g58
NtRp104
(dp105
g61
(dp106
g81
g82
ssg70
g100
sg63
(lp107
S'application'
p108
asbag56
(g77
g58
NtRp109
(dp110
g61
(dp111
g88
g89
ssg70
g100
sg63
(lp112
S':'
asbag56
(g77
g58
NtRp113
(dp114
g61
(dp115
sg70
g100
sg63
(lp116
g56
(g57
g58
NtRp117
(dp118
g61
(dp119
g69
I5
ssg70
g113
sg63
(lp120
S'places'
p121
asbasbasbag56
(g72
g58
NtRp122
(dp123
g61
(dp124
sg70
g66
sg63
(lp125
g56
(g77
g58
NtRp126
(dp127
g61
(dp128
g81
g82
ssg70
g122
sg63
(lp129
g23
asbag56
(g77
g58
NtRp130
(dp131
g61
(dp132
g88
g89
ssg70
g122
sg63
(lp133
S':'
asbag56
(g77
g58
NtRp134
(dp135
g61
(dp136
sg70
g122
sg63
(lp137
g56
(g57
g58
NtRp138
(dp139
g61
(dp140
g69
I5
ssg70
g134
sg63
(lp141
g56
(g65
g58
NtRp142
(dp143
g61
(dp144
g69
I4
ssg70
Nsg63
(lp145
sbasbasbasbag56
(g72
g58
NtRp146
(dp147
g61
(dp148
sg70
g66
sg63
(lp149
g56
(g77
g58
NtRp150
(dp151
g61
(dp152
g81
g82
ssg70
g146
sg63
(lp153
S'body'
p154
asbag56
(g77
g58
NtRp155
(dp156
g61
(dp157
g88
g89
ssg70
g146
sg63
(lp158
S':'
asbag56
(g77
g58
NtRp159
(dp160
g61
(dp161
sg70
g146
sg63
(lp162
g56
(g57
g58
NtRp163
(dp164
g61
(dp165
g69
I5
ssg70
g159
sg63
(lp166
S'<cStringIO.StringO object at 0x2f4b148>'
p167
asbasbasbag56
(g72
g58
NtRp168
(dp169
g61
(dp170
sg70
g66
sg63
(lp171
g56
(g77
g58
NtRp172
(dp173
g61
(dp174
g81
g82
ssg70
g168
sg63
(lp175
S'client'
p176
asbag56
(g77
g58
NtRp177
(dp178
g61
(dp179
g88
g89
ssg70
g168
sg63
(lp180
S':'
asbag56
(g77
g58
NtRp181
(dp182
g61
(dp183
sg70
g168
sg63
(lp184
g56
(g57
g58
NtRp185
(dp186
g61
(dp187
g69
I5
ssg70
g181
sg63
(lp188
S'127.0.0.1'
p189
asbasbasbag56
(g72
g58
NtRp190
(dp191
g61
(dp192
sg70
g66
sg63
(lp193
g56
(g77
g58
NtRp194
(dp195
g61
(dp196
g81
g82
ssg70
g190
sg63
(lp197
S'controller'
p198
asbag56
(g77
g58
NtRp199
(dp200
g61
(dp201
g88
g89
ssg70
g190
sg63
(lp202
S':'
asbag56
(g77
g58
NtRp203
(dp204
g61
(dp205
sg70
g190
sg63
(lp206
g56
(g57
g58
NtRp207
(dp208
g61
(dp209
g69
I5
ssg70
g203
sg63
(lp210
S'default'
p211
asbasbasbag56
(g72
g58
NtRp212
(dp213
g61
(dp214
sg70
g66
sg63
(lp215
g56
(g77
g58
NtRp216
(dp217
g61
(dp218
g81
g82
ssg70
g212
sg63
(lp219
S'cookies'
p220
asbag56
(g77
g58
NtRp221
(dp222
g61
(dp223
g88
g89
ssg70
g212
sg63
(lp224
S':'
asbag56
(g77
g58
NtRp225
(dp226
g61
(dp227
sg70
g212
sg63
(lp228
g56
(g57
g58
NtRp229
(dp230
g61
(dp231
g69
I5
ssg70
g225
sg63
(lp232
g56
(g65
g58
NtRp233
(dp234
g61
(dp235
g69
I4
ssg70
Nsg63
(lp236
g56
(g72
g58
NtRp237
(dp238
g61
(dp239
sg70
g233
sg63
(lp240
g56
(g77
g58
NtRp241
(dp242
g61
(dp243
g81
g82
ssg70
g237
sg63
(lp244
S'session_id_admin'
p245
asbag56
(g77
g58
NtRp246
(dp247
g61
(dp248
g88
g89
ssg70
g237
sg63
(lp249
S':'
asbag56
(g77
g58
NtRp250
(dp251
g61
(dp252
sg70
g237
sg63
(lp253
g56
(g57
g58
NtRp254
(dp255
g61
(dp256
g69
I4
ssg70
g250
sg63
(lp257
g56
(g65
g58
NtRp258
(dp259
g61
(dp260
g69
I3
ssg70
Nsg63
(lp261
g56
(g72
g58
NtRp262
(dp263
g61
(dp264
sg70
g258
sg63
(lp265
g56
(g77
g58
NtRp266
(dp267
g61
(dp268
g81
g82
ssg70
g262
sg63
(lp269
S'comment'
p270
asbag56
(g77
g58
NtRp271
(dp272
g61
(dp273
g88
g89
ssg70
g262
sg63
(lp274
S':'
asbag56
(g77
g58
NtRp275
(dp276
g61
(dp277
sg70
g262
sg63
(lp278
g56
(g57
g58
NtRp279
(dp280
g61
(dp281
g69
I3
ssg70
g275
sg63
(lp282
S''
asbasbasbag56
(g72
g58
NtRp283
(dp284
g61
(dp285
sg70
g258
sg63
(lp286
g56
(g77
g58
NtRp287
(dp288
g61
(dp289
g81
g82
ssg70
g283
sg63
(lp290
S'domain'
p291
asbag56
(g77
g58
NtRp292
(dp293
g61
(dp294
g88
g89
ssg70
g283
sg63
(lp295
S':'
asbag56
(g77
g58
NtRp296
(dp297
g61
(dp298
sg70
g283
sg63
(lp299
g56
(g57
g58
NtRp300
(dp301
g61
(dp302
g69
I3
ssg70
g296
sg63
(lp303
S''
asbasbasbag56
(g72
g58
NtRp304
(dp305
g61
(dp306
sg70
g258
sg63
(lp307
g56
(g77
g58
NtRp308
(dp309
g61
(dp310
g81
g82
ssg70
g304
sg63
(lp311
S'expires'
p312
asbag56
(g77
g58
NtRp313
(dp314
g61
(dp315
g88
g89
ssg70
g304
sg63
(lp316
S':'
asbag56
(g77
g58
NtRp317
(dp318
g61
(dp319
sg70
g304
sg63
(lp320
g56
(g57
g58
NtRp321
(dp322
g61
(dp323
g69
I3
ssg70
g317
sg63
(lp324
S''
asbasbasbag56
(g72
g58
NtRp325
(dp326
g61
(dp327
sg70
g258
sg63
(lp328
g56
(g77
g58
NtRp329
(dp330
g61
(dp331
g81
g82
ssg70
g325
sg63
(lp332
S'httponly'
p333
asbag56
(g77
g58
NtRp334
(dp335
g61
(dp336
g88
g89
ssg70
g325
sg63
(lp337
S':'
asbag56
(g77
g58
NtRp338
(dp339
g61
(dp340
sg70
g325
sg63
(lp341
g56
(g57
g58
NtRp342
(dp343
g61
(dp344
g69
I3
ssg70
g338
sg63
(lp345
S''
asbasbasbag56
(g72
g58
NtRp346
(dp347
g61
(dp348
sg70
g258
sg63
(lp349
g56
(g77
g58
NtRp350
(dp351
g61
(dp352
g81
g82
ssg70
g346
sg63
(lp353
S'max-age'
p354
asbag56
(g77
g58
NtRp355
(dp356
g61
(dp357
g88
g89
ssg70
g346
sg63
(lp358
S':'
asbag56
(g77
g58
NtRp359
(dp360
g61
(dp361
sg70
g346
sg63
(lp362
g56
(g57
g58
NtRp363
(dp364
g61
(dp365
g69
I3
ssg70
g359
sg63
(lp366
S''
asbasbasbag56
(g72
g58
NtRp367
(dp368
g61
(dp369
sg70
g258
sg63
(lp370
g56
(g77
g58
NtRp371
(dp372
g61
(dp373
g81
g82
ssg70
g367
sg63
(lp374
S'path'
p375
asbag56
(g77
g58
NtRp376
(dp377
g61
(dp378
g88
g89
ssg70
g367
sg63
(lp379
S':'
asbag56
(g77
g58
NtRp380
(dp381
g61
(dp382
sg70
g367
sg63
(lp383
g56
(g57
g58
NtRp384
(dp385
g61
(dp386
g69
I3
ssg70
g380
sg63
(lp387
S''
asbasbasbag56
(g72
g58
NtRp388
(dp389
g61
(dp390
sg70
g258
sg63
(lp391
g56
(g77
g58
NtRp392
(dp393
g61
(dp394
g81
g82
ssg70
g388
sg63
(lp395
S'secure'
p396
asbag56
(g77
g58
NtRp397
(dp398
g61
(dp399
g88
g89
ssg70
g388
sg63
(lp400
S':'
asbag56
(g77
g58
NtRp401
(dp402
g61
(dp403
sg70
g388
sg63
(lp404
g56
(g57
g58
NtRp405
(dp406
g61
(dp407
g69
I3
ssg70
g401
sg63
(lp408
S''
asbasbasbag56
(g72
g58
NtRp409
(dp410
g61
(dp411
sg70
g258
sg63
(lp412
g56
(g77
g58
NtRp413
(dp414
g61
(dp415
g81
g82
ssg70
g409
sg63
(lp416
S'version'
p417
asbag56
(g77
g58
NtRp418
(dp419
g61
(dp420
g88
g89
ssg70
g409
sg63
(lp421
S':'
asbag56
(g77
g58
NtRp422
(dp423
g61
(dp424
sg70
g409
sg63
(lp425
g56
(g57
g58
NtRp426
(dp427
g61
(dp428
g69
I3
ssg70
g422
sg63
(lp429
S''
asbasbasbasbasbasbasbag56
(g72
g58
NtRp430
(dp431
g61
(dp432
sg70
g233
sg63
(lp433
g56
(g77
g58
NtRp434
(dp435
g61
(dp436
g81
g82
ssg70
g430
sg63
(lp437
S'session_id_blog'
p438
asbag56
(g77
g58
NtRp439
(dp440
g61
(dp441
g88
g89
ssg70
g430
sg63
(lp442
S':'
asbag56
(g77
g58
NtRp443
(dp444
g61
(dp445
sg70
g430
sg63
(lp446
g56
(g57
g58
NtRp447
(dp448
g61
(dp449
g69
I4
ssg70
g443
sg63
(lp450
g56
(g65
g58
NtRp451
(dp452
g61
(dp453
g69
I3
ssg70
Nsg63
(lp454
g56
(g72
g58
NtRp455
(dp456
g61
(dp457
sg70
g451
sg63
(lp458
g56
(g77
g58
NtRp459
(dp460
g61
(dp461
g81
g82
ssg70
g455
sg63
(lp462
g270
asbag56
(g77
g58
NtRp463
(dp464
g61
(dp465
g88
g89
ssg70
g455
sg63
(lp466
S':'
asbag56
(g77
g58
NtRp467
(dp468
g61
(dp469
sg70
g455
sg63
(lp470
g56
(g57
g58
NtRp471
(dp472
g61
(dp473
g69
I3
ssg70
g467
sg63
(lp474
S''
asbasbasbag56
(g72
g58
NtRp475
(dp476
g61
(dp477
sg70
g451
sg63
(lp478
g56
(g77
g58
NtRp479
(dp480
g61
(dp481
g81
g82
ssg70
g475
sg63
(lp482
g291
asbag56
(g77
g58
NtRp483
(dp484
g61
(dp485
g88
g89
ssg70
g475
sg63
(lp486
S':'
asbag56
(g77
g58
NtRp487
(dp488
g61
(dp489
sg70
g475
sg63
(lp490
g56
(g57
g58
NtRp491
(dp492
g61
(dp493
g69
I3
ssg70
g487
sg63
(lp494
S''
asbasbasbag56
(g72
g58
NtRp495
(dp496
g61
(dp497
sg70
g451
sg63
(lp498
g56
(g77
g58
NtRp499
(dp500
g61
(dp501
g81
g82
ssg70
g495
sg63
(lp502
g312
asbag56
(g77
g58
NtRp503
(dp504
g61
(dp505
g88
g89
ssg70
g495
sg63
(lp506
S':'
asbag56
(g77
g58
NtRp507
(dp508
g61
(dp509
sg70
g495
sg63
(lp510
g56
(g57
g58
NtRp511
(dp512
g61
(dp513
g69
I3
ssg70
g507
sg63
(lp514
S''
asbasbasbag56
(g72
g58
NtRp515
(dp516
g61
(dp517
sg70
g451
sg63
(lp518
g56
(g77
g58
NtRp519
(dp520
g61
(dp521
g81
g82
ssg70
g515
sg63
(lp522
g333
asbag56
(g77
g58
NtRp523
(dp524
g61
(dp525
g88
g89
ssg70
g515
sg63
(lp526
S':'
asbag56
(g77
g58
NtRp527
(dp528
g61
(dp529
sg70
g515
sg63
(lp530
g56
(g57
g58
NtRp531
(dp532
g61
(dp533
g69
I3
ssg70
g527
sg63
(lp534
S''
asbasbasbag56
(g72
g58
NtRp535
(dp536
g61
(dp537
sg70
g451
sg63
(lp538
g56
(g77
g58
NtRp539
(dp540
g61
(dp541
g81
g82
ssg70
g535
sg63
(lp542
g354
asbag56
(g77
g58
NtRp543
(dp544
g61
(dp545
g88
g89
ssg70
g535
sg63
(lp546
S':'
asbag56
(g77
g58
NtRp547
(dp548
g61
(dp549
sg70
g535
sg63
(lp550
g56
(g57
g58
NtRp551
(dp552
g61
(dp553
g69
I3
ssg70
g547
sg63
(lp554
S''
asbasbasbag56
(g72
g58
NtRp555
(dp556
g61
(dp557
sg70
g451
sg63
(lp558
g56
(g77
g58
NtRp559
(dp560
g61
(dp561
g81
g82
ssg70
g555
sg63
(lp562
g375
asbag56
(g77
g58
NtRp563
(dp564
g61
(dp565
g88
g89
ssg70
g555
sg63
(lp566
S':'
asbag56
(g77
g58
NtRp567
(dp568
g61
(dp569
sg70
g555
sg63
(lp570
g56
(g57
g58
NtRp571
(dp572
g61
(dp573
g69
I3
ssg70
g567
sg63
(lp574
S''
asbasbasbag56
(g72
g58
NtRp575
(dp576
g61
(dp577
sg70
g451
sg63
(lp578
g56
(g77
g58
NtRp579
(dp580
g61
(dp581
g81
g82
ssg70
g575
sg63
(lp582
g396
asbag56
(g77
g58
NtRp583
(dp584
g61
(dp585
g88
g89
ssg70
g575
sg63
(lp586
S':'
asbag56
(g77
g58
NtRp587
(dp588
g61
(dp589
sg70
g575
sg63
(lp590
g56
(g57
g58
NtRp591
(dp592
g61
(dp593
g69
I3
ssg70
g587
sg63
(lp594
S''
asbasbasbag56
(g72
g58
NtRp595
(dp596
g61
(dp597
sg70
g451
sg63
(lp598
g56
(g77
g58
NtRp599
(dp600
g61
(dp601
g81
g82
ssg70
g595
sg63
(lp602
g417
asbag56
(g77
g58
NtRp603
(dp604
g61
(dp605
g88
g89
ssg70
g595
sg63
(lp606
S':'
asbag56
(g77
g58
NtRp607
(dp608
g61
(dp609
sg70
g595
sg63
(lp610
g56
(g57
g58
NtRp611
(dp612
g61
(dp613
g69
I3
ssg70
g607
sg63
(lp614
S''
asbasbasbasbasbasbasbag56
(g72
g58
NtRp615
(dp616
g61
(dp617
sg70
g233
sg63
(lp618
g56
(g77
g58
NtRp619
(dp620
g61
(dp621
g81
g82
ssg70
g615
sg63
(lp622
S'session_id_paideia'
p623
asbag56
(g77
g58
NtRp624
(dp625
g61
(dp626
g88
g89
ssg70
g615
sg63
(lp627
S':'
asbag56
(g77
g58
NtRp628
(dp629
g61
(dp630
sg70
g615
sg63
(lp631
g56
(g57
g58
NtRp632
(dp633
g61
(dp634
g69
I4
ssg70
g628
sg63
(lp635
g56
(g65
g58
NtRp636
(dp637
g61
(dp638
g69
I3
ssg70
Nsg63
(lp639
g56
(g72
g58
NtRp640
(dp641
g61
(dp642
sg70
g636
sg63
(lp643
g56
(g77
g58
NtRp644
(dp645
g61
(dp646
g81
g82
ssg70
g640
sg63
(lp647
g270
asbag56
(g77
g58
NtRp648
(dp649
g61
(dp650
g88
g89
ssg70
g640
sg63
(lp651
S':'
asbag56
(g77
g58
NtRp652
(dp653
g61
(dp654
sg70
g640
sg63
(lp655
g56
(g57
g58
NtRp656
(dp657
g61
(dp658
g69
I3
ssg70
g652
sg63
(lp659
S''
asbasbasbag56
(g72
g58
NtRp660
(dp661
g61
(dp662
sg70
g636
sg63
(lp663
g56
(g77
g58
NtRp664
(dp665
g61
(dp666
g81
g82
ssg70
g660
sg63
(lp667
g291
asbag56
(g77
g58
NtRp668
(dp669
g61
(dp670
g88
g89
ssg70
g660
sg63
(lp671
S':'
asbag56
(g77
g58
NtRp672
(dp673
g61
(dp674
sg70
g660
sg63
(lp675
g56
(g57
g58
NtRp676
(dp677
g61
(dp678
g69
I3
ssg70
g672
sg63
(lp679
S''
asbasbasbag56
(g72
g58
NtRp680
(dp681
g61
(dp682
sg70
g636
sg63
(lp683
g56
(g77
g58
NtRp684
(dp685
g61
(dp686
g81
g82
ssg70
g680
sg63
(lp687
g312
asbag56
(g77
g58
NtRp688
(dp689
g61
(dp690
g88
g89
ssg70
g680
sg63
(lp691
S':'
asbag56
(g77
g58
NtRp692
(dp693
g61
(dp694
sg70
g680
sg63
(lp695
g56
(g57
g58
NtRp696
(dp697
g61
(dp698
g69
I3
ssg70
g692
sg63
(lp699
S''
asbasbasbag56
(g72
g58
NtRp700
(dp701
g61
(dp702
sg70
g636
sg63
(lp703
g56
(g77
g58
NtRp704
(dp705
g61
(dp706
g81
g82
ssg70
g700
sg63
(lp707
g333
asbag56
(g77
g58
NtRp708
(dp709
g61
(dp710
g88
g89
ssg70
g700
sg63
(lp711
S':'
asbag56
(g77
g58
NtRp712
(dp713
g61
(dp714
sg70
g700
sg63
(lp715
g56
(g57
g58
NtRp716
(dp717
g61
(dp718
g69
I3
ssg70
g712
sg63
(lp719
S''
asbasbasbag56
(g72
g58
NtRp720
(dp721
g61
(dp722
sg70
g636
sg63
(lp723
g56
(g77
g58
NtRp724
(dp725
g61
(dp726
g81
g82
ssg70
g720
sg63
(lp727
g354
asbag56
(g77
g58
NtRp728
(dp729
g61
(dp730
g88
g89
ssg70
g720
sg63
(lp731
S':'
asbag56
(g77
g58
NtRp732
(dp733
g61
(dp734
sg70
g720
sg63
(lp735
g56
(g57
g58
NtRp736
(dp737
g61
(dp738
g69
I3
ssg70
g732
sg63
(lp739
S''
asbasbasbag56
(g72
g58
NtRp740
(dp741
g61
(dp742
sg70
g636
sg63
(lp743
g56
(g77
g58
NtRp744
(dp745
g61
(dp746
g81
g82
ssg70
g740
sg63
(lp747
g375
asbag56
(g77
g58
NtRp748
(dp749
g61
(dp750
g88
g89
ssg70
g740
sg63
(lp751
S':'
asbag56
(g77
g58
NtRp752
(dp753
g61
(dp754
sg70
g740
sg63
(lp755
g56
(g57
g58
NtRp756
(dp757
g61
(dp758
g69
I3
ssg70
g752
sg63
(lp759
S''
asbasbasbag56
(g72
g58
NtRp760
(dp761
g61
(dp762
sg70
g636
sg63
(lp763
g56
(g77
g58
NtRp764
(dp765
g61
(dp766
g81
g82
ssg70
g760
sg63
(lp767
g396
asbag56
(g77
g58
NtRp768
(dp769
g61
(dp770
g88
g89
ssg70
g760
sg63
(lp771
S':'
asbag56
(g77
g58
NtRp772
(dp773
g61
(dp774
sg70
g760
sg63
(lp775
g56
(g57
g58
NtRp776
(dp777
g61
(dp778
g69
I3
ssg70
g772
sg63
(lp779
S''
asbasbasbag56
(g72
g58
NtRp780
(dp781
g61
(dp782
sg70
g636
sg63
(lp783
g56
(g77
g58
NtRp784
(dp785
g61
(dp786
g81
g82
ssg70
g780
sg63
(lp787
g417
asbag56
(g77
g58
NtRp788
(dp789
g61
(dp790
g88
g89
ssg70
g780
sg63
(lp791
S':'
asbag56
(g77
g58
NtRp792
(dp793
g61
(dp794
sg70
g780
sg63
(lp795
g56
(g57
g58
NtRp796
(dp797
g61
(dp798
g69
I3
ssg70
g792
sg63
(lp799
S''
asbasbasbasbasbasbasbag56
(g72
g58
NtRp800
(dp801
g61
(dp802
sg70
g233
sg63
(lp803
g56
(g77
g58
NtRp804
(dp805
g61
(dp806
g81
g82
ssg70
g800
sg63
(lp807
S'session_id_places'
p808
asbag56
(g77
g58
NtRp809
(dp810
g61
(dp811
g88
g89
ssg70
g800
sg63
(lp812
S':'
asbag56
(g77
g58
NtRp813
(dp814
g61
(dp815
sg70
g800
sg63
(lp816
g56
(g57
g58
NtRp817
(dp818
g61
(dp819
g69
I4
ssg70
g813
sg63
(lp820
g56
(g65
g58
NtRp821
(dp822
g61
(dp823
g69
I3
ssg70
Nsg63
(lp824
g56
(g72
g58
NtRp825
(dp826
g61
(dp827
sg70
g821
sg63
(lp828
g56
(g77
g58
NtRp829
(dp830
g61
(dp831
g81
g82
ssg70
g825
sg63
(lp832
g270
asbag56
(g77
g58
NtRp833
(dp834
g61
(dp835
g88
g89
ssg70
g825
sg63
(lp836
S':'
asbag56
(g77
g58
NtRp837
(dp838
g61
(dp839
sg70
g825
sg63
(lp840
g56
(g57
g58
NtRp841
(dp842
g61
(dp843
g69
I3
ssg70
g837
sg63
(lp844
S''
asbasbasbag56
(g72
g58
NtRp845
(dp846
g61
(dp847
sg70
g821
sg63
(lp848
g56
(g77
g58
NtRp849
(dp850
g61
(dp851
g81
g82
ssg70
g845
sg63
(lp852
g291
asbag56
(g77
g58
NtRp853
(dp854
g61
(dp855
g88
g89
ssg70
g845
sg63
(lp856
S':'
asbag56
(g77
g58
NtRp857
(dp858
g61
(dp859
sg70
g845
sg63
(lp860
g56
(g57
g58
NtRp861
(dp862
g61
(dp863
g69
I3
ssg70
g857
sg63
(lp864
S''
asbasbasbag56
(g72
g58
NtRp865
(dp866
g61
(dp867
sg70
g821
sg63
(lp868
g56
(g77
g58
NtRp869
(dp870
g61
(dp871
g81
g82
ssg70
g865
sg63
(lp872
g312
asbag56
(g77
g58
NtRp873
(dp874
g61
(dp875
g88
g89
ssg70
g865
sg63
(lp876
S':'
asbag56
(g77
g58
NtRp877
(dp878
g61
(dp879
sg70
g865
sg63
(lp880
g56
(g57
g58
NtRp881
(dp882
g61
(dp883
g69
I3
ssg70
g877
sg63
(lp884
S''
asbasbasbag56
(g72
g58
NtRp885
(dp886
g61
(dp887
sg70
g821
sg63
(lp888
g56
(g77
g58
NtRp889
(dp890
g61
(dp891
g81
g82
ssg70
g885
sg63
(lp892
g333
asbag56
(g77
g58
NtRp893
(dp894
g61
(dp895
g88
g89
ssg70
g885
sg63
(lp896
S':'
asbag56
(g77
g58
NtRp897
(dp898
g61
(dp899
sg70
g885
sg63
(lp900
g56
(g57
g58
NtRp901
(dp902
g61
(dp903
g69
I3
ssg70
g897
sg63
(lp904
S''
asbasbasbag56
(g72
g58
NtRp905
(dp906
g61
(dp907
sg70
g821
sg63
(lp908
g56
(g77
g58
NtRp909
(dp910
g61
(dp911
g81
g82
ssg70
g905
sg63
(lp912
g354
asbag56
(g77
g58
NtRp913
(dp914
g61
(dp915
g88
g89
ssg70
g905
sg63
(lp916
S':'
asbag56
(g77
g58
NtRp917
(dp918
g61
(dp919
sg70
g905
sg63
(lp920
g56
(g57
g58
NtRp921
(dp922
g61
(dp923
g69
I3
ssg70
g917
sg63
(lp924
S''
asbasbasbag56
(g72
g58
NtRp925
(dp926
g61
(dp927
sg70
g821
sg63
(lp928
g56
(g77
g58
NtRp929
(dp930
g61
(dp931
g81
g82
ssg70
g925
sg63
(lp932
g375
asbag56
(g77
g58
NtRp933
(dp934
g61
(dp935
g88
g89
ssg70
g925
sg63
(lp936
S':'
asbag56
(g77
g58
NtRp937
(dp938
g61
(dp939
sg70
g925
sg63
(lp940
g56
(g57
g58
NtRp941
(dp942
g61
(dp943
g69
I3
ssg70
g937
sg63
(lp944
S''
asbasbasbag56
(g72
g58
NtRp945
(dp946
g61
(dp947
sg70
g821
sg63
(lp948
g56
(g77
g58
NtRp949
(dp950
g61
(dp951
g81
g82
ssg70
g945
sg63
(lp952
g396
asbag56
(g77
g58
NtRp953
(dp954
g61
(dp955
g88
g89
ssg70
g945
sg63
(lp956
S':'
asbag56
(g77
g58
NtRp957
(dp958
g61
(dp959
sg70
g945
sg63
(lp960
g56
(g57
g58
NtRp961
(dp962
g61
(dp963
g69
I3
ssg70
g957
sg63
(lp964
S''
asbasbasbag56
(g72
g58
NtRp965
(dp966
g61
(dp967
sg70
g821
sg63
(lp968
g56
(g77
g58
NtRp969
(dp970
g61
(dp971
g81
g82
ssg70
g965
sg63
(lp972
g417
asbag56
(g77
g58
NtRp973
(dp974
g61
(dp975
g88
g89
ssg70
g965
sg63
(lp976
S':'
asbag56
(g77
g58
NtRp977
(dp978
g61
(dp979
sg70
g965
sg63
(lp980
g56
(g57
g58
NtRp981
(dp982
g61
(dp983
g69
I3
ssg70
g977
sg63
(lp984
S''
asbasbasbasbasbasbasbag56
(g72
g58
NtRp985
(dp986
g61
(dp987
sg70
g233
sg63
(lp988
g56
(g77
g58
NtRp989
(dp990
g61
(dp991
g81
g82
ssg70
g985
sg63
(lp992
S'session_id_welcome'
p993
asbag56
(g77
g58
NtRp994
(dp995
g61
(dp996
g88
g89
ssg70
g985
sg63
(lp997
S':'
asbag56
(g77
g58
NtRp998
(dp999
g61
(dp1000
sg70
g985
sg63
(lp1001
g56
(g57
g58
NtRp1002
(dp1003
g61
(dp1004
g69
I4
ssg70
g998
sg63
(lp1005
g56
(g65
g58
NtRp1006
(dp1007
g61
(dp1008
g69
I3
ssg70
Nsg63
(lp1009
g56
(g72
g58
NtRp1010
(dp1011
g61
(dp1012
sg70
g1006
sg63
(lp1013
g56
(g77
g58
NtRp1014
(dp1015
g61
(dp1016
g81
g82
ssg70
g1010
sg63
(lp1017
g270
asbag56
(g77
g58
NtRp1018
(dp1019
g61
(dp1020
g88
g89
ssg70
g1010
sg63
(lp1021
S':'
asbag56
(g77
g58
NtRp1022
(dp1023
g61
(dp1024
sg70
g1010
sg63
(lp1025
g56
(g57
g58
NtRp1026
(dp1027
g61
(dp1028
g69
I3
ssg70
g1022
sg63
(lp1029
S''
asbasbasbag56
(g72
g58
NtRp1030
(dp1031
g61
(dp1032
sg70
g1006
sg63
(lp1033
g56
(g77
g58
NtRp1034
(dp1035
g61
(dp1036
g81
g82
ssg70
g1030
sg63
(lp1037
g291
asbag56
(g77
g58
NtRp1038
(dp1039
g61
(dp1040
g88
g89
ssg70
g1030
sg63
(lp1041
S':'
asbag56
(g77
g58
NtRp1042
(dp1043
g61
(dp1044
sg70
g1030
sg63
(lp1045
g56
(g57
g58
NtRp1046
(dp1047
g61
(dp1048
g69
I3
ssg70
g1042
sg63
(lp1049
S''
asbasbasbag56
(g72
g58
NtRp1050
(dp1051
g61
(dp1052
sg70
g1006
sg63
(lp1053
g56
(g77
g58
NtRp1054
(dp1055
g61
(dp1056
g81
g82
ssg70
g1050
sg63
(lp1057
g312
asbag56
(g77
g58
NtRp1058
(dp1059
g61
(dp1060
g88
g89
ssg70
g1050
sg63
(lp1061
S':'
asbag56
(g77
g58
NtRp1062
(dp1063
g61
(dp1064
sg70
g1050
sg63
(lp1065
g56
(g57
g58
NtRp1066
(dp1067
g61
(dp1068
g69
I3
ssg70
g1062
sg63
(lp1069
S''
asbasbasbag56
(g72
g58
NtRp1070
(dp1071
g61
(dp1072
sg70
g1006
sg63
(lp1073
g56
(g77
g58
NtRp1074
(dp1075
g61
(dp1076
g81
g82
ssg70
g1070
sg63
(lp1077
g333
asbag56
(g77
g58
NtRp1078
(dp1079
g61
(dp1080
g88
g89
ssg70
g1070
sg63
(lp1081
S':'
asbag56
(g77
g58
NtRp1082
(dp1083
g61
(dp1084
sg70
g1070
sg63
(lp1085
g56
(g57
g58
NtRp1086
(dp1087
g61
(dp1088
g69
I3
ssg70
g1082
sg63
(lp1089
S''
asbasbasbag56
(g72
g58
NtRp1090
(dp1091
g61
(dp1092
sg70
g1006
sg63
(lp1093
g56
(g77
g58
NtRp1094
(dp1095
g61
(dp1096
g81
g82
ssg70
g1090
sg63
(lp1097
g354
asbag56
(g77
g58
NtRp1098
(dp1099
g61
(dp1100
g88
g89
ssg70
g1090
sg63
(lp1101
S':'
asbag56
(g77
g58
NtRp1102
(dp1103
g61
(dp1104
sg70
g1090
sg63
(lp1105
g56
(g57
g58
NtRp1106
(dp1107
g61
(dp1108
g69
I3
ssg70
g1102
sg63
(lp1109
S''
asbasbasbag56
(g72
g58
NtRp1110
(dp1111
g61
(dp1112
sg70
g1006
sg63
(lp1113
g56
(g77
g58
NtRp1114
(dp1115
g61
(dp1116
g81
g82
ssg70
g1110
sg63
(lp1117
g375
asbag56
(g77
g58
NtRp1118
(dp1119
g61
(dp1120
g88
g89
ssg70
g1110
sg63
(lp1121
S':'
asbag56
(g77
g58
NtRp1122
(dp1123
g61
(dp1124
sg70
g1110
sg63
(lp1125
g56
(g57
g58
NtRp1126
(dp1127
g61
(dp1128
g69
I3
ssg70
g1122
sg63
(lp1129
S''
asbasbasbag56
(g72
g58
NtRp1130
(dp1131
g61
(dp1132
sg70
g1006
sg63
(lp1133
g56
(g77
g58
NtRp1134
(dp1135
g61
(dp1136
g81
g82
ssg70
g1130
sg63
(lp1137
g396
asbag56
(g77
g58
NtRp1138
(dp1139
g61
(dp1140
g88
g89
ssg70
g1130
sg63
(lp1141
S':'
asbag56
(g77
g58
NtRp1142
(dp1143
g61
(dp1144
sg70
g1130
sg63
(lp1145
g56
(g57
g58
NtRp1146
(dp1147
g61
(dp1148
g69
I3
ssg70
g1142
sg63
(lp1149
S''
asbasbasbag56
(g72
g58
NtRp1150
(dp1151
g61
(dp1152
sg70
g1006
sg63
(lp1153
g56
(g77
g58
NtRp1154
(dp1155
g61
(dp1156
g81
g82
ssg70
g1150
sg63
(lp1157
g417
asbag56
(g77
g58
NtRp1158
(dp1159
g61
(dp1160
g88
g89
ssg70
g1150
sg63
(lp1161
S':'
asbag56
(g77
g58
NtRp1162
(dp1163
g61
(dp1164
sg70
g1150
sg63
(lp1165
g56
(g57
g58
NtRp1166
(dp1167
g61
(dp1168
g69
I3
ssg70
g1162
sg63
(lp1169
S''
asbasbasbasbasbasbasbasbasbasbasbag56
(g72
g58
NtRp1170
(dp1171
g61
(dp1172
sg70
g66
sg63
(lp1173
g56
(g77
g58
NtRp1174
(dp1175
g61
(dp1176
g81
g82
ssg70
g1170
sg63
(lp1177
S'env'
p1178
asbag56
(g77
g58
NtRp1179
(dp1180
g61
(dp1181
g88
g89
ssg70
g1170
sg63
(lp1182
S':'
asbag56
(g77
g58
NtRp1183
(dp1184
g61
(dp1185
sg70
g1170
sg63
(lp1186
g56
(g57
g58
NtRp1187
(dp1188
g61
(dp1189
g69
I5
ssg70
g1183
sg63
(lp1190
g56
(g65
g58
NtRp1191
(dp1192
g61
(dp1193
g69
I4
ssg70
Nsg63
(lp1194
g56
(g72
g58
NtRp1195
(dp1196
g61
(dp1197
sg70
g1191
sg63
(lp1198
g56
(g77
g58
NtRp1199
(dp1200
g61
(dp1201
g81
g82
ssg70
g1195
sg63
(lp1202
S'app_folders'
p1203
asbag56
(g77
g58
NtRp1204
(dp1205
g61
(dp1206
g88
g89
ssg70
g1195
sg63
(lp1207
S':'
asbag56
(g77
g58
NtRp1208
(dp1209
g61
(dp1210
sg70
g1195
sg63
(lp1211
g56
(g57
g58
NtRp1212
(dp1213
g61
(dp1214
g69
I4
ssg70
g1208
sg63
(lp1215
S"set(['/home/ian/Dropbox/Web_Pages/web2py-linux/applications/blog/', '/home/ian/Dropbox/Web_Pages/web2py-linux/applications/places/', '/home/ian/Dropbox/Web_Pages/web2py-linux/applications/Paideia/', '/home/ian/Dropbox/Web_Pages/web2py-linux/applications/admin/', '/home/ian/Dropbox/Web_Pages/web2py-linux/applications/welcome/'])"
p1216
asbasbasbag56
(g72
g58
NtRp1217
(dp1218
g61
(dp1219
sg70
g1191
sg63
(lp1220
g56
(g77
g58
NtRp1221
(dp1222
g61
(dp1223
g81
g82
ssg70
g1217
sg63
(lp1224
S'applications_parent'
p1225
asbag56
(g77
g58
NtRp1226
(dp1227
g61
(dp1228
g88
g89
ssg70
g1217
sg63
(lp1229
S':'
asbag56
(g77
g58
NtRp1230
(dp1231
g61
(dp1232
sg70
g1217
sg63
(lp1233
g56
(g57
g58
NtRp1234
(dp1235
g61
(dp1236
g69
I4
ssg70
g1230
sg63
(lp1237
S'/home/ian/Dropbox/Web_Pages/web2py-linux'
p1238
asbasbasbag56
(g72
g58
NtRp1239
(dp1240
g61
(dp1241
sg70
g1191
sg63
(lp1242
g56
(g77
g58
NtRp1243
(dp1244
g61
(dp1245
g81
g82
ssg70
g1239
sg63
(lp1246
S'cmd_args'
p1247
asbag56
(g77
g58
NtRp1248
(dp1249
g61
(dp1250
g88
g89
ssg70
g1239
sg63
(lp1251
S':'
asbag56
(g77
g58
NtRp1252
(dp1253
g61
(dp1254
sg70
g1239
sg63
(lp1255
g56
(g57
g58
NtRp1256
(dp1257
g61
(dp1258
g69
I4
ssg70
g1252
sg63
(lp1259
g56
(g65
g58
NtRp1260
(dp1261
g61
(dp1262
g69
I3
ssg70
Nsg63
(lp1263
sbasbasbasbag56
(g72
g58
NtRp1264
(dp1265
g61
(dp1266
sg70
g1191
sg63
(lp1267
g56
(g77
g58
NtRp1268
(dp1269
g61
(dp1270
g81
g82
ssg70
g1264
sg63
(lp1271
S'cmd_options'
p1272
asbag56
(g77
g58
NtRp1273
(dp1274
g61
(dp1275
g88
g89
ssg70
g1264
sg63
(lp1276
S':'
asbag56
(g77
g58
NtRp1277
(dp1278
g61
(dp1279
sg70
g1264
sg63
(lp1280
g56
(g57
g58
NtRp1281
(dp1282
g61
(dp1283
g69
I4
ssg70
g1277
sg63
(lp1284
S"<Values at 0x2723170: {'verbose': False, 'ip': '127.0.0.1', 'shutdown_timeout': 5, 'taskbar': False, 'nocron': False, 'pid_filename': 'httpserver.pid', 'maxthreads': None, 'softcron': False, 'server_name': 'uriel', 'bpython': False, 'nogui': False, 'port': 8000, 'extcron': False, 'debuglevel': 30, 'test': None, 'folder': '/home/ian/Dropbox/Web_Pages/web2py-linux', 'config': '', 'import_models': False, 'winservice': '', 'shell': None, 'run': '', 'log_filename': 'httpserver.log', 'args': [''], 'ssl_ca_certificate': None, 'scheduler': None, 'profiler_filename': None, 'ssl_private_key': '', 'password': '<ask>', 'request_queue_size': 5, 'ssl_certificate': '', 'cronjob': False, 'plain': False, 'quiet': False, 'interfaces': None, 'minthreads': None, 'timeout': 10, 'numthreads': None, 'nobanner': False}>"
p1285
asbasbasbag56
(g72
g58
NtRp1286
(dp1287
g61
(dp1288
sg70
g1191
sg63
(lp1289
g56
(g77
g58
NtRp1290
(dp1291
g61
(dp1292
g81
g82
ssg70
g1286
sg63
(lp1293
S'db_sessions'
p1294
asbag56
(g77
g58
NtRp1295
(dp1296
g61
(dp1297
g88
g89
ssg70
g1286
sg63
(lp1298
S':'
asbag56
(g77
g58
NtRp1299
(dp1300
g61
(dp1301
sg70
g1286
sg63
(lp1302
g56
(g57
g58
NtRp1303
(dp1304
g61
(dp1305
g69
I4
ssg70
g1299
sg63
(lp1306
S'set([])'
p1307
asbasbasbag56
(g72
g58
NtRp1308
(dp1309
g61
(dp1310
sg70
g1191
sg63
(lp1311
g56
(g77
g58
NtRp1312
(dp1313
g61
(dp1314
g81
g82
ssg70
g1308
sg63
(lp1315
S'debugging'
p1316
asbag56
(g77
g58
NtRp1317
(dp1318
g61
(dp1319
g88
g89
ssg70
g1308
sg63
(lp1320
S':'
asbag56
(g77
g58
NtRp1321
(dp1322
g61
(dp1323
sg70
g1308
sg63
(lp1324
g56
(g57
g58
NtRp1325
(dp1326
g61
(dp1327
g69
I4
ssg70
g1321
sg63
(lp1328
g99
asbasbasbag56
(g72
g58
NtRp1329
(dp1330
g61
(dp1331
sg70
g1191
sg63
(lp1332
g56
(g77
g58
NtRp1333
(dp1334
g61
(dp1335
g81
g82
ssg70
g1329
sg63
(lp1336
S'gluon_parent'
p1337
asbag56
(g77
g58
NtRp1338
(dp1339
g61
(dp1340
g88
g89
ssg70
g1329
sg63
(lp1341
S':'
asbag56
(g77
g58
NtRp1342
(dp1343
g61
(dp1344
sg70
g1329
sg63
(lp1345
g56
(g57
g58
NtRp1346
(dp1347
g61
(dp1348
g69
I4
ssg70
g1342
sg63
(lp1349
S'/home/ian/Dropbox/Web_Pages/web2py-linux'
p1350
asbasbasbag56
(g72
g58
NtRp1351
(dp1352
g61
(dp1353
sg70
g1191
sg63
(lp1354
g56
(g77
g58
NtRp1355
(dp1356
g61
(dp1357
g81
g82
ssg70
g1351
sg63
(lp1358
S'http_accept'
p1359
asbag56
(g77
g58
NtRp1360
(dp1361
g61
(dp1362
g88
g89
ssg70
g1351
sg63
(lp1363
S':'
asbag56
(g77
g58
NtRp1364
(dp1365
g61
(dp1366
sg70
g1351
sg63
(lp1367
g56
(g57
g58
NtRp1368
(dp1369
g61
(dp1370
g69
I4
ssg70
g1364
sg63
(lp1371
S'text/html,application/xhtml+xml,application/xml;q=0.9,*/*;q=0.8'
p1372
asbasbasbag56
(g72
g58
NtRp1373
(dp1374
g61
(dp1375
sg70
g1191
sg63
(lp1376
g56
(g77
g58
NtRp1377
(dp1378
g61
(dp1379
g81
g82
ssg70
g1373
sg63
(lp1380
S'http_accept_charset'
p1381
asbag56
(g77
g58
NtRp1382
(dp1383
g61
(dp1384
g88
g89
ssg70
g1373
sg63
(lp1385
S':'
asbag56
(g77
g58
NtRp1386
(dp1387
g61
(dp1388
sg70
g1373
sg63
(lp1389
g56
(g57
g58
NtRp1390
(dp1391
g61
(dp1392
g69
I4
ssg70
g1386
sg63
(lp1393
S'UTF-8,*'
p1394
asbasbasbag56
(g72
g58
NtRp1395
(dp1396
g61
(dp1397
sg70
g1191
sg63
(lp1398
g56
(g77
g58
NtRp1399
(dp1400
g61
(dp1401
g81
g82
ssg70
g1395
sg63
(lp1402
S'http_accept_encoding'
p1403
asbag56
(g77
g58
NtRp1404
(dp1405
g61
(dp1406
g88
g89
ssg70
g1395
sg63
(lp1407
S':'
asbag56
(g77
g58
NtRp1408
(dp1409
g61
(dp1410
sg70
g1395
sg63
(lp1411
g56
(g57
g58
NtRp1412
(dp1413
g61
(dp1414
g69
I4
ssg70
g1408
sg63
(lp1415
S'gzip, deflate'
p1416
asbasbasbag56
(g72
g58
NtRp1417
(dp1418
g61
(dp1419
sg70
g1191
sg63
(lp1420
g56
(g77
g58
NtRp1421
(dp1422
g61
(dp1423
g81
g82
ssg70
g1417
sg63
(lp1424
S'http_accept_language'
p1425
asbag56
(g77
g58
NtRp1426
(dp1427
g61
(dp1428
g88
g89
ssg70
g1417
sg63
(lp1429
S':'
asbag56
(g77
g58
NtRp1430
(dp1431
g61
(dp1432
sg70
g1417
sg63
(lp1433
g56
(g57
g58
NtRp1434
(dp1435
g61
(dp1436
g69
I4
ssg70
g1430
sg63
(lp1437
S'en-us,en;q=0.5'
p1438
asbasbasbag56
(g72
g58
NtRp1439
(dp1440
g61
(dp1441
sg70
g1191
sg63
(lp1442
g56
(g77
g58
NtRp1443
(dp1444
g61
(dp1445
g81
g82
ssg70
g1439
sg63
(lp1446
S'http_cache_control'
p1447
asbag56
(g77
g58
NtRp1448
(dp1449
g61
(dp1450
g88
g89
ssg70
g1439
sg63
(lp1451
S':'
asbag56
(g77
g58
NtRp1452
(dp1453
g61
(dp1454
sg70
g1439
sg63
(lp1455
g56
(g57
g58
NtRp1456
(dp1457
g61
(dp1458
g69
I4
ssg70
g1452
sg63
(lp1459
S'max-age=0'
p1460
asbasbasbag56
(g72
g58
NtRp1461
(dp1462
g61
(dp1463
sg70
g1191
sg63
(lp1464
g56
(g77
g58
NtRp1465
(dp1466
g61
(dp1467
g81
g82
ssg70
g1461
sg63
(lp1468
S'http_connection'
p1469
asbag56
(g77
g58
NtRp1470
(dp1471
g61
(dp1472
g88
g89
ssg70
g1461
sg63
(lp1473
S':'
asbag56
(g77
g58
NtRp1474
(dp1475
g61
(dp1476
sg70
g1461
sg63
(lp1477
g56
(g57
g58
NtRp1478
(dp1479
g61
(dp1480
g69
I4
ssg70
g1474
sg63
(lp1481
S'keep-alive'
p1482
asbasbasbag56
(g72
g58
NtRp1483
(dp1484
g61
(dp1485
sg70
g1191
sg63
(lp1486
g56
(g77
g58
NtRp1487
(dp1488
g61
(dp1489
g81
g82
ssg70
g1483
sg63
(lp1490
S'http_cookie'
p1491
asbag56
(g77
g58
NtRp1492
(dp1493
g61
(dp1494
g88
g89
ssg70
g1483
sg63
(lp1495
S':'
asbag56
(g77
g58
NtRp1496
(dp1497
g61
(dp1498
sg70
g1483
sg63
(lp1499
g56
(g57
g58
NtRp1500
(dp1501
g61
(dp1502
g69
I4
ssg70
g1496
sg63
(lp1503
S'session_id_blog=127.0.0.1-f221c588-e499-4b63-9882-f52e2f06907c; session_id_welcome=127.0.0.1-c5e18343-d06e-414a-bb07-23cb8cf7ceb8; session_id_paideia=127.0.0.1-81eff388-1cde-41fb-8887-06f0c09ce763; session_id_admin=127.0.0.1-f8ad7263-b87d-41ed-bbe2-215e5232b6dc; session_id_places=127.0.0.1-ae378f77-b944-4a55-be06-eed4ce913913'
p1504
asbasbasbag56
(g72
g58
NtRp1505
(dp1506
g61
(dp1507
sg70
g1191
sg63
(lp1508
g56
(g77
g58
NtRp1509
(dp1510
g61
(dp1511
g81
g82
ssg70
g1505
sg63
(lp1512
S'http_host'
p1513
asbag56
(g77
g58
NtRp1514
(dp1515
g61
(dp1516
g88
g89
ssg70
g1505
sg63
(lp1517
S':'
asbag56
(g77
g58
NtRp1518
(dp1519
g61
(dp1520
sg70
g1505
sg63
(lp1521
g56
(g57
g58
NtRp1522
(dp1523
g61
(dp1524
g69
I4
ssg70
g1518
sg63
(lp1525
S'127.0.0.1:8000'
p1526
asbasbasbag56
(g72
g58
NtRp1527
(dp1528
g61
(dp1529
sg70
g1191
sg63
(lp1530
g56
(g77
g58
NtRp1531
(dp1532
g61
(dp1533
g81
g82
ssg70
g1527
sg63
(lp1534
S'http_referer'
p1535
asbag56
(g77
g58
NtRp1536
(dp1537
g61
(dp1538
g88
g89
ssg70
g1527
sg63
(lp1539
S':'
asbag56
(g77
g58
NtRp1540
(dp1541
g61
(dp1542
sg70
g1527
sg63
(lp1543
g56
(g57
g58
NtRp1544
(dp1545
g61
(dp1546
g69
I4
ssg70
g1540
sg63
(lp1547
S'http://127.0.0.1:8000/places/'
p1548
asbasbasbag56
(g72
g58
NtRp1549
(dp1550
g61
(dp1551
sg70
g1191
sg63
(lp1552
g56
(g77
g58
NtRp1553
(dp1554
g61
(dp1555
g81
g82
ssg70
g1549
sg63
(lp1556
S'http_user_agent'
p1557
asbag56
(g77
g58
NtRp1558
(dp1559
g61
(dp1560
g88
g89
ssg70
g1549
sg63
(lp1561
S':'
asbag56
(g77
g58
NtRp1562
(dp1563
g61
(dp1564
sg70
g1549
sg63
(lp1565
g56
(g57
g58
NtRp1566
(dp1567
g61
(dp1568
g69
I4
ssg70
g1562
sg63
(lp1569
S'Mozilla/5.0 (X11; Linux x86_64; rv:7.0.1) Gecko/20100101 Firefox/7.0.1'
p1570
asbasbasbag56
(g72
g58
NtRp1571
(dp1572
g61
(dp1573
sg70
g1191
sg63
(lp1574
g56
(g77
g58
NtRp1575
(dp1576
g61
(dp1577
g81
g82
ssg70
g1571
sg63
(lp1578
S'is_jython'
p1579
asbag56
(g77
g58
NtRp1580
(dp1581
g61
(dp1582
g88
g89
ssg70
g1571
sg63
(lp1583
S':'
asbag56
(g77
g58
NtRp1584
(dp1585
g61
(dp1586
sg70
g1571
sg63
(lp1587
g56
(g57
g58
NtRp1588
(dp1589
g61
(dp1590
g69
I4
ssg70
g1584
sg63
(lp1591
g99
asbasbasbag56
(g72
g58
NtRp1592
(dp1593
g61
(dp1594
sg70
g1191
sg63
(lp1595
g56
(g77
g58
NtRp1596
(dp1597
g61
(dp1598
g81
g82
ssg70
g1592
sg63
(lp1599
S'path_info'
p1600
asbag56
(g77
g58
NtRp1601
(dp1602
g61
(dp1603
g88
g89
ssg70
g1592
sg63
(lp1604
S':'
asbag56
(g77
g58
NtRp1605
(dp1606
g61
(dp1607
sg70
g1592
sg63
(lp1608
g56
(g57
g58
NtRp1609
(dp1610
g61
(dp1611
g69
I4
ssg70
g1605
sg63
(lp1612
S'/places/default/index'
p1613
asbasbasbag56
(g72
g58
NtRp1614
(dp1615
g61
(dp1616
sg70
g1191
sg63
(lp1617
g56
(g77
g58
NtRp1618
(dp1619
g61
(dp1620
g81
g82
ssg70
g1614
sg63
(lp1621
S'query_string'
p1622
asbag56
(g77
g58
NtRp1623
(dp1624
g61
(dp1625
g88
g89
ssg70
g1614
sg63
(lp1626
S':'
asbag56
(g77
g58
NtRp1627
(dp1628
g61
(dp1629
sg70
g1614
sg63
(lp1630
g56
(g57
g58
NtRp1631
(dp1632
g61
(dp1633
g69
I4
ssg70
g1627
sg63
(lp1634
S''
asbasbasbag56
(g72
g58
NtRp1635
(dp1636
g61
(dp1637
sg70
g1191
sg63
(lp1638
g56
(g77
g58
NtRp1639
(dp1640
g61
(dp1641
g81
g82
ssg70
g1635
sg63
(lp1642
S'remote_addr'
p1643
asbag56
(g77
g58
NtRp1644
(dp1645
g61
(dp1646
g88
g89
ssg70
g1635
sg63
(lp1647
S':'
asbag56
(g77
g58
NtRp1648
(dp1649
g61
(dp1650
sg70
g1635
sg63
(lp1651
g56
(g57
g58
NtRp1652
(dp1653
g61
(dp1654
g69
I4
ssg70
g1648
sg63
(lp1655
g189
asbasbasbag56
(g72
g58
NtRp1656
(dp1657
g61
(dp1658
sg70
g1191
sg63
(lp1659
g56
(g77
g58
NtRp1660
(dp1661
g61
(dp1662
g81
g82
ssg70
g1656
sg63
(lp1663
S'remote_port'
p1664
asbag56
(g77
g58
NtRp1665
(dp1666
g61
(dp1667
g88
g89
ssg70
g1656
sg63
(lp1668
S':'
asbag56
(g77
g58
NtRp1669
(dp1670
g61
(dp1671
sg70
g1656
sg63
(lp1672
g56
(g57
g58
NtRp1673
(dp1674
g61
(dp1675
g69
I4
ssg70
g1669
sg63
(lp1676
S'59915'
p1677
asbasbasbag56
(g72
g58
NtRp1678
(dp1679
g61
(dp1680
sg70
g1191
sg63
(lp1681
g56
(g77
g58
NtRp1682
(dp1683
g61
(dp1684
g81
g82
ssg70
g1678
sg63
(lp1685
S'request_method'
p1686
asbag56
(g77
g58
NtRp1687
(dp1688
g61
(dp1689
g88
g89
ssg70
g1678
sg63
(lp1690
S':'
asbag56
(g77
g58
NtRp1691
(dp1692
g61
(dp1693
sg70
g1678
sg63
(lp1694
g56
(g57
g58
NtRp1695
(dp1696
g61
(dp1697
g69
I4
ssg70
g1691
sg63
(lp1698
S'GET'
p1699
asbasbasbag56
(g72
g58
NtRp1700
(dp1701
g61
(dp1702
sg70
g1191
sg63
(lp1703
g56
(g77
g58
NtRp1704
(dp1705
g61
(dp1706
g81
g82
ssg70
g1700
sg63
(lp1707
S'script_name'
p1708
asbag56
(g77
g58
NtRp1709
(dp1710
g61
(dp1711
g88
g89
ssg70
g1700
sg63
(lp1712
S':'
asbag56
(g77
g58
NtRp1713
(dp1714
g61
(dp1715
sg70
g1700
sg63
(lp1716
g56
(g57
g58
NtRp1717
(dp1718
g61
(dp1719
g69
I4
ssg70
g1713
sg63
(lp1720
S''
asbasbasbag56
(g72
g58
NtRp1721
(dp1722
g61
(dp1723
sg70
g1191
sg63
(lp1724
g56
(g77
g58
NtRp1725
(dp1726
g61
(dp1727
g81
g82
ssg70
g1721
sg63
(lp1728
S'server_name'
p1729
asbag56
(g77
g58
NtRp1730
(dp1731
g61
(dp1732
g88
g89
ssg70
g1721
sg63
(lp1733
S':'
asbag56
(g77
g58
NtRp1734
(dp1735
g61
(dp1736
sg70
g1721
sg63
(lp1737
g56
(g57
g58
NtRp1738
(dp1739
g61
(dp1740
g69
I4
ssg70
g1734
sg63
(lp1741
S'uriel'
p1742
asbasbasbag56
(g72
g58
NtRp1743
(dp1744
g61
(dp1745
sg70
g1191
sg63
(lp1746
g56
(g77
g58
NtRp1747
(dp1748
g61
(dp1749
g81
g82
ssg70
g1743
sg63
(lp1750
S'server_port'
p1751
asbag56
(g77
g58
NtRp1752
(dp1753
g61
(dp1754
g88
g89
ssg70
g1743
sg63
(lp1755
S':'
asbag56
(g77
g58
NtRp1756
(dp1757
g61
(dp1758
sg70
g1743
sg63
(lp1759
g56
(g57
g58
NtRp1760
(dp1761
g61
(dp1762
g69
I4
ssg70
g1756
sg63
(lp1763
S'8000'
p1764
asbasbasbag56
(g72
g58
NtRp1765
(dp1766
g61
(dp1767
sg70
g1191
sg63
(lp1768
g56
(g77
g58
NtRp1769
(dp1770
g61
(dp1771
g81
g82
ssg70
g1765
sg63
(lp1772
S'server_protocol'
p1773
asbag56
(g77
g58
NtRp1774
(dp1775
g61
(dp1776
g88
g89
ssg70
g1765
sg63
(lp1777
S':'
asbag56
(g77
g58
NtRp1778
(dp1779
g61
(dp1780
sg70
g1765
sg63
(lp1781
g56
(g57
g58
NtRp1782
(dp1783
g61
(dp1784
g69
I4
ssg70
g1778
sg63
(lp1785
S'HTTP/1.1'
p1786
asbasbasbag56
(g72
g58
NtRp1787
(dp1788
g61
(dp1789
sg70
g1191
sg63
(lp1790
g56
(g77
g58
NtRp1791
(dp1792
g61
(dp1793
g81
g82
ssg70
g1787
sg63
(lp1794
S'server_software'
p1795
asbag56
(g77
g58
NtRp1796
(dp1797
g61
(dp1798
g88
g89
ssg70
g1787
sg63
(lp1799
S':'
asbag56
(g77
g58
NtRp1800
(dp1801
g61
(dp1802
sg70
g1787
sg63
(lp1803
g56
(g57
g58
NtRp1804
(dp1805
g61
(dp1806
g69
I4
ssg70
g1800
sg63
(lp1807
S'Rocket 1.2.4'
p1808
asbasbasbag56
(g72
g58
NtRp1809
(dp1810
g61
(dp1811
sg70
g1191
sg63
(lp1812
g56
(g77
g58
NtRp1813
(dp1814
g61
(dp1815
g81
g82
ssg70
g1809
sg63
(lp1816
S'web2py_crontype'
p1817
asbag56
(g77
g58
NtRp1818
(dp1819
g61
(dp1820
g88
g89
ssg70
g1809
sg63
(lp1821
S':'
asbag56
(g77
g58
NtRp1822
(dp1823
g61
(dp1824
sg70
g1809
sg63
(lp1825
g56
(g57
g58
NtRp1826
(dp1827
g61
(dp1828
g69
I4
ssg70
g1822
sg63
(lp1829
S'hard'
p1830
asbasbasbag56
(g72
g58
NtRp1831
(dp1832
g61
(dp1833
sg70
g1191
sg63
(lp1834
g56
(g77
g58
NtRp1835
(dp1836
g61
(dp1837
g81
g82
ssg70
g1831
sg63
(lp1838
S'web2py_path'
p1839
asbag56
(g77
g58
NtRp1840
(dp1841
g61
(dp1842
g88
g89
ssg70
g1831
sg63
(lp1843
S':'
asbag56
(g77
g58
NtRp1844
(dp1845
g61
(dp1846
sg70
g1831
sg63
(lp1847
g56
(g57
g58
NtRp1848
(dp1849
g61
(dp1850
g69
I4
ssg70
g1844
sg63
(lp1851
g1238
asbasbasbag56
(g72
g58
NtRp1852
(dp1853
g61
(dp1854
sg70
g1191
sg63
(lp1855
g56
(g77
g58
NtRp1856
(dp1857
g61
(dp1858
g81
g82
ssg70
g1852
sg63
(lp1859
S'web2py_version'
p1860
asbag56
(g77
g58
NtRp1861
(dp1862
g61
(dp1863
g88
g89
ssg70
g1852
sg63
(lp1864
S':'
asbag56
(g77
g58
NtRp1865
(dp1866
g61
(dp1867
sg70
g1852
sg63
(lp1868
g56
(g57
g58
NtRp1869
(dp1870
g61
(dp1871
g69
I4
ssg70
g1865
sg63
(lp1872
g56
(g65
g58
NtRp1873
(dp1874
g61
(dp1875
g69
I3
ssg70
Nsg63
(lp1876
g56
(g72
g58
NtRp1877
(dp1878
g61
(dp1879
sg70
g1873
sg63
(lp1880
g56
(g77
g58
NtRp1881
(dp1882
g61
(dp1883
sg70
g1877
sg63
(lp1884
g56
(g57
g58
NtRp1885
(dp1886
g61
(dp1887
g69
I3
ssg70
g1881
sg63
(lp1888
S'1'
asbasbasbag56
(g72
g58
NtRp1889
(dp1890
g61
(dp1891
sg70
g1873
sg63
(lp1892
g56
(g77
g58
NtRp1893
(dp1894
g61
(dp1895
sg70
g1889
sg63
(lp1896
g56
(g57
g58
NtRp1897
(dp1898
g61
(dp1899
g69
I3
ssg70
g1893
sg63
(lp1900
S'99'
p1901
asbasbasbag56
(g72
g58
NtRp1902
(dp1903
g61
(dp1904
sg70
g1873
sg63
(lp1905
g56
(g77
g58
NtRp1906
(dp1907
g61
(dp1908
sg70
g1902
sg63
(lp1909
g56
(g57
g58
NtRp1910
(dp1911
g61
(dp1912
g69
I3
ssg70
g1906
sg63
(lp1913
S'2'
asbasbasbag56
(g72
g58
NtRp1914
(dp1915
g61
(dp1916
sg70
g1873
sg63
(lp1917
g56
(g77
g58
NtRp1918
(dp1919
g61
(dp1920
sg70
g1914
sg63
(lp1921
g56
(g57
g58
NtRp1922
(dp1923
g61
(dp1924
g69
I3
ssg70
g1918
sg63
(lp1925
S'datetime.datetime(2011, 9, 26, 6, 55, 33)'
p1926
asbasbasbag56
(g72
g58
NtRp1927
(dp1928
g61
(dp1929
sg70
g1873
sg63
(lp1930
g56
(g77
g58
NtRp1931
(dp1932
g61
(dp1933
sg70
g1927
sg63
(lp1934
g56
(g57
g58
NtRp1935
(dp1936
g61
(dp1937
g69
I3
ssg70
g1931
sg63
(lp1938
S'stable'
p1939
asbasbasbasbasbasbasbag56
(g72
g58
NtRp1940
(dp1941
g61
(dp1942
sg70
g1191
sg63
(lp1943
g56
(g77
g58
NtRp1944
(dp1945
g61
(dp1946
g81
g82
ssg70
g1940
sg63
(lp1947
S'wsgi_errors'
p1948
asbag56
(g77
g58
NtRp1949
(dp1950
g61
(dp1951
g88
g89
ssg70
g1940
sg63
(lp1952
S':'
asbag56
(g77
g58
NtRp1953
(dp1954
g61
(dp1955
sg70
g1940
sg63
(lp1956
g56
(g57
g58
NtRp1957
(dp1958
g61
(dp1959
g69
I4
ssg70
g1953
sg63
(lp1960
S"<open file '<stderr>', mode 'w' at 0x7f4a416fc270>"
p1961
asbasbasbag56
(g72
g58
NtRp1962
(dp1963
g61
(dp1964
sg70
g1191
sg63
(lp1965
g56
(g77
g58
NtRp1966
(dp1967
g61
(dp1968
g81
g82
ssg70
g1962
sg63
(lp1969
S'wsgi_file_wrapper'
p1970
asbag56
(g77
g58
NtRp1971
(dp1972
g61
(dp1973
g88
g89
ssg70
g1962
sg63
(lp1974
S':'
asbag56
(g77
g58
NtRp1975
(dp1976
g61
(dp1977
sg70
g1962
sg63
(lp1978
g56
(g57
g58
NtRp1979
(dp1980
g61
(dp1981
g69
I4
ssg70
g1975
sg63
(lp1982
S'<class wsgiref.util.FileWrapper at 0x24b4870>'
p1983
asbasbasbag56
(g72
g58
NtRp1984
(dp1985
g61
(dp1986
sg70
g1191
sg63
(lp1987
g56
(g77
g58
NtRp1988
(dp1989
g61
(dp1990
g81
g82
ssg70
g1984
sg63
(lp1991
S'wsgi_input'
p1992
asbag56
(g77
g58
NtRp1993
(dp1994
g61
(dp1995
g88
g89
ssg70
g1984
sg63
(lp1996
S':'
asbag56
(g77
g58
NtRp1997
(dp1998
g61
(dp1999
sg70
g1984
sg63
(lp2000
g56
(g57
g58
NtRp2001
(dp2002
g61
(dp2003
g69
I4
ssg70
g1997
sg63
(lp2004
S'<socket._fileobject object at 0x3f9a350>'
p2005
asbasbasbag56
(g72
g58
NtRp2006
(dp2007
g61
(dp2008
sg70
g1191
sg63
(lp2009
g56
(g77
g58
NtRp2010
(dp2011
g61
(dp2012
g81
g82
ssg70
g2006
sg63
(lp2013
S'wsgi_multiprocess'
p2014
asbag56
(g77
g58
NtRp2015
(dp2016
g61
(dp2017
g88
g89
ssg70
g2006
sg63
(lp2018
S':'
asbag56
(g77
g58
NtRp2019
(dp2020
g61
(dp2021
sg70
g2006
sg63
(lp2022
g56
(g57
g58
NtRp2023
(dp2024
g61
(dp2025
g69
I4
ssg70
g2019
sg63
(lp2026
g99
asbasbasbag56
(g72
g58
NtRp2027
(dp2028
g61
(dp2029
sg70
g1191
sg63
(lp2030
g56
(g77
g58
NtRp2031
(dp2032
g61
(dp2033
g81
g82
ssg70
g2027
sg63
(lp2034
S'wsgi_multithread'
p2035
asbag56
(g77
g58
NtRp2036
(dp2037
g61
(dp2038
g88
g89
ssg70
g2027
sg63
(lp2039
S':'
asbag56
(g77
g58
NtRp2040
(dp2041
g61
(dp2042
sg70
g2027
sg63
(lp2043
g56
(g57
g58
NtRp2044
(dp2045
g61
(dp2046
g69
I4
ssg70
g2040
sg63
(lp2047
S'True'
p2048
asbasbasbag56
(g72
g58
NtRp2049
(dp2050
g61
(dp2051
sg70
g1191
sg63
(lp2052
g56
(g77
g58
NtRp2053
(dp2054
g61
(dp2055
g81
g82
ssg70
g2049
sg63
(lp2056
S'wsgi_run_once'
p2057
asbag56
(g77
g58
NtRp2058
(dp2059
g61
(dp2060
g88
g89
ssg70
g2049
sg63
(lp2061
S':'
asbag56
(g77
g58
NtRp2062
(dp2063
g61
(dp2064
sg70
g2049
sg63
(lp2065
g56
(g57
g58
NtRp2066
(dp2067
g61
(dp2068
g69
I4
ssg70
g2062
sg63
(lp2069
g99
asbasbasbag56
(g72
g58
NtRp2070
(dp2071
g61
(dp2072
sg70
g1191
sg63
(lp2073
g56
(g77
g58
NtRp2074
(dp2075
g61
(dp2076
g81
g82
ssg70
g2070
sg63
(lp2077
S'wsgi_url_scheme'
p2078
asbag56
(g77
g58
NtRp2079
(dp2080
g61
(dp2081
g88
g89
ssg70
g2070
sg63
(lp2082
S':'
asbag56
(g77
g58
NtRp2083
(dp2084
g61
(dp2085
sg70
g2070
sg63
(lp2086
g56
(g57
g58
NtRp2087
(dp2088
g61
(dp2089
g69
I4
ssg70
g2083
sg63
(lp2090
S'http'
p2091
asbasbasbag56
(g72
g58
NtRp2092
(dp2093
g61
(dp2094
sg70
g1191
sg63
(lp2095
g56
(g77
g58
NtRp2096
(dp2097
g61
(dp2098
g81
g82
ssg70
g2092
sg63
(lp2099
S'wsgi_version'
p2100
asbag56
(g77
g58
NtRp2101
(dp2102
g61
(dp2103
g88
g89
ssg70
g2092
sg63
(lp2104
S':'
asbag56
(g77
g58
NtRp2105
(dp2106
g61
(dp2107
sg70
g2092
sg63
(lp2108
g56
(g57
g58
NtRp2109
(dp2110
g61
(dp2111
g69
I4
ssg70
g2105
sg63
(lp2112
g56
(g65
g58
NtRp2113
(dp2114
g61
(dp2115
g69
I3
ssg70
Nsg63
(lp2116
g56
(g72
g58
NtRp2117
(dp2118
g61
(dp2119
sg70
g2113
sg63
(lp2120
g56
(g77
g58
NtRp2121
(dp2122
g61
(dp2123
sg70
g2117
sg63
(lp2124
g56
(g57
g58
NtRp2125
(dp2126
g61
(dp2127
g69
I3
ssg70
g2121
sg63
(lp2128
S'1'
asbasbasbag56
(g72
g58
NtRp2129
(dp2130
g61
(dp2131
sg70
g2113
sg63
(lp2132
g56
(g77
g58
NtRp2133
(dp2134
g61
(dp2135
sg70
g2129
sg63
(lp2136
g56
(g57
g58
NtRp2137
(dp2138
g61
(dp2139
g69
I3
ssg70
g2133
sg63
(lp2140
S'0'
asbasbasbasbasbasbasbasbasbasbasbag56
(g72
g58
NtRp2141
(dp2142
g61
(dp2143
sg70
g66
sg63
(lp2144
g56
(g77
g58
NtRp2145
(dp2146
g61
(dp2147
g81
g82
ssg70
g2141
sg63
(lp2148
S'extension'
p2149
asbag56
(g77
g58
NtRp2150
(dp2151
g61
(dp2152
g88
g89
ssg70
g2141
sg63
(lp2153
S':'
asbag56
(g77
g58
NtRp2154
(dp2155
g61
(dp2156
sg70
g2141
sg63
(lp2157
g56
(g57
g58
NtRp2158
(dp2159
g61
(dp2160
g69
I5
ssg70
g2154
sg63
(lp2161
S'html'
p2162
asbasbasbag56
(g72
g58
NtRp2163
(dp2164
g61
(dp2165
sg70
g66
sg63
(lp2166
g56
(g77
g58
NtRp2167
(dp2168
g61
(dp2169
g81
g82
ssg70
g2163
sg63
(lp2170
S'folder'
p2171
asbag56
(g77
g58
NtRp2172
(dp2173
g61
(dp2174
g88
g89
ssg70
g2163
sg63
(lp2175
S':'
asbag56
(g77
g58
NtRp2176
(dp2177
g61
(dp2178
sg70
g2163
sg63
(lp2179
g56
(g57
g58
NtRp2180
(dp2181
g61
(dp2182
g69
I5
ssg70
g2176
sg63
(lp2183
S'/home/ian/Dropbox/Web_Pages/web2py-linux/applications/places/'
p2184
asbasbasbag56
(g72
g58
NtRp2185
(dp2186
g61
(dp2187
sg70
g66
sg63
(lp2188
g56
(g77
g58
NtRp2189
(dp2190
g61
(dp2191
g81
g82
ssg70
g2185
sg63
(lp2192
S'function'
p2193
asbag56
(g77
g58
NtRp2194
(dp2195
g61
(dp2196
g88
g89
ssg70
g2185
sg63
(lp2197
S':'
asbag56
(g77
g58
NtRp2198
(dp2199
g61
(dp2200
sg70
g2185
sg63
(lp2201
g56
(g57
g58
NtRp2202
(dp2203
g61
(dp2204
g69
I5
ssg70
g2198
sg63
(lp2205
S'index'
p2206
asbasbasbag56
(g72
g58
NtRp2207
(dp2208
g61
(dp2209
sg70
g66
sg63
(lp2210
g56
(g77
g58
NtRp2211
(dp2212
g61
(dp2213
g81
g82
ssg70
g2207
sg63
(lp2214
S'get_vars'
p2215
asbag56
(g77
g58
NtRp2216
(dp2217
g61
(dp2218
g88
g89
ssg70
g2207
sg63
(lp2219
S':'
asbag56
(g77
g58
NtRp2220
(dp2221
g61
(dp2222
sg70
g2207
sg63
(lp2223
g56
(g57
g58
NtRp2224
(dp2225
g61
(dp2226
g69
I5
ssg70
g2220
sg63
(lp2227
g56
(g65
g58
NtRp2228
(dp2229
g61
(dp2230
g69
I4
ssg70
Nsg63
(lp2231
sbasbasbasbag56
(g72
g58
NtRp2232
(dp2233
g61
(dp2234
sg70
g66
sg63
(lp2235
g56
(g77
g58
NtRp2236
(dp2237
g61
(dp2238
g81
g82
ssg70
g2232
sg63
(lp2239
S'global_settings'
p2240
asbag56
(g77
g58
NtRp2241
(dp2242
g61
(dp2243
g88
g89
ssg70
g2232
sg63
(lp2244
S':'
asbag56
(g77
g58
NtRp2245
(dp2246
g61
(dp2247
sg70
g2232
sg63
(lp2248
g56
(g57
g58
NtRp2249
(dp2250
g61
(dp2251
g69
I5
ssg70
g2245
sg63
(lp2252
g56
(g65
g58
NtRp2253
(dp2254
g61
(dp2255
g69
I4
ssg70
Nsg63
(lp2256
g56
(g72
g58
NtRp2257
(dp2258
g61
(dp2259
sg70
g2253
sg63
(lp2260
g56
(g77
g58
NtRp2261
(dp2262
g61
(dp2263
g81
g82
ssg70
g2257
sg63
(lp2264
g1203
asbag56
(g77
g58
NtRp2265
(dp2266
g61
(dp2267
g88
g89
ssg70
g2257
sg63
(lp2268
S':'
asbag56
(g77
g58
NtRp2269
(dp2270
g61
(dp2271
sg70
g2257
sg63
(lp2272
g56
(g57
g58
NtRp2273
(dp2274
g61
(dp2275
g69
I4
ssg70
g2269
sg63
(lp2276
S"set(['/home/ian/Dropbox/Web_Pages/web2py-linux/applications/blog/', '/home/ian/Dropbox/Web_Pages/web2py-linux/applications/places/', '/home/ian/Dropbox/Web_Pages/web2py-linux/applications/Paideia/', '/home/ian/Dropbox/Web_Pages/web2py-linux/applications/admin/', '/home/ian/Dropbox/Web_Pages/web2py-linux/applications/welcome/'])"
p2277
asbasbasbag56
(g72
g58
NtRp2278
(dp2279
g61
(dp2280
sg70
g2253
sg63
(lp2281
g56
(g77
g58
NtRp2282
(dp2283
g61
(dp2284
g81
g82
ssg70
g2278
sg63
(lp2285
g1225
asbag56
(g77
g58
NtRp2286
(dp2287
g61
(dp2288
g88
g89
ssg70
g2278
sg63
(lp2289
S':'
asbag56
(g77
g58
NtRp2290
(dp2291
g61
(dp2292
sg70
g2278
sg63
(lp2293
g56
(g57
g58
NtRp2294
(dp2295
g61
(dp2296
g69
I4
ssg70
g2290
sg63
(lp2297
g1238
asbasbasbag56
(g72
g58
NtRp2298
(dp2299
g61
(dp2300
sg70
g2253
sg63
(lp2301
g56
(g77
g58
NtRp2302
(dp2303
g61
(dp2304
g81
g82
ssg70
g2298
sg63
(lp2305
g1247
asbag56
(g77
g58
NtRp2306
(dp2307
g61
(dp2308
g88
g89
ssg70
g2298
sg63
(lp2309
S':'
asbag56
(g77
g58
NtRp2310
(dp2311
g61
(dp2312
sg70
g2298
sg63
(lp2313
g56
(g57
g58
NtRp2314
(dp2315
g61
(dp2316
g69
I4
ssg70
g2310
sg63
(lp2317
g56
(g65
g58
NtRp2318
(dp2319
g61
(dp2320
g69
I3
ssg70
Nsg63
(lp2321
sbasbasbasbag56
(g72
g58
NtRp2322
(dp2323
g61
(dp2324
sg70
g2253
sg63
(lp2325
g56
(g77
g58
NtRp2326
(dp2327
g61
(dp2328
g81
g82
ssg70
g2322
sg63
(lp2329
g1272
asbag56
(g77
g58
NtRp2330
(dp2331
g61
(dp2332
g88
g89
ssg70
g2322
sg63
(lp2333
S':'
asbag56
(g77
g58
NtRp2334
(dp2335
g61
(dp2336
sg70
g2322
sg63
(lp2337
g56
(g57
g58
NtRp2338
(dp2339
g61
(dp2340
g69
I4
ssg70
g2334
sg63
(lp2341
S"<Values at 0x2723170: {'verbose': False, 'ip': '127.0.0.1', 'shutdown_timeout': 5, 'taskbar': False, 'nocron': False, 'pid_filename': 'httpserver.pid', 'maxthreads': None, 'softcron': False, 'server_name': 'uriel', 'bpython': False, 'nogui': False, 'port': 8000, 'extcron': False, 'debuglevel': 30, 'test': None, 'folder': '/home/ian/Dropbox/Web_Pages/web2py-linux', 'config': '', 'import_models': False, 'winservice': '', 'shell': None, 'run': '', 'log_filename': 'httpserver.log', 'args': [''], 'ssl_ca_certificate': None, 'scheduler': None, 'profiler_filename': None, 'ssl_private_key': '', 'password': '<ask>', 'request_queue_size': 5, 'ssl_certificate': '', 'cronjob': False, 'plain': False, 'quiet': False, 'interfaces': None, 'minthreads': None, 'timeout': 10, 'numthreads': None, 'nobanner': False}>"
p2342
asbasbasbag56
(g72
g58
NtRp2343
(dp2344
g61
(dp2345
sg70
g2253
sg63
(lp2346
g56
(g77
g58
NtRp2347
(dp2348
g61
(dp2349
g81
g82
ssg70
g2343
sg63
(lp2350
g1294
asbag56
(g77
g58
NtRp2351
(dp2352
g61
(dp2353
g88
g89
ssg70
g2343
sg63
(lp2354
S':'
asbag56
(g77
g58
NtRp2355
(dp2356
g61
(dp2357
sg70
g2343
sg63
(lp2358
g56
(g57
g58
NtRp2359
(dp2360
g61
(dp2361
g69
I4
ssg70
g2355
sg63
(lp2362
S'set([])'
p2363
asbasbasbag56
(g72
g58
NtRp2364
(dp2365
g61
(dp2366
sg70
g2253
sg63
(lp2367
g56
(g77
g58
NtRp2368
(dp2369
g61
(dp2370
g81
g82
ssg70
g2364
sg63
(lp2371
g1316
asbag56
(g77
g58
NtRp2372
(dp2373
g61
(dp2374
g88
g89
ssg70
g2364
sg63
(lp2375
S':'
asbag56
(g77
g58
NtRp2376
(dp2377
g61
(dp2378
sg70
g2364
sg63
(lp2379
g56
(g57
g58
NtRp2380
(dp2381
g61
(dp2382
g69
I4
ssg70
g2376
sg63
(lp2383
g99
asbasbasbag56
(g72
g58
NtRp2384
(dp2385
g61
(dp2386
sg70
g2253
sg63
(lp2387
g56
(g77
g58
NtRp2388
(dp2389
g61
(dp2390
g81
g82
ssg70
g2384
sg63
(lp2391
g1337
asbag56
(g77
g58
NtRp2392
(dp2393
g61
(dp2394
g88
g89
ssg70
g2384
sg63
(lp2395
S':'
asbag56
(g77
g58
NtRp2396
(dp2397
g61
(dp2398
sg70
g2384
sg63
(lp2399
g56
(g57
g58
NtRp2400
(dp2401
g61
(dp2402
g69
I4
ssg70
g2396
sg63
(lp2403
g1350
asbasbasbag56
(g72
g58
NtRp2404
(dp2405
g61
(dp2406
sg70
g2253
sg63
(lp2407
g56
(g77
g58
NtRp2408
(dp2409
g61
(dp2410
g81
g82
ssg70
g2404
sg63
(lp2411
g1579
asbag56
(g77
g58
NtRp2412
(dp2413
g61
(dp2414
g88
g89
ssg70
g2404
sg63
(lp2415
S':'
asbag56
(g77
g58
NtRp2416
(dp2417
g61
(dp2418
sg70
g2404
sg63
(lp2419
g56
(g57
g58
NtRp2420
(dp2421
g61
(dp2422
g69
I4
ssg70
g2416
sg63
(lp2423
g99
asbasbasbag56
(g72
g58
NtRp2424
(dp2425
g61
(dp2426
sg70
g2253
sg63
(lp2427
g56
(g77
g58
NtRp2428
(dp2429
g61
(dp2430
g81
g82
ssg70
g2424
sg63
(lp2431
g1817
asbag56
(g77
g58
NtRp2432
(dp2433
g61
(dp2434
g88
g89
ssg70
g2424
sg63
(lp2435
S':'
asbag56
(g77
g58
NtRp2436
(dp2437
g61
(dp2438
sg70
g2424
sg63
(lp2439
g56
(g57
g58
NtRp2440
(dp2441
g61
(dp2442
g69
I4
ssg70
g2436
sg63
(lp2443
g1830
asbasbasbag56
(g72
g58
NtRp2444
(dp2445
g61
(dp2446
sg70
g2253
sg63
(lp2447
g56
(g77
g58
NtRp2448
(dp2449
g61
(dp2450
g81
g82
ssg70
g2444
sg63
(lp2451
g1860
asbag56
(g77
g58
NtRp2452
(dp2453
g61
(dp2454
g88
g89
ssg70
g2444
sg63
(lp2455
S':'
asbag56
(g77
g58
NtRp2456
(dp2457
g61
(dp2458
sg70
g2444
sg63
(lp2459
g56
(g57
g58
NtRp2460
(dp2461
g61
(dp2462
g69
I4
ssg70
g2456
sg63
(lp2463
g56
(g65
g58
NtRp2464
(dp2465
g61
(dp2466
g69
I3
ssg70
Nsg63
(lp2467
g56
(g72
g58
NtRp2468
(dp2469
g61
(dp2470
sg70
g2464
sg63
(lp2471
g56
(g77
g58
NtRp2472
(dp2473
g61
(dp2474
sg70
g2468
sg63
(lp2475
g56
(g57
g58
NtRp2476
(dp2477
g61
(dp2478
g69
I3
ssg70
g2472
sg63
(lp2479
S'1'
asbasbasbag56
(g72
g58
NtRp2480
(dp2481
g61
(dp2482
sg70
g2464
sg63
(lp2483
g56
(g77
g58
NtRp2484
(dp2485
g61
(dp2486
sg70
g2480
sg63
(lp2487
g56
(g57
g58
NtRp2488
(dp2489
g61
(dp2490
g69
I3
ssg70
g2484
sg63
(lp2491
S'99'
p2492
asbasbasbag56
(g72
g58
NtRp2493
(dp2494
g61
(dp2495
sg70
g2464
sg63
(lp2496
g56
(g77
g58
NtRp2497
(dp2498
g61
(dp2499
sg70
g2493
sg63
(lp2500
g56
(g57
g58
NtRp2501
(dp2502
g61
(dp2503
g69
I3
ssg70
g2497
sg63
(lp2504
S'2'
asbasbasbag56
(g72
g58
NtRp2505
(dp2506
g61
(dp2507
sg70
g2464
sg63
(lp2508
g56
(g77
g58
NtRp2509
(dp2510
g61
(dp2511
sg70
g2505
sg63
(lp2512
g56
(g57
g58
NtRp2513
(dp2514
g61
(dp2515
g69
I3
ssg70
g2509
sg63
(lp2516
S'datetime.datetime(2011, 9, 26, 6, 55, 33)'
p2517
asbasbasbag56
(g72
g58
NtRp2518
(dp2519
g61
(dp2520
sg70
g2464
sg63
(lp2521
g56
(g77
g58
NtRp2522
(dp2523
g61
(dp2524
sg70
g2518
sg63
(lp2525
g56
(g57
g58
NtRp2526
(dp2527
g61
(dp2528
g69
I3
ssg70
g2522
sg63
(lp2529
g1939
asbasbasbasbasbasbasbasbasbasbasbag56
(g72
g58
NtRp2530
(dp2531
g61
(dp2532
sg70
g66
sg63
(lp2533
g56
(g77
g58
NtRp2534
(dp2535
g61
(dp2536
g81
g82
ssg70
g2530
sg63
(lp2537
S'is_https'
p2538
asbag56
(g77
g58
NtRp2539
(dp2540
g61
(dp2541
g88
g89
ssg70
g2530
sg63
(lp2542
S':'
asbag56
(g77
g58
NtRp2543
(dp2544
g61
(dp2545
sg70
g2530
sg63
(lp2546
g56
(g57
g58
NtRp2547
(dp2548
g61
(dp2549
g69
I5
ssg70
g2543
sg63
(lp2550
g99
asbasbasbag56
(g72
g58
NtRp2551
(dp2552
g61
(dp2553
sg70
g66
sg63
(lp2554
g56
(g77
g58
NtRp2555
(dp2556
g61
(dp2557
g81
g82
ssg70
g2551
sg63
(lp2558
S'is_local'
p2559
asbag56
(g77
g58
NtRp2560
(dp2561
g61
(dp2562
g88
g89
ssg70
g2551
sg63
(lp2563
S':'
asbag56
(g77
g58
NtRp2564
(dp2565
g61
(dp2566
sg70
g2551
sg63
(lp2567
g56
(g57
g58
NtRp2568
(dp2569
g61
(dp2570
g69
I5
ssg70
g2564
sg63
(lp2571
g2048
asbasbasbag56
(g72
g58
NtRp2572
(dp2573
g61
(dp2574
sg70
g66
sg63
(lp2575
g56
(g77
g58
NtRp2576
(dp2577
g61
(dp2578
g81
g82
ssg70
g2572
sg63
(lp2579
S'is_restful'
p2580
asbag56
(g77
g58
NtRp2581
(dp2582
g61
(dp2583
g88
g89
ssg70
g2572
sg63
(lp2584
S':'
asbag56
(g77
g58
NtRp2585
(dp2586
g61
(dp2587
sg70
g2572
sg63
(lp2588
g56
(g57
g58
NtRp2589
(dp2590
g61
(dp2591
g69
I5
ssg70
g2585
sg63
(lp2592
g99
asbasbasbag56
(g72
g58
NtRp2593
(dp2594
g61
(dp2595
sg70
g66
sg63
(lp2596
g56
(g77
g58
NtRp2597
(dp2598
g61
(dp2599
g81
g82
ssg70
g2593
sg63
(lp2600
S'now'
p2601
asbag56
(g77
g58
NtRp2602
(dp2603
g61
(dp2604
g88
g89
ssg70
g2593
sg63
(lp2605
S':'
asbag56
(g77
g58
NtRp2606
(dp2607
g61
(dp2608
sg70
g2593
sg63
(lp2609
g56
(g57
g58
NtRp2610
(dp2611
g61
(dp2612
g69
I5
ssg70
g2606
sg63
(lp2613
S'datetime.datetime(2011, 9, 30, 16, 10, 12, 750099)'
p2614
asbasbasbag56
(g72
g58
NtRp2615
(dp2616
g61
(dp2617
sg70
g66
sg63
(lp2618
g56
(g77
g58
NtRp2619
(dp2620
g61
(dp2621
g81
g82
ssg70
g2615
sg63
(lp2622
S'post_vars'
p2623
asbag56
(g77
g58
NtRp2624
(dp2625
g61
(dp2626
g88
g89
ssg70
g2615
sg63
(lp2627
S':'
asbag56
(g77
g58
NtRp2628
(dp2629
g61
(dp2630
sg70
g2615
sg63
(lp2631
g56
(g57
g58
NtRp2632
(dp2633
g61
(dp2634
g69
I5
ssg70
g2628
sg63
(lp2635
g56
(g65
g58
NtRp2636
(dp2637
g61
(dp2638
g69
I4
ssg70
Nsg63
(lp2639
sbasbasbasbag56
(g72
g58
NtRp2640
(dp2641
g61
(dp2642
sg70
g66
sg63
(lp2643
g56
(g77
g58
NtRp2644
(dp2645
g61
(dp2646
g81
g82
ssg70
g2640
sg63
(lp2647
S'url'
p2648
asbag56
(g77
g58
NtRp2649
(dp2650
g61
(dp2651
g88
g89
ssg70
g2640
sg63
(lp2652
S':'
asbag56
(g77
g58
NtRp2653
(dp2654
g61
(dp2655
sg70
g2640
sg63
(lp2656
g56
(g57
g58
NtRp2657
(dp2658
g61
(dp2659
g69
I5
ssg70
g2653
sg63
(lp2660
S'/places/default/index'
p2661
asbasbasbag56
(g72
g58
NtRp2662
(dp2663
g61
(dp2664
sg70
g66
sg63
(lp2665
g56
(g77
g58
NtRp2666
(dp2667
g61
(dp2668
g81
g82
ssg70
g2662
sg63
(lp2669
S'utcnow'
p2670
asbag56
(g77
g58
NtRp2671
(dp2672
g61
(dp2673
g88
g89
ssg70
g2662
sg63
(lp2674
S':'
asbag56
(g77
g58
NtRp2675
(dp2676
g61
(dp2677
sg70
g2662
sg63
(lp2678
g56
(g57
g58
NtRp2679
(dp2680
g61
(dp2681
g69
I5
ssg70
g2675
sg63
(lp2682
S'datetime.datetime(2011, 9, 30, 20, 10, 12, 750157)'
p2683
asbasbasbag56
(g72
g58
NtRp2684
(dp2685
g61
(dp2686
sg70
g66
sg63
(lp2687
g56
(g77
g58
NtRp2688
(dp2689
g61
(dp2690
g81
g82
ssg70
g2684
sg63
(lp2691
S'uuid'
p2692
asbag56
(g77
g58
NtRp2693
(dp2694
g61
(dp2695
g88
g89
ssg70
g2684
sg63
(lp2696
S':'
asbag56
(g77
g58
NtRp2697
(dp2698
g61
(dp2699
sg70
g2684
sg63
(lp2700
g56
(g57
g58
NtRp2701
(dp2702
g61
(dp2703
g69
I5
ssg70
g2697
sg63
(lp2704
S'places/127.0.0.1.2011-09-30.16-10-12.07d07952-3431-4e92-9fa5-a7d9f756010a'
p2705
asbasbasbag56
(g72
g58
NtRp2706
(dp2707
g61
(dp2708
sg70
g66
sg63
(lp2709
g56
(g77
g58
NtRp2710
(dp2711
g61
(dp2712
g81
g82
ssg70
g2706
sg63
(lp2713
S'vars'
p2714
asbag56
(g77
g58
NtRp2715
(dp2716
g61
(dp2717
g88
g89
ssg70
g2706
sg63
(lp2718
S':'
asbag56
(g77
g58
NtRp2719
(dp2720
g61
(dp2721
sg70
g2706
sg63
(lp2722
g56
(g57
g58
NtRp2723
(dp2724
g61
(dp2725
g69
I5
ssg70
g2719
sg63
(lp2726
g56
(g65
g58
NtRp2727
(dp2728
g61
(dp2729
g69
I4
ssg70
Nsg63
(lp2730
sbasbasbasbag56
(g72
g58
NtRp2731
(dp2732
g61
(dp2733
sg70
g66
sg63
(lp2734
g56
(g77
g58
NtRp2735
(dp2736
g61
(dp2737
g81
g82
ssg70
g2731
sg63
(lp2738
S'wsgi'
p2739
asbag56
(g77
g58
NtRp2740
(dp2741
g61
(dp2742
g88
g89
ssg70
g2731
sg63
(lp2743
S':'
asbag56
(g77
g58
NtRp2744
(dp2745
g61
(dp2746
sg70
g2731
sg63
(lp2747
g56
(g57
g58
NtRp2748
(dp2749
g61
(dp2750
g69
I5
ssg70
g2744
sg63
(lp2751
g56
(g65
g58
NtRp2752
(dp2753
g61
(dp2754
g69
I4
ssg70
Nsg63
(lp2755
g56
(g72
g58
NtRp2756
(dp2757
g61
(dp2758
sg70
g2752
sg63
(lp2759
g56
(g77
g58
NtRp2760
(dp2761
g61
(dp2762
g81
g82
ssg70
g2756
sg63
(lp2763
S'environ'
p2764
asbag56
(g77
g58
NtRp2765
(dp2766
g61
(dp2767
g88
g89
ssg70
g2756
sg63
(lp2768
S':'
asbag56
(g77
g58
NtRp2769
(dp2770
g61
(dp2771
sg70
g2756
sg63
(lp2772
g56
(g57
g58
NtRp2773
(dp2774
g61
(dp2775
g69
I4
ssg70
g2769
sg63
(lp2776
g56
(g65
g58
NtRp2777
(dp2778
g61
(dp2779
g69
I3
ssg70
Nsg63
(lp2780
g56
(g72
g58
NtRp2781
(dp2782
g61
(dp2783
sg70
g2777
sg63
(lp2784
g56
(g77
g58
NtRp2785
(dp2786
g61
(dp2787
g81
g82
ssg70
g2781
sg63
(lp2788
S'HTTP_ACCEPT'
p2789
asbag56
(g77
g58
NtRp2790
(dp2791
g61
(dp2792
g88
g89
ssg70
g2781
sg63
(lp2793
S':'
asbag56
(g77
g58
NtRp2794
(dp2795
g61
(dp2796
sg70
g2781
sg63
(lp2797
g56
(g57
g58
NtRp2798
(dp2799
g61
(dp2800
g69
I3
ssg70
g2794
sg63
(lp2801
g1372
asbasbasbag56
(g72
g58
NtRp2802
(dp2803
g61
(dp2804
sg70
g2777
sg63
(lp2805
g56
(g77
g58
NtRp2806
(dp2807
g61
(dp2808
g81
g82
ssg70
g2802
sg63
(lp2809
S'HTTP_ACCEPT_CHARSET'
p2810
asbag56
(g77
g58
NtRp2811
(dp2812
g61
(dp2813
g88
g89
ssg70
g2802
sg63
(lp2814
S':'
asbag56
(g77
g58
NtRp2815
(dp2816
g61
(dp2817
sg70
g2802
sg63
(lp2818
g56
(g57
g58
NtRp2819
(dp2820
g61
(dp2821
g69
I3
ssg70
g2815
sg63
(lp2822
g1394
asbasbasbag56
(g72
g58
NtRp2823
(dp2824
g61
(dp2825
sg70
g2777
sg63
(lp2826
g56
(g77
g58
NtRp2827
(dp2828
g61
(dp2829
g81
g82
ssg70
g2823
sg63
(lp2830
S'HTTP_ACCEPT_ENCODING'
p2831
asbag56
(g77
g58
NtRp2832
(dp2833
g61
(dp2834
g88
g89
ssg70
g2823
sg63
(lp2835
S':'
asbag56
(g77
g58
NtRp2836
(dp2837
g61
(dp2838
sg70
g2823
sg63
(lp2839
g56
(g57
g58
NtRp2840
(dp2841
g61
(dp2842
g69
I3
ssg70
g2836
sg63
(lp2843
g1416
asbasbasbag56
(g72
g58
NtRp2844
(dp2845
g61
(dp2846
sg70
g2777
sg63
(lp2847
g56
(g77
g58
NtRp2848
(dp2849
g61
(dp2850
g81
g82
ssg70
g2844
sg63
(lp2851
S'HTTP_ACCEPT_LANGUAGE'
p2852
asbag56
(g77
g58
NtRp2853
(dp2854
g61
(dp2855
g88
g89
ssg70
g2844
sg63
(lp2856
S':'
asbag56
(g77
g58
NtRp2857
(dp2858
g61
(dp2859
sg70
g2844
sg63
(lp2860
g56
(g57
g58
NtRp2861
(dp2862
g61
(dp2863
g69
I3
ssg70
g2857
sg63
(lp2864
g1438
asbasbasbag56
(g72
g58
NtRp2865
(dp2866
g61
(dp2867
sg70
g2777
sg63
(lp2868
g56
(g77
g58
NtRp2869
(dp2870
g61
(dp2871
g81
g82
ssg70
g2865
sg63
(lp2872
S'HTTP_CACHE_CONTROL'
p2873
asbag56
(g77
g58
NtRp2874
(dp2875
g61
(dp2876
g88
g89
ssg70
g2865
sg63
(lp2877
S':'
asbag56
(g77
g58
NtRp2878
(dp2879
g61
(dp2880
sg70
g2865
sg63
(lp2881
g56
(g57
g58
NtRp2882
(dp2883
g61
(dp2884
g69
I3
ssg70
g2878
sg63
(lp2885
g1460
asbasbasbag56
(g72
g58
NtRp2886
(dp2887
g61
(dp2888
sg70
g2777
sg63
(lp2889
g56
(g77
g58
NtRp2890
(dp2891
g61
(dp2892
g81
g82
ssg70
g2886
sg63
(lp2893
S'HTTP_CONNECTION'
p2894
asbag56
(g77
g58
NtRp2895
(dp2896
g61
(dp2897
g88
g89
ssg70
g2886
sg63
(lp2898
S':'
asbag56
(g77
g58
NtRp2899
(dp2900
g61
(dp2901
sg70
g2886
sg63
(lp2902
g56
(g57
g58
NtRp2903
(dp2904
g61
(dp2905
g69
I3
ssg70
g2899
sg63
(lp2906
g1482
asbasbasbag56
(g72
g58
NtRp2907
(dp2908
g61
(dp2909
sg70
g2777
sg63
(lp2910
g56
(g77
g58
NtRp2911
(dp2912
g61
(dp2913
g81
g82
ssg70
g2907
sg63
(lp2914
S'HTTP_COOKIE'
p2915
asbag56
(g77
g58
NtRp2916
(dp2917
g61
(dp2918
g88
g89
ssg70
g2907
sg63
(lp2919
S':'
asbag56
(g77
g58
NtRp2920
(dp2921
g61
(dp2922
sg70
g2907
sg63
(lp2923
g56
(g57
g58
NtRp2924
(dp2925
g61
(dp2926
g69
I3
ssg70
g2920
sg63
(lp2927
g1504
asbasbasbag56
(g72
g58
NtRp2928
(dp2929
g61
(dp2930
sg70
g2777
sg63
(lp2931
g56
(g77
g58
NtRp2932
(dp2933
g61
(dp2934
g81
g82
ssg70
g2928
sg63
(lp2935
S'HTTP_HOST'
p2936
asbag56
(g77
g58
NtRp2937
(dp2938
g61
(dp2939
g88
g89
ssg70
g2928
sg63
(lp2940
S':'
asbag56
(g77
g58
NtRp2941
(dp2942
g61
(dp2943
sg70
g2928
sg63
(lp2944
g56
(g57
g58
NtRp2945
(dp2946
g61
(dp2947
g69
I3
ssg70
g2941
sg63
(lp2948
g1526
asbasbasbag56
(g72
g58
NtRp2949
(dp2950
g61
(dp2951
sg70
g2777
sg63
(lp2952
g56
(g77
g58
NtRp2953
(dp2954
g61
(dp2955
g81
g82
ssg70
g2949
sg63
(lp2956
S'HTTP_REFERER'
p2957
asbag56
(g77
g58
NtRp2958
(dp2959
g61
(dp2960
g88
g89
ssg70
g2949
sg63
(lp2961
S':'
asbag56
(g77
g58
NtRp2962
(dp2963
g61
(dp2964
sg70
g2949
sg63
(lp2965
g56
(g57
g58
NtRp2966
(dp2967
g61
(dp2968
g69
I3
ssg70
g2962
sg63
(lp2969
g1548
asbasbasbag56
(g72
g58
NtRp2970
(dp2971
g61
(dp2972
sg70
g2777
sg63
(lp2973
g56
(g77
g58
NtRp2974
(dp2975
g61
(dp2976
g81
g82
ssg70
g2970
sg63
(lp2977
S'HTTP_USER_AGENT'
p2978
asbag56
(g77
g58
NtRp2979
(dp2980
g61
(dp2981
g88
g89
ssg70
g2970
sg63
(lp2982
S':'
asbag56
(g77
g58
NtRp2983
(dp2984
g61
(dp2985
sg70
g2970
sg63
(lp2986
g56
(g57
g58
NtRp2987
(dp2988
g61
(dp2989
g69
I3
ssg70
g2983
sg63
(lp2990
g1570
asbasbasbag56
(g72
g58
NtRp2991
(dp2992
g61
(dp2993
sg70
g2777
sg63
(lp2994
g56
(g77
g58
NtRp2995
(dp2996
g61
(dp2997
g81
g82
ssg70
g2991
sg63
(lp2998
S'PATH_INFO'
p2999
asbag56
(g77
g58
NtRp3000
(dp3001
g61
(dp3002
g88
g89
ssg70
g2991
sg63
(lp3003
S':'
asbag56
(g77
g58
NtRp3004
(dp3005
g61
(dp3006
sg70
g2991
sg63
(lp3007
g56
(g57
g58
NtRp3008
(dp3009
g61
(dp3010
g69
I3
ssg70
g3004
sg63
(lp3011
g1613
asbasbasbag56
(g72
g58
NtRp3012
(dp3013
g61
(dp3014
sg70
g2777
sg63
(lp3015
g56
(g77
g58
NtRp3016
(dp3017
g61
(dp3018
g81
g82
ssg70
g3012
sg63
(lp3019
S'QUERY_STRING'
p3020
asbag56
(g77
g58
NtRp3021
(dp3022
g61
(dp3023
g88
g89
ssg70
g3012
sg63
(lp3024
S':'
asbag56
(g77
g58
NtRp3025
(dp3026
g61
(dp3027
sg70
g3012
sg63
(lp3028
g56
(g57
g58
NtRp3029
(dp3030
g61
(dp3031
g69
I3
ssg70
g3025
sg63
(lp3032
S''
asbasbasbag56
(g72
g58
NtRp3033
(dp3034
g61
(dp3035
sg70
g2777
sg63
(lp3036
g56
(g77
g58
NtRp3037
(dp3038
g61
(dp3039
g81
g82
ssg70
g3033
sg63
(lp3040
S'REMOTE_ADDR'
p3041
asbag56
(g77
g58
NtRp3042
(dp3043
g61
(dp3044
g88
g89
ssg70
g3033
sg63
(lp3045
S':'
asbag56
(g77
g58
NtRp3046
(dp3047
g61
(dp3048
sg70
g3033
sg63
(lp3049
g56
(g57
g58
NtRp3050
(dp3051
g61
(dp3052
g69
I3
ssg70
g3046
sg63
(lp3053
g189
asbasbasbag56
(g72
g58
NtRp3054
(dp3055
g61
(dp3056
sg70
g2777
sg63
(lp3057
g56
(g77
g58
NtRp3058
(dp3059
g61
(dp3060
g81
g82
ssg70
g3054
sg63
(lp3061
S'REMOTE_PORT'
p3062
asbag56
(g77
g58
NtRp3063
(dp3064
g61
(dp3065
g88
g89
ssg70
g3054
sg63
(lp3066
S':'
asbag56
(g77
g58
NtRp3067
(dp3068
g61
(dp3069
sg70
g3054
sg63
(lp3070
g56
(g57
g58
NtRp3071
(dp3072
g61
(dp3073
g69
I3
ssg70
g3067
sg63
(lp3074
g1677
asbasbasbag56
(g72
g58
NtRp3075
(dp3076
g61
(dp3077
sg70
g2777
sg63
(lp3078
g56
(g77
g58
NtRp3079
(dp3080
g61
(dp3081
g81
g82
ssg70
g3075
sg63
(lp3082
S'REQUEST_METHOD'
p3083
asbag56
(g77
g58
NtRp3084
(dp3085
g61
(dp3086
g88
g89
ssg70
g3075
sg63
(lp3087
S':'
asbag56
(g77
g58
NtRp3088
(dp3089
g61
(dp3090
sg70
g3075
sg63
(lp3091
g56
(g57
g58
NtRp3092
(dp3093
g61
(dp3094
g69
I3
ssg70
g3088
sg63
(lp3095
g1699
asbasbasbag56
(g72
g58
NtRp3096
(dp3097
g61
(dp3098
sg70
g2777
sg63
(lp3099
g56
(g77
g58
NtRp3100
(dp3101
g61
(dp3102
g81
g82
ssg70
g3096
sg63
(lp3103
S'SCRIPT_NAME'
p3104
asbag56
(g77
g58
NtRp3105
(dp3106
g61
(dp3107
g88
g89
ssg70
g3096
sg63
(lp3108
S':'
asbag56
(g77
g58
NtRp3109
(dp3110
g61
(dp3111
sg70
g3096
sg63
(lp3112
g56
(g57
g58
NtRp3113
(dp3114
g61
(dp3115
g69
I3
ssg70
g3109
sg63
(lp3116
S''
asbasbasbag56
(g72
g58
NtRp3117
(dp3118
g61
(dp3119
sg70
g2777
sg63
(lp3120
g56
(g77
g58
NtRp3121
(dp3122
g61
(dp3123
g81
g82
ssg70
g3117
sg63
(lp3124
S'SERVER_NAME'
p3125
asbag56
(g77
g58
NtRp3126
(dp3127
g61
(dp3128
g88
g89
ssg70
g3117
sg63
(lp3129
S':'
asbag56
(g77
g58
NtRp3130
(dp3131
g61
(dp3132
sg70
g3117
sg63
(lp3133
g56
(g57
g58
NtRp3134
(dp3135
g61
(dp3136
g69
I3
ssg70
g3130
sg63
(lp3137
g1742
asbasbasbag56
(g72
g58
NtRp3138
(dp3139
g61
(dp3140
sg70
g2777
sg63
(lp3141
g56
(g77
g58
NtRp3142
(dp3143
g61
(dp3144
g81
g82
ssg70
g3138
sg63
(lp3145
S'SERVER_PORT'
p3146
asbag56
(g77
g58
NtRp3147
(dp3148
g61
(dp3149
g88
g89
ssg70
g3138
sg63
(lp3150
S':'
asbag56
(g77
g58
NtRp3151
(dp3152
g61
(dp3153
sg70
g3138
sg63
(lp3154
g56
(g57
g58
NtRp3155
(dp3156
g61
(dp3157
g69
I3
ssg70
g3151
sg63
(lp3158
g1764
asbasbasbag56
(g72
g58
NtRp3159
(dp3160
g61
(dp3161
sg70
g2777
sg63
(lp3162
g56
(g77
g58
NtRp3163
(dp3164
g61
(dp3165
g81
g82
ssg70
g3159
sg63
(lp3166
S'SERVER_PROTOCOL'
p3167
asbag56
(g77
g58
NtRp3168
(dp3169
g61
(dp3170
g88
g89
ssg70
g3159
sg63
(lp3171
S':'
asbag56
(g77
g58
NtRp3172
(dp3173
g61
(dp3174
sg70
g3159
sg63
(lp3175
g56
(g57
g58
NtRp3176
(dp3177
g61
(dp3178
g69
I3
ssg70
g3172
sg63
(lp3179
g1786
asbasbasbag56
(g72
g58
NtRp3180
(dp3181
g61
(dp3182
sg70
g2777
sg63
(lp3183
g56
(g77
g58
NtRp3184
(dp3185
g61
(dp3186
g81
g82
ssg70
g3180
sg63
(lp3187
S'SERVER_SOFTWARE'
p3188
asbag56
(g77
g58
NtRp3189
(dp3190
g61
(dp3191
g88
g89
ssg70
g3180
sg63
(lp3192
S':'
asbag56
(g77
g58
NtRp3193
(dp3194
g61
(dp3195
sg70
g3180
sg63
(lp3196
g56
(g57
g58
NtRp3197
(dp3198
g61
(dp3199
g69
I3
ssg70
g3193
sg63
(lp3200
g1808
asbasbasbag56
(g72
g58
NtRp3201
(dp3202
g61
(dp3203
sg70
g2777
sg63
(lp3204
g56
(g77
g58
NtRp3205
(dp3206
g61
(dp3207
g81
g82
ssg70
g3201
sg63
(lp3208
S'wsgi.errors'
p3209
asbag56
(g77
g58
NtRp3210
(dp3211
g61
(dp3212
g88
g89
ssg70
g3201
sg63
(lp3213
S':'
asbag56
(g77
g58
NtRp3214
(dp3215
g61
(dp3216
sg70
g3201
sg63
(lp3217
g56
(g57
g58
NtRp3218
(dp3219
g61
(dp3220
g69
I3
ssg70
g3214
sg63
(lp3221
S"<open file '<stderr>', mode 'w' at 0x7f4a416fc270>"
p3222
asbasbasbag56
(g72
g58
NtRp3223
(dp3224
g61
(dp3225
sg70
g2777
sg63
(lp3226
g56
(g77
g58
NtRp3227
(dp3228
g61
(dp3229
g81
g82
ssg70
g3223
sg63
(lp3230
S'wsgi.file_wrapper'
p3231
asbag56
(g77
g58
NtRp3232
(dp3233
g61
(dp3234
g88
g89
ssg70
g3223
sg63
(lp3235
S':'
asbag56
(g77
g58
NtRp3236
(dp3237
g61
(dp3238
sg70
g3223
sg63
(lp3239
g56
(g57
g58
NtRp3240
(dp3241
g61
(dp3242
g69
I3
ssg70
g3236
sg63
(lp3243
S'<class wsgiref.util.FileWrapper at 0x24b4870>'
p3244
asbasbasbag56
(g72
g58
NtRp3245
(dp3246
g61
(dp3247
sg70
g2777
sg63
(lp3248
g56
(g77
g58
NtRp3249
(dp3250
g61
(dp3251
g81
g82
ssg70
g3245
sg63
(lp3252
S'wsgi.input'
p3253
asbag56
(g77
g58
NtRp3254
(dp3255
g61
(dp3256
g88
g89
ssg70
g3245
sg63
(lp3257
S':'
asbag56
(g77
g58
NtRp3258
(dp3259
g61
(dp3260
sg70
g3245
sg63
(lp3261
g56
(g57
g58
NtRp3262
(dp3263
g61
(dp3264
g69
I3
ssg70
g3258
sg63
(lp3265
S'<cStringIO.StringO object at 0x2f4b148>'
p3266
asbasbasbag56
(g72
g58
NtRp3267
(dp3268
g61
(dp3269
sg70
g2777
sg63
(lp3270
g56
(g77
g58
NtRp3271
(dp3272
g61
(dp3273
g81
g82
ssg70
g3267
sg63
(lp3274
S'wsgi.multiprocess'
p3275
asbag56
(g77
g58
NtRp3276
(dp3277
g61
(dp3278
g88
g89
ssg70
g3267
sg63
(lp3279
S':'
asbag56
(g77
g58
NtRp3280
(dp3281
g61
(dp3282
sg70
g3267
sg63
(lp3283
g56
(g57
g58
NtRp3284
(dp3285
g61
(dp3286
g69
I3
ssg70
g3280
sg63
(lp3287
g99
asbasbasbag56
(g72
g58
NtRp3288
(dp3289
g61
(dp3290
sg70
g2777
sg63
(lp3291
g56
(g77
g58
NtRp3292
(dp3293
g61
(dp3294
g81
g82
ssg70
g3288
sg63
(lp3295
S'wsgi.multithread'
p3296
asbag56
(g77
g58
NtRp3297
(dp3298
g61
(dp3299
g88
g89
ssg70
g3288
sg63
(lp3300
S':'
asbag56
(g77
g58
NtRp3301
(dp3302
g61
(dp3303
sg70
g3288
sg63
(lp3304
g56
(g57
g58
NtRp3305
(dp3306
g61
(dp3307
g69
I3
ssg70
g3301
sg63
(lp3308
g2048
asbasbasbag56
(g72
g58
NtRp3309
(dp3310
g61
(dp3311
sg70
g2777
sg63
(lp3312
g56
(g77
g58
NtRp3313
(dp3314
g61
(dp3315
g81
g82
ssg70
g3309
sg63
(lp3316
S'wsgi.run_once'
p3317
asbag56
(g77
g58
NtRp3318
(dp3319
g61
(dp3320
g88
g89
ssg70
g3309
sg63
(lp3321
S':'
asbag56
(g77
g58
NtRp3322
(dp3323
g61
(dp3324
sg70
g3309
sg63
(lp3325
g56
(g57
g58
NtRp3326
(dp3327
g61
(dp3328
g69
I3
ssg70
g3322
sg63
(lp3329
g99
asbasbasbag56
(g72
g58
NtRp3330
(dp3331
g61
(dp3332
sg70
g2777
sg63
(lp3333
g56
(g77
g58
NtRp3334
(dp3335
g61
(dp3336
g81
g82
ssg70
g3330
sg63
(lp3337
S'wsgi.url_scheme'
p3338
asbag56
(g77
g58
NtRp3339
(dp3340
g61
(dp3341
g88
g89
ssg70
g3330
sg63
(lp3342
S':'
asbag56
(g77
g58
NtRp3343
(dp3344
g61
(dp3345
sg70
g3330
sg63
(lp3346
g56
(g57
g58
NtRp3347
(dp3348
g61
(dp3349
g69
I3
ssg70
g3343
sg63
(lp3350
g2091
asbasbasbag56
(g72
g58
NtRp3351
(dp3352
g61
(dp3353
sg70
g2777
sg63
(lp3354
g56
(g77
g58
NtRp3355
(dp3356
g61
(dp3357
g81
g82
ssg70
g3351
sg63
(lp3358
S'wsgi.version'
p3359
asbag56
(g77
g58
NtRp3360
(dp3361
g61
(dp3362
g88
g89
ssg70
g3351
sg63
(lp3363
S':'
asbag56
(g77
g58
NtRp3364
(dp3365
g61
(dp3366
sg70
g3351
sg63
(lp3367
g56
(g57
g58
NtRp3368
(dp3369
g61
(dp3370
g69
I3
ssg70
g3364
sg63
(lp3371
S'1'
asbasbasbasbasbasbasbasbasbasbasbasbasbsS'frames'
p3372
(lp3373
(dp3374
S'file'
p3375
S'/home/ian/Dropbox/Web_Pages/web2py-linux/gluon/restricted.py'
p3376
sS'dump'
p3377
(dp3378
S'environment'
p3379
S"{'A': <class 'gluon.html.A'>, 'Auth': <class 'gluon.tools.Auth'>, 'B': <class 'gluon.html.B'>, 'BEAUTIFY': <class 'gluon.html.BEAUTIFY'>, 'BODY': <class 'gluon.html.BODY'>, 'BR': <class 'gluon.html.BR'>, 'BUTTON': <class 'gluon.html.BUTTON'>, 'CAT': <class 'gluon.html.CAT'>, 'CENTER': <class 'gluon.html.CENTER'>, 'CLEANUP': <class 'gluon.validators.CLEANUP'>, ...}"
p3380
sS'ccode'
p3381
S'<code object <module> at 0x2b3aab0, file "/home/...cations/places/views/default/index.html", line 1>'
p3382
ssS'lnum'
p3383
I194
sS'lines'
p3384
(dp3385
I192
S'        else:'
p3386
sI193
S'            ccode = compile2(code,layer)'
p3387
sI194
S'        exec ccode in environment'
p3388
sI195
S'    except HTTP:'
p3389
sI196
S'        raise'
p3390
sI197
S'    except Exception, error:'
p3391
sI198
S'        # XXX Show exception in Wing IDE if running in debugger'
p3392
sI189
S'    try:'
p3393
sI190
S'        if type(code) == types.CodeType:'
p3394
sI191
S'            ccode = code'
p3395
ssS'call'
p3396
S'(code=r"left_sidebar_enabled=right_sidebar_enabled=False...nse.write(\'\\n  </body>\\n</html>\\n\', escape=False)", environment={\'A\': <class \'gluon.html.A\'>, \'Auth\': <class \'gluon.tools.Auth\'>, \'B\': <class \'gluon.html.B\'>, \'BEAUTIFY\': <class \'gluon.html.BEAUTIFY\'>, \'BODY\': <class \'gluon.html.BODY\'>, \'BR\': <class \'gluon.html.BR\'>, \'BUTTON\': <class \'gluon.html.BUTTON\'>, \'CAT\': <class \'gluon.html.CAT\'>, \'CENTER\': <class \'gluon.html.CENTER\'>, \'CLEANUP\': <class \'gluon.validators.CLEANUP\'>, ...}, layer=\'/home/ian/Dropbox/Web_Pages/web2py-linux/applications/places/views/default/index.html\')'
p3397
sS'func'
p3398
S'restricted'
p3399
sa(dp3400
g3375
S'/home/ian/Dropbox/Web_Pages/web2py-linux/applications/places/views/default/index.html'
p3401
sg3377
(dp3402
sg3383
I86
sg3384
(dp3403
I96
S"response.write(' \\n      </div>\\n      <!-- content -->\\n\\n      ', escape=False)"
p3404
sI77
S"    response.write('New Left Sidebar Content', escape=False)"
p3405
sI78
S"    response.write('       \\n            </div>\\n          </div><!-- left_sidebar -->\\n      ', escape=False)"
p3406
sI79
S'    pass'
p3407
sI80
S'response.write(\'\\n\\n      <!-- content -->\\n      <div id="content" \', escape=False)'
p3408
sI81
S'response.write(XML(style_content))'
p3409
sI82
S"response.write(' >\\n        ', escape=False)"
p3410
sI83
S"response.write('\\n\\n<ul>\\n', escape=False)"
p3411
sI84
S'for tag in session.tags:'
p3412
sI85
S"    response.write('\\n\\n', escape=False)"
p3413
sI86
S'    response.write(LI(A(tag.tag, _href=URL(\'index.load\', args=[tag.tag]), cid="links")))'
p3414
sI87
S"    response.write('\\n\\n', escape=False)"
p3415
sI88
S'    pass'
p3416
sI89
S'response.write(\'\\n\\n</ul>\\n\\n<section id="links">\\n\\n\', escape=False)'
p3417
sI90
S"response.write(LOAD('index.load',ajax=True))"
p3418
sI91
S"response.write('\\n\\n</section>\\n\\n', escape=False)"
p3419
sI92
S'#=BEAUTIFY(response._vars)'
p3420
sI93
S"response.write('\\n\\n', escape=False)"
p3421
sI94
S"response.write('\\n', escape=False)"
p3422
sI95
S"response.write('\\n', escape=False)"
p3423
ssg3396
S'()'
p3424
sg3398
S'<module>'
p3425
sasS'pyver'
p3426
S'Python 2.7.1+: /usr/bin/python2.7'
p3427
sS'session'
p3428
g56
(g57
g58
NtRp3429
(dp3430
g61
(dp3431
sg63
(lp3432
g56
(g65
g58
NtRp3433
(dp3434
g61
(dp3435
g69
I5
ssg70
Nsg63
(lp3436
g56
(g72
g58
NtRp3437
(dp3438
g61
(dp3439
sg70
g3433
sg63
(lp3440
g56
(g77
g58
NtRp3441
(dp3442
g61
(dp3443
g81
g82
ssg70
g3437
sg63
(lp3444
S'current'
p3445
asbag56
(g77
g58
NtRp3446
(dp3447
g61
(dp3448
g88
g89
ssg70
g3437
sg63
(lp3449
S':'
asbag56
(g77
g58
NtRp3450
(dp3451
g61
(dp3452
sg70
g3437
sg63
(lp3453
g56
(g57
g58
NtRp3454
(dp3455
g61
(dp3456
g69
I5
ssg70
g3450
sg63
(lp3457
S'kitchen'
p3458
asbasbasbag56
(g72
g58
NtRp3459
(dp3460
g61
(dp3461
sg70
g3433
sg63
(lp3462
g56
(g77
g58
NtRp3463
(dp3464
g61
(dp3465
g81
g82
ssg70
g3459
sg63
(lp3466
S'last_query'
p3467
asbag56
(g77
g58
NtRp3468
(dp3469
g61
(dp3470
g88
g89
ssg70
g3459
sg63
(lp3471
S':'
asbag56
(g77
g58
NtRp3472
(dp3473
g61
(dp3474
sg70
g3459
sg63
(lp3475
g56
(g57
g58
NtRp3476
(dp3477
g61
(dp3478
g69
I5
ssg70
g3472
sg63
(lp3479
S'db.tags.id>0'
p3480
asbasbasbag56
(g72
g58
NtRp3481
(dp3482
g61
(dp3483
sg70
g3433
sg63
(lp3484
g56
(g77
g58
NtRp3485
(dp3486
g61
(dp3487
g81
g82
ssg70
g3481
sg63
(lp3488
S'tags'
p3489
asbag56
(g77
g58
NtRp3490
(dp3491
g61
(dp3492
g88
g89
ssg70
g3481
sg63
(lp3493
S':'
asbag56
(g77
g58
NtRp3494
(dp3495
g61
(dp3496
sg70
g3481
sg63
(lp3497
g56
(g57
g58
NtRp3498
(dp3499
g61
(dp3500
g69
I5
ssg70
g3494
sg63
(lp3501
g56
(g65
g58
NtRp3502
(dp3503
g61
(dp3504
g69
I4
ssg70
Nsg63
(lp3505
g56
(g72
g58
NtRp3506
(dp3507
g61
(dp3508
sg70
g3502
sg63
(lp3509
g56
(g77
g58
NtRp3510
(dp3511
g61
(dp3512
sg70
g3506
sg63
(lp3513
g56
(g57
g58
NtRp3514
(dp3515
g61
(dp3516
g69
I4
ssg70
g3510
sg63
(lp3517
g56
(g65
g58
NtRp3518
(dp3519
g61
(dp3520
g69
I3
ssg70
Nsg63
(lp3521
g56
(g72
g58
NtRp3522
(dp3523
g61
(dp3524
sg70
g3518
sg63
(lp3525
g56
(g77
g58
NtRp3526
(dp3527
g61
(dp3528
g81
g82
ssg70
g3522
sg63
(lp3529
S'id'
p3530
asbag56
(g77
g58
NtRp3531
(dp3532
g61
(dp3533
g88
g89
ssg70
g3522
sg63
(lp3534
S':'
asbag56
(g77
g58
NtRp3535
(dp3536
g61
(dp3537
sg70
g3522
sg63
(lp3538
g56
(g57
g58
NtRp3539
(dp3540
g61
(dp3541
g69
I3
ssg70
g3535
sg63
(lp3542
S'1'
asbasbasbag56
(g72
g58
NtRp3543
(dp3544
g61
(dp3545
sg70
g3518
sg63
(lp3546
g56
(g77
g58
NtRp3547
(dp3548
g61
(dp3549
g81
g82
ssg70
g3543
sg63
(lp3550
S'tag'
p3551
asbag56
(g77
g58
NtRp3552
(dp3553
g61
(dp3554
g88
g89
ssg70
g3543
sg63
(lp3555
S':'
asbag56
(g77
g58
NtRp3556
(dp3557
g61
(dp3558
sg70
g3543
sg63
(lp3559
g56
(g57
g58
NtRp3560
(dp3561
g61
(dp3562
g69
I3
ssg70
g3556
sg63
(lp3563
S'kitchen'
p3564
asbasbasbasbasbasbasbag56
(g72
g58
NtRp3565
(dp3566
g61
(dp3567
sg70
g3502
sg63
(lp3568
g56
(g77
g58
NtRp3569
(dp3570
g61
(dp3571
sg70
g3565
sg63
(lp3572
g56
(g57
g58
NtRp3573
(dp3574
g61
(dp3575
g69
I4
ssg70
g3569
sg63
(lp3576
g56
(g65
g58
NtRp3577
(dp3578
g61
(dp3579
g69
I3
ssg70
Nsg63
(lp3580
g56
(g72
g58
NtRp3581
(dp3582
g61
(dp3583
sg70
g3577
sg63
(lp3584
g56
(g77
g58
NtRp3585
(dp3586
g61
(dp3587
g81
g82
ssg70
g3581
sg63
(lp3588
S'id'
p3589
asbag56
(g77
g58
NtRp3590
(dp3591
g61
(dp3592
g88
g89
ssg70
g3581
sg63
(lp3593
S':'
asbag56
(g77
g58
NtRp3594
(dp3595
g61
(dp3596
sg70
g3581
sg63
(lp3597
g56
(g57
g58
NtRp3598
(dp3599
g61
(dp3600
g69
I3
ssg70
g3594
sg63
(lp3601
S'2'
asbasbasbag56
(g72
g58
NtRp3602
(dp3603
g61
(dp3604
sg70
g3577
sg63
(lp3605
g56
(g77
g58
NtRp3606
(dp3607
g61
(dp3608
g81
g82
ssg70
g3602
sg63
(lp3609
S'tag'
p3610
asbag56
(g77
g58
NtRp3611
(dp3612
g61
(dp3613
g88
g89
ssg70
g3602
sg63
(lp3614
S':'
asbag56
(g77
g58
NtRp3615
(dp3616
g61
(dp3617
sg70
g3602
sg63
(lp3618
g56
(g57
g58
NtRp3619
(dp3620
g61
(dp3621
g69
I3
ssg70
g3615
sg63
(lp3622
S'kids'
p3623
asbasbasbasbasbasbasbag56
(g72
g58
NtRp3624
(dp3625
g61
(dp3626
sg70
g3502
sg63
(lp3627
g56
(g77
g58
NtRp3628
(dp3629
g61
(dp3630
sg70
g3624
sg63
(lp3631
g56
(g57
g58
NtRp3632
(dp3633
g61
(dp3634
g69
I4
ssg70
g3628
sg63
(lp3635
g56
(g65
g58
NtRp3636
(dp3637
g61
(dp3638
g69
I3
ssg70
Nsg63
(lp3639
g56
(g72
g58
NtRp3640
(dp3641
g61
(dp3642
sg70
g3636
sg63
(lp3643
g56
(g77
g58
NtRp3644
(dp3645
g61
(dp3646
g81
g82
ssg70
g3640
sg63
(lp3647
S'id'
p3648
asbag56
(g77
g58
NtRp3649
(dp3650
g61
(dp3651
g88
g89
ssg70
g3640
sg63
(lp3652
S':'
asbag56
(g77
g58
NtRp3653
(dp3654
g61
(dp3655
sg70
g3640
sg63
(lp3656
g56
(g57
g58
NtRp3657
(dp3658
g61
(dp3659
g69
I3
ssg70
g3653
sg63
(lp3660
S'3'
asbasbasbag56
(g72
g58
NtRp3661
(dp3662
g61
(dp3663
sg70
g3636
sg63
(lp3664
g56
(g77
g58
NtRp3665
(dp3666
g61
(dp3667
g81
g82
ssg70
g3661
sg63
(lp3668
S'tag'
p3669
asbag56
(g77
g58
NtRp3670
(dp3671
g61
(dp3672
g88
g89
ssg70
g3661
sg63
(lp3673
S':'
asbag56
(g77
g58
NtRp3674
(dp3675
g61
(dp3676
sg70
g3661
sg63
(lp3677
g56
(g57
g58
NtRp3678
(dp3679
g61
(dp3680
g69
I3
ssg70
g3674
sg63
(lp3681
S'research'
p3682
asbasbasbasbasbasbasbag56
(g72
g58
NtRp3683
(dp3684
g61
(dp3685
sg70
g3502
sg63
(lp3686
g56
(g77
g58
NtRp3687
(dp3688
g61
(dp3689
sg70
g3683
sg63
(lp3690
g56
(g57
g58
NtRp3691
(dp3692
g61
(dp3693
g69
I4
ssg70
g3687
sg63
(lp3694
g56
(g65
g58
NtRp3695
(dp3696
g61
(dp3697
g69
I3
ssg70
Nsg63
(lp3698
g56
(g72
g58
NtRp3699
(dp3700
g61
(dp3701
sg70
g3695
sg63
(lp3702
g56
(g77
g58
NtRp3703
(dp3704
g61
(dp3705
g81
g82
ssg70
g3699
sg63
(lp3706
S'id'
p3707
asbag56
(g77
g58
NtRp3708
(dp3709
g61
(dp3710
g88
g89
ssg70
g3699
sg63
(lp3711
S':'
asbag56
(g77
g58
NtRp3712
(dp3713
g61
(dp3714
sg70
g3699
sg63
(lp3715
g56
(g57
g58
NtRp3716
(dp3717
g61
(dp3718
g69
I3
ssg70
g3712
sg63
(lp3719
S'4'
asbasbasbag56
(g72
g58
NtRp3720
(dp3721
g61
(dp3722
sg70
g3695
sg63
(lp3723
g56
(g77
g58
NtRp3724
(dp3725
g61
(dp3726
g81
g82
ssg70
g3720
sg63
(lp3727
S'tag'
p3728
asbag56
(g77
g58
NtRp3729
(dp3730
g61
(dp3731
g88
g89
ssg70
g3720
sg63
(lp3732
S':'
asbag56
(g77
g58
NtRp3733
(dp3734
g61
(dp3735
sg70
g3720
sg63
(lp3736
g56
(g57
g58
NtRp3737
(dp3738
g61
(dp3739
g69
I3
ssg70
g3733
sg63
(lp3740
S'webdev'
p3741
asbasbasbasbasbasbasbag56
(g72
g58
NtRp3742
(dp3743
g61
(dp3744
sg70
g3502
sg63
(lp3745
g56
(g77
g58
NtRp3746
(dp3747
g61
(dp3748
sg70
g3742
sg63
(lp3749
g56
(g57
g58
NtRp3750
(dp3751
g61
(dp3752
g69
I4
ssg70
g3746
sg63
(lp3753
g56
(g65
g58
NtRp3754
(dp3755
g61
(dp3756
g69
I3
ssg70
Nsg63
(lp3757
g56
(g72
g58
NtRp3758
(dp3759
g61
(dp3760
sg70
g3754
sg63
(lp3761
g56
(g77
g58
NtRp3762
(dp3763
g61
(dp3764
g81
g82
ssg70
g3758
sg63
(lp3765
S'id'
p3766
asbag56
(g77
g58
NtRp3767
(dp3768
g61
(dp3769
g88
g89
ssg70
g3758
sg63
(lp3770
S':'
asbag56
(g77
g58
NtRp3771
(dp3772
g61
(dp3773
sg70
g3758
sg63
(lp3774
g56
(g57
g58
NtRp3775
(dp3776
g61
(dp3777
g69
I3
ssg70
g3771
sg63
(lp3778
S'5'
asbasbasbag56
(g72
g58
NtRp3779
(dp3780
g61
(dp3781
sg70
g3754
sg63
(lp3782
g56
(g77
g58
NtRp3783
(dp3784
g61
(dp3785
g81
g82
ssg70
g3779
sg63
(lp3786
S'tag'
p3787
asbag56
(g77
g58
NtRp3788
(dp3789
g61
(dp3790
g88
g89
ssg70
g3779
sg63
(lp3791
S':'
asbag56
(g77
g58
NtRp3792
(dp3793
g61
(dp3794
sg70
g3779
sg63
(lp3795
g56
(g57
g58
NtRp3796
(dp3797
g61
(dp3798
g69
I3
ssg70
g3792
sg63
(lp3799
S'photography'
p3800
asbasbasbasbasbasbasbag56
(g72
g58
NtRp3801
(dp3802
g61
(dp3803
sg70
g3502
sg63
(lp3804
g56
(g77
g58
NtRp3805
(dp3806
g61
(dp3807
sg70
g3801
sg63
(lp3808
g56
(g57
g58
NtRp3809
(dp3810
g61
(dp3811
g69
I4
ssg70
g3805
sg63
(lp3812
g56
(g65
g58
NtRp3813
(dp3814
g61
(dp3815
g69
I3
ssg70
Nsg63
(lp3816
g56
(g72
g58
NtRp3817
(dp3818
g61
(dp3819
sg70
g3813
sg63
(lp3820
g56
(g77
g58
NtRp3821
(dp3822
g61
(dp3823
g81
g82
ssg70
g3817
sg63
(lp3824
S'id'
p3825
asbag56
(g77
g58
NtRp3826
(dp3827
g61
(dp3828
g88
g89
ssg70
g3817
sg63
(lp3829
S':'
asbag56
(g77
g58
NtRp3830
(dp3831
g61
(dp3832
sg70
g3817
sg63
(lp3833
g56
(g57
g58
NtRp3834
(dp3835
g61
(dp3836
g69
I3
ssg70
g3830
sg63
(lp3837
S'6'
asbasbasbag56
(g72
g58
NtRp3838
(dp3839
g61
(dp3840
sg70
g3813
sg63
(lp3841
g56
(g77
g58
NtRp3842
(dp3843
g61
(dp3844
g81
g82
ssg70
g3838
sg63
(lp3845
S'tag'
p3846
asbag56
(g77
g58
NtRp3847
(dp3848
g61
(dp3849
g88
g89
ssg70
g3838
sg63
(lp3850
S':'
asbag56
(g77
g58
NtRp3851
(dp3852
g61
(dp3853
sg70
g3838
sg63
(lp3854
g56
(g57
g58
NtRp3855
(dp3856
g61
(dp3857
g69
I3
ssg70
g3851
sg63
(lp3858
S'entertainment'
p3859
asbasbasbasbasbasbasbag56
(g72
g58
NtRp3860
(dp3861
g61
(dp3862
sg70
g3502
sg63
(lp3863
g56
(g77
g58
NtRp3864
(dp3865
g61
(dp3866
sg70
g3860
sg63
(lp3867
g56
(g57
g58
NtRp3868
(dp3869
g61
(dp3870
g69
I4
ssg70
g3864
sg63
(lp3871
g56
(g65
g58
NtRp3872
(dp3873
g61
(dp3874
g69
I3
ssg70
Nsg63
(lp3875
g56
(g72
g58
NtRp3876
(dp3877
g61
(dp3878
sg70
g3872
sg63
(lp3879
g56
(g77
g58
NtRp3880
(dp3881
g61
(dp3882
g81
g82
ssg70
g3876
sg63
(lp3883
S'id'
p3884
asbag56
(g77
g58
NtRp3885
(dp3886
g61
(dp3887
g88
g89
ssg70
g3876
sg63
(lp3888
S':'
asbag56
(g77
g58
NtRp3889
(dp3890
g61
(dp3891
sg70
g3876
sg63
(lp3892
g56
(g57
g58
NtRp3893
(dp3894
g61
(dp3895
g69
I3
ssg70
g3889
sg63
(lp3896
S'7'
asbasbasbag56
(g72
g58
NtRp3897
(dp3898
g61
(dp3899
sg70
g3872
sg63
(lp3900
g56
(g77
g58
NtRp3901
(dp3902
g61
(dp3903
g81
g82
ssg70
g3897
sg63
(lp3904
S'tag'
p3905
asbag56
(g77
g58
NtRp3906
(dp3907
g61
(dp3908
g88
g89
ssg70
g3897
sg63
(lp3909
S':'
asbag56
(g77
g58
NtRp3910
(dp3911
g61
(dp3912
sg70
g3897
sg63
(lp3913
g56
(g57
g58
NtRp3914
(dp3915
g61
(dp3916
g69
I3
ssg70
g3910
sg63
(lp3917
S'games'
p3918
asbasbasbasbasbasbasbag56
(g72
g58
NtRp3919
(dp3920
g61
(dp3921
sg70
g3502
sg63
(lp3922
g56
(g77
g58
NtRp3923
(dp3924
g61
(dp3925
sg70
g3919
sg63
(lp3926
g56
(g57
g58
NtRp3927
(dp3928
g61
(dp3929
g69
I4
ssg70
g3923
sg63
(lp3930
g56
(g65
g58
NtRp3931
(dp3932
g61
(dp3933
g69
I3
ssg70
Nsg63
(lp3934
g56
(g72
g58
NtRp3935
(dp3936
g61
(dp3937
sg70
g3931
sg63
(lp3938
g56
(g77
g58
NtRp3939
(dp3940
g61
(dp3941
g81
g82
ssg70
g3935
sg63
(lp3942
S'id'
p3943
asbag56
(g77
g58
NtRp3944
(dp3945
g61
(dp3946
g88
g89
ssg70
g3935
sg63
(lp3947
S':'
asbag56
(g77
g58
NtRp3948
(dp3949
g61
(dp3950
sg70
g3935
sg63
(lp3951
g56
(g57
g58
NtRp3952
(dp3953
g61
(dp3954
g69
I3
ssg70
g3948
sg63
(lp3955
S'8'
asbasbasbag56
(g72
g58
NtRp3956
(dp3957
g61
(dp3958
sg70
g3931
sg63
(lp3959
g56
(g77
g58
NtRp3960
(dp3961
g61
(dp3962
g81
g82
ssg70
g3956
sg63
(lp3963
S'tag'
p3964
asbag56
(g77
g58
NtRp3965
(dp3966
g61
(dp3967
g88
g89
ssg70
g3956
sg63
(lp3968
S':'
asbag56
(g77
g58
NtRp3969
(dp3970
g61
(dp3971
sg70
g3956
sg63
(lp3972
g56
(g57
g58
NtRp3973
(dp3974
g61
(dp3975
g69
I3
ssg70
g3969
sg63
(lp3976
S'design'
p3977
asbasbasbasbasbasbasbag56
(g72
g58
NtRp3978
(dp3979
g61
(dp3980
sg70
g3502
sg63
(lp3981
g56
(g77
g58
NtRp3982
(dp3983
g61
(dp3984
sg70
g3978
sg63
(lp3985
g56
(g57
g58
NtRp3986
(dp3987
g61
(dp3988
g69
I4
ssg70
g3982
sg63
(lp3989
g56
(g65
g58
NtRp3990
(dp3991
g61
(dp3992
g69
I3
ssg70
Nsg63
(lp3993
g56
(g72
g58
NtRp3994
(dp3995
g61
(dp3996
sg70
g3990
sg63
(lp3997
g56
(g77
g58
NtRp3998
(dp3999
g61
(dp4000
g81
g82
ssg70
g3994
sg63
(lp4001
S'id'
p4002
asbag56
(g77
g58
NtRp4003
(dp4004
g61
(dp4005
g88
g89
ssg70
g3994
sg63
(lp4006
S':'
asbag56
(g77
g58
NtRp4007
(dp4008
g61
(dp4009
sg70
g3994
sg63
(lp4010
g56
(g57
g58
NtRp4011
(dp4012
g61
(dp4013
g69
I3
ssg70
g4007
sg63
(lp4014
S'9'
asbasbasbag56
(g72
g58
NtRp4015
(dp4016
g61
(dp4017
sg70
g3990
sg63
(lp4018
g56
(g77
g58
NtRp4019
(dp4020
g61
(dp4021
g81
g82
ssg70
g4015
sg63
(lp4022
S'tag'
p4023
asbag56
(g77
g58
NtRp4024
(dp4025
g61
(dp4026
g88
g89
ssg70
g4015
sg63
(lp4027
S':'
asbag56
(g77
g58
NtRp4028
(dp4029
g61
(dp4030
sg70
g4015
sg63
(lp4031
g56
(g57
g58
NtRp4032
(dp4033
g61
(dp4034
g69
I3
ssg70
g4028
sg63
(lp4035
S'research'
p4036
asbasbasbasbasbasbasbasbasbasbasbasbasbsS'etype'
p4037
S"<type 'exceptions.AttributeError'>"
p4038
sS'date'
p4039
S'Fri Sep 30 16:10:12 2011'
p4040
sS'response'
p4041
g56
(g57
g58
NtRp4042
(dp4043
g61
(dp4044
sg63
(lp4045
g56
(g65
g58
NtRp4046
(dp4047
g61
(dp4048
g69
I5
ssg70
Nsg63
(lp4049
g56
(g72
g58
NtRp4050
(dp4051
g61
(dp4052
sg70
g4046
sg63
(lp4053
g56
(g77
g58
NtRp4054
(dp4055
g61
(dp4056
g81
g82
ssg70
g4050
sg63
(lp4057
g154
asbag56
(g77
g58
NtRp4058
(dp4059
g61
(dp4060
g88
g89
ssg70
g4050
sg63
(lp4061
S':'
asbag56
(g77
g58
NtRp4062
(dp4063
g61
(dp4064
sg70
g4050
sg63
(lp4065
g56
(g57
g58
NtRp4066
(dp4067
g61
(dp4068
g69
I5
ssg70
g4062
sg63
(lp4069
S'<cStringIO.StringO object at 0x3034c70>'
p4070
asbasbasbag56
(g72
g58
NtRp4071
(dp4072
g61
(dp4073
sg70
g4046
sg63
(lp4074
g56
(g77
g58
NtRp4075
(dp4076
g61
(dp4077
g81
g82
ssg70
g4071
sg63
(lp4078
g220
asbag56
(g77
g58
NtRp4079
(dp4080
g61
(dp4081
g88
g89
ssg70
g4071
sg63
(lp4082
S':'
asbag56
(g77
g58
NtRp4083
(dp4084
g61
(dp4085
sg70
g4071
sg63
(lp4086
g56
(g57
g58
NtRp4087
(dp4088
g61
(dp4089
g69
I5
ssg70
g4083
sg63
(lp4090
g56
(g65
g58
NtRp4091
(dp4092
g61
(dp4093
g69
I4
ssg70
Nsg63
(lp4094
g56
(g72
g58
NtRp4095
(dp4096
g61
(dp4097
sg70
g4091
sg63
(lp4098
g56
(g77
g58
NtRp4099
(dp4100
g61
(dp4101
g81
g82
ssg70
g4095
sg63
(lp4102
S'session_id_places'
p4103
asbag56
(g77
g58
NtRp4104
(dp4105
g61
(dp4106
g88
g89
ssg70
g4095
sg63
(lp4107
S':'
asbag56
(g77
g58
NtRp4108
(dp4109
g61
(dp4110
sg70
g4095
sg63
(lp4111
g56
(g57
g58
NtRp4112
(dp4113
g61
(dp4114
g69
I4
ssg70
g4108
sg63
(lp4115
g56
(g65
g58
NtRp4116
(dp4117
g61
(dp4118
g69
I3
ssg70
Nsg63
(lp4119
g56
(g72
g58
NtRp4120
(dp4121
g61
(dp4122
sg70
g4116
sg63
(lp4123
g56
(g77
g58
NtRp4124
(dp4125
g61
(dp4126
g81
g82
ssg70
g4120
sg63
(lp4127
g270
asbag56
(g77
g58
NtRp4128
(dp4129
g61
(dp4130
g88
g89
ssg70
g4120
sg63
(lp4131
S':'
asbag56
(g77
g58
NtRp4132
(dp4133
g61
(dp4134
sg70
g4120
sg63
(lp4135
g56
(g57
g58
NtRp4136
(dp4137
g61
(dp4138
g69
I3
ssg70
g4132
sg63
(lp4139
S''
asbasbasbag56
(g72
g58
NtRp4140
(dp4141
g61
(dp4142
sg70
g4116
sg63
(lp4143
g56
(g77
g58
NtRp4144
(dp4145
g61
(dp4146
g81
g82
ssg70
g4140
sg63
(lp4147
g291
asbag56
(g77
g58
NtRp4148
(dp4149
g61
(dp4150
g88
g89
ssg70
g4140
sg63
(lp4151
S':'
asbag56
(g77
g58
NtRp4152
(dp4153
g61
(dp4154
sg70
g4140
sg63
(lp4155
g56
(g57
g58
NtRp4156
(dp4157
g61
(dp4158
g69
I3
ssg70
g4152
sg63
(lp4159
S''
asbasbasbag56
(g72
g58
NtRp4160
(dp4161
g61
(dp4162
sg70
g4116
sg63
(lp4163
g56
(g77
g58
NtRp4164
(dp4165
g61
(dp4166
g81
g82
ssg70
g4160
sg63
(lp4167
g312
asbag56
(g77
g58
NtRp4168
(dp4169
g61
(dp4170
g88
g89
ssg70
g4160
sg63
(lp4171
S':'
asbag56
(g77
g58
NtRp4172
(dp4173
g61
(dp4174
sg70
g4160
sg63
(lp4175
g56
(g57
g58
NtRp4176
(dp4177
g61
(dp4178
g69
I3
ssg70
g4172
sg63
(lp4179
S''
asbasbasbag56
(g72
g58
NtRp4180
(dp4181
g61
(dp4182
sg70
g4116
sg63
(lp4183
g56
(g77
g58
NtRp4184
(dp4185
g61
(dp4186
g81
g82
ssg70
g4180
sg63
(lp4187
g333
asbag56
(g77
g58
NtRp4188
(dp4189
g61
(dp4190
g88
g89
ssg70
g4180
sg63
(lp4191
S':'
asbag56
(g77
g58
NtRp4192
(dp4193
g61
(dp4194
sg70
g4180
sg63
(lp4195
g56
(g57
g58
NtRp4196
(dp4197
g61
(dp4198
g69
I3
ssg70
g4192
sg63
(lp4199
S''
asbasbasbag56
(g72
g58
NtRp4200
(dp4201
g61
(dp4202
sg70
g4116
sg63
(lp4203
g56
(g77
g58
NtRp4204
(dp4205
g61
(dp4206
g81
g82
ssg70
g4200
sg63
(lp4207
g354
asbag56
(g77
g58
NtRp4208
(dp4209
g61
(dp4210
g88
g89
ssg70
g4200
sg63
(lp4211
S':'
asbag56
(g77
g58
NtRp4212
(dp4213
g61
(dp4214
sg70
g4200
sg63
(lp4215
g56
(g57
g58
NtRp4216
(dp4217
g61
(dp4218
g69
I3
ssg70
g4212
sg63
(lp4219
S''
asbasbasbag56
(g72
g58
NtRp4220
(dp4221
g61
(dp4222
sg70
g4116
sg63
(lp4223
g56
(g77
g58
NtRp4224
(dp4225
g61
(dp4226
g81
g82
ssg70
g4220
sg63
(lp4227
g375
asbag56
(g77
g58
NtRp4228
(dp4229
g61
(dp4230
g88
g89
ssg70
g4220
sg63
(lp4231
S':'
asbag56
(g77
g58
NtRp4232
(dp4233
g61
(dp4234
sg70
g4220
sg63
(lp4235
g56
(g57
g58
NtRp4236
(dp4237
g61
(dp4238
g69
I3
ssg70
g4232
sg63
(lp4239
S'/'
asbasbasbag56
(g72
g58
NtRp4240
(dp4241
g61
(dp4242
sg70
g4116
sg63
(lp4243
g56
(g77
g58
NtRp4244
(dp4245
g61
(dp4246
g81
g82
ssg70
g4240
sg63
(lp4247
g396
asbag56
(g77
g58
NtRp4248
(dp4249
g61
(dp4250
g88
g89
ssg70
g4240
sg63
(lp4251
S':'
asbag56
(g77
g58
NtRp4252
(dp4253
g61
(dp4254
sg70
g4240
sg63
(lp4255
g56
(g57
g58
NtRp4256
(dp4257
g61
(dp4258
g69
I3
ssg70
g4252
sg63
(lp4259
S''
asbasbasbag56
(g72
g58
NtRp4260
(dp4261
g61
(dp4262
sg70
g4116
sg63
(lp4263
g56
(g77
g58
NtRp4264
(dp4265
g61
(dp4266
g81
g82
ssg70
g4260
sg63
(lp4267
g417
asbag56
(g77
g58
NtRp4268
(dp4269
g61
(dp4270
g88
g89
ssg70
g4260
sg63
(lp4271
S':'
asbag56
(g77
g58
NtRp4272
(dp4273
g61
(dp4274
sg70
g4260
sg63
(lp4275
g56
(g57
g58
NtRp4276
(dp4277
g61
(dp4278
g69
I3
ssg70
g4272
sg63
(lp4279
S''
asbasbasbasbasbasbasbasbasbasbasbag56
(g72
g58
NtRp4280
(dp4281
g61
(dp4282
sg70
g4046
sg63
(lp4283
g56
(g77
g58
NtRp4284
(dp4285
g61
(dp4286
g81
g82
ssg70
g4280
sg63
(lp4287
S'files'
p4288
asbag56
(g77
g58
NtRp4289
(dp4290
g61
(dp4291
g88
g89
ssg70
g4280
sg63
(lp4292
S':'
asbag56
(g77
g58
NtRp4293
(dp4294
g61
(dp4295
sg70
g4280
sg63
(lp4296
g56
(g57
g58
NtRp4297
(dp4298
g61
(dp4299
g69
I5
ssg70
g4293
sg63
(lp4300
g56
(g65
g58
NtRp4301
(dp4302
g61
(dp4303
g69
I4
ssg70
Nsg63
(lp4304
g56
(g72
g58
NtRp4305
(dp4306
g61
(dp4307
sg70
g4301
sg63
(lp4308
g56
(g77
g58
NtRp4309
(dp4310
g61
(dp4311
sg70
g4305
sg63
(lp4312
g56
(g57
g58
NtRp4313
(dp4314
g61
(dp4315
g69
I4
ssg70
g4309
sg63
(lp4316
S'/places/static/js/jquery.js'
p4317
asbasbasbag56
(g72
g58
NtRp4318
(dp4319
g61
(dp4320
sg70
g4301
sg63
(lp4321
g56
(g77
g58
NtRp4322
(dp4323
g61
(dp4324
sg70
g4318
sg63
(lp4325
g56
(g57
g58
NtRp4326
(dp4327
g61
(dp4328
g69
I4
ssg70
g4322
sg63
(lp4329
S'/places/static/css/anytime.css'
p4330
asbasbasbag56
(g72
g58
NtRp4331
(dp4332
g61
(dp4333
sg70
g4301
sg63
(lp4334
g56
(g77
g58
NtRp4335
(dp4336
g61
(dp4337
sg70
g4331
sg63
(lp4338
g56
(g57
g58
NtRp4339
(dp4340
g61
(dp4341
g69
I4
ssg70
g4335
sg63
(lp4342
S'/places/static/js/anytime.js'
p4343
asbasbasbag56
(g72
g58
NtRp4344
(dp4345
g61
(dp4346
sg70
g4301
sg63
(lp4347
g56
(g77
g58
NtRp4348
(dp4349
g61
(dp4350
sg70
g4344
sg63
(lp4351
g56
(g57
g58
NtRp4352
(dp4353
g61
(dp4354
g69
I4
ssg70
g4348
sg63
(lp4355
S'/places/static/css/base.css'
p4356
asbasbasbag56
(g72
g58
NtRp4357
(dp4358
g61
(dp4359
sg70
g4301
sg63
(lp4360
g56
(g77
g58
NtRp4361
(dp4362
g61
(dp4363
sg70
g4357
sg63
(lp4364
g56
(g57
g58
NtRp4365
(dp4366
g61
(dp4367
g69
I4
ssg70
g4361
sg63
(lp4368
S'/places/static/css/superfish.css'
p4369
asbasbasbag56
(g72
g58
NtRp4370
(dp4371
g61
(dp4372
sg70
g4301
sg63
(lp4373
g56
(g77
g58
NtRp4374
(dp4375
g61
(dp4376
sg70
g4370
sg63
(lp4377
g56
(g57
g58
NtRp4378
(dp4379
g61
(dp4380
g69
I4
ssg70
g4374
sg63
(lp4381
S'/places/static/js/superfish.js'
p4382
asbasbasbasbasbasbasbag56
(g72
g58
NtRp4383
(dp4384
g61
(dp4385
sg70
g4046
sg63
(lp4386
g56
(g77
g58
NtRp4387
(dp4388
g61
(dp4389
g81
g82
ssg70
g4383
sg63
(lp4390
S'flash'
p4391
asbag56
(g77
g58
NtRp4392
(dp4393
g61
(dp4394
g88
g89
ssg70
g4383
sg63
(lp4395
S':'
asbag56
(g77
g58
NtRp4396
(dp4397
g61
(dp4398
sg70
g4383
sg63
(lp4399
g56
(g57
g58
NtRp4400
(dp4401
g61
(dp4402
g69
I5
ssg70
g4396
sg63
(lp4403
S''
asbasbasbag56
(g72
g58
NtRp4404
(dp4405
g61
(dp4406
sg70
g4046
sg63
(lp4407
g56
(g77
g58
NtRp4408
(dp4409
g61
(dp4410
g81
g82
ssg70
g4404
sg63
(lp4411
S'generic_patterns'
p4412
asbag56
(g77
g58
NtRp4413
(dp4414
g61
(dp4415
g88
g89
ssg70
g4404
sg63
(lp4416
S':'
asbag56
(g77
g58
NtRp4417
(dp4418
g61
(dp4419
sg70
g4404
sg63
(lp4420
g56
(g57
g58
NtRp4421
(dp4422
g61
(dp4423
g69
I5
ssg70
g4417
sg63
(lp4424
g56
(g65
g58
NtRp4425
(dp4426
g61
(dp4427
g69
I4
ssg70
Nsg63
(lp4428
g56
(g72
g58
NtRp4429
(dp4430
g61
(dp4431
sg70
g4425
sg63
(lp4432
g56
(g77
g58
NtRp4433
(dp4434
g61
(dp4435
sg70
g4429
sg63
(lp4436
g56
(g57
g58
NtRp4437
(dp4438
g61
(dp4439
g69
I4
ssg70
g4433
sg63
(lp4440
S'*'
asbasbasbasbasbasbasbag56
(g72
g58
NtRp4441
(dp4442
g61
(dp4443
sg70
g4046
sg63
(lp4444
g56
(g77
g58
NtRp4445
(dp4446
g61
(dp4447
g81
g82
ssg70
g4441
sg63
(lp4448
S'headers'
p4449
asbag56
(g77
g58
NtRp4450
(dp4451
g61
(dp4452
g88
g89
ssg70
g4441
sg63
(lp4453
S':'
asbag56
(g77
g58
NtRp4454
(dp4455
g61
(dp4456
sg70
g4441
sg63
(lp4457
g56
(g57
g58
NtRp4458
(dp4459
g61
(dp4460
g69
I5
ssg70
g4454
sg63
(lp4461
g56
(g65
g58
NtRp4462
(dp4463
g61
(dp4464
g69
I4
ssg70
Nsg63
(lp4465
g56
(g72
g58
NtRp4466
(dp4467
g61
(dp4468
sg70
g4462
sg63
(lp4469
g56
(g77
g58
NtRp4470
(dp4471
g61
(dp4472
g81
g82
ssg70
g4466
sg63
(lp4473
S'Cache-Control'
p4474
asbag56
(g77
g58
NtRp4475
(dp4476
g61
(dp4477
g88
g89
ssg70
g4466
sg63
(lp4478
S':'
asbag56
(g77
g58
NtRp4479
(dp4480
g61
(dp4481
sg70
g4466
sg63
(lp4482
g56
(g57
g58
NtRp4483
(dp4484
g61
(dp4485
g69
I4
ssg70
g4479
sg63
(lp4486
S'no-store, no-cache, must-revalidate, post-check=0, pre-check=0'
p4487
asbasbasbag56
(g72
g58
NtRp4488
(dp4489
g61
(dp4490
sg70
g4462
sg63
(lp4491
g56
(g77
g58
NtRp4492
(dp4493
g61
(dp4494
g81
g82
ssg70
g4488
sg63
(lp4495
S'Content-Type'
p4496
asbag56
(g77
g58
NtRp4497
(dp4498
g61
(dp4499
g88
g89
ssg70
g4488
sg63
(lp4500
S':'
asbag56
(g77
g58
NtRp4501
(dp4502
g61
(dp4503
sg70
g4488
sg63
(lp4504
g56
(g57
g58
NtRp4505
(dp4506
g61
(dp4507
g69
I4
ssg70
g4501
sg63
(lp4508
S'text/html; charset=utf-8'
p4509
asbasbasbag56
(g72
g58
NtRp4510
(dp4511
g61
(dp4512
sg70
g4462
sg63
(lp4513
g56
(g77
g58
NtRp4514
(dp4515
g61
(dp4516
g81
g82
ssg70
g4510
sg63
(lp4517
S'Expires'
p4518
asbag56
(g77
g58
NtRp4519
(dp4520
g61
(dp4521
g88
g89
ssg70
g4510
sg63
(lp4522
S':'
asbag56
(g77
g58
NtRp4523
(dp4524
g61
(dp4525
sg70
g4510
sg63
(lp4526
g56
(g57
g58
NtRp4527
(dp4528
g61
(dp4529
g69
I4
ssg70
g4523
sg63
(lp4530
S'Fri, 30 Sep 2011 20:10:12 GMT'
p4531
asbasbasbag56
(g72
g58
NtRp4532
(dp4533
g61
(dp4534
sg70
g4462
sg63
(lp4535
g56
(g77
g58
NtRp4536
(dp4537
g61
(dp4538
g81
g82
ssg70
g4532
sg63
(lp4539
S'Pragma'
p4540
asbag56
(g77
g58
NtRp4541
(dp4542
g61
(dp4543
g88
g89
ssg70
g4532
sg63
(lp4544
S':'
asbag56
(g77
g58
NtRp4545
(dp4546
g61
(dp4547
sg70
g4532
sg63
(lp4548
g56
(g57
g58
NtRp4549
(dp4550
g61
(dp4551
g69
I4
ssg70
g4545
sg63
(lp4552
S'no-cache'
p4553
asbasbasbag56
(g72
g58
NtRp4554
(dp4555
g61
(dp4556
sg70
g4462
sg63
(lp4557
g56
(g77
g58
NtRp4558
(dp4559
g61
(dp4560
g81
g82
ssg70
g4554
sg63
(lp4561
S'X-Powered-By'
p4562
asbag56
(g77
g58
NtRp4563
(dp4564
g61
(dp4565
g88
g89
ssg70
g4554
sg63
(lp4566
S':'
asbag56
(g77
g58
NtRp4567
(dp4568
g61
(dp4569
sg70
g4554
sg63
(lp4570
g56
(g57
g58
NtRp4571
(dp4572
g61
(dp4573
g69
I4
ssg70
g4567
sg63
(lp4574
S'web2py'
p4575
asbasbasbasbasbasbasbag56
(g72
g58
NtRp4576
(dp4577
g61
(dp4578
sg70
g4046
sg63
(lp4579
g56
(g77
g58
NtRp4580
(dp4581
g61
(dp4582
g81
g82
ssg70
g4576
sg63
(lp4583
S'menu'
p4584
asbag56
(g77
g58
NtRp4585
(dp4586
g61
(dp4587
g88
g89
ssg70
g4576
sg63
(lp4588
S':'
asbag56
(g77
g58
NtRp4589
(dp4590
g61
(dp4591
sg70
g4576
sg63
(lp4592
g56
(g57
g58
NtRp4593
(dp4594
g61
(dp4595
g69
I5
ssg70
g4589
sg63
(lp4596
g56
(g65
g58
NtRp4597
(dp4598
g61
(dp4599
g69
I4
ssg70
Nsg63
(lp4600
g56
(g72
g58
NtRp4601
(dp4602
g61
(dp4603
sg70
g4597
sg63
(lp4604
g56
(g77
g58
NtRp4605
(dp4606
g61
(dp4607
sg70
g4601
sg63
(lp4608
g56
(g57
g58
NtRp4609
(dp4610
g61
(dp4611
g69
I4
ssg70
g4605
sg63
(lp4612
g56
(g65
g58
NtRp4613
(dp4614
g61
(dp4615
g69
I3
ssg70
Nsg63
(lp4616
g56
(g72
g58
NtRp4617
(dp4618
g61
(dp4619
sg70
g4613
sg63
(lp4620
g56
(g77
g58
NtRp4621
(dp4622
g61
(dp4623
sg70
g4617
sg63
(lp4624
g56
(g57
g58
NtRp4625
(dp4626
g61
(dp4627
g69
I3
ssg70
g4621
sg63
(lp4628
cgluon.languages
lazyT_unpickle
p4629
(S't\x04\x00\x00\x00Home'
tRp4630
asbasbasbag56
(g72
g58
NtRp4631
(dp4632
g61
(dp4633
sg70
g4613
sg63
(lp4634
g56
(g77
g58
NtRp4635
(dp4636
g61
(dp4637
sg70
g4631
sg63
(lp4638
g56
(g57
g58
NtRp4639
(dp4640
g61
(dp4641
g69
I3
ssg70
g4635
sg63
(lp4642
g99
asbasbasbag56
(g72
g58
NtRp4643
(dp4644
g61
(dp4645
sg70
g4613
sg63
(lp4646
g56
(g77
g58
NtRp4647
(dp4648
g61
(dp4649
sg70
g4643
sg63
(lp4650
g56
(g57
g58
NtRp4651
(dp4652
g61
(dp4653
g69
I3
ssg70
g4647
sg63
(lp4654
S'/places/default/index'
p4655
asbasbasbag56
(g72
g58
NtRp4656
(dp4657
g61
(dp4658
sg70
g4613
sg63
(lp4659
g56
(g77
g58
NtRp4660
(dp4661
g61
(dp4662
sg70
g4656
sg63
(lp4663
g56
(g57
g58
NtRp4664
(dp4665
g61
(dp4666
g69
I3
ssg70
g4660
sg63
(lp4667
g56
(g65
g58
NtRp4668
(dp4669
g61
(dp4670
g69
I2
ssg70
Nsg63
(lp4671
sbasbasbasbasbasbasbasbag56
(g72
g58
NtRp4672
(dp4673
g61
(dp4674
sg70
g4597
sg63
(lp4675
g56
(g77
g58
NtRp4676
(dp4677
g61
(dp4678
sg70
g4672
sg63
(lp4679
g56
(g57
g58
NtRp4680
(dp4681
g61
(dp4682
g69
I4
ssg70
g4676
sg63
(lp4683
g56
(g65
g58
NtRp4684
(dp4685
g61
(dp4686
g69
I3
ssg70
Nsg63
(lp4687
g56
(g72
g58
NtRp4688
(dp4689
g61
(dp4690
sg70
g4684
sg63
(lp4691
g56
(g77
g58
NtRp4692
(dp4693
g61
(dp4694
sg70
g4688
sg63
(lp4695
g56
(g57
g58
NtRp4696
(dp4697
g61
(dp4698
g69
I3
ssg70
g4692
sg63
(lp4699
g4629
(S's\x08\x00\x00\x00This App'
tRp4700
asbasbasbag56
(g72
g58
NtRp4701
(dp4702
g61
(dp4703
sg70
g4684
sg63
(lp4704
g56
(g77
g58
NtRp4705
(dp4706
g61
(dp4707
sg70
g4701
sg63
(lp4708
g56
(g57
g58
NtRp4709
(dp4710
g61
(dp4711
g69
I3
ssg70
g4705
sg63
(lp4712
g99
asbasbasbag56
(g72
g58
NtRp4713
(dp4714
g61
(dp4715
sg70
g4684
sg63
(lp4716
g56
(g77
g58
NtRp4717
(dp4718
g61
(dp4719
sg70
g4713
sg63
(lp4720
g56
(g57
g58
NtRp4721
(dp4722
g61
(dp4723
g69
I3
ssg70
g4717
sg63
(lp4724
S'/admin/default/design/places'
p4725
asbasbasbag56
(g72
g58
NtRp4726
(dp4727
g61
(dp4728
sg70
g4684
sg63
(lp4729
g56
(g77
g58
NtRp4730
(dp4731
g61
(dp4732
sg70
g4726
sg63
(lp4733
g56
(g57
g58
NtRp4734
(dp4735
g61
(dp4736
g69
I3
ssg70
g4730
sg63
(lp4737
g56
(g65
g58
NtRp4738
(dp4739
g61
(dp4740
g69
I2
ssg70
Nsg63
(lp4741
g56
(g72
g58
NtRp4742
(dp4743
g61
(dp4744
sg70
g4738
sg63
(lp4745
g56
(g77
g58
NtRp4746
(dp4747
g61
(dp4748
sg70
g4742
sg63
(lp4749
g56
(g57
g58
NtRp4750
(dp4751
g61
(dp4752
g69
I2
ssg70
g4746
sg63
(lp4753
g56
(g65
g58
NtRp4754
(dp4755
g61
(dp4756
g69
I1
ssg70
Nsg63
(lp4757
g56
(g72
g58
NtRp4758
(dp4759
g61
(dp4760
sg70
g4754
sg63
(lp4761
g56
(g77
g58
NtRp4762
(dp4763
g61
(dp4764
sg70
g4758
sg63
(lp4765
g56
(g57
g58
NtRp4766
(dp4767
g61
(dp4768
g69
I1
ssg70
g4762
sg63
(lp4769
g4629
(S't\n\x00\x00\x00Controller'
tRp4770
asbasbasbag56
(g72
g58
NtRp4771
(dp4772
g61
(dp4773
sg70
g4754
sg63
(lp4774
g56
(g77
g58
NtRp4775
(dp4776
g61
(dp4777
sg70
g4771
sg63
(lp4778
g56
(g57
g58
NtRp4779
(dp4780
g61
(dp4781
g69
I1
ssg70
g4775
sg63
(lp4782
I00
asbasbasbag56
(g72
g58
NtRp4783
(dp4784
g61
(dp4785
sg70
g4754
sg63
(lp4786
g56
(g77
g58
NtRp4787
(dp4788
g61
(dp4789
sg70
g4783
sg63
(lp4790
g56
(g57
g58
NtRp4791
(dp4792
g61
(dp4793
g69
I1
ssg70
g4787
sg63
(lp4794
S'/admin/default/edit/places/controllers/default.py'
p4795
asbasbasbasbasbasbasbag56
(g72
g58
NtRp4796
(dp4797
g61
(dp4798
sg70
g4738
sg63
(lp4799
g56
(g77
g58
NtRp4800
(dp4801
g61
(dp4802
sg70
g4796
sg63
(lp4803
g56
(g57
g58
NtRp4804
(dp4805
g61
(dp4806
g69
I2
ssg70
g4800
sg63
(lp4807
g56
(g65
g58
NtRp4808
(dp4809
g61
(dp4810
g69
I1
ssg70
Nsg63
(lp4811
g56
(g72
g58
NtRp4812
(dp4813
g61
(dp4814
sg70
g4808
sg63
(lp4815
g56
(g77
g58
NtRp4816
(dp4817
g61
(dp4818
sg70
g4812
sg63
(lp4819
g56
(g57
g58
NtRp4820
(dp4821
g61
(dp4822
g69
I1
ssg70
g4816
sg63
(lp4823
g4629
(S't\x04\x00\x00\x00View'
tRp4824
asbasbasbag56
(g72
g58
NtRp4825
(dp4826
g61
(dp4827
sg70
g4808
sg63
(lp4828
g56
(g77
g58
NtRp4829
(dp4830
g61
(dp4831
sg70
g4825
sg63
(lp4832
g56
(g57
g58
NtRp4833
(dp4834
g61
(dp4835
g69
I1
ssg70
g4829
sg63
(lp4836
I00
asbasbasbag56
(g72
g58
NtRp4837
(dp4838
g61
(dp4839
sg70
g4808
sg63
(lp4840
g56
(g77
g58
NtRp4841
(dp4842
g61
(dp4843
sg70
g4837
sg63
(lp4844
g56
(g57
g58
NtRp4845
(dp4846
g61
(dp4847
g69
I1
ssg70
g4841
sg63
(lp4848
S'/admin/default/edit/places/views/default/index.html'
p4849
asbasbasbasbasbasbasbag56
(g72
g58
NtRp4850
(dp4851
g61
(dp4852
sg70
g4738
sg63
(lp4853
g56
(g77
g58
NtRp4854
(dp4855
g61
(dp4856
sg70
g4850
sg63
(lp4857
g56
(g57
g58
NtRp4858
(dp4859
g61
(dp4860
g69
I2
ssg70
g4854
sg63
(lp4861
g56
(g65
g58
NtRp4862
(dp4863
g61
(dp4864
g69
I1
ssg70
Nsg63
(lp4865
g56
(g72
g58
NtRp4866
(dp4867
g61
(dp4868
sg70
g4862
sg63
(lp4869
g56
(g77
g58
NtRp4870
(dp4871
g61
(dp4872
sg70
g4866
sg63
(lp4873
g56
(g57
g58
NtRp4874
(dp4875
g61
(dp4876
g69
I1
ssg70
g4870
sg63
(lp4877
g4629
(S't\x06\x00\x00\x00Layout'
tRp4878
asbasbasbag56
(g72
g58
NtRp4879
(dp4880
g61
(dp4881
sg70
g4862
sg63
(lp4882
g56
(g77
g58
NtRp4883
(dp4884
g61
(dp4885
sg70
g4879
sg63
(lp4886
g56
(g57
g58
NtRp4887
(dp4888
g61
(dp4889
g69
I1
ssg70
g4883
sg63
(lp4890
I00
asbasbasbag56
(g72
g58
NtRp4891
(dp4892
g61
(dp4893
sg70
g4862
sg63
(lp4894
g56
(g77
g58
NtRp4895
(dp4896
g61
(dp4897
sg70
g4891
sg63
(lp4898
g56
(g57
g58
NtRp4899
(dp4900
g61
(dp4901
g69
I1
ssg70
g4895
sg63
(lp4902
S'/admin/default/edit/places/views/layout.html'
p4903
asbasbasbasbasbasbasbag56
(g72
g58
NtRp4904
(dp4905
g61
(dp4906
sg70
g4738
sg63
(lp4907
g56
(g77
g58
NtRp4908
(dp4909
g61
(dp4910
sg70
g4904
sg63
(lp4911
g56
(g57
g58
NtRp4912
(dp4913
g61
(dp4914
g69
I2
ssg70
g4908
sg63
(lp4915
g56
(g65
g58
NtRp4916
(dp4917
g61
(dp4918
g69
I1
ssg70
Nsg63
(lp4919
g56
(g72
g58
NtRp4920
(dp4921
g61
(dp4922
sg70
g4916
sg63
(lp4923
g56
(g77
g58
NtRp4924
(dp4925
g61
(dp4926
sg70
g4920
sg63
(lp4927
g56
(g57
g58
NtRp4928
(dp4929
g61
(dp4930
g69
I1
ssg70
g4924
sg63
(lp4931
g4629
(S't\n\x00\x00\x00Stylesheet'
tRp4932
asbasbasbag56
(g72
g58
NtRp4933
(dp4934
g61
(dp4935
sg70
g4916
sg63
(lp4936
g56
(g77
g58
NtRp4937
(dp4938
g61
(dp4939
sg70
g4933
sg63
(lp4940
g56
(g57
g58
NtRp4941
(dp4942
g61
(dp4943
g69
I1
ssg70
g4937
sg63
(lp4944
I00
asbasbasbag56
(g72
g58
NtRp4945
(dp4946
g61
(dp4947
sg70
g4916
sg63
(lp4948
g56
(g77
g58
NtRp4949
(dp4950
g61
(dp4951
sg70
g4945
sg63
(lp4952
g56
(g57
g58
NtRp4953
(dp4954
g61
(dp4955
g69
I1
ssg70
g4949
sg63
(lp4956
S'/admin/default/edit/places/static/base.css'
p4957
asbasbasbasbasbasbasbag56
(g72
g58
NtRp4958
(dp4959
g61
(dp4960
sg70
g4738
sg63
(lp4961
g56
(g77
g58
NtRp4962
(dp4963
g61
(dp4964
sg70
g4958
sg63
(lp4965
g56
(g57
g58
NtRp4966
(dp4967
g61
(dp4968
g69
I2
ssg70
g4962
sg63
(lp4969
g56
(g65
g58
NtRp4970
(dp4971
g61
(dp4972
g69
I1
ssg70
Nsg63
(lp4973
g56
(g72
g58
NtRp4974
(dp4975
g61
(dp4976
sg70
g4970
sg63
(lp4977
g56
(g77
g58
NtRp4978
(dp4979
g61
(dp4980
sg70
g4974
sg63
(lp4981
g56
(g57
g58
NtRp4982
(dp4983
g61
(dp4984
g69
I1
ssg70
g4978
sg63
(lp4985
g4629
(S's\x08\x00\x00\x00DB Model'
tRp4986
asbasbasbag56
(g72
g58
NtRp4987
(dp4988
g61
(dp4989
sg70
g4970
sg63
(lp4990
g56
(g77
g58
NtRp4991
(dp4992
g61
(dp4993
sg70
g4987
sg63
(lp4994
g56
(g57
g58
NtRp4995
(dp4996
g61
(dp4997
g69
I1
ssg70
g4991
sg63
(lp4998
I00
asbasbasbag56
(g72
g58
NtRp4999
(dp5000
g61
(dp5001
sg70
g4970
sg63
(lp5002
g56
(g77
g58
NtRp5003
(dp5004
g61
(dp5005
sg70
g4999
sg63
(lp5006
g56
(g57
g58
NtRp5007
(dp5008
g61
(dp5009
g69
I1
ssg70
g5003
sg63
(lp5010
S'/admin/default/edit/places/models/db.py'
p5011
asbasbasbasbasbasbasbag56
(g72
g58
NtRp5012
(dp5013
g61
(dp5014
sg70
g4738
sg63
(lp5015
g56
(g77
g58
NtRp5016
(dp5017
g61
(dp5018
sg70
g5012
sg63
(lp5019
g56
(g57
g58
NtRp5020
(dp5021
g61
(dp5022
g69
I2
ssg70
g5016
sg63
(lp5023
g56
(g65
g58
NtRp5024
(dp5025
g61
(dp5026
g69
I1
ssg70
Nsg63
(lp5027
g56
(g72
g58
NtRp5028
(dp5029
g61
(dp5030
sg70
g5024
sg63
(lp5031
g56
(g77
g58
NtRp5032
(dp5033
g61
(dp5034
sg70
g5028
sg63
(lp5035
g56
(g57
g58
NtRp5036
(dp5037
g61
(dp5038
g69
I1
ssg70
g5032
sg63
(lp5039
g4629
(S's\n\x00\x00\x00Menu Model'
tRp5040
asbasbasbag56
(g72
g58
NtRp5041
(dp5042
g61
(dp5043
sg70
g5024
sg63
(lp5044
g56
(g77
g58
NtRp5045
(dp5046
g61
(dp5047
sg70
g5041
sg63
(lp5048
g56
(g57
g58
NtRp5049
(dp5050
g61
(dp5051
g69
I1
ssg70
g5045
sg63
(lp5052
I00
asbasbasbag56
(g72
g58
NtRp5053
(dp5054
g61
(dp5055
sg70
g5024
sg63
(lp5056
g56
(g77
g58
NtRp5057
(dp5058
g61
(dp5059
sg70
g5053
sg63
(lp5060
g56
(g57
g58
NtRp5061
(dp5062
g61
(dp5063
g69
I1
ssg70
g5057
sg63
(lp5064
S'/admin/default/edit/places/models/menu.py'
p5065
asbasbasbasbasbasbasbag56
(g72
g58
NtRp5066
(dp5067
g61
(dp5068
sg70
g4738
sg63
(lp5069
g56
(g77
g58
NtRp5070
(dp5071
g61
(dp5072
sg70
g5066
sg63
(lp5073
g56
(g57
g58
NtRp5074
(dp5075
g61
(dp5076
g69
I2
ssg70
g5070
sg63
(lp5077
g56
(g65
g58
NtRp5078
(dp5079
g61
(dp5080
g69
I1
ssg70
Nsg63
(lp5081
g56
(g72
g58
NtRp5082
(dp5083
g61
(dp5084
sg70
g5078
sg63
(lp5085
g56
(g77
g58
NtRp5086
(dp5087
g61
(dp5088
sg70
g5082
sg63
(lp5089
g56
(g57
g58
NtRp5090
(dp5091
g61
(dp5092
g69
I1
ssg70
g5086
sg63
(lp5093
g4629
(S't\x08\x00\x00\x00Database'
tRp5094
asbasbasbag56
(g72
g58
NtRp5095
(dp5096
g61
(dp5097
sg70
g5078
sg63
(lp5098
g56
(g77
g58
NtRp5099
(dp5100
g61
(dp5101
sg70
g5095
sg63
(lp5102
g56
(g57
g58
NtRp5103
(dp5104
g61
(dp5105
g69
I1
ssg70
g5099
sg63
(lp5106
I00
asbasbasbag56
(g72
g58
NtRp5107
(dp5108
g61
(dp5109
sg70
g5078
sg63
(lp5110
g56
(g77
g58
NtRp5111
(dp5112
g61
(dp5113
sg70
g5107
sg63
(lp5114
g56
(g57
g58
NtRp5115
(dp5116
g61
(dp5117
g69
I1
ssg70
g5111
sg63
(lp5118
S'/places/appadmin/index'
p5119
asbasbasbasbasbasbasbag56
(g72
g58
NtRp5120
(dp5121
g61
(dp5122
sg70
g4738
sg63
(lp5123
g56
(g77
g58
NtRp5124
(dp5125
g61
(dp5126
sg70
g5120
sg63
(lp5127
g56
(g57
g58
NtRp5128
(dp5129
g61
(dp5130
g69
I2
ssg70
g5124
sg63
(lp5131
g56
(g65
g58
NtRp5132
(dp5133
g61
(dp5134
g69
I1
ssg70
Nsg63
(lp5135
g56
(g72
g58
NtRp5136
(dp5137
g61
(dp5138
sg70
g5132
sg63
(lp5139
g56
(g77
g58
NtRp5140
(dp5141
g61
(dp5142
sg70
g5136
sg63
(lp5143
g56
(g57
g58
NtRp5144
(dp5145
g61
(dp5146
g69
I1
ssg70
g5140
sg63
(lp5147
g4629
(S't\x06\x00\x00\x00Errors'
tRp5148
asbasbasbag56
(g72
g58
NtRp5149
(dp5150
g61
(dp5151
sg70
g5132
sg63
(lp5152
g56
(g77
g58
NtRp5153
(dp5154
g61
(dp5155
sg70
g5149
sg63
(lp5156
g56
(g57
g58
NtRp5157
(dp5158
g61
(dp5159
g69
I1
ssg70
g5153
sg63
(lp5160
I00
asbasbasbag56
(g72
g58
NtRp5161
(dp5162
g61
(dp5163
sg70
g5132
sg63
(lp5164
g56
(g77
g58
NtRp5165
(dp5166
g61
(dp5167
sg70
g5161
sg63
(lp5168
g56
(g57
g58
NtRp5169
(dp5170
g61
(dp5171
g69
I1
ssg70
g5165
sg63
(lp5172
S'/admin/default/errors/places'
p5173
asbasbasbasbasbasbasbag56
(g72
g58
NtRp5174
(dp5175
g61
(dp5176
sg70
g4738
sg63
(lp5177
g56
(g77
g58
NtRp5178
(dp5179
g61
(dp5180
sg70
g5174
sg63
(lp5181
g56
(g57
g58
NtRp5182
(dp5183
g61
(dp5184
g69
I2
ssg70
g5178
sg63
(lp5185
g56
(g65
g58
NtRp5186
(dp5187
g61
(dp5188
g69
I1
ssg70
Nsg63
(lp5189
g56
(g72
g58
NtRp5190
(dp5191
g61
(dp5192
sg70
g5186
sg63
(lp5193
g56
(g77
g58
NtRp5194
(dp5195
g61
(dp5196
sg70
g5190
sg63
(lp5197
g56
(g57
g58
NtRp5198
(dp5199
g61
(dp5200
g69
I1
ssg70
g5194
sg63
(lp5201
g4629
(S't\x05\x00\x00\x00About'
tRp5202
asbasbasbag56
(g72
g58
NtRp5203
(dp5204
g61
(dp5205
sg70
g5186
sg63
(lp5206
g56
(g77
g58
NtRp5207
(dp5208
g61
(dp5209
sg70
g5203
sg63
(lp5210
g56
(g57
g58
NtRp5211
(dp5212
g61
(dp5213
g69
I1
ssg70
g5207
sg63
(lp5214
I00
asbasbasbag56
(g72
g58
NtRp5215
(dp5216
g61
(dp5217
sg70
g5186
sg63
(lp5218
g56
(g77
g58
NtRp5219
(dp5220
g61
(dp5221
sg70
g5215
sg63
(lp5222
g56
(g57
g58
NtRp5223
(dp5224
g61
(dp5225
g69
I1
ssg70
g5219
sg63
(lp5226
S'/admin/default/about/places'
p5227
asbasbasbasbasbasbasbasbasbasbasbasbasbasbasbag56
(g72
g58
NtRp5228
(dp5229
g61
(dp5230
sg70
g4597
sg63
(lp5231
g56
(g77
g58
NtRp5232
(dp5233
g61
(dp5234
sg70
g5228
sg63
(lp5235
g56
(g57
g58
NtRp5236
(dp5237
g61
(dp5238
g69
I4
ssg70
g5232
sg63
(lp5239
g56
(g65
g58
NtRp5240
(dp5241
g61
(dp5242
g69
I3
ssg70
Nsg63
(lp5243
g56
(g72
g58
NtRp5244
(dp5245
g61
(dp5246
sg70
g5240
sg63
(lp5247
g56
(g77
g58
NtRp5248
(dp5249
g61
(dp5250
sg70
g5244
sg63
(lp5251
g56
(g57
g58
NtRp5252
(dp5253
g61
(dp5254
g69
I3
ssg70
g5248
sg63
(lp5255
g4629
(S't\t\x00\x00\x00Resources'
tRp5256
asbasbasbag56
(g72
g58
NtRp5257
(dp5258
g61
(dp5259
sg70
g5240
sg63
(lp5260
g56
(g77
g58
NtRp5261
(dp5262
g61
(dp5263
sg70
g5257
sg63
(lp5264
g56
(g57
g58
NtRp5265
(dp5266
g61
(dp5267
g69
I3
ssg70
g5261
sg63
(lp5268
g99
asbasbasbag56
(g72
g58
NtRp5269
(dp5270
g61
(dp5271
sg70
g5240
sg63
(lp5272
g56
(g77
g58
NtRp5273
(dp5274
g61
(dp5275
sg70
g5269
sg63
(lp5276
g56
(g57
g58
NtRp5277
(dp5278
g61
(dp5279
g69
I3
ssg70
g5273
sg63
(lp5280
S'None'
p5281
asbasbasbag56
(g72
g58
NtRp5282
(dp5283
g61
(dp5284
sg70
g5240
sg63
(lp5285
g56
(g77
g58
NtRp5286
(dp5287
g61
(dp5288
sg70
g5282
sg63
(lp5289
g56
(g57
g58
NtRp5290
(dp5291
g61
(dp5292
g69
I3
ssg70
g5286
sg63
(lp5293
g56
(g65
g58
NtRp5294
(dp5295
g61
(dp5296
g69
I2
ssg70
Nsg63
(lp5297
g56
(g72
g58
NtRp5298
(dp5299
g61
(dp5300
sg70
g5294
sg63
(lp5301
g56
(g77
g58
NtRp5302
(dp5303
g61
(dp5304
sg70
g5298
sg63
(lp5305
g56
(g57
g58
NtRp5306
(dp5307
g61
(dp5308
g69
I2
ssg70
g5302
sg63
(lp5309
g56
(g65
g58
NtRp5310
(dp5311
g61
(dp5312
g69
I1
ssg70
Nsg63
(lp5313
g56
(g72
g58
NtRp5314
(dp5315
g61
(dp5316
sg70
g5310
sg63
(lp5317
g56
(g77
g58
NtRp5318
(dp5319
g61
(dp5320
sg70
g5314
sg63
(lp5321
g56
(g57
g58
NtRp5322
(dp5323
g61
(dp5324
g69
I1
ssg70
g5318
sg63
(lp5325
g4629
(S't\r\x00\x00\x00Documentation'
tRp5326
asbasbasbag56
(g72
g58
NtRp5327
(dp5328
g61
(dp5329
sg70
g5310
sg63
(lp5330
g56
(g77
g58
NtRp5331
(dp5332
g61
(dp5333
sg70
g5327
sg63
(lp5334
g56
(g57
g58
NtRp5335
(dp5336
g61
(dp5337
g69
I1
ssg70
g5331
sg63
(lp5338
I00
asbasbasbag56
(g72
g58
NtRp5339
(dp5340
g61
(dp5341
sg70
g5310
sg63
(lp5342
g56
(g77
g58
NtRp5343
(dp5344
g61
(dp5345
sg70
g5339
sg63
(lp5346
g56
(g57
g58
NtRp5347
(dp5348
g61
(dp5349
g69
I1
ssg70
g5343
sg63
(lp5350
S'http://www.web2py.com/book'
p5351
asbasbasbag56
(g72
g58
NtRp5352
(dp5353
g61
(dp5354
sg70
g5310
sg63
(lp5355
g56
(g77
g58
NtRp5356
(dp5357
g61
(dp5358
sg70
g5352
sg63
(lp5359
g56
(g57
g58
NtRp5360
(dp5361
g61
(dp5362
g69
I1
ssg70
g5356
sg63
(lp5363
(lp5364
(g4629
(S't\x07\x00\x00\x00Preface'
tRp5365
I00
S'http://www.web2py.com/book/default/chapter/00'
p5366
tp5367
a(g4629
(S't\x0c\x00\x00\x00Introduction'
tRp5368
I00
S'http://www.web2py.com/book/default/chapter/01'
p5369
tp5370
a(g4629
(S't\x06\x00\x00\x00Python'
tRp5371
I00
S'http://www.web2py.com/book/default/chapter/02'
p5372
tp5373
a(g4629
(S't\x08\x00\x00\x00Overview'
tRp5374
I00
S'http://www.web2py.com/book/default/chapter/03'
p5375
tp5376
a(g4629
(S's\x08\x00\x00\x00The Core'
tRp5377
I00
S'http://www.web2py.com/book/default/chapter/04'
p5378
tp5379
a(g4629
(S's\t\x00\x00\x00The Views'
tRp5380
I00
S'http://www.web2py.com/book/default/chapter/05'
p5381
tp5382
a(g4629
(S't\x08\x00\x00\x00Database'
tRp5383
I00
S'http://www.web2py.com/book/default/chapter/06'
p5384
tp5385
a(g4629
(S's\x14\x00\x00\x00Forms and Validators'
tRp5386
I00
S'http://www.web2py.com/book/default/chapter/07'
p5387
tp5388
a(g4629
(S's\x0e\x00\x00\x00Access Control'
tRp5389
I00
S'http://www.web2py.com/book/default/chapter/08'
p5390
tp5391
a(g4629
(S't\x08\x00\x00\x00Services'
tRp5392
I00
S'http://www.web2py.com/book/default/chapter/09'
p5393
tp5394
a(g4629
(S's\x0c\x00\x00\x00Ajax Recipes'
tRp5395
I00
S'http://www.web2py.com/book/default/chapter/10'
p5396
tp5397
a(g4629
(S's\x12\x00\x00\x00Deployment Recipes'
tRp5398
I00
S'http://www.web2py.com/book/default/chapter/11'
p5399
tp5400
a(g4629
(S's\r\x00\x00\x00Other Recipes'
tRp5401
I00
S'http://www.web2py.com/book/default/chapter/12'
p5402
tp5403
a(g4629
(S's\r\x00\x00\x00Buy this book'
tRp5404
I00
S'http://stores.lulu.com/web2py'
p5405
tp5406
aasbasbasbasbasbasbasbag56
(g72
g58
NtRp5407
(dp5408
g61
(dp5409
sg70
g5294
sg63
(lp5410
g56
(g77
g58
NtRp5411
(dp5412
g61
(dp5413
sg70
g5407
sg63
(lp5414
g56
(g57
g58
NtRp5415
(dp5416
g61
(dp5417
g69
I2
ssg70
g5411
sg63
(lp5418
g56
(g65
g58
NtRp5419
(dp5420
g61
(dp5421
g69
I1
ssg70
Nsg63
(lp5422
g56
(g72
g58
NtRp5423
(dp5424
g61
(dp5425
sg70
g5419
sg63
(lp5426
g56
(g77
g58
NtRp5427
(dp5428
g61
(dp5429
sg70
g5423
sg63
(lp5430
g56
(g57
g58
NtRp5431
(dp5432
g61
(dp5433
g69
I1
ssg70
g5427
sg63
(lp5434
g4629
(S't\t\x00\x00\x00Community'
tRp5435
asbasbasbag56
(g72
g58
NtRp5436
(dp5437
g61
(dp5438
sg70
g5419
sg63
(lp5439
g56
(g77
g58
NtRp5440
(dp5441
g61
(dp5442
sg70
g5436
sg63
(lp5443
g56
(g57
g58
NtRp5444
(dp5445
g61
(dp5446
g69
I1
ssg70
g5440
sg63
(lp5447
I00
asbasbasbag56
(g72
g58
NtRp5448
(dp5449
g61
(dp5450
sg70
g5419
sg63
(lp5451
g56
(g77
g58
NtRp5452
(dp5453
g61
(dp5454
sg70
g5448
sg63
(lp5455
g56
(g57
g58
NtRp5456
(dp5457
g61
(dp5458
g69
I1
ssg70
g5452
sg63
(lp5459
Nasbasbasbag56
(g72
g58
NtRp5460
(dp5461
g61
(dp5462
sg70
g5419
sg63
(lp5463
g56
(g77
g58
NtRp5464
(dp5465
g61
(dp5466
sg70
g5460
sg63
(lp5467
g56
(g57
g58
NtRp5468
(dp5469
g61
(dp5470
g69
I1
ssg70
g5464
sg63
(lp5471
(lp5472
(g4629
(S't\x06\x00\x00\x00Groups'
tRp5473
I00
S'http://www.web2py.com/examples/default/usergroups'
p5474
tp5475
a(g4629
(S't\x07\x00\x00\x00Twitter'
tRp5476
I00
S'http://twitter.com/web2py'
p5477
tp5478
a(g4629
(S's\t\x00\x00\x00Live chat'
tRp5479
I00
S'http://mibbit.com/?channel=%23web2py&server=irc.mibbit.net'
p5480
tp5481
a(g4629
(S's\n\x00\x00\x00User Voice'
tRp5482
I00
S'http://web2py.uservoice.com/'
p5483
tp5484
aasbasbasbasbasbasbasbag56
(g72
g58
NtRp5485
(dp5486
g61
(dp5487
sg70
g5294
sg63
(lp5488
g56
(g77
g58
NtRp5489
(dp5490
g61
(dp5491
sg70
g5485
sg63
(lp5492
g56
(g57
g58
NtRp5493
(dp5494
g61
(dp5495
g69
I2
ssg70
g5489
sg63
(lp5496
g56
(g65
g58
NtRp5497
(dp5498
g61
(dp5499
g69
I1
ssg70
Nsg63
(lp5500
g56
(g72
g58
NtRp5501
(dp5502
g61
(dp5503
sg70
g5497
sg63
(lp5504
g56
(g77
g58
NtRp5505
(dp5506
g61
(dp5507
sg70
g5501
sg63
(lp5508
g56
(g57
g58
NtRp5509
(dp5510
g61
(dp5511
g69
I1
ssg70
g5505
sg63
(lp5512
g4629
(S't\x06\x00\x00\x00Web2py'
tRp5513
asbasbasbag56
(g72
g58
NtRp5514
(dp5515
g61
(dp5516
sg70
g5497
sg63
(lp5517
g56
(g77
g58
NtRp5518
(dp5519
g61
(dp5520
sg70
g5514
sg63
(lp5521
g56
(g57
g58
NtRp5522
(dp5523
g61
(dp5524
g69
I1
ssg70
g5518
sg63
(lp5525
I00
asbasbasbag56
(g72
g58
NtRp5526
(dp5527
g61
(dp5528
sg70
g5497
sg63
(lp5529
g56
(g77
g58
NtRp5530
(dp5531
g61
(dp5532
sg70
g5526
sg63
(lp5533
g56
(g57
g58
NtRp5534
(dp5535
g61
(dp5536
g69
I1
ssg70
g5530
sg63
(lp5537
S'http://www.web2py.com'
p5538
asbasbasbag56
(g72
g58
NtRp5539
(dp5540
g61
(dp5541
sg70
g5497
sg63
(lp5542
g56
(g77
g58
NtRp5543
(dp5544
g61
(dp5545
sg70
g5539
sg63
(lp5546
g56
(g57
g58
NtRp5547
(dp5548
g61
(dp5549
g69
I1
ssg70
g5543
sg63
(lp5550
(lp5551
(g4629
(S't\x08\x00\x00\x00Download'
tRp5552
I00
S'http://www.web2py.com/examples/default/download'
p5553
tp5554
a(g4629
(S't\x07\x00\x00\x00Support'
tRp5555
I00
S'http://www.web2py.com/examples/default/support'
p5556
tp5557
a(g4629
(S's\x0e\x00\x00\x00Quick Examples'
tRp5558
I00
S'http://web2py.com/examples/default/examples'
p5559
tp5560
a(g4629
(S't\x03\x00\x00\x00FAQ'
tRp5561
I00
S'http://web2py.com/AlterEgo'
p5562
tp5563
a(g4629
(S's\x11\x00\x00\x00Free Applications'
tRp5564
I00
S'http://web2py.com/appliances'
p5565
tp5566
a(g4629
(S't\x07\x00\x00\x00Plugins'
tRp5567
I00
S'http://web2py.com/plugins'
p5568
tp5569
a(g4629
(S't\x07\x00\x00\x00Recipes'
tRp5570
I00
S'http://web2pyslices.com/'
p5571
tp5572
a(g4629
(S't\x04\x00\x00\x00Demo'
tRp5573
I00
S'http://web2py.com/demo_admin'
p5574
tp5575
a(g4629
(S't\x08\x00\x00\x00Semantic'
tRp5576
I00
S'http://web2py.com/semantic'
p5577
tp5578
a(g4629
(S't\x07\x00\x00\x00Layouts'
tRp5579
I00
S'http://web2py.com/layouts'
p5580
tp5581
a(g4629
(S't\x06\x00\x00\x00Videos'
tRp5582
I00
S'http://www.web2py.com/examples/default/videos/'
p5583
tp5584
aasbasbasbasbasbasbasbasbasbasbasbasbasbasbasbasbasbasbasbag56
(g72
g58
NtRp5585
(dp5586
g61
(dp5587
sg70
g4046
sg63
(lp5588
g56
(g77
g58
NtRp5589
(dp5590
g61
(dp5591
g81
g82
ssg70
g5585
sg63
(lp5592
S'meta'
p5593
asbag56
(g77
g58
NtRp5594
(dp5595
g61
(dp5596
g88
g89
ssg70
g5585
sg63
(lp5597
S':'
asbag56
(g77
g58
NtRp5598
(dp5599
g61
(dp5600
sg70
g5585
sg63
(lp5601
g56
(g57
g58
NtRp5602
(dp5603
g61
(dp5604
g69
I5
ssg70
g5598
sg63
(lp5605
g56
(g65
g58
NtRp5606
(dp5607
g61
(dp5608
g69
I4
ssg70
Nsg63
(lp5609
g56
(g72
g58
NtRp5610
(dp5611
g61
(dp5612
sg70
g5606
sg63
(lp5613
g56
(g77
g58
NtRp5614
(dp5615
g61
(dp5616
g81
g82
ssg70
g5610
sg63
(lp5617
S'author'
p5618
asbag56
(g77
g58
NtRp5619
(dp5620
g61
(dp5621
g88
g89
ssg70
g5610
sg63
(lp5622
S':'
asbag56
(g77
g58
NtRp5623
(dp5624
g61
(dp5625
sg70
g5610
sg63
(lp5626
g56
(g57
g58
NtRp5627
(dp5628
g61
(dp5629
g69
I4
ssg70
g5623
sg63
(lp5630
S'Your Name <you@example.com>'
p5631
asbasbasbag56
(g72
g58
NtRp5632
(dp5633
g61
(dp5634
sg70
g5606
sg63
(lp5635
g56
(g77
g58
NtRp5636
(dp5637
g61
(dp5638
g81
g82
ssg70
g5632
sg63
(lp5639
S'copyright'
p5640
asbag56
(g77
g58
NtRp5641
(dp5642
g61
(dp5643
g88
g89
ssg70
g5632
sg63
(lp5644
S':'
asbag56
(g77
g58
NtRp5645
(dp5646
g61
(dp5647
sg70
g5632
sg63
(lp5648
g56
(g57
g58
NtRp5649
(dp5650
g61
(dp5651
g69
I4
ssg70
g5645
sg63
(lp5652
S'Copyright 2011'
p5653
asbasbasbag56
(g72
g58
NtRp5654
(dp5655
g61
(dp5656
sg70
g5606
sg63
(lp5657
g56
(g77
g58
NtRp5658
(dp5659
g61
(dp5660
g81
g82
ssg70
g5654
sg63
(lp5661
S'description'
p5662
asbag56
(g77
g58
NtRp5663
(dp5664
g61
(dp5665
g88
g89
ssg70
g5654
sg63
(lp5666
S':'
asbag56
(g77
g58
NtRp5667
(dp5668
g61
(dp5669
sg70
g5654
sg63
(lp5670
g56
(g57
g58
NtRp5671
(dp5672
g61
(dp5673
g69
I4
ssg70
g5667
sg63
(lp5674
S'a cool new app'
p5675
asbasbasbag56
(g72
g58
NtRp5676
(dp5677
g61
(dp5678
sg70
g5606
sg63
(lp5679
g56
(g77
g58
NtRp5680
(dp5681
g61
(dp5682
g81
g82
ssg70
g5676
sg63
(lp5683
S'generator'
p5684
asbag56
(g77
g58
NtRp5685
(dp5686
g61
(dp5687
g88
g89
ssg70
g5676
sg63
(lp5688
S':'
asbag56
(g77
g58
NtRp5689
(dp5690
g61
(dp5691
sg70
g5676
sg63
(lp5692
g56
(g57
g58
NtRp5693
(dp5694
g61
(dp5695
g69
I4
ssg70
g5689
sg63
(lp5696
S'Web2py Web Framework'
p5697
asbasbasbag56
(g72
g58
NtRp5698
(dp5699
g61
(dp5700
sg70
g5606
sg63
(lp5701
g56
(g77
g58
NtRp5702
(dp5703
g61
(dp5704
g81
g82
ssg70
g5698
sg63
(lp5705
S'keywords'
p5706
asbag56
(g77
g58
NtRp5707
(dp5708
g61
(dp5709
g88
g89
ssg70
g5698
sg63
(lp5710
S':'
asbag56
(g77
g58
NtRp5711
(dp5712
g61
(dp5713
sg70
g5698
sg63
(lp5714
g56
(g57
g58
NtRp5715
(dp5716
g61
(dp5717
g69
I4
ssg70
g5711
sg63
(lp5718
S'web2py, python, framework'
p5719
asbasbasbasbasbasbasbag56
(g72
g58
NtRp5720
(dp5721
g61
(dp5722
sg70
g4046
sg63
(lp5723
g56
(g77
g58
NtRp5724
(dp5725
g61
(dp5726
g81
g82
ssg70
g5720
sg63
(lp5727
S'postprocessing'
p5728
asbag56
(g77
g58
NtRp5729
(dp5730
g61
(dp5731
g88
g89
ssg70
g5720
sg63
(lp5732
S':'
asbag56
(g77
g58
NtRp5733
(dp5734
g61
(dp5735
sg70
g5720
sg63
(lp5736
g56
(g57
g58
NtRp5737
(dp5738
g61
(dp5739
g69
I5
ssg70
g5733
sg63
(lp5740
g56
(g65
g58
NtRp5741
(dp5742
g61
(dp5743
g69
I4
ssg70
Nsg63
(lp5744
sbasbasbasbag56
(g72
g58
NtRp5745
(dp5746
g61
(dp5747
sg70
g4046
sg63
(lp5748
g56
(g77
g58
NtRp5749
(dp5750
g61
(dp5751
g81
g82
ssg70
g5745
sg63
(lp5752
S'session_file'
p5753
asbag56
(g77
g58
NtRp5754
(dp5755
g61
(dp5756
g88
g89
ssg70
g5745
sg63
(lp5757
S':'
asbag56
(g77
g58
NtRp5758
(dp5759
g61
(dp5760
sg70
g5745
sg63
(lp5761
g56
(g57
g58
NtRp5762
(dp5763
g61
(dp5764
g69
I5
ssg70
g5758
sg63
(lp5765
S"<open file '/home/ian/Dropbox/Web_Pages/web2py-linux/applications/places/sessions/127.0.0.1-ae378f77-b944-4a55-be06-eed4ce913913', mode 'rb+' at 0x36bea50>"
p5766
asbasbasbag56
(g72
g58
NtRp5767
(dp5768
g61
(dp5769
sg70
g4046
sg63
(lp5770
g56
(g77
g58
NtRp5771
(dp5772
g61
(dp5773
g81
g82
ssg70
g5767
sg63
(lp5774
S'session_filename'
p5775
asbag56
(g77
g58
NtRp5776
(dp5777
g61
(dp5778
g88
g89
ssg70
g5767
sg63
(lp5779
S':'
asbag56
(g77
g58
NtRp5780
(dp5781
g61
(dp5782
sg70
g5767
sg63
(lp5783
g56
(g57
g58
NtRp5784
(dp5785
g61
(dp5786
g69
I5
ssg70
g5780
sg63
(lp5787
S'/home/ian/Dropbox/Web_Pages/web2py-linux/applications/places/sessions/127.0.0.1-ae378f77-b944-4a55-be06-eed4ce913913'
p5788
asbasbasbag56
(g72
g58
NtRp5789
(dp5790
g61
(dp5791
sg70
g4046
sg63
(lp5792
g56
(g77
g58
NtRp5793
(dp5794
g61
(dp5795
g81
g82
ssg70
g5789
sg63
(lp5796
S'session_id'
p5797
asbag56
(g77
g58
NtRp5798
(dp5799
g61
(dp5800
g88
g89
ssg70
g5789
sg63
(lp5801
S':'
asbag56
(g77
g58
NtRp5802
(dp5803
g61
(dp5804
sg70
g5789
sg63
(lp5805
g56
(g57
g58
NtRp5806
(dp5807
g61
(dp5808
g69
I5
ssg70
g5802
sg63
(lp5809
S'127.0.0.1-ae378f77-b944-4a55-be06-eed4ce913913'
p5810
asbasbasbag56
(g72
g58
NtRp5811
(dp5812
g61
(dp5813
sg70
g4046
sg63
(lp5814
g56
(g77
g58
NtRp5815
(dp5816
g61
(dp5817
g81
g82
ssg70
g5811
sg63
(lp5818
S'session_id_name'
p5819
asbag56
(g77
g58
NtRp5820
(dp5821
g61
(dp5822
g88
g89
ssg70
g5811
sg63
(lp5823
S':'
asbag56
(g77
g58
NtRp5824
(dp5825
g61
(dp5826
sg70
g5811
sg63
(lp5827
g56
(g57
g58
NtRp5828
(dp5829
g61
(dp5830
g69
I5
ssg70
g5824
sg63
(lp5831
g4103
asbasbasbag56
(g72
g58
NtRp5832
(dp5833
g61
(dp5834
sg70
g4046
sg63
(lp5835
g56
(g77
g58
NtRp5836
(dp5837
g61
(dp5838
g81
g82
ssg70
g5832
sg63
(lp5839
S'session_locked'
p5840
asbag56
(g77
g58
NtRp5841
(dp5842
g61
(dp5843
g88
g89
ssg70
g5832
sg63
(lp5844
S':'
asbag56
(g77
g58
NtRp5845
(dp5846
g61
(dp5847
sg70
g5832
sg63
(lp5848
g56
(g57
g58
NtRp5849
(dp5850
g61
(dp5851
g69
I5
ssg70
g5845
sg63
(lp5852
g2048
asbasbasbag56
(g72
g58
NtRp5853
(dp5854
g61
(dp5855
sg70
g4046
sg63
(lp5856
g56
(g77
g58
NtRp5857
(dp5858
g61
(dp5859
g81
g82
ssg70
g5853
sg63
(lp5860
S'session_new'
p5861
asbag56
(g77
g58
NtRp5862
(dp5863
g61
(dp5864
g88
g89
ssg70
g5853
sg63
(lp5865
S':'
asbag56
(g77
g58
NtRp5866
(dp5867
g61
(dp5868
sg70
g5853
sg63
(lp5869
g56
(g57
g58
NtRp5870
(dp5871
g61
(dp5872
g69
I5
ssg70
g5866
sg63
(lp5873
g99
asbasbasbag56
(g72
g58
NtRp5874
(dp5875
g61
(dp5876
sg70
g4046
sg63
(lp5877
g56
(g77
g58
NtRp5878
(dp5879
g61
(dp5880
g81
g82
ssg70
g5874
sg63
(lp5881
S'status'
p5882
asbag56
(g77
g58
NtRp5883
(dp5884
g61
(dp5885
g88
g89
ssg70
g5874
sg63
(lp5886
S':'
asbag56
(g77
g58
NtRp5887
(dp5888
g61
(dp5889
sg70
g5874
sg63
(lp5890
g56
(g57
g58
NtRp5891
(dp5892
g61
(dp5893
g69
I5
ssg70
g5887
sg63
(lp5894
S'200'
p5895
asbasbasbag56
(g72
g58
NtRp5896
(dp5897
g61
(dp5898
sg70
g4046
sg63
(lp5899
g56
(g77
g58
NtRp5900
(dp5901
g61
(dp5902
g81
g82
ssg70
g5896
sg63
(lp5903
S'subtitle'
p5904
asbag56
(g77
g58
NtRp5905
(dp5906
g61
(dp5907
g88
g89
ssg70
g5896
sg63
(lp5908
S':'
asbag56
(g77
g58
NtRp5909
(dp5910
g61
(dp5911
sg70
g5896
sg63
(lp5912
g56
(g57
g58
NtRp5913
(dp5914
g61
(dp5915
g69
I5
ssg70
g5909
sg63
(lp5916
g4629
(S's\r\x00\x00\x00customize me!'
tRp5917
asbasbasbag56
(g72
g58
NtRp5918
(dp5919
g61
(dp5920
sg70
g4046
sg63
(lp5921
g56
(g77
g58
NtRp5922
(dp5923
g61
(dp5924
g81
g82
ssg70
g5918
sg63
(lp5925
S'title'
p5926
asbag56
(g77
g58
NtRp5927
(dp5928
g61
(dp5929
g88
g89
ssg70
g5918
sg63
(lp5930
S':'
asbag56
(g77
g58
NtRp5931
(dp5932
g61
(dp5933
sg70
g5918
sg63
(lp5934
g56
(g57
g58
NtRp5935
(dp5936
g61
(dp5937
g69
I5
ssg70
g5931
sg63
(lp5938
g121
asbasbasbag56
(g72
g58
NtRp5939
(dp5940
g61
(dp5941
sg70
g4046
sg63
(lp5942
g56
(g77
g58
NtRp5943
(dp5944
g61
(dp5945
g81
g82
ssg70
g5939
sg63
(lp5946
g2692
asbag56
(g77
g58
NtRp5947
(dp5948
g61
(dp5949
g88
g89
ssg70
g5939
sg63
(lp5950
S':'
asbag56
(g77
g58
NtRp5951
(dp5952
g61
(dp5953
sg70
g5939
sg63
(lp5954
g56
(g57
g58
NtRp5955
(dp5956
g61
(dp5957
g69
I5
ssg70
g5951
sg63
(lp5958
g2705
asbasbasbag56
(g72
g58
NtRp5959
(dp5960
g61
(dp5961
sg70
g4046
sg63
(lp5962
g56
(g77
g58
NtRp5963
(dp5964
g61
(dp5965
g81
g82
ssg70
g5959
sg63
(lp5966
S'view'
p5967
asbag56
(g77
g58
NtRp5968
(dp5969
g61
(dp5970
g88
g89
ssg70
g5959
sg63
(lp5971
S':'
asbag56
(g77
g58
NtRp5972
(dp5973
g61
(dp5974
sg70
g5959
sg63
(lp5975
g56
(g57
g58
NtRp5976
(dp5977
g61
(dp5978
g69
I5
ssg70
g5972
sg63
(lp5979
S'default/index.html'
p5980
asbasbasbasbasbsS'locals'
p5981
(dp5982
S'Service'
p5983
S"<class 'gluon.tools.Service'>"
p5984
sS'OBJECT'
p5985
S"<class 'gluon.html.OBJECT'>"
p5986
sS'SQLDB'
p5987
S"<class 'gluon.dal.DAL'>"
p5988
sg3428
S"<Storage {'last_query': 'db.tags.id>0', 'tags': ...reate]': 'a842512c-b0e5-49e5-820c-2809334c3c2e'}>"
p5989
sS'LINK'
p5990
S"<class 'gluon.html.LINK'>"
p5991
sS'BR'
p5992
S"<class 'gluon.html.BR'>"
p5993
sS'local_import'
p5994
S'<function <lambda>>'
p5995
sS'OPTGROUP'
p5996
S"<class 'gluon.html.OPTGROUP'>"
p5997
sS'PRE'
p5998
S"<class 'gluon.html.PRE'>"
p5999
sS'IS_INT_IN_RANGE'
p6000
S"<class 'gluon.validators.IS_INT_IN_RANGE'>"
p6001
sS'left_sidebar_enabled'
p6002
g99
sS'IS_LOWER'
p6003
S"<class 'gluon.validators.IS_LOWER'>"
p6004
sS'IS_STRONG'
p6005
S"<class 'gluon.validators.IS_STRONG'>"
p6006
sS'cache'
p6007
S'<gluon.cache.Cache object>'
p6008
sS'IS_IN_DB'
p6009
S"<class 'gluon.validators.IS_IN_DB'>"
p6010
sS'TAG'
p6011
S'<gluon.html.__TAG__ object>'
p6012
sS'SQLField'
p6013
S"<class 'gluon.dal.Field'>"
p6014
sS'mail'
p6015
S'<gluon.tools.Mail object>'
p6016
sS'BODY'
p6017
S"<class 'gluon.html.BODY'>"
p6018
sS'IS_DATE_IN_RANGE'
p6019
S"<class 'gluon.validators.IS_DATE_IN_RANGE'>"
p6020
sS'TH'
p6021
S"<class 'gluon.html.TH'>"
p6022
sS'URL'
p6023
S'<function URL>'
p6024
sS'__file__'
p6025
S"'/home/ian/Dropbox/Web_Pages/web2py-linux/applications/places/views/default/index.html'"
p6026
sS'db'
p6027
S"<DAL {'auth_event': <Table {'origin': <gluon.dal..., 'id': <gluon.dal.Field object at 0x363ee10>}>}>"
p6028
sS'auth'
p6029
S'<gluon.tools.Auth object>'
p6030
sS'P'
S"<class 'gluon.html.P'>"
p6031
sS'TFOOT'
p6032
S"<class 'gluon.html.TFOOT'>"
p6033
sS'XHTML'
p6034
S"<class 'gluon.html.XHTML'>"
p6035
sS'ON'
p6036
g2048
sS'OL'
p6037
S"<class 'gluon.html.OL'>"
p6038
sS'TEXTAREA'
p6039
S"<class 'gluon.html.TEXTAREA'>"
p6040
sS'MENU'
p6041
S"<class 'gluon.html.MENU'>"
p6042
sS'LOAD'
p6043
S'<gluon.compileapp.LoadFactory object>'
p6044
sS'CODE'
p6045
S"<class 'gluon.html.CODE'>"
p6046
sS'HTTP'
p6047
S"<class 'gluon.http.HTTP'>"
p6048
sS'HR'
p6049
S"<class 'gluon.html.HR'>"
p6050
sS'IS_DATETIME'
p6051
S"<class 'gluon.validators.IS_DATETIME'>"
p6052
sS'HEAD'
p6053
S"<class 'gluon.html.HEAD'>"
p6054
sS'LABEL'
p6055
S"<class 'gluon.html.LABEL'>"
p6056
sS'CLEANUP'
p6057
S"<class 'gluon.validators.CLEANUP'>"
p6058
sS'plugins'
p6059
S'<gluon.tools.PluginManager object>'
p6060
sS'SELECT'
p6061
S"<class 'gluon.html.SELECT'>"
p6062
sS'use_janrain'
p6063
S'<function use_janrain>'
p6064
sS'CENTER'
p6065
S"<class 'gluon.html.CENTER'>"
p6066
sS'prettydate'
p6067
S'<function prettydate>'
p6068
sS'Crud'
p6069
S"<class 'gluon.tools.Crud'>"
p6070
sS'Auth'
p6071
S"<class 'gluon.tools.Auth'>"
p6072
sS'__builtins__'
p6073
S"{'ArithmeticError': <type 'exceptions.ArithmeticError'>, 'AssertionError': <type 'exceptions.AssertionError'>, 'AttributeError': <type 'exceptions.AttributeError'>, 'BaseException': <type 'exceptions.BaseException'>, 'BufferError': <type 'exceptions.BufferError'>, 'BytesWarning': <type 'exceptions.BytesWarning'>, 'DeprecationWarning': <type 'exceptions.DeprecationWarning'>, 'EOFError': <type 'exceptions.EOFError'>, 'Ellipsis': Ellipsis, 'EnvironmentError': <type 'exceptions.EnvironmentError'>, ...}"
p6074
sS'HTML'
p6075
S"<class 'gluon.html.HTML'>"
p6076
sS'SQLFORM'
p6077
S"<class 'gluon.sqlhtml.SQLFORM'>"
p6078
sS'EM'
p6079
S"<class 'gluon.html.EM'>"
p6080
sS'redirect'
p6081
S'<function redirect>'
p6082
sS'FIELDSET'
p6083
S"<class 'gluon.html.FIELDSET'>"
p6084
sS'IS_EQUAL_TO'
p6085
S"<class 'gluon.validators.IS_EQUAL_TO'>"
p6086
sS'embed64'
p6087
S'<function embed64>'
p6088
sS'IS_LIST_OF'
p6089
S"<class 'gluon.validators.IS_LIST_OF'>"
p6090
sS'INPUT'
p6091
S"<class 'gluon.html.INPUT'>"
p6092
sS'EMBED'
p6093
S"<class 'gluon.html.EMBED'>"
p6094
sS'_'
S'<function _>'
p6095
sS'FORM'
p6096
S"<class 'gluon.html.FORM'>"
p6097
sS'width_content'
p6098
S"'100%'"
p6099
sS'H2'
p6100
S"<class 'gluon.html.H2'>"
p6101
sS'H3'
p6102
S"<class 'gluon.html.H3'>"
p6103
sS'BUTTON'
p6104
S"<class 'gluon.html.BUTTON'>"
p6105
sS'H1'
p6106
S"<class 'gluon.html.H1'>"
p6107
sS'H6'
p6108
S"<class 'gluon.html.H6'>"
p6109
sS'H4'
p6110
S"<class 'gluon.html.H4'>"
p6111
sS'H5'
p6112
S"<class 'gluon.html.H5'>"
p6113
sS'UL'
p6114
S"<class 'gluon.html.UL'>"
p6115
sS'IS_UPPER'
p6116
S"<class 'gluon.validators.IS_UPPER'>"
p6117
sS'xmlescape'
p6118
S'<function xmlescape>'
p6119
sS'IS_TIME'
p6120
S"<class 'gluon.validators.IS_TIME'>"
p6121
sS'OPTION'
p6122
S"<class 'gluon.html.OPTION'>"
p6123
sS'TITLE'
p6124
S"<class 'gluon.html.TITLE'>"
p6125
sS'CRYPT'
p6126
S"<class 'gluon.validators.CRYPT'>"
p6127
sS'IS_EMPTY_OR'
p6128
S"<class 'gluon.validators.IS_EMPTY_OR'>"
p6129
sS'MARKMIN'
p6130
S"<class 'gluon.html.MARKMIN'>"
p6131
sS'COL'
p6132
S"<class 'gluon.html.COL'>"
p6133
sS'service'
p6134
S'<gluon.tools.Service object>'
p6135
sS'SCRIPT'
p6136
S"<class 'gluon.html.SCRIPT'>"
p6137
sS'TABLE'
p6138
S"<class 'gluon.html.TABLE'>"
p6139
sS'IS_IPV4'
p6140
S"<class 'gluon.validators.IS_IPV4'>"
p6141
sS'IS_LENGTH'
p6142
S"<class 'gluon.validators.IS_LENGTH'>"
p6143
sS'XML'
p6144
S"<class 'gluon.html.XML'>"
p6145
sS'B'
S"<class 'gluon.html.B'>"
p6146
sS'IMG'
p6147
S"<class 'gluon.html.IMG'>"
p6148
sS'SQLTABLE'
p6149
S"<class 'gluon.sqlhtml.SQLTABLE'>"
p6150
sS'IS_MATCH'
p6151
S"<class 'gluon.validators.IS_MATCH'>"
p6152
sS'IS_ALPHANUMERIC'
p6153
S"<class 'gluon.validators.IS_ALPHANUMERIC'>"
p6154
sS'SPAN'
p6155
S"<class 'gluon.html.SPAN'>"
p6156
sS'IS_SLUG'
p6157
S"<class 'gluon.validators.IS_SLUG'>"
p6158
sS'BEAUTIFY'
p6159
S"<class 'gluon.html.BEAUTIFY'>"
p6160
sS'META'
p6161
S"<class 'gluon.html.META'>"
p6162
sS'IS_DATE'
p6163
S"<class 'gluon.validators.IS_DATE'>"
p6164
sS'IS_EMAIL'
p6165
S"<class 'gluon.validators.IS_EMAIL'>"
p6166
sS'links'
p6167
S'<gluon.dal.Rows object>'
p6168
sS'IS_NOT_EMPTY'
p6169
S"<class 'gluon.validators.IS_NOT_EMPTY'>"
p6170
sS'IS_FLOAT_IN_RANGE'
p6171
S"<class 'gluon.validators.IS_FLOAT_IN_RANGE'>"
p6172
sS'TBODY'
p6173
S"<class 'gluon.html.TBODY'>"
p6174
sS'CAT'
p6175
S"<class 'gluon.html.CAT'>"
p6176
sS'Field'
p6177
S"<class 'gluon.dal.Field'>"
p6178
sS'tag'
p6179
S"{'id': 1, 'tag': 'kitchen'}"
p6180
sS'DIV'
p6181
S"<class 'gluon.html.DIV'>"
p6182
sS'LEGEND'
p6183
S"<class 'gluon.html.LEGEND'>"
p6184
sS'COLGROUP'
p6185
S"<class 'gluon.html.COLGROUP'>"
p6186
sS'DAL'
p6187
S"<class 'gluon.dal.DAL'>"
p6188
sS'TT'
p6189
S"<class 'gluon.html.TT'>"
p6190
sS'TR'
p6191
S"<class 'gluon.html.TR'>"
p6192
sS'LI'
p6193
S"<class 'gluon.html.LI'>"
p6194
sS'right_sidebar_enabled'
p6195
g99
sS'IFRAME'
p6196
S"<class 'gluon.html.IFRAME'>"
p6197
sS'TD'
p6198
S"<class 'gluon.html.TD'>"
p6199
sS'PluginManager'
p6200
S"<class 'gluon.tools.PluginManager'>"
p6201
sS'IS_URL'
p6202
S"<class 'gluon.validators.IS_URL'>"
p6203
sS'A'
S"<class 'gluon.html.A'>"
p6204
sS'STYLE'
p6205
S"<class 'gluon.html.STYLE'>"
p6206
sS'IS_DATETIME_IN_RANGE'
p6207
S"<class 'gluon.validators.IS_DATETIME_IN_RANGE'>"
p6208
sS'IS_IMAGE'
p6209
S"<class 'gluon.validators.IS_IMAGE'>"
p6210
sS'I'
S"<class 'gluon.html.I'>"
p6211
sS'crud'
p6212
S'<gluon.tools.Crud object>'
p6213
sS'right_sidebar_style'
p6214
S'\'style="display: none;"\''
p6215
sS'IS_NOT_IN_DB'
p6216
S"<class 'gluon.validators.IS_NOT_IN_DB'>"
p6217
sg4041
S"<Storage {'body': <cStringIO.StringO object at 0...da> at 0x36355f0>, 'view': 'default/index.html'}>"
p6218
sS'THEAD'
p6219
S"<class 'gluon.html.THEAD'>"
p6220
sS'IS_NULL_OR'
p6221
S"<class 'gluon.validators.IS_EMPTY_OR'>"
p6222
sS'left_sidebar_style'
p6223
S'\'style="display: none;"\''
p6224
sg55
S"<Storage {'body': <cStringIO.StringO object at 0..._vars': <Storage {}>, 'post_vars': <Storage {}>}>"
p6225
sS'IS_EXPR'
p6226
S"<class 'gluon.validators.IS_EXPR'>"
p6227
sS'T'
S'<gluon.languages.translator object>'
p6228
sS'IS_IN_SET'
p6229
S"<class 'gluon.validators.IS_IN_SET'>"
p6230
sS'IS_UPLOAD_FILENAME'
p6231
S"<class 'gluon.validators.IS_UPLOAD_FILENAME'>"
p6232
sS'style_content'
p6233
S'\'style="width: 100%"\''
p6234
sS'IS_DECIMAL_IN_RANGE'
p6235
S"<class 'gluon.validators.IS_DECIMAL_IN_RANGE'>"
p6236
sssS'traceback'
p6237
S'Traceback (most recent call last):\n  File "/home/ian/Dropbox/Web_Pages/web2py-linux/gluon/restricted.py", line 194, in restricted\n    exec ccode in environment\n  File "/home/ian/Dropbox/Web_Pages/web2py-linux/applications/places/views/default/index.html", line 86, in <module>\nAttributeError: \'dict\' object has no attribute \'tag\'\n'
p6238
s.