(dp1
S'output'
p2
S''
sS'layer'
p3
S'/home/ian/Dropbox/Web_Pages/web2py-linux/applications/places/views/default/index.html'
p4
sS'code'
p5
S'left_sidebar_enabled=right_sidebar_enabled=False\nresponse.write(\'\\n\', escape=False)\nresponse.write(\'<!DOCTYPE html>\\n<html lang="\', escape=False)\nresponse.write(T.accepted_language or \'en\')\nresponse.write(\'" class="no-js"><!-- no-js need it for modernzr -->\\n  <head>\\n    \\n    <meta charset="utf-8" />        \\n    <!-- www.phpied.com/conditional-comments-block-downloads/ -->\\n    <!--[if IE]>\\n      <!-- Always force latest IE rendering engine \\n       (even in intranet) & Chrome Frame \\n       Remove this if you use the .htaccess -->\\n      <meta http-equiv="X-UA-Compatible" content="IE=edge,chrome=1">\\n    <![endif]-->    \\n\\n    <title>\', escape=False)\nresponse.write(response.title or request.application)\nresponse.write(\'</title>\\n    \\n    <!-- http://dev.w3.org/html5/markup/meta.name.html -->\\n    <meta name="application-name" content="\', escape=False)\nresponse.write(request.application)\nresponse.write(\'" /> \\n    \\n    <!-- Speaking of Google, don\\\'t forget to set your site up: \\n     http://google.com/webmasters -->\\n    <meta name="google-site-verification" content="" />\\n    \\n    <!--  Mobile Viewport Fix\\n      j.mp/mobileviewport & davidbcalhoun.com/2010/viewport-metatag \\n      device-width: Occupy full width of the screen in its current orientation\\n      initial-scale = 1.0 retains dimensions instead of zooming out if page height > device height\\n      maximum-scale = 1.0 retains dimensions instead of zooming in if page width < device width\\n      -->\\n    <meta name="viewport" content="width=device-width, initial-scale=1.0, maximum-scale=1.0">\\n    \\n    <!-- Place favicon.ico and apple-touch-icon.png in the root of your domain and delete these references -->\\n    <link rel="shortcut icon" href="\', escape=False)\nresponse.write(URL(\'static\',\'favicon.ico\'))\nresponse.write(\'" type="image/x-icon">\\n    <link rel="apple-touch-icon" href="\', escape=False)\nresponse.write(URL(\'static\',\'favicon.png\'))\nresponse.write(\'">\\n\\n    <!-- For the less-enabled mobile browsers like Opera Mini -->\\n    <link rel="stylesheet" media="handheld" href="\', escape=False)\nresponse.write(URL(\'static\',\'css/handheld.css\'))\nresponse.write(\'">\\n    \\n    <!-- All JavaScript at the bottom, except for Modernizr which enables HTML5 elements & feature detects -->\\n    <script src="\', escape=False)\nresponse.write(URL(\'static\',\'js/modernizr-1.7.min.js\'))\nresponse.write(\'"></script>\\n    \\n    \', escape=False)\n#------  require CSS and JS files for this page (read info in base.css) ------\nresponse.write(\'\\n    \', escape=False)\nresponse.files.append(URL(\'static\',\'css/base.css\'))\nresponse.write(\'\\n    \', escape=False)\nresponse.files.append(URL(\'static\',\'css/superfish.css\'))\nresponse.write(\'\\n    \', escape=False)\nresponse.files.append(URL(\'static\',\'js/superfish.js\'))\nresponse.write(\'\\n    \', escape=False)\n#------ include web2py specific js code (jquery, calendar, form stuff) ------\nresponse.write(\'\\n    \', escape=False)\nresponse.files.insert(0,URL(\'static\',\'js/jquery.js\'))\nresponse.files.insert(1,URL(\'static\',\'css/anytime.css\'))\nresponse.files.insert(2,URL(\'static\',\'js/anytime.js\'))\nresponse.include_meta()\nresponse.include_files()\nresponse.write(\'\\n<script type="text/javascript"><!--\\n    // These variables are used by the web2py_ajax_init function in web2py_ajax.js (which is loaded below).\\n    var w2p_ajax_confirm_message = "\', escape=False)\nresponse.write(T(\'Are you sure you want to delete this object?\'))\nresponse.write(\'";\\n    var w2p_ajax_date_format = "\', escape=False)\nresponse.write(T(\'%Y-%m-%d\'))\nresponse.write(\'";\\n    var w2p_ajax_datetime_format = "\', escape=False)\nresponse.write(T(\'%Y-%m-%d %H:%M:%S\'))\nresponse.write(\'";\\n    //--></script>\\n    <script src="\', escape=False)\nresponse.write(URL(\'static\',\'js/web2py_ajax.js\'))\nresponse.write(\'" type="text/javascript"></script>\\n\', escape=False)\nresponse.write(\'\\n\\n    \', escape=False)\n#using sidebars need to know what sidebar you want to use\n#prior of using it, because of static width size of content, you can use\n#left_sidebar, right_sidebar, both or none (False left and right)\nleft_sidebar_enabled = globals().get(\'left_sidebar_enabled\',False)\nright_sidebar_enabled = globals().get(\'right_sidebar_enabled\',False)\nif left_sidebar_enabled and right_sidebar_enabled: width_content=\'63%\'\nelif left_sidebar_enabled != right_sidebar_enabled: width_content=\'740px\'\nelse: width_content=\'100%\'\nif left_sidebar_enabled: left_sidebar_style = \'style="display: block;"\'\nelse: left_sidebar_style = \'style="display: none;"\'\nif right_sidebar_enabled: right_sidebar_style = \'style="display: block;"\'\nelse: right_sidebar_style = \'style="display: none;"\'\nstyle_content = \'style="width: %s"\' % width_content\nresponse.write(\'\\n    \\n    <!-- uncomment here to load jquery-ui -->\\n    \\n    <link rel="stylesheet" href="http://ajax.googleapis.com/ajax/libs/jqueryui/1.8.16/themes/base/jquery-ui.css" type="text/css" media="all" />\\n    <script src="http://ajax.googleapis.com/ajax/libs/jqueryui/1.8.16/jquery-ui.min.js" type="text/javascript"></script>\\n    \\n   <!-- uncomment to load jquery-ui -->\\n    \\n    \\n  </head>\\n  \\n  <!-- paulirish.com/2008/conditional-stylesheets-vs-css-hacks-answer-neither/ -->  \\n  <!--[if lt IE 7 ]> <body class="ie6"> <![endif]-->\\n  <!--[if IE 7 ]>    <body class="ie7"> <![endif]-->\\n  <!--[if IE 8 ]>    <body class="ie8"> <![endif]-->\\n  <!--[if IE 9 ]>    <body class="ie9"> <![endif]-->\\n  <!--[if (gt IE 9)|!(IE)]><!--> <body> <!--<![endif]-->\\n    \\n    <div class="flash">\', escape=False)\nresponse.write(response.flash or \'\')\nresponse.write(\'</div> <!-- notification div -->\\n\\n        \\n\\n    <div id="container">                        \\n      \\n      <div id="wrapper">        \\n      \', escape=False)\ntry:\n    response.write(auth.navbar(action=URL(\'default\',\'user\')))\nexcept:pass\nresponse.write(\'\\n    \\n    <div id="header"> <!-- header and login nav -->\\n      \', escape=False)\nresponse.write(\' <!-- this is default header -->\\n      \\n      <h1>\\n        <span id="appname">\', escape=False)\nresponse.write(request.application.capitalize())\nresponse.write(\'</span>App\\n      </h1>\\n      <div style="clear: both;"></div><!-- Clear the divs -->\\n      \', escape=False)\nresponse.write(\'\\n    </div><!-- header  -->\\n    \\n    <div id="statusbar"><!-- statusbar is menu zone -->\\n      \', escape=False)\nresponse.write(\' <!-- this is default statusbar -->\\n      \', escape=False)\n#------ superfish menu ------\nresponse.write(\'\\n      \', escape=False)\nresponse.write(MENU(response.menu,_class=\'sf-menu\'))\nresponse.write(\'\\n      <script type="text/javascript">\\n        jQuery(document).ready(function(){\\n        jQuery(\\\'ul.sf-menu\\\').superfish();});\\n      </script>\\n\\n      <!-- AddToAny BEGIN -->\\n      <div style="padding: 7px; float:right;" class="a2a_kit a2a_default_style"><a class="a2a_dd" href="http://www.addtoany.com/share_save">Share</a></div><script type="text/javascript" src="http://static.addtoany.com/menu/page.js"></script>\\n      <!-- AddToAny END -->\\n\\n      <div style="clear: both;"></div><!-- Clear the divs -->   \\n      \', escape=False)\nresponse.write(\'               \\n    </div><!-- statusbar -->\\n    \\n    <div id="page"> <!-- Here my central body -->     \\n\\n      \', escape=False)\nif left_sidebar_enabled:\n    response.write(\'\\n          <div id="left_sidebar" \', escape=False)\n    response.write(XML(left_sidebar_style))\n    response.write(\' >\\n            <div style="padding: 4px;">\\n          \', escape=False)\n    response.write(\'New Left Sidebar Content\', escape=False)\n    response.write(\'       \\n            </div>\\n          </div><!-- left_sidebar -->\\n      \', escape=False)\n    pass\nresponse.write(\'\\n\\n      <!-- content -->\\n      <div id="content" \', escape=False)\nresponse.write(XML(style_content))\nresponse.write(\' >\\n        \', escape=False)\nresponse.write(\'\\n\\n<ul>\\n\', escape=False)\nfor tag in session.tags:\n    response.write(\'\\n\\n\', escape=False)\n    if tag.tag == session.current:\n        response.write(\'\\n\', escape=False)\n        response.write(LI(A(tag, _href(\'index.load\', args=[tag.tag]), _class=\'current\', cid="links")))\n        response.write(\'\\n\\n\', escape=False)\n    else:\n        response.write(\'\\n\', escape=False)\n        response.write(LI(A(tag, _href(\'index.load\', args=[tag.tag]), cid="links")))\n        response.write(\'\\n\\n\', escape=False)\n        pass\n    response.write(\'\\n\\n</ul>\\n\\n<section id="links">\\n\\n\', escape=False)\n    response.write(LOAD(\'index.load\',ajax=True))\n    response.write(\'\\n\\n</section>\\n\\n\', escape=False)\nelse:\n    response.write(\'\\n\', escape=False)\n    response.write(BEAUTIFY(response._vars))\n    response.write(\'\\n\', escape=False)\n    pass\nresponse.write(\'\\n\\n\', escape=False)\nresponse.write(\'\\n\', escape=False)\nresponse.write(\'\\n\', escape=False)\nresponse.write(\' \\n      </div>\\n      <!-- content -->\\n\\n      \', escape=False)\nif right_sidebar_enabled:\n    response.write(\'\\n          <div id="right_sidebar" \', escape=False)\n    response.write(XML(right_sidebar_style))\n    response.write(\' >\\n            <div style="padding: 4px;">\\n              \', escape=False)\n    response.write(\'New Right Sidebar Content\', escape=False)\n    response.write(\'\\n            </div>\\n      </div><!-- right_sidebar -->\\n          \', escape=False)\n    pass\nresponse.write(\'\\n\\n\\n      <div style="clear: both;"></div><!-- Clear the divs -->\\n      \\n    </div><!-- page -->                         \\n    \\n    <div id="footer">\\n      \', escape=False)\nresponse.write(\' <!-- this is default footer -->\\n      <a href="http://www.web2py.com/" style="float: left; padding-right: 6px;">\\n        <img src="\', escape=False)\nresponse.write(URL(\'static\',\'images/poweredby.png\'))\nresponse.write(\'"/>\\n      </a>\\n      \', escape=False)\nresponse.write(T(\'Copyright\'))\nresponse.write(\' &#169; 2011               \\n      <div style="clear: both;"></div><!-- Clear the divs -->\\n      \', escape=False)\nresponse.write(\'\\n\\n    </div><!-- footer -->           \\n      </div><!-- wrapper -->\\n    </div><!-- container -->        \\n    \\n    <!--[if lt IE 7 ]>\\n    <script src="\', escape=False)\nresponse.write(URL(\'static\',\'js/dd_belatedpng.js\'))\nresponse.write(\'"></script>\\n    <script> DD_belatedPNG.fix(\\\'img, .png_bg\\\'); //fix any <img> or .png_bg background-images </script>\\n    <![endif]-->\\n    \', escape=False)\nif response.google_analytics_id:\n    response.write("<script>/* http://mathiasbynens.be/notes/async-analytics-snippet */ var _gaq=[[\'_setAccount\',\'", escape=False)\n    response.write(response.google_analyitics_id)\n    response.write("\'],[\'_trackPageview\']];(function(d,t){var g=d.createElement(t),s=d.getElementsByTagName(t)[0];g.src=\'//www.google-analytics.com/ga.js\';s.parentNode.insertBefore(g,s)}(document,\'script\')) </script>", escape=False)\n    pass\nresponse.write(\'\\n  </body>\\n</html>\\n\', escape=False)'
p6
sS'snapshot'
p7
(dp8
S'exception'
p9
(dp10
S'__hash__'
p11
S"<method-wrapper '__hash__' of exceptions.NameError object>"
p12
sS'__setattr__'
p13
S"<method-wrapper '__setattr__' of exceptions.NameError object>"
p14
sS'__reduce_ex__'
p15
S'<built-in method __reduce_ex__ of exceptions.NameError object>'
p16
sS'__getslice__'
p17
S"<method-wrapper '__getslice__' of exceptions.NameError object>"
p18
sS'__getitem__'
p19
S"<method-wrapper '__getitem__' of exceptions.NameError object>"
p20
sS'__setstate__'
p21
S'<built-in method __setstate__ of exceptions.NameError object>'
p22
sS'args'
p23
S'("name \'_href\' is not defined",)'
p24
sS'__reduce__'
p25
S'<built-in method __reduce__ of exceptions.NameError object>'
p26
sS'__str__'
p27
S"<method-wrapper '__str__' of exceptions.NameError object>"
p28
sS'__format__'
p29
S'<built-in method __format__ of exceptions.NameError object>'
p30
sS'__getattribute__'
p31
S"<method-wrapper '__getattribute__' of exceptions.NameError object>"
p32
sS'__class__'
p33
S"<type 'exceptions.NameError'>"
p34
sS'__unicode__'
p35
S'<built-in method __unicode__ of exceptions.NameError object>'
p36
sS'__delattr__'
p37
S"<method-wrapper '__delattr__' of exceptions.NameError object>"
p38
sS'__subclasshook__'
p39
S'<built-in method __subclasshook__ of type object>'
p40
sS'__repr__'
p41
S"<method-wrapper '__repr__' of exceptions.NameError object>"
p42
sS'__dict__'
p43
S'{}'
p44
sS'__sizeof__'
p45
S'<built-in method __sizeof__ of exceptions.NameError object>'
p46
sS'__doc__'
p47
S"'Name not found globally.'"
p48
sS'__init__'
p49
S"<method-wrapper '__init__' of exceptions.NameError object>"
p50
sS'__new__'
p51
S'<built-in method __new__ of type object>'
p52
ssS'evalue'
p53
S"name '_href' is not defined"
p54
sS'request'
p55
ccopy_reg
_reconstructor
p56
(cgluon.html
BEAUTIFY
p57
c__builtin__
object
p58
NtRp59
(dp60
S'attributes'
p61
(dp62
sS'components'
p63
(lp64
g56
(cgluon.html
TABLE
p65
g58
NtRp66
(dp67
g61
(dp68
S'level'
p69
I5
ssS'parent'
p70
Nsg63
(lp71
g56
(cgluon.html
TR
p72
g58
NtRp73
(dp74
g61
(dp75
sg70
g66
sg63
(lp76
g56
(cgluon.html
TD
p77
g58
NtRp78
(dp79
g61
(dp80
S'_style'
p81
S'font-weight:bold;'
p82
ssg70
g73
sg63
(lp83
S'ajax'
p84
asbag56
(g77
g58
NtRp85
(dp86
g61
(dp87
S'_valign'
p88
S'top'
p89
ssg70
g73
sg63
(lp90
S':'
asbag56
(g77
g58
NtRp91
(dp92
g61
(dp93
sg70
g73
sg63
(lp94
g56
(g57
g58
NtRp95
(dp96
g61
(dp97
g69
I5
ssg70
g91
sg63
(lp98
S'False'
p99
asbasbasbag56
(g72
g58
NtRp100
(dp101
g61
(dp102
sg70
g66
sg63
(lp103
g56
(g77
g58
NtRp104
(dp105
g61
(dp106
g81
g82
ssg70
g100
sg63
(lp107
S'application'
p108
asbag56
(g77
g58
NtRp109
(dp110
g61
(dp111
g88
g89
ssg70
g100
sg63
(lp112
S':'
asbag56
(g77
g58
NtRp113
(dp114
g61
(dp115
sg70
g100
sg63
(lp116
g56
(g57
g58
NtRp117
(dp118
g61
(dp119
g69
I5
ssg70
g113
sg63
(lp120
S'places'
p121
asbasbasbag56
(g72
g58
NtRp122
(dp123
g61
(dp124
sg70
g66
sg63
(lp125
g56
(g77
g58
NtRp126
(dp127
g61
(dp128
g81
g82
ssg70
g122
sg63
(lp129
g23
asbag56
(g77
g58
NtRp130
(dp131
g61
(dp132
g88
g89
ssg70
g122
sg63
(lp133
S':'
asbag56
(g77
g58
NtRp134
(dp135
g61
(dp136
sg70
g122
sg63
(lp137
g56
(g57
g58
NtRp138
(dp139
g61
(dp140
g69
I5
ssg70
g134
sg63
(lp141
g56
(g65
g58
NtRp142
(dp143
g61
(dp144
g69
I4
ssg70
Nsg63
(lp145
sbasbasbasbag56
(g72
g58
NtRp146
(dp147
g61
(dp148
sg70
g66
sg63
(lp149
g56
(g77
g58
NtRp150
(dp151
g61
(dp152
g81
g82
ssg70
g146
sg63
(lp153
S'body'
p154
asbag56
(g77
g58
NtRp155
(dp156
g61
(dp157
g88
g89
ssg70
g146
sg63
(lp158
S':'
asbag56
(g77
g58
NtRp159
(dp160
g61
(dp161
sg70
g146
sg63
(lp162
g56
(g57
g58
NtRp163
(dp164
g61
(dp165
g69
I5
ssg70
g159
sg63
(lp166
S'<cStringIO.StringO object at 0x3f885a8>'
p167
asbasbasbag56
(g72
g58
NtRp168
(dp169
g61
(dp170
sg70
g66
sg63
(lp171
g56
(g77
g58
NtRp172
(dp173
g61
(dp174
g81
g82
ssg70
g168
sg63
(lp175
S'client'
p176
asbag56
(g77
g58
NtRp177
(dp178
g61
(dp179
g88
g89
ssg70
g168
sg63
(lp180
S':'
asbag56
(g77
g58
NtRp181
(dp182
g61
(dp183
sg70
g168
sg63
(lp184
g56
(g57
g58
NtRp185
(dp186
g61
(dp187
g69
I5
ssg70
g181
sg63
(lp188
S'127.0.0.1'
p189
asbasbasbag56
(g72
g58
NtRp190
(dp191
g61
(dp192
sg70
g66
sg63
(lp193
g56
(g77
g58
NtRp194
(dp195
g61
(dp196
g81
g82
ssg70
g190
sg63
(lp197
S'controller'
p198
asbag56
(g77
g58
NtRp199
(dp200
g61
(dp201
g88
g89
ssg70
g190
sg63
(lp202
S':'
asbag56
(g77
g58
NtRp203
(dp204
g61
(dp205
sg70
g190
sg63
(lp206
g56
(g57
g58
NtRp207
(dp208
g61
(dp209
g69
I5
ssg70
g203
sg63
(lp210
S'default'
p211
asbasbasbag56
(g72
g58
NtRp212
(dp213
g61
(dp214
sg70
g66
sg63
(lp215
g56
(g77
g58
NtRp216
(dp217
g61
(dp218
g81
g82
ssg70
g212
sg63
(lp219
S'cookies'
p220
asbag56
(g77
g58
NtRp221
(dp222
g61
(dp223
g88
g89
ssg70
g212
sg63
(lp224
S':'
asbag56
(g77
g58
NtRp225
(dp226
g61
(dp227
sg70
g212
sg63
(lp228
g56
(g57
g58
NtRp229
(dp230
g61
(dp231
g69
I5
ssg70
g225
sg63
(lp232
g56
(g65
g58
NtRp233
(dp234
g61
(dp235
g69
I4
ssg70
Nsg63
(lp236
g56
(g72
g58
NtRp237
(dp238
g61
(dp239
sg70
g233
sg63
(lp240
g56
(g77
g58
NtRp241
(dp242
g61
(dp243
g81
g82
ssg70
g237
sg63
(lp244
S'session_id_admin'
p245
asbag56
(g77
g58
NtRp246
(dp247
g61
(dp248
g88
g89
ssg70
g237
sg63
(lp249
S':'
asbag56
(g77
g58
NtRp250
(dp251
g61
(dp252
sg70
g237
sg63
(lp253
g56
(g57
g58
NtRp254
(dp255
g61
(dp256
g69
I4
ssg70
g250
sg63
(lp257
g56
(g65
g58
NtRp258
(dp259
g61
(dp260
g69
I3
ssg70
Nsg63
(lp261
g56
(g72
g58
NtRp262
(dp263
g61
(dp264
sg70
g258
sg63
(lp265
g56
(g77
g58
NtRp266
(dp267
g61
(dp268
g81
g82
ssg70
g262
sg63
(lp269
S'comment'
p270
asbag56
(g77
g58
NtRp271
(dp272
g61
(dp273
g88
g89
ssg70
g262
sg63
(lp274
S':'
asbag56
(g77
g58
NtRp275
(dp276
g61
(dp277
sg70
g262
sg63
(lp278
g56
(g57
g58
NtRp279
(dp280
g61
(dp281
g69
I3
ssg70
g275
sg63
(lp282
S''
asbasbasbag56
(g72
g58
NtRp283
(dp284
g61
(dp285
sg70
g258
sg63
(lp286
g56
(g77
g58
NtRp287
(dp288
g61
(dp289
g81
g82
ssg70
g283
sg63
(lp290
S'domain'
p291
asbag56
(g77
g58
NtRp292
(dp293
g61
(dp294
g88
g89
ssg70
g283
sg63
(lp295
S':'
asbag56
(g77
g58
NtRp296
(dp297
g61
(dp298
sg70
g283
sg63
(lp299
g56
(g57
g58
NtRp300
(dp301
g61
(dp302
g69
I3
ssg70
g296
sg63
(lp303
S''
asbasbasbag56
(g72
g58
NtRp304
(dp305
g61
(dp306
sg70
g258
sg63
(lp307
g56
(g77
g58
NtRp308
(dp309
g61
(dp310
g81
g82
ssg70
g304
sg63
(lp311
S'expires'
p312
asbag56
(g77
g58
NtRp313
(dp314
g61
(dp315
g88
g89
ssg70
g304
sg63
(lp316
S':'
asbag56
(g77
g58
NtRp317
(dp318
g61
(dp319
sg70
g304
sg63
(lp320
g56
(g57
g58
NtRp321
(dp322
g61
(dp323
g69
I3
ssg70
g317
sg63
(lp324
S''
asbasbasbag56
(g72
g58
NtRp325
(dp326
g61
(dp327
sg70
g258
sg63
(lp328
g56
(g77
g58
NtRp329
(dp330
g61
(dp331
g81
g82
ssg70
g325
sg63
(lp332
S'httponly'
p333
asbag56
(g77
g58
NtRp334
(dp335
g61
(dp336
g88
g89
ssg70
g325
sg63
(lp337
S':'
asbag56
(g77
g58
NtRp338
(dp339
g61
(dp340
sg70
g325
sg63
(lp341
g56
(g57
g58
NtRp342
(dp343
g61
(dp344
g69
I3
ssg70
g338
sg63
(lp345
S''
asbasbasbag56
(g72
g58
NtRp346
(dp347
g61
(dp348
sg70
g258
sg63
(lp349
g56
(g77
g58
NtRp350
(dp351
g61
(dp352
g81
g82
ssg70
g346
sg63
(lp353
S'max-age'
p354
asbag56
(g77
g58
NtRp355
(dp356
g61
(dp357
g88
g89
ssg70
g346
sg63
(lp358
S':'
asbag56
(g77
g58
NtRp359
(dp360
g61
(dp361
sg70
g346
sg63
(lp362
g56
(g57
g58
NtRp363
(dp364
g61
(dp365
g69
I3
ssg70
g359
sg63
(lp366
S''
asbasbasbag56
(g72
g58
NtRp367
(dp368
g61
(dp369
sg70
g258
sg63
(lp370
g56
(g77
g58
NtRp371
(dp372
g61
(dp373
g81
g82
ssg70
g367
sg63
(lp374
S'path'
p375
asbag56
(g77
g58
NtRp376
(dp377
g61
(dp378
g88
g89
ssg70
g367
sg63
(lp379
S':'
asbag56
(g77
g58
NtRp380
(dp381
g61
(dp382
sg70
g367
sg63
(lp383
g56
(g57
g58
NtRp384
(dp385
g61
(dp386
g69
I3
ssg70
g380
sg63
(lp387
S''
asbasbasbag56
(g72
g58
NtRp388
(dp389
g61
(dp390
sg70
g258
sg63
(lp391
g56
(g77
g58
NtRp392
(dp393
g61
(dp394
g81
g82
ssg70
g388
sg63
(lp395
S'secure'
p396
asbag56
(g77
g58
NtRp397
(dp398
g61
(dp399
g88
g89
ssg70
g388
sg63
(lp400
S':'
asbag56
(g77
g58
NtRp401
(dp402
g61
(dp403
sg70
g388
sg63
(lp404
g56
(g57
g58
NtRp405
(dp406
g61
(dp407
g69
I3
ssg70
g401
sg63
(lp408
S''
asbasbasbag56
(g72
g58
NtRp409
(dp410
g61
(dp411
sg70
g258
sg63
(lp412
g56
(g77
g58
NtRp413
(dp414
g61
(dp415
g81
g82
ssg70
g409
sg63
(lp416
S'version'
p417
asbag56
(g77
g58
NtRp418
(dp419
g61
(dp420
g88
g89
ssg70
g409
sg63
(lp421
S':'
asbag56
(g77
g58
NtRp422
(dp423
g61
(dp424
sg70
g409
sg63
(lp425
g56
(g57
g58
NtRp426
(dp427
g61
(dp428
g69
I3
ssg70
g422
sg63
(lp429
S''
asbasbasbasbasbasbasbag56
(g72
g58
NtRp430
(dp431
g61
(dp432
sg70
g233
sg63
(lp433
g56
(g77
g58
NtRp434
(dp435
g61
(dp436
g81
g82
ssg70
g430
sg63
(lp437
S'session_id_blog'
p438
asbag56
(g77
g58
NtRp439
(dp440
g61
(dp441
g88
g89
ssg70
g430
sg63
(lp442
S':'
asbag56
(g77
g58
NtRp443
(dp444
g61
(dp445
sg70
g430
sg63
(lp446
g56
(g57
g58
NtRp447
(dp448
g61
(dp449
g69
I4
ssg70
g443
sg63
(lp450
g56
(g65
g58
NtRp451
(dp452
g61
(dp453
g69
I3
ssg70
Nsg63
(lp454
g56
(g72
g58
NtRp455
(dp456
g61
(dp457
sg70
g451
sg63
(lp458
g56
(g77
g58
NtRp459
(dp460
g61
(dp461
g81
g82
ssg70
g455
sg63
(lp462
g270
asbag56
(g77
g58
NtRp463
(dp464
g61
(dp465
g88
g89
ssg70
g455
sg63
(lp466
S':'
asbag56
(g77
g58
NtRp467
(dp468
g61
(dp469
sg70
g455
sg63
(lp470
g56
(g57
g58
NtRp471
(dp472
g61
(dp473
g69
I3
ssg70
g467
sg63
(lp474
S''
asbasbasbag56
(g72
g58
NtRp475
(dp476
g61
(dp477
sg70
g451
sg63
(lp478
g56
(g77
g58
NtRp479
(dp480
g61
(dp481
g81
g82
ssg70
g475
sg63
(lp482
g291
asbag56
(g77
g58
NtRp483
(dp484
g61
(dp485
g88
g89
ssg70
g475
sg63
(lp486
S':'
asbag56
(g77
g58
NtRp487
(dp488
g61
(dp489
sg70
g475
sg63
(lp490
g56
(g57
g58
NtRp491
(dp492
g61
(dp493
g69
I3
ssg70
g487
sg63
(lp494
S''
asbasbasbag56
(g72
g58
NtRp495
(dp496
g61
(dp497
sg70
g451
sg63
(lp498
g56
(g77
g58
NtRp499
(dp500
g61
(dp501
g81
g82
ssg70
g495
sg63
(lp502
g312
asbag56
(g77
g58
NtRp503
(dp504
g61
(dp505
g88
g89
ssg70
g495
sg63
(lp506
S':'
asbag56
(g77
g58
NtRp507
(dp508
g61
(dp509
sg70
g495
sg63
(lp510
g56
(g57
g58
NtRp511
(dp512
g61
(dp513
g69
I3
ssg70
g507
sg63
(lp514
S''
asbasbasbag56
(g72
g58
NtRp515
(dp516
g61
(dp517
sg70
g451
sg63
(lp518
g56
(g77
g58
NtRp519
(dp520
g61
(dp521
g81
g82
ssg70
g515
sg63
(lp522
g333
asbag56
(g77
g58
NtRp523
(dp524
g61
(dp525
g88
g89
ssg70
g515
sg63
(lp526
S':'
asbag56
(g77
g58
NtRp527
(dp528
g61
(dp529
sg70
g515
sg63
(lp530
g56
(g57
g58
NtRp531
(dp532
g61
(dp533
g69
I3
ssg70
g527
sg63
(lp534
S''
asbasbasbag56
(g72
g58
NtRp535
(dp536
g61
(dp537
sg70
g451
sg63
(lp538
g56
(g77
g58
NtRp539
(dp540
g61
(dp541
g81
g82
ssg70
g535
sg63
(lp542
g354
asbag56
(g77
g58
NtRp543
(dp544
g61
(dp545
g88
g89
ssg70
g535
sg63
(lp546
S':'
asbag56
(g77
g58
NtRp547
(dp548
g61
(dp549
sg70
g535
sg63
(lp550
g56
(g57
g58
NtRp551
(dp552
g61
(dp553
g69
I3
ssg70
g547
sg63
(lp554
S''
asbasbasbag56
(g72
g58
NtRp555
(dp556
g61
(dp557
sg70
g451
sg63
(lp558
g56
(g77
g58
NtRp559
(dp560
g61
(dp561
g81
g82
ssg70
g555
sg63
(lp562
g375
asbag56
(g77
g58
NtRp563
(dp564
g61
(dp565
g88
g89
ssg70
g555
sg63
(lp566
S':'
asbag56
(g77
g58
NtRp567
(dp568
g61
(dp569
sg70
g555
sg63
(lp570
g56
(g57
g58
NtRp571
(dp572
g61
(dp573
g69
I3
ssg70
g567
sg63
(lp574
S''
asbasbasbag56
(g72
g58
NtRp575
(dp576
g61
(dp577
sg70
g451
sg63
(lp578
g56
(g77
g58
NtRp579
(dp580
g61
(dp581
g81
g82
ssg70
g575
sg63
(lp582
g396
asbag56
(g77
g58
NtRp583
(dp584
g61
(dp585
g88
g89
ssg70
g575
sg63
(lp586
S':'
asbag56
(g77
g58
NtRp587
(dp588
g61
(dp589
sg70
g575
sg63
(lp590
g56
(g57
g58
NtRp591
(dp592
g61
(dp593
g69
I3
ssg70
g587
sg63
(lp594
S''
asbasbasbag56
(g72
g58
NtRp595
(dp596
g61
(dp597
sg70
g451
sg63
(lp598
g56
(g77
g58
NtRp599
(dp600
g61
(dp601
g81
g82
ssg70
g595
sg63
(lp602
g417
asbag56
(g77
g58
NtRp603
(dp604
g61
(dp605
g88
g89
ssg70
g595
sg63
(lp606
S':'
asbag56
(g77
g58
NtRp607
(dp608
g61
(dp609
sg70
g595
sg63
(lp610
g56
(g57
g58
NtRp611
(dp612
g61
(dp613
g69
I3
ssg70
g607
sg63
(lp614
S''
asbasbasbasbasbasbasbag56
(g72
g58
NtRp615
(dp616
g61
(dp617
sg70
g233
sg63
(lp618
g56
(g77
g58
NtRp619
(dp620
g61
(dp621
g81
g82
ssg70
g615
sg63
(lp622
S'session_id_paideia'
p623
asbag56
(g77
g58
NtRp624
(dp625
g61
(dp626
g88
g89
ssg70
g615
sg63
(lp627
S':'
asbag56
(g77
g58
NtRp628
(dp629
g61
(dp630
sg70
g615
sg63
(lp631
g56
(g57
g58
NtRp632
(dp633
g61
(dp634
g69
I4
ssg70
g628
sg63
(lp635
g56
(g65
g58
NtRp636
(dp637
g61
(dp638
g69
I3
ssg70
Nsg63
(lp639
g56
(g72
g58
NtRp640
(dp641
g61
(dp642
sg70
g636
sg63
(lp643
g56
(g77
g58
NtRp644
(dp645
g61
(dp646
g81
g82
ssg70
g640
sg63
(lp647
g270
asbag56
(g77
g58
NtRp648
(dp649
g61
(dp650
g88
g89
ssg70
g640
sg63
(lp651
S':'
asbag56
(g77
g58
NtRp652
(dp653
g61
(dp654
sg70
g640
sg63
(lp655
g56
(g57
g58
NtRp656
(dp657
g61
(dp658
g69
I3
ssg70
g652
sg63
(lp659
S''
asbasbasbag56
(g72
g58
NtRp660
(dp661
g61
(dp662
sg70
g636
sg63
(lp663
g56
(g77
g58
NtRp664
(dp665
g61
(dp666
g81
g82
ssg70
g660
sg63
(lp667
g291
asbag56
(g77
g58
NtRp668
(dp669
g61
(dp670
g88
g89
ssg70
g660
sg63
(lp671
S':'
asbag56
(g77
g58
NtRp672
(dp673
g61
(dp674
sg70
g660
sg63
(lp675
g56
(g57
g58
NtRp676
(dp677
g61
(dp678
g69
I3
ssg70
g672
sg63
(lp679
S''
asbasbasbag56
(g72
g58
NtRp680
(dp681
g61
(dp682
sg70
g636
sg63
(lp683
g56
(g77
g58
NtRp684
(dp685
g61
(dp686
g81
g82
ssg70
g680
sg63
(lp687
g312
asbag56
(g77
g58
NtRp688
(dp689
g61
(dp690
g88
g89
ssg70
g680
sg63
(lp691
S':'
asbag56
(g77
g58
NtRp692
(dp693
g61
(dp694
sg70
g680
sg63
(lp695
g56
(g57
g58
NtRp696
(dp697
g61
(dp698
g69
I3
ssg70
g692
sg63
(lp699
S''
asbasbasbag56
(g72
g58
NtRp700
(dp701
g61
(dp702
sg70
g636
sg63
(lp703
g56
(g77
g58
NtRp704
(dp705
g61
(dp706
g81
g82
ssg70
g700
sg63
(lp707
g333
asbag56
(g77
g58
NtRp708
(dp709
g61
(dp710
g88
g89
ssg70
g700
sg63
(lp711
S':'
asbag56
(g77
g58
NtRp712
(dp713
g61
(dp714
sg70
g700
sg63
(lp715
g56
(g57
g58
NtRp716
(dp717
g61
(dp718
g69
I3
ssg70
g712
sg63
(lp719
S''
asbasbasbag56
(g72
g58
NtRp720
(dp721
g61
(dp722
sg70
g636
sg63
(lp723
g56
(g77
g58
NtRp724
(dp725
g61
(dp726
g81
g82
ssg70
g720
sg63
(lp727
g354
asbag56
(g77
g58
NtRp728
(dp729
g61
(dp730
g88
g89
ssg70
g720
sg63
(lp731
S':'
asbag56
(g77
g58
NtRp732
(dp733
g61
(dp734
sg70
g720
sg63
(lp735
g56
(g57
g58
NtRp736
(dp737
g61
(dp738
g69
I3
ssg70
g732
sg63
(lp739
S''
asbasbasbag56
(g72
g58
NtRp740
(dp741
g61
(dp742
sg70
g636
sg63
(lp743
g56
(g77
g58
NtRp744
(dp745
g61
(dp746
g81
g82
ssg70
g740
sg63
(lp747
g375
asbag56
(g77
g58
NtRp748
(dp749
g61
(dp750
g88
g89
ssg70
g740
sg63
(lp751
S':'
asbag56
(g77
g58
NtRp752
(dp753
g61
(dp754
sg70
g740
sg63
(lp755
g56
(g57
g58
NtRp756
(dp757
g61
(dp758
g69
I3
ssg70
g752
sg63
(lp759
S''
asbasbasbag56
(g72
g58
NtRp760
(dp761
g61
(dp762
sg70
g636
sg63
(lp763
g56
(g77
g58
NtRp764
(dp765
g61
(dp766
g81
g82
ssg70
g760
sg63
(lp767
g396
asbag56
(g77
g58
NtRp768
(dp769
g61
(dp770
g88
g89
ssg70
g760
sg63
(lp771
S':'
asbag56
(g77
g58
NtRp772
(dp773
g61
(dp774
sg70
g760
sg63
(lp775
g56
(g57
g58
NtRp776
(dp777
g61
(dp778
g69
I3
ssg70
g772
sg63
(lp779
S''
asbasbasbag56
(g72
g58
NtRp780
(dp781
g61
(dp782
sg70
g636
sg63
(lp783
g56
(g77
g58
NtRp784
(dp785
g61
(dp786
g81
g82
ssg70
g780
sg63
(lp787
g417
asbag56
(g77
g58
NtRp788
(dp789
g61
(dp790
g88
g89
ssg70
g780
sg63
(lp791
S':'
asbag56
(g77
g58
NtRp792
(dp793
g61
(dp794
sg70
g780
sg63
(lp795
g56
(g57
g58
NtRp796
(dp797
g61
(dp798
g69
I3
ssg70
g792
sg63
(lp799
S''
asbasbasbasbasbasbasbag56
(g72
g58
NtRp800
(dp801
g61
(dp802
sg70
g233
sg63
(lp803
g56
(g77
g58
NtRp804
(dp805
g61
(dp806
g81
g82
ssg70
g800
sg63
(lp807
S'session_id_places'
p808
asbag56
(g77
g58
NtRp809
(dp810
g61
(dp811
g88
g89
ssg70
g800
sg63
(lp812
S':'
asbag56
(g77
g58
NtRp813
(dp814
g61
(dp815
sg70
g800
sg63
(lp816
g56
(g57
g58
NtRp817
(dp818
g61
(dp819
g69
I4
ssg70
g813
sg63
(lp820
g56
(g65
g58
NtRp821
(dp822
g61
(dp823
g69
I3
ssg70
Nsg63
(lp824
g56
(g72
g58
NtRp825
(dp826
g61
(dp827
sg70
g821
sg63
(lp828
g56
(g77
g58
NtRp829
(dp830
g61
(dp831
g81
g82
ssg70
g825
sg63
(lp832
g270
asbag56
(g77
g58
NtRp833
(dp834
g61
(dp835
g88
g89
ssg70
g825
sg63
(lp836
S':'
asbag56
(g77
g58
NtRp837
(dp838
g61
(dp839
sg70
g825
sg63
(lp840
g56
(g57
g58
NtRp841
(dp842
g61
(dp843
g69
I3
ssg70
g837
sg63
(lp844
S''
asbasbasbag56
(g72
g58
NtRp845
(dp846
g61
(dp847
sg70
g821
sg63
(lp848
g56
(g77
g58
NtRp849
(dp850
g61
(dp851
g81
g82
ssg70
g845
sg63
(lp852
g291
asbag56
(g77
g58
NtRp853
(dp854
g61
(dp855
g88
g89
ssg70
g845
sg63
(lp856
S':'
asbag56
(g77
g58
NtRp857
(dp858
g61
(dp859
sg70
g845
sg63
(lp860
g56
(g57
g58
NtRp861
(dp862
g61
(dp863
g69
I3
ssg70
g857
sg63
(lp864
S''
asbasbasbag56
(g72
g58
NtRp865
(dp866
g61
(dp867
sg70
g821
sg63
(lp868
g56
(g77
g58
NtRp869
(dp870
g61
(dp871
g81
g82
ssg70
g865
sg63
(lp872
g312
asbag56
(g77
g58
NtRp873
(dp874
g61
(dp875
g88
g89
ssg70
g865
sg63
(lp876
S':'
asbag56
(g77
g58
NtRp877
(dp878
g61
(dp879
sg70
g865
sg63
(lp880
g56
(g57
g58
NtRp881
(dp882
g61
(dp883
g69
I3
ssg70
g877
sg63
(lp884
S''
asbasbasbag56
(g72
g58
NtRp885
(dp886
g61
(dp887
sg70
g821
sg63
(lp888
g56
(g77
g58
NtRp889
(dp890
g61
(dp891
g81
g82
ssg70
g885
sg63
(lp892
g333
asbag56
(g77
g58
NtRp893
(dp894
g61
(dp895
g88
g89
ssg70
g885
sg63
(lp896
S':'
asbag56
(g77
g58
NtRp897
(dp898
g61
(dp899
sg70
g885
sg63
(lp900
g56
(g57
g58
NtRp901
(dp902
g61
(dp903
g69
I3
ssg70
g897
sg63
(lp904
S''
asbasbasbag56
(g72
g58
NtRp905
(dp906
g61
(dp907
sg70
g821
sg63
(lp908
g56
(g77
g58
NtRp909
(dp910
g61
(dp911
g81
g82
ssg70
g905
sg63
(lp912
g354
asbag56
(g77
g58
NtRp913
(dp914
g61
(dp915
g88
g89
ssg70
g905
sg63
(lp916
S':'
asbag56
(g77
g58
NtRp917
(dp918
g61
(dp919
sg70
g905
sg63
(lp920
g56
(g57
g58
NtRp921
(dp922
g61
(dp923
g69
I3
ssg70
g917
sg63
(lp924
S''
asbasbasbag56
(g72
g58
NtRp925
(dp926
g61
(dp927
sg70
g821
sg63
(lp928
g56
(g77
g58
NtRp929
(dp930
g61
(dp931
g81
g82
ssg70
g925
sg63
(lp932
g375
asbag56
(g77
g58
NtRp933
(dp934
g61
(dp935
g88
g89
ssg70
g925
sg63
(lp936
S':'
asbag56
(g77
g58
NtRp937
(dp938
g61
(dp939
sg70
g925
sg63
(lp940
g56
(g57
g58
NtRp941
(dp942
g61
(dp943
g69
I3
ssg70
g937
sg63
(lp944
S''
asbasbasbag56
(g72
g58
NtRp945
(dp946
g61
(dp947
sg70
g821
sg63
(lp948
g56
(g77
g58
NtRp949
(dp950
g61
(dp951
g81
g82
ssg70
g945
sg63
(lp952
g396
asbag56
(g77
g58
NtRp953
(dp954
g61
(dp955
g88
g89
ssg70
g945
sg63
(lp956
S':'
asbag56
(g77
g58
NtRp957
(dp958
g61
(dp959
sg70
g945
sg63
(lp960
g56
(g57
g58
NtRp961
(dp962
g61
(dp963
g69
I3
ssg70
g957
sg63
(lp964
S''
asbasbasbag56
(g72
g58
NtRp965
(dp966
g61
(dp967
sg70
g821
sg63
(lp968
g56
(g77
g58
NtRp969
(dp970
g61
(dp971
g81
g82
ssg70
g965
sg63
(lp972
g417
asbag56
(g77
g58
NtRp973
(dp974
g61
(dp975
g88
g89
ssg70
g965
sg63
(lp976
S':'
asbag56
(g77
g58
NtRp977
(dp978
g61
(dp979
sg70
g965
sg63
(lp980
g56
(g57
g58
NtRp981
(dp982
g61
(dp983
g69
I3
ssg70
g977
sg63
(lp984
S''
asbasbasbasbasbasbasbag56
(g72
g58
NtRp985
(dp986
g61
(dp987
sg70
g233
sg63
(lp988
g56
(g77
g58
NtRp989
(dp990
g61
(dp991
g81
g82
ssg70
g985
sg63
(lp992
S'session_id_welcome'
p993
asbag56
(g77
g58
NtRp994
(dp995
g61
(dp996
g88
g89
ssg70
g985
sg63
(lp997
S':'
asbag56
(g77
g58
NtRp998
(dp999
g61
(dp1000
sg70
g985
sg63
(lp1001
g56
(g57
g58
NtRp1002
(dp1003
g61
(dp1004
g69
I4
ssg70
g998
sg63
(lp1005
g56
(g65
g58
NtRp1006
(dp1007
g61
(dp1008
g69
I3
ssg70
Nsg63
(lp1009
g56
(g72
g58
NtRp1010
(dp1011
g61
(dp1012
sg70
g1006
sg63
(lp1013
g56
(g77
g58
NtRp1014
(dp1015
g61
(dp1016
g81
g82
ssg70
g1010
sg63
(lp1017
g270
asbag56
(g77
g58
NtRp1018
(dp1019
g61
(dp1020
g88
g89
ssg70
g1010
sg63
(lp1021
S':'
asbag56
(g77
g58
NtRp1022
(dp1023
g61
(dp1024
sg70
g1010
sg63
(lp1025
g56
(g57
g58
NtRp1026
(dp1027
g61
(dp1028
g69
I3
ssg70
g1022
sg63
(lp1029
S''
asbasbasbag56
(g72
g58
NtRp1030
(dp1031
g61
(dp1032
sg70
g1006
sg63
(lp1033
g56
(g77
g58
NtRp1034
(dp1035
g61
(dp1036
g81
g82
ssg70
g1030
sg63
(lp1037
g291
asbag56
(g77
g58
NtRp1038
(dp1039
g61
(dp1040
g88
g89
ssg70
g1030
sg63
(lp1041
S':'
asbag56
(g77
g58
NtRp1042
(dp1043
g61
(dp1044
sg70
g1030
sg63
(lp1045
g56
(g57
g58
NtRp1046
(dp1047
g61
(dp1048
g69
I3
ssg70
g1042
sg63
(lp1049
S''
asbasbasbag56
(g72
g58
NtRp1050
(dp1051
g61
(dp1052
sg70
g1006
sg63
(lp1053
g56
(g77
g58
NtRp1054
(dp1055
g61
(dp1056
g81
g82
ssg70
g1050
sg63
(lp1057
g312
asbag56
(g77
g58
NtRp1058
(dp1059
g61
(dp1060
g88
g89
ssg70
g1050
sg63
(lp1061
S':'
asbag56
(g77
g58
NtRp1062
(dp1063
g61
(dp1064
sg70
g1050
sg63
(lp1065
g56
(g57
g58
NtRp1066
(dp1067
g61
(dp1068
g69
I3
ssg70
g1062
sg63
(lp1069
S''
asbasbasbag56
(g72
g58
NtRp1070
(dp1071
g61
(dp1072
sg70
g1006
sg63
(lp1073
g56
(g77
g58
NtRp1074
(dp1075
g61
(dp1076
g81
g82
ssg70
g1070
sg63
(lp1077
g333
asbag56
(g77
g58
NtRp1078
(dp1079
g61
(dp1080
g88
g89
ssg70
g1070
sg63
(lp1081
S':'
asbag56
(g77
g58
NtRp1082
(dp1083
g61
(dp1084
sg70
g1070
sg63
(lp1085
g56
(g57
g58
NtRp1086
(dp1087
g61
(dp1088
g69
I3
ssg70
g1082
sg63
(lp1089
S''
asbasbasbag56
(g72
g58
NtRp1090
(dp1091
g61
(dp1092
sg70
g1006
sg63
(lp1093
g56
(g77
g58
NtRp1094
(dp1095
g61
(dp1096
g81
g82
ssg70
g1090
sg63
(lp1097
g354
asbag56
(g77
g58
NtRp1098
(dp1099
g61
(dp1100
g88
g89
ssg70
g1090
sg63
(lp1101
S':'
asbag56
(g77
g58
NtRp1102
(dp1103
g61
(dp1104
sg70
g1090
sg63
(lp1105
g56
(g57
g58
NtRp1106
(dp1107
g61
(dp1108
g69
I3
ssg70
g1102
sg63
(lp1109
S''
asbasbasbag56
(g72
g58
NtRp1110
(dp1111
g61
(dp1112
sg70
g1006
sg63
(lp1113
g56
(g77
g58
NtRp1114
(dp1115
g61
(dp1116
g81
g82
ssg70
g1110
sg63
(lp1117
g375
asbag56
(g77
g58
NtRp1118
(dp1119
g61
(dp1120
g88
g89
ssg70
g1110
sg63
(lp1121
S':'
asbag56
(g77
g58
NtRp1122
(dp1123
g61
(dp1124
sg70
g1110
sg63
(lp1125
g56
(g57
g58
NtRp1126
(dp1127
g61
(dp1128
g69
I3
ssg70
g1122
sg63
(lp1129
S''
asbasbasbag56
(g72
g58
NtRp1130
(dp1131
g61
(dp1132
sg70
g1006
sg63
(lp1133
g56
(g77
g58
NtRp1134
(dp1135
g61
(dp1136
g81
g82
ssg70
g1130
sg63
(lp1137
g396
asbag56
(g77
g58
NtRp1138
(dp1139
g61
(dp1140
g88
g89
ssg70
g1130
sg63
(lp1141
S':'
asbag56
(g77
g58
NtRp1142
(dp1143
g61
(dp1144
sg70
g1130
sg63
(lp1145
g56
(g57
g58
NtRp1146
(dp1147
g61
(dp1148
g69
I3
ssg70
g1142
sg63
(lp1149
S''
asbasbasbag56
(g72
g58
NtRp1150
(dp1151
g61
(dp1152
sg70
g1006
sg63
(lp1153
g56
(g77
g58
NtRp1154
(dp1155
g61
(dp1156
g81
g82
ssg70
g1150
sg63
(lp1157
g417
asbag56
(g77
g58
NtRp1158
(dp1159
g61
(dp1160
g88
g89
ssg70
g1150
sg63
(lp1161
S':'
asbag56
(g77
g58
NtRp1162
(dp1163
g61
(dp1164
sg70
g1150
sg63
(lp1165
g56
(g57
g58
NtRp1166
(dp1167
g61
(dp1168
g69
I3
ssg70
g1162
sg63
(lp1169
S''
asbasbasbasbasbasbasbasbasbasbasbag56
(g72
g58
NtRp1170
(dp1171
g61
(dp1172
sg70
g66
sg63
(lp1173
g56
(g77
g58
NtRp1174
(dp1175
g61
(dp1176
g81
g82
ssg70
g1170
sg63
(lp1177
S'env'
p1178
asbag56
(g77
g58
NtRp1179
(dp1180
g61
(dp1181
g88
g89
ssg70
g1170
sg63
(lp1182
S':'
asbag56
(g77
g58
NtRp1183
(dp1184
g61
(dp1185
sg70
g1170
sg63
(lp1186
g56
(g57
g58
NtRp1187
(dp1188
g61
(dp1189
g69
I5
ssg70
g1183
sg63
(lp1190
g56
(g65
g58
NtRp1191
(dp1192
g61
(dp1193
g69
I4
ssg70
Nsg63
(lp1194
g56
(g72
g58
NtRp1195
(dp1196
g61
(dp1197
sg70
g1191
sg63
(lp1198
g56
(g77
g58
NtRp1199
(dp1200
g61
(dp1201
g81
g82
ssg70
g1195
sg63
(lp1202
S'app_folders'
p1203
asbag56
(g77
g58
NtRp1204
(dp1205
g61
(dp1206
g88
g89
ssg70
g1195
sg63
(lp1207
S':'
asbag56
(g77
g58
NtRp1208
(dp1209
g61
(dp1210
sg70
g1195
sg63
(lp1211
g56
(g57
g58
NtRp1212
(dp1213
g61
(dp1214
g69
I4
ssg70
g1208
sg63
(lp1215
S"set(['/home/ian/Dropbox/Web_Pages/web2py-linux/applications/blog/', '/home/ian/Dropbox/Web_Pages/web2py-linux/applications/places/', '/home/ian/Dropbox/Web_Pages/web2py-linux/applications/Paideia/', '/home/ian/Dropbox/Web_Pages/web2py-linux/applications/admin/', '/home/ian/Dropbox/Web_Pages/web2py-linux/applications/welcome/'])"
p1216
asbasbasbag56
(g72
g58
NtRp1217
(dp1218
g61
(dp1219
sg70
g1191
sg63
(lp1220
g56
(g77
g58
NtRp1221
(dp1222
g61
(dp1223
g81
g82
ssg70
g1217
sg63
(lp1224
S'applications_parent'
p1225
asbag56
(g77
g58
NtRp1226
(dp1227
g61
(dp1228
g88
g89
ssg70
g1217
sg63
(lp1229
S':'
asbag56
(g77
g58
NtRp1230
(dp1231
g61
(dp1232
sg70
g1217
sg63
(lp1233
g56
(g57
g58
NtRp1234
(dp1235
g61
(dp1236
g69
I4
ssg70
g1230
sg63
(lp1237
S'/home/ian/Dropbox/Web_Pages/web2py-linux'
p1238
asbasbasbag56
(g72
g58
NtRp1239
(dp1240
g61
(dp1241
sg70
g1191
sg63
(lp1242
g56
(g77
g58
NtRp1243
(dp1244
g61
(dp1245
g81
g82
ssg70
g1239
sg63
(lp1246
S'cmd_args'
p1247
asbag56
(g77
g58
NtRp1248
(dp1249
g61
(dp1250
g88
g89
ssg70
g1239
sg63
(lp1251
S':'
asbag56
(g77
g58
NtRp1252
(dp1253
g61
(dp1254
sg70
g1239
sg63
(lp1255
g56
(g57
g58
NtRp1256
(dp1257
g61
(dp1258
g69
I4
ssg70
g1252
sg63
(lp1259
g56
(g65
g58
NtRp1260
(dp1261
g61
(dp1262
g69
I3
ssg70
Nsg63
(lp1263
sbasbasbasbag56
(g72
g58
NtRp1264
(dp1265
g61
(dp1266
sg70
g1191
sg63
(lp1267
g56
(g77
g58
NtRp1268
(dp1269
g61
(dp1270
g81
g82
ssg70
g1264
sg63
(lp1271
S'cmd_options'
p1272
asbag56
(g77
g58
NtRp1273
(dp1274
g61
(dp1275
g88
g89
ssg70
g1264
sg63
(lp1276
S':'
asbag56
(g77
g58
NtRp1277
(dp1278
g61
(dp1279
sg70
g1264
sg63
(lp1280
g56
(g57
g58
NtRp1281
(dp1282
g61
(dp1283
g69
I4
ssg70
g1277
sg63
(lp1284
S"<Values at 0x2723170: {'verbose': False, 'ip': '127.0.0.1', 'shutdown_timeout': 5, 'taskbar': False, 'nocron': False, 'pid_filename': 'httpserver.pid', 'maxthreads': None, 'softcron': False, 'server_name': 'uriel', 'bpython': False, 'nogui': False, 'port': 8000, 'extcron': False, 'debuglevel': 30, 'test': None, 'folder': '/home/ian/Dropbox/Web_Pages/web2py-linux', 'config': '', 'import_models': False, 'winservice': '', 'shell': None, 'run': '', 'log_filename': 'httpserver.log', 'args': [''], 'ssl_ca_certificate': None, 'scheduler': None, 'profiler_filename': None, 'ssl_private_key': '', 'password': '<ask>', 'request_queue_size': 5, 'ssl_certificate': '', 'cronjob': False, 'plain': False, 'quiet': False, 'interfaces': None, 'minthreads': None, 'timeout': 10, 'numthreads': None, 'nobanner': False}>"
p1285
asbasbasbag56
(g72
g58
NtRp1286
(dp1287
g61
(dp1288
sg70
g1191
sg63
(lp1289
g56
(g77
g58
NtRp1290
(dp1291
g61
(dp1292
g81
g82
ssg70
g1286
sg63
(lp1293
S'db_sessions'
p1294
asbag56
(g77
g58
NtRp1295
(dp1296
g61
(dp1297
g88
g89
ssg70
g1286
sg63
(lp1298
S':'
asbag56
(g77
g58
NtRp1299
(dp1300
g61
(dp1301
sg70
g1286
sg63
(lp1302
g56
(g57
g58
NtRp1303
(dp1304
g61
(dp1305
g69
I4
ssg70
g1299
sg63
(lp1306
S'set([])'
p1307
asbasbasbag56
(g72
g58
NtRp1308
(dp1309
g61
(dp1310
sg70
g1191
sg63
(lp1311
g56
(g77
g58
NtRp1312
(dp1313
g61
(dp1314
g81
g82
ssg70
g1308
sg63
(lp1315
S'debugging'
p1316
asbag56
(g77
g58
NtRp1317
(dp1318
g61
(dp1319
g88
g89
ssg70
g1308
sg63
(lp1320
S':'
asbag56
(g77
g58
NtRp1321
(dp1322
g61
(dp1323
sg70
g1308
sg63
(lp1324
g56
(g57
g58
NtRp1325
(dp1326
g61
(dp1327
g69
I4
ssg70
g1321
sg63
(lp1328
g99
asbasbasbag56
(g72
g58
NtRp1329
(dp1330
g61
(dp1331
sg70
g1191
sg63
(lp1332
g56
(g77
g58
NtRp1333
(dp1334
g61
(dp1335
g81
g82
ssg70
g1329
sg63
(lp1336
S'gluon_parent'
p1337
asbag56
(g77
g58
NtRp1338
(dp1339
g61
(dp1340
g88
g89
ssg70
g1329
sg63
(lp1341
S':'
asbag56
(g77
g58
NtRp1342
(dp1343
g61
(dp1344
sg70
g1329
sg63
(lp1345
g56
(g57
g58
NtRp1346
(dp1347
g61
(dp1348
g69
I4
ssg70
g1342
sg63
(lp1349
S'/home/ian/Dropbox/Web_Pages/web2py-linux'
p1350
asbasbasbag56
(g72
g58
NtRp1351
(dp1352
g61
(dp1353
sg70
g1191
sg63
(lp1354
g56
(g77
g58
NtRp1355
(dp1356
g61
(dp1357
g81
g82
ssg70
g1351
sg63
(lp1358
S'http_accept'
p1359
asbag56
(g77
g58
NtRp1360
(dp1361
g61
(dp1362
g88
g89
ssg70
g1351
sg63
(lp1363
S':'
asbag56
(g77
g58
NtRp1364
(dp1365
g61
(dp1366
sg70
g1351
sg63
(lp1367
g56
(g57
g58
NtRp1368
(dp1369
g61
(dp1370
g69
I4
ssg70
g1364
sg63
(lp1371
S'text/html,application/xhtml+xml,application/xml;q=0.9,*/*;q=0.8'
p1372
asbasbasbag56
(g72
g58
NtRp1373
(dp1374
g61
(dp1375
sg70
g1191
sg63
(lp1376
g56
(g77
g58
NtRp1377
(dp1378
g61
(dp1379
g81
g82
ssg70
g1373
sg63
(lp1380
S'http_accept_charset'
p1381
asbag56
(g77
g58
NtRp1382
(dp1383
g61
(dp1384
g88
g89
ssg70
g1373
sg63
(lp1385
S':'
asbag56
(g77
g58
NtRp1386
(dp1387
g61
(dp1388
sg70
g1373
sg63
(lp1389
g56
(g57
g58
NtRp1390
(dp1391
g61
(dp1392
g69
I4
ssg70
g1386
sg63
(lp1393
S'UTF-8,*'
p1394
asbasbasbag56
(g72
g58
NtRp1395
(dp1396
g61
(dp1397
sg70
g1191
sg63
(lp1398
g56
(g77
g58
NtRp1399
(dp1400
g61
(dp1401
g81
g82
ssg70
g1395
sg63
(lp1402
S'http_accept_encoding'
p1403
asbag56
(g77
g58
NtRp1404
(dp1405
g61
(dp1406
g88
g89
ssg70
g1395
sg63
(lp1407
S':'
asbag56
(g77
g58
NtRp1408
(dp1409
g61
(dp1410
sg70
g1395
sg63
(lp1411
g56
(g57
g58
NtRp1412
(dp1413
g61
(dp1414
g69
I4
ssg70
g1408
sg63
(lp1415
S'gzip, deflate'
p1416
asbasbasbag56
(g72
g58
NtRp1417
(dp1418
g61
(dp1419
sg70
g1191
sg63
(lp1420
g56
(g77
g58
NtRp1421
(dp1422
g61
(dp1423
g81
g82
ssg70
g1417
sg63
(lp1424
S'http_accept_language'
p1425
asbag56
(g77
g58
NtRp1426
(dp1427
g61
(dp1428
g88
g89
ssg70
g1417
sg63
(lp1429
S':'
asbag56
(g77
g58
NtRp1430
(dp1431
g61
(dp1432
sg70
g1417
sg63
(lp1433
g56
(g57
g58
NtRp1434
(dp1435
g61
(dp1436
g69
I4
ssg70
g1430
sg63
(lp1437
S'en-us,en;q=0.5'
p1438
asbasbasbag56
(g72
g58
NtRp1439
(dp1440
g61
(dp1441
sg70
g1191
sg63
(lp1442
g56
(g77
g58
NtRp1443
(dp1444
g61
(dp1445
g81
g82
ssg70
g1439
sg63
(lp1446
S'http_cache_control'
p1447
asbag56
(g77
g58
NtRp1448
(dp1449
g61
(dp1450
g88
g89
ssg70
g1439
sg63
(lp1451
S':'
asbag56
(g77
g58
NtRp1452
(dp1453
g61
(dp1454
sg70
g1439
sg63
(lp1455
g56
(g57
g58
NtRp1456
(dp1457
g61
(dp1458
g69
I4
ssg70
g1452
sg63
(lp1459
S'max-age=0'
p1460
asbasbasbag56
(g72
g58
NtRp1461
(dp1462
g61
(dp1463
sg70
g1191
sg63
(lp1464
g56
(g77
g58
NtRp1465
(dp1466
g61
(dp1467
g81
g82
ssg70
g1461
sg63
(lp1468
S'http_connection'
p1469
asbag56
(g77
g58
NtRp1470
(dp1471
g61
(dp1472
g88
g89
ssg70
g1461
sg63
(lp1473
S':'
asbag56
(g77
g58
NtRp1474
(dp1475
g61
(dp1476
sg70
g1461
sg63
(lp1477
g56
(g57
g58
NtRp1478
(dp1479
g61
(dp1480
g69
I4
ssg70
g1474
sg63
(lp1481
S'keep-alive'
p1482
asbasbasbag56
(g72
g58
NtRp1483
(dp1484
g61
(dp1485
sg70
g1191
sg63
(lp1486
g56
(g77
g58
NtRp1487
(dp1488
g61
(dp1489
g81
g82
ssg70
g1483
sg63
(lp1490
S'http_cookie'
p1491
asbag56
(g77
g58
NtRp1492
(dp1493
g61
(dp1494
g88
g89
ssg70
g1483
sg63
(lp1495
S':'
asbag56
(g77
g58
NtRp1496
(dp1497
g61
(dp1498
sg70
g1483
sg63
(lp1499
g56
(g57
g58
NtRp1500
(dp1501
g61
(dp1502
g69
I4
ssg70
g1496
sg63
(lp1503
S'session_id_blog=127.0.0.1-f221c588-e499-4b63-9882-f52e2f06907c; session_id_welcome=127.0.0.1-c5e18343-d06e-414a-bb07-23cb8cf7ceb8; session_id_paideia=127.0.0.1-81eff388-1cde-41fb-8887-06f0c09ce763; session_id_admin=127.0.0.1-f8ad7263-b87d-41ed-bbe2-215e5232b6dc; session_id_places=127.0.0.1-ae378f77-b944-4a55-be06-eed4ce913913'
p1504
asbasbasbag56
(g72
g58
NtRp1505
(dp1506
g61
(dp1507
sg70
g1191
sg63
(lp1508
g56
(g77
g58
NtRp1509
(dp1510
g61
(dp1511
g81
g82
ssg70
g1505
sg63
(lp1512
S'http_host'
p1513
asbag56
(g77
g58
NtRp1514
(dp1515
g61
(dp1516
g88
g89
ssg70
g1505
sg63
(lp1517
S':'
asbag56
(g77
g58
NtRp1518
(dp1519
g61
(dp1520
sg70
g1505
sg63
(lp1521
g56
(g57
g58
NtRp1522
(dp1523
g61
(dp1524
g69
I4
ssg70
g1518
sg63
(lp1525
S'127.0.0.1:8000'
p1526
asbasbasbag56
(g72
g58
NtRp1527
(dp1528
g61
(dp1529
sg70
g1191
sg63
(lp1530
g56
(g77
g58
NtRp1531
(dp1532
g61
(dp1533
g81
g82
ssg70
g1527
sg63
(lp1534
S'http_user_agent'
p1535
asbag56
(g77
g58
NtRp1536
(dp1537
g61
(dp1538
g88
g89
ssg70
g1527
sg63
(lp1539
S':'
asbag56
(g77
g58
NtRp1540
(dp1541
g61
(dp1542
sg70
g1527
sg63
(lp1543
g56
(g57
g58
NtRp1544
(dp1545
g61
(dp1546
g69
I4
ssg70
g1540
sg63
(lp1547
S'Mozilla/5.0 (X11; Linux x86_64; rv:7.0.1) Gecko/20100101 Firefox/7.0.1'
p1548
asbasbasbag56
(g72
g58
NtRp1549
(dp1550
g61
(dp1551
sg70
g1191
sg63
(lp1552
g56
(g77
g58
NtRp1553
(dp1554
g61
(dp1555
g81
g82
ssg70
g1549
sg63
(lp1556
S'is_jython'
p1557
asbag56
(g77
g58
NtRp1558
(dp1559
g61
(dp1560
g88
g89
ssg70
g1549
sg63
(lp1561
S':'
asbag56
(g77
g58
NtRp1562
(dp1563
g61
(dp1564
sg70
g1549
sg63
(lp1565
g56
(g57
g58
NtRp1566
(dp1567
g61
(dp1568
g69
I4
ssg70
g1562
sg63
(lp1569
g99
asbasbasbag56
(g72
g58
NtRp1570
(dp1571
g61
(dp1572
sg70
g1191
sg63
(lp1573
g56
(g77
g58
NtRp1574
(dp1575
g61
(dp1576
g81
g82
ssg70
g1570
sg63
(lp1577
S'path_info'
p1578
asbag56
(g77
g58
NtRp1579
(dp1580
g61
(dp1581
g88
g89
ssg70
g1570
sg63
(lp1582
S':'
asbag56
(g77
g58
NtRp1583
(dp1584
g61
(dp1585
sg70
g1570
sg63
(lp1586
g56
(g57
g58
NtRp1587
(dp1588
g61
(dp1589
g69
I4
ssg70
g1583
sg63
(lp1590
S'/places/'
p1591
asbasbasbag56
(g72
g58
NtRp1592
(dp1593
g61
(dp1594
sg70
g1191
sg63
(lp1595
g56
(g77
g58
NtRp1596
(dp1597
g61
(dp1598
g81
g82
ssg70
g1592
sg63
(lp1599
S'query_string'
p1600
asbag56
(g77
g58
NtRp1601
(dp1602
g61
(dp1603
g88
g89
ssg70
g1592
sg63
(lp1604
S':'
asbag56
(g77
g58
NtRp1605
(dp1606
g61
(dp1607
sg70
g1592
sg63
(lp1608
g56
(g57
g58
NtRp1609
(dp1610
g61
(dp1611
g69
I4
ssg70
g1605
sg63
(lp1612
S''
asbasbasbag56
(g72
g58
NtRp1613
(dp1614
g61
(dp1615
sg70
g1191
sg63
(lp1616
g56
(g77
g58
NtRp1617
(dp1618
g61
(dp1619
g81
g82
ssg70
g1613
sg63
(lp1620
S'remote_addr'
p1621
asbag56
(g77
g58
NtRp1622
(dp1623
g61
(dp1624
g88
g89
ssg70
g1613
sg63
(lp1625
S':'
asbag56
(g77
g58
NtRp1626
(dp1627
g61
(dp1628
sg70
g1613
sg63
(lp1629
g56
(g57
g58
NtRp1630
(dp1631
g61
(dp1632
g69
I4
ssg70
g1626
sg63
(lp1633
g189
asbasbasbag56
(g72
g58
NtRp1634
(dp1635
g61
(dp1636
sg70
g1191
sg63
(lp1637
g56
(g77
g58
NtRp1638
(dp1639
g61
(dp1640
g81
g82
ssg70
g1634
sg63
(lp1641
S'remote_port'
p1642
asbag56
(g77
g58
NtRp1643
(dp1644
g61
(dp1645
g88
g89
ssg70
g1634
sg63
(lp1646
S':'
asbag56
(g77
g58
NtRp1647
(dp1648
g61
(dp1649
sg70
g1634
sg63
(lp1650
g56
(g57
g58
NtRp1651
(dp1652
g61
(dp1653
g69
I4
ssg70
g1647
sg63
(lp1654
S'57572'
p1655
asbasbasbag56
(g72
g58
NtRp1656
(dp1657
g61
(dp1658
sg70
g1191
sg63
(lp1659
g56
(g77
g58
NtRp1660
(dp1661
g61
(dp1662
g81
g82
ssg70
g1656
sg63
(lp1663
S'request_method'
p1664
asbag56
(g77
g58
NtRp1665
(dp1666
g61
(dp1667
g88
g89
ssg70
g1656
sg63
(lp1668
S':'
asbag56
(g77
g58
NtRp1669
(dp1670
g61
(dp1671
sg70
g1656
sg63
(lp1672
g56
(g57
g58
NtRp1673
(dp1674
g61
(dp1675
g69
I4
ssg70
g1669
sg63
(lp1676
S'GET'
p1677
asbasbasbag56
(g72
g58
NtRp1678
(dp1679
g61
(dp1680
sg70
g1191
sg63
(lp1681
g56
(g77
g58
NtRp1682
(dp1683
g61
(dp1684
g81
g82
ssg70
g1678
sg63
(lp1685
S'script_name'
p1686
asbag56
(g77
g58
NtRp1687
(dp1688
g61
(dp1689
g88
g89
ssg70
g1678
sg63
(lp1690
S':'
asbag56
(g77
g58
NtRp1691
(dp1692
g61
(dp1693
sg70
g1678
sg63
(lp1694
g56
(g57
g58
NtRp1695
(dp1696
g61
(dp1697
g69
I4
ssg70
g1691
sg63
(lp1698
S''
asbasbasbag56
(g72
g58
NtRp1699
(dp1700
g61
(dp1701
sg70
g1191
sg63
(lp1702
g56
(g77
g58
NtRp1703
(dp1704
g61
(dp1705
g81
g82
ssg70
g1699
sg63
(lp1706
S'server_name'
p1707
asbag56
(g77
g58
NtRp1708
(dp1709
g61
(dp1710
g88
g89
ssg70
g1699
sg63
(lp1711
S':'
asbag56
(g77
g58
NtRp1712
(dp1713
g61
(dp1714
sg70
g1699
sg63
(lp1715
g56
(g57
g58
NtRp1716
(dp1717
g61
(dp1718
g69
I4
ssg70
g1712
sg63
(lp1719
S'uriel'
p1720
asbasbasbag56
(g72
g58
NtRp1721
(dp1722
g61
(dp1723
sg70
g1191
sg63
(lp1724
g56
(g77
g58
NtRp1725
(dp1726
g61
(dp1727
g81
g82
ssg70
g1721
sg63
(lp1728
S'server_port'
p1729
asbag56
(g77
g58
NtRp1730
(dp1731
g61
(dp1732
g88
g89
ssg70
g1721
sg63
(lp1733
S':'
asbag56
(g77
g58
NtRp1734
(dp1735
g61
(dp1736
sg70
g1721
sg63
(lp1737
g56
(g57
g58
NtRp1738
(dp1739
g61
(dp1740
g69
I4
ssg70
g1734
sg63
(lp1741
S'8000'
p1742
asbasbasbag56
(g72
g58
NtRp1743
(dp1744
g61
(dp1745
sg70
g1191
sg63
(lp1746
g56
(g77
g58
NtRp1747
(dp1748
g61
(dp1749
g81
g82
ssg70
g1743
sg63
(lp1750
S'server_protocol'
p1751
asbag56
(g77
g58
NtRp1752
(dp1753
g61
(dp1754
g88
g89
ssg70
g1743
sg63
(lp1755
S':'
asbag56
(g77
g58
NtRp1756
(dp1757
g61
(dp1758
sg70
g1743
sg63
(lp1759
g56
(g57
g58
NtRp1760
(dp1761
g61
(dp1762
g69
I4
ssg70
g1756
sg63
(lp1763
S'HTTP/1.1'
p1764
asbasbasbag56
(g72
g58
NtRp1765
(dp1766
g61
(dp1767
sg70
g1191
sg63
(lp1768
g56
(g77
g58
NtRp1769
(dp1770
g61
(dp1771
g81
g82
ssg70
g1765
sg63
(lp1772
S'server_software'
p1773
asbag56
(g77
g58
NtRp1774
(dp1775
g61
(dp1776
g88
g89
ssg70
g1765
sg63
(lp1777
S':'
asbag56
(g77
g58
NtRp1778
(dp1779
g61
(dp1780
sg70
g1765
sg63
(lp1781
g56
(g57
g58
NtRp1782
(dp1783
g61
(dp1784
g69
I4
ssg70
g1778
sg63
(lp1785
S'Rocket 1.2.4'
p1786
asbasbasbag56
(g72
g58
NtRp1787
(dp1788
g61
(dp1789
sg70
g1191
sg63
(lp1790
g56
(g77
g58
NtRp1791
(dp1792
g61
(dp1793
g81
g82
ssg70
g1787
sg63
(lp1794
S'web2py_crontype'
p1795
asbag56
(g77
g58
NtRp1796
(dp1797
g61
(dp1798
g88
g89
ssg70
g1787
sg63
(lp1799
S':'
asbag56
(g77
g58
NtRp1800
(dp1801
g61
(dp1802
sg70
g1787
sg63
(lp1803
g56
(g57
g58
NtRp1804
(dp1805
g61
(dp1806
g69
I4
ssg70
g1800
sg63
(lp1807
S'hard'
p1808
asbasbasbag56
(g72
g58
NtRp1809
(dp1810
g61
(dp1811
sg70
g1191
sg63
(lp1812
g56
(g77
g58
NtRp1813
(dp1814
g61
(dp1815
g81
g82
ssg70
g1809
sg63
(lp1816
S'web2py_path'
p1817
asbag56
(g77
g58
NtRp1818
(dp1819
g61
(dp1820
g88
g89
ssg70
g1809
sg63
(lp1821
S':'
asbag56
(g77
g58
NtRp1822
(dp1823
g61
(dp1824
sg70
g1809
sg63
(lp1825
g56
(g57
g58
NtRp1826
(dp1827
g61
(dp1828
g69
I4
ssg70
g1822
sg63
(lp1829
g1238
asbasbasbag56
(g72
g58
NtRp1830
(dp1831
g61
(dp1832
sg70
g1191
sg63
(lp1833
g56
(g77
g58
NtRp1834
(dp1835
g61
(dp1836
g81
g82
ssg70
g1830
sg63
(lp1837
S'web2py_version'
p1838
asbag56
(g77
g58
NtRp1839
(dp1840
g61
(dp1841
g88
g89
ssg70
g1830
sg63
(lp1842
S':'
asbag56
(g77
g58
NtRp1843
(dp1844
g61
(dp1845
sg70
g1830
sg63
(lp1846
g56
(g57
g58
NtRp1847
(dp1848
g61
(dp1849
g69
I4
ssg70
g1843
sg63
(lp1850
g56
(g65
g58
NtRp1851
(dp1852
g61
(dp1853
g69
I3
ssg70
Nsg63
(lp1854
g56
(g72
g58
NtRp1855
(dp1856
g61
(dp1857
sg70
g1851
sg63
(lp1858
g56
(g77
g58
NtRp1859
(dp1860
g61
(dp1861
sg70
g1855
sg63
(lp1862
g56
(g57
g58
NtRp1863
(dp1864
g61
(dp1865
g69
I3
ssg70
g1859
sg63
(lp1866
S'1'
asbasbasbag56
(g72
g58
NtRp1867
(dp1868
g61
(dp1869
sg70
g1851
sg63
(lp1870
g56
(g77
g58
NtRp1871
(dp1872
g61
(dp1873
sg70
g1867
sg63
(lp1874
g56
(g57
g58
NtRp1875
(dp1876
g61
(dp1877
g69
I3
ssg70
g1871
sg63
(lp1878
S'99'
p1879
asbasbasbag56
(g72
g58
NtRp1880
(dp1881
g61
(dp1882
sg70
g1851
sg63
(lp1883
g56
(g77
g58
NtRp1884
(dp1885
g61
(dp1886
sg70
g1880
sg63
(lp1887
g56
(g57
g58
NtRp1888
(dp1889
g61
(dp1890
g69
I3
ssg70
g1884
sg63
(lp1891
S'2'
asbasbasbag56
(g72
g58
NtRp1892
(dp1893
g61
(dp1894
sg70
g1851
sg63
(lp1895
g56
(g77
g58
NtRp1896
(dp1897
g61
(dp1898
sg70
g1892
sg63
(lp1899
g56
(g57
g58
NtRp1900
(dp1901
g61
(dp1902
g69
I3
ssg70
g1896
sg63
(lp1903
S'datetime.datetime(2011, 9, 26, 6, 55, 33)'
p1904
asbasbasbag56
(g72
g58
NtRp1905
(dp1906
g61
(dp1907
sg70
g1851
sg63
(lp1908
g56
(g77
g58
NtRp1909
(dp1910
g61
(dp1911
sg70
g1905
sg63
(lp1912
g56
(g57
g58
NtRp1913
(dp1914
g61
(dp1915
g69
I3
ssg70
g1909
sg63
(lp1916
S'stable'
p1917
asbasbasbasbasbasbasbag56
(g72
g58
NtRp1918
(dp1919
g61
(dp1920
sg70
g1191
sg63
(lp1921
g56
(g77
g58
NtRp1922
(dp1923
g61
(dp1924
g81
g82
ssg70
g1918
sg63
(lp1925
S'wsgi_errors'
p1926
asbag56
(g77
g58
NtRp1927
(dp1928
g61
(dp1929
g88
g89
ssg70
g1918
sg63
(lp1930
S':'
asbag56
(g77
g58
NtRp1931
(dp1932
g61
(dp1933
sg70
g1918
sg63
(lp1934
g56
(g57
g58
NtRp1935
(dp1936
g61
(dp1937
g69
I4
ssg70
g1931
sg63
(lp1938
S"<open file '<stderr>', mode 'w' at 0x7f4a416fc270>"
p1939
asbasbasbag56
(g72
g58
NtRp1940
(dp1941
g61
(dp1942
sg70
g1191
sg63
(lp1943
g56
(g77
g58
NtRp1944
(dp1945
g61
(dp1946
g81
g82
ssg70
g1940
sg63
(lp1947
S'wsgi_file_wrapper'
p1948
asbag56
(g77
g58
NtRp1949
(dp1950
g61
(dp1951
g88
g89
ssg70
g1940
sg63
(lp1952
S':'
asbag56
(g77
g58
NtRp1953
(dp1954
g61
(dp1955
sg70
g1940
sg63
(lp1956
g56
(g57
g58
NtRp1957
(dp1958
g61
(dp1959
g69
I4
ssg70
g1953
sg63
(lp1960
S'<class wsgiref.util.FileWrapper at 0x24b4870>'
p1961
asbasbasbag56
(g72
g58
NtRp1962
(dp1963
g61
(dp1964
sg70
g1191
sg63
(lp1965
g56
(g77
g58
NtRp1966
(dp1967
g61
(dp1968
g81
g82
ssg70
g1962
sg63
(lp1969
S'wsgi_input'
p1970
asbag56
(g77
g58
NtRp1971
(dp1972
g61
(dp1973
g88
g89
ssg70
g1962
sg63
(lp1974
S':'
asbag56
(g77
g58
NtRp1975
(dp1976
g61
(dp1977
sg70
g1962
sg63
(lp1978
g56
(g57
g58
NtRp1979
(dp1980
g61
(dp1981
g69
I4
ssg70
g1975
sg63
(lp1982
S'<socket._fileobject object at 0x2bda9d0>'
p1983
asbasbasbag56
(g72
g58
NtRp1984
(dp1985
g61
(dp1986
sg70
g1191
sg63
(lp1987
g56
(g77
g58
NtRp1988
(dp1989
g61
(dp1990
g81
g82
ssg70
g1984
sg63
(lp1991
S'wsgi_multiprocess'
p1992
asbag56
(g77
g58
NtRp1993
(dp1994
g61
(dp1995
g88
g89
ssg70
g1984
sg63
(lp1996
S':'
asbag56
(g77
g58
NtRp1997
(dp1998
g61
(dp1999
sg70
g1984
sg63
(lp2000
g56
(g57
g58
NtRp2001
(dp2002
g61
(dp2003
g69
I4
ssg70
g1997
sg63
(lp2004
g99
asbasbasbag56
(g72
g58
NtRp2005
(dp2006
g61
(dp2007
sg70
g1191
sg63
(lp2008
g56
(g77
g58
NtRp2009
(dp2010
g61
(dp2011
g81
g82
ssg70
g2005
sg63
(lp2012
S'wsgi_multithread'
p2013
asbag56
(g77
g58
NtRp2014
(dp2015
g61
(dp2016
g88
g89
ssg70
g2005
sg63
(lp2017
S':'
asbag56
(g77
g58
NtRp2018
(dp2019
g61
(dp2020
sg70
g2005
sg63
(lp2021
g56
(g57
g58
NtRp2022
(dp2023
g61
(dp2024
g69
I4
ssg70
g2018
sg63
(lp2025
S'True'
p2026
asbasbasbag56
(g72
g58
NtRp2027
(dp2028
g61
(dp2029
sg70
g1191
sg63
(lp2030
g56
(g77
g58
NtRp2031
(dp2032
g61
(dp2033
g81
g82
ssg70
g2027
sg63
(lp2034
S'wsgi_run_once'
p2035
asbag56
(g77
g58
NtRp2036
(dp2037
g61
(dp2038
g88
g89
ssg70
g2027
sg63
(lp2039
S':'
asbag56
(g77
g58
NtRp2040
(dp2041
g61
(dp2042
sg70
g2027
sg63
(lp2043
g56
(g57
g58
NtRp2044
(dp2045
g61
(dp2046
g69
I4
ssg70
g2040
sg63
(lp2047
g99
asbasbasbag56
(g72
g58
NtRp2048
(dp2049
g61
(dp2050
sg70
g1191
sg63
(lp2051
g56
(g77
g58
NtRp2052
(dp2053
g61
(dp2054
g81
g82
ssg70
g2048
sg63
(lp2055
S'wsgi_url_scheme'
p2056
asbag56
(g77
g58
NtRp2057
(dp2058
g61
(dp2059
g88
g89
ssg70
g2048
sg63
(lp2060
S':'
asbag56
(g77
g58
NtRp2061
(dp2062
g61
(dp2063
sg70
g2048
sg63
(lp2064
g56
(g57
g58
NtRp2065
(dp2066
g61
(dp2067
g69
I4
ssg70
g2061
sg63
(lp2068
S'http'
p2069
asbasbasbag56
(g72
g58
NtRp2070
(dp2071
g61
(dp2072
sg70
g1191
sg63
(lp2073
g56
(g77
g58
NtRp2074
(dp2075
g61
(dp2076
g81
g82
ssg70
g2070
sg63
(lp2077
S'wsgi_version'
p2078
asbag56
(g77
g58
NtRp2079
(dp2080
g61
(dp2081
g88
g89
ssg70
g2070
sg63
(lp2082
S':'
asbag56
(g77
g58
NtRp2083
(dp2084
g61
(dp2085
sg70
g2070
sg63
(lp2086
g56
(g57
g58
NtRp2087
(dp2088
g61
(dp2089
g69
I4
ssg70
g2083
sg63
(lp2090
g56
(g65
g58
NtRp2091
(dp2092
g61
(dp2093
g69
I3
ssg70
Nsg63
(lp2094
g56
(g72
g58
NtRp2095
(dp2096
g61
(dp2097
sg70
g2091
sg63
(lp2098
g56
(g77
g58
NtRp2099
(dp2100
g61
(dp2101
sg70
g2095
sg63
(lp2102
g56
(g57
g58
NtRp2103
(dp2104
g61
(dp2105
g69
I3
ssg70
g2099
sg63
(lp2106
S'1'
asbasbasbag56
(g72
g58
NtRp2107
(dp2108
g61
(dp2109
sg70
g2091
sg63
(lp2110
g56
(g77
g58
NtRp2111
(dp2112
g61
(dp2113
sg70
g2107
sg63
(lp2114
g56
(g57
g58
NtRp2115
(dp2116
g61
(dp2117
g69
I3
ssg70
g2111
sg63
(lp2118
S'0'
asbasbasbasbasbasbasbasbasbasbasbag56
(g72
g58
NtRp2119
(dp2120
g61
(dp2121
sg70
g66
sg63
(lp2122
g56
(g77
g58
NtRp2123
(dp2124
g61
(dp2125
g81
g82
ssg70
g2119
sg63
(lp2126
S'extension'
p2127
asbag56
(g77
g58
NtRp2128
(dp2129
g61
(dp2130
g88
g89
ssg70
g2119
sg63
(lp2131
S':'
asbag56
(g77
g58
NtRp2132
(dp2133
g61
(dp2134
sg70
g2119
sg63
(lp2135
g56
(g57
g58
NtRp2136
(dp2137
g61
(dp2138
g69
I5
ssg70
g2132
sg63
(lp2139
S'html'
p2140
asbasbasbag56
(g72
g58
NtRp2141
(dp2142
g61
(dp2143
sg70
g66
sg63
(lp2144
g56
(g77
g58
NtRp2145
(dp2146
g61
(dp2147
g81
g82
ssg70
g2141
sg63
(lp2148
S'folder'
p2149
asbag56
(g77
g58
NtRp2150
(dp2151
g61
(dp2152
g88
g89
ssg70
g2141
sg63
(lp2153
S':'
asbag56
(g77
g58
NtRp2154
(dp2155
g61
(dp2156
sg70
g2141
sg63
(lp2157
g56
(g57
g58
NtRp2158
(dp2159
g61
(dp2160
g69
I5
ssg70
g2154
sg63
(lp2161
S'/home/ian/Dropbox/Web_Pages/web2py-linux/applications/places/'
p2162
asbasbasbag56
(g72
g58
NtRp2163
(dp2164
g61
(dp2165
sg70
g66
sg63
(lp2166
g56
(g77
g58
NtRp2167
(dp2168
g61
(dp2169
g81
g82
ssg70
g2163
sg63
(lp2170
S'function'
p2171
asbag56
(g77
g58
NtRp2172
(dp2173
g61
(dp2174
g88
g89
ssg70
g2163
sg63
(lp2175
S':'
asbag56
(g77
g58
NtRp2176
(dp2177
g61
(dp2178
sg70
g2163
sg63
(lp2179
g56
(g57
g58
NtRp2180
(dp2181
g61
(dp2182
g69
I5
ssg70
g2176
sg63
(lp2183
S'index'
p2184
asbasbasbag56
(g72
g58
NtRp2185
(dp2186
g61
(dp2187
sg70
g66
sg63
(lp2188
g56
(g77
g58
NtRp2189
(dp2190
g61
(dp2191
g81
g82
ssg70
g2185
sg63
(lp2192
S'get_vars'
p2193
asbag56
(g77
g58
NtRp2194
(dp2195
g61
(dp2196
g88
g89
ssg70
g2185
sg63
(lp2197
S':'
asbag56
(g77
g58
NtRp2198
(dp2199
g61
(dp2200
sg70
g2185
sg63
(lp2201
g56
(g57
g58
NtRp2202
(dp2203
g61
(dp2204
g69
I5
ssg70
g2198
sg63
(lp2205
g56
(g65
g58
NtRp2206
(dp2207
g61
(dp2208
g69
I4
ssg70
Nsg63
(lp2209
sbasbasbasbag56
(g72
g58
NtRp2210
(dp2211
g61
(dp2212
sg70
g66
sg63
(lp2213
g56
(g77
g58
NtRp2214
(dp2215
g61
(dp2216
g81
g82
ssg70
g2210
sg63
(lp2217
S'global_settings'
p2218
asbag56
(g77
g58
NtRp2219
(dp2220
g61
(dp2221
g88
g89
ssg70
g2210
sg63
(lp2222
S':'
asbag56
(g77
g58
NtRp2223
(dp2224
g61
(dp2225
sg70
g2210
sg63
(lp2226
g56
(g57
g58
NtRp2227
(dp2228
g61
(dp2229
g69
I5
ssg70
g2223
sg63
(lp2230
g56
(g65
g58
NtRp2231
(dp2232
g61
(dp2233
g69
I4
ssg70
Nsg63
(lp2234
g56
(g72
g58
NtRp2235
(dp2236
g61
(dp2237
sg70
g2231
sg63
(lp2238
g56
(g77
g58
NtRp2239
(dp2240
g61
(dp2241
g81
g82
ssg70
g2235
sg63
(lp2242
g1203
asbag56
(g77
g58
NtRp2243
(dp2244
g61
(dp2245
g88
g89
ssg70
g2235
sg63
(lp2246
S':'
asbag56
(g77
g58
NtRp2247
(dp2248
g61
(dp2249
sg70
g2235
sg63
(lp2250
g56
(g57
g58
NtRp2251
(dp2252
g61
(dp2253
g69
I4
ssg70
g2247
sg63
(lp2254
S"set(['/home/ian/Dropbox/Web_Pages/web2py-linux/applications/blog/', '/home/ian/Dropbox/Web_Pages/web2py-linux/applications/places/', '/home/ian/Dropbox/Web_Pages/web2py-linux/applications/Paideia/', '/home/ian/Dropbox/Web_Pages/web2py-linux/applications/admin/', '/home/ian/Dropbox/Web_Pages/web2py-linux/applications/welcome/'])"
p2255
asbasbasbag56
(g72
g58
NtRp2256
(dp2257
g61
(dp2258
sg70
g2231
sg63
(lp2259
g56
(g77
g58
NtRp2260
(dp2261
g61
(dp2262
g81
g82
ssg70
g2256
sg63
(lp2263
g1225
asbag56
(g77
g58
NtRp2264
(dp2265
g61
(dp2266
g88
g89
ssg70
g2256
sg63
(lp2267
S':'
asbag56
(g77
g58
NtRp2268
(dp2269
g61
(dp2270
sg70
g2256
sg63
(lp2271
g56
(g57
g58
NtRp2272
(dp2273
g61
(dp2274
g69
I4
ssg70
g2268
sg63
(lp2275
g1238
asbasbasbag56
(g72
g58
NtRp2276
(dp2277
g61
(dp2278
sg70
g2231
sg63
(lp2279
g56
(g77
g58
NtRp2280
(dp2281
g61
(dp2282
g81
g82
ssg70
g2276
sg63
(lp2283
g1247
asbag56
(g77
g58
NtRp2284
(dp2285
g61
(dp2286
g88
g89
ssg70
g2276
sg63
(lp2287
S':'
asbag56
(g77
g58
NtRp2288
(dp2289
g61
(dp2290
sg70
g2276
sg63
(lp2291
g56
(g57
g58
NtRp2292
(dp2293
g61
(dp2294
g69
I4
ssg70
g2288
sg63
(lp2295
g56
(g65
g58
NtRp2296
(dp2297
g61
(dp2298
g69
I3
ssg70
Nsg63
(lp2299
sbasbasbasbag56
(g72
g58
NtRp2300
(dp2301
g61
(dp2302
sg70
g2231
sg63
(lp2303
g56
(g77
g58
NtRp2304
(dp2305
g61
(dp2306
g81
g82
ssg70
g2300
sg63
(lp2307
g1272
asbag56
(g77
g58
NtRp2308
(dp2309
g61
(dp2310
g88
g89
ssg70
g2300
sg63
(lp2311
S':'
asbag56
(g77
g58
NtRp2312
(dp2313
g61
(dp2314
sg70
g2300
sg63
(lp2315
g56
(g57
g58
NtRp2316
(dp2317
g61
(dp2318
g69
I4
ssg70
g2312
sg63
(lp2319
S"<Values at 0x2723170: {'verbose': False, 'ip': '127.0.0.1', 'shutdown_timeout': 5, 'taskbar': False, 'nocron': False, 'pid_filename': 'httpserver.pid', 'maxthreads': None, 'softcron': False, 'server_name': 'uriel', 'bpython': False, 'nogui': False, 'port': 8000, 'extcron': False, 'debuglevel': 30, 'test': None, 'folder': '/home/ian/Dropbox/Web_Pages/web2py-linux', 'config': '', 'import_models': False, 'winservice': '', 'shell': None, 'run': '', 'log_filename': 'httpserver.log', 'args': [''], 'ssl_ca_certificate': None, 'scheduler': None, 'profiler_filename': None, 'ssl_private_key': '', 'password': '<ask>', 'request_queue_size': 5, 'ssl_certificate': '', 'cronjob': False, 'plain': False, 'quiet': False, 'interfaces': None, 'minthreads': None, 'timeout': 10, 'numthreads': None, 'nobanner': False}>"
p2320
asbasbasbag56
(g72
g58
NtRp2321
(dp2322
g61
(dp2323
sg70
g2231
sg63
(lp2324
g56
(g77
g58
NtRp2325
(dp2326
g61
(dp2327
g81
g82
ssg70
g2321
sg63
(lp2328
g1294
asbag56
(g77
g58
NtRp2329
(dp2330
g61
(dp2331
g88
g89
ssg70
g2321
sg63
(lp2332
S':'
asbag56
(g77
g58
NtRp2333
(dp2334
g61
(dp2335
sg70
g2321
sg63
(lp2336
g56
(g57
g58
NtRp2337
(dp2338
g61
(dp2339
g69
I4
ssg70
g2333
sg63
(lp2340
S'set([])'
p2341
asbasbasbag56
(g72
g58
NtRp2342
(dp2343
g61
(dp2344
sg70
g2231
sg63
(lp2345
g56
(g77
g58
NtRp2346
(dp2347
g61
(dp2348
g81
g82
ssg70
g2342
sg63
(lp2349
g1316
asbag56
(g77
g58
NtRp2350
(dp2351
g61
(dp2352
g88
g89
ssg70
g2342
sg63
(lp2353
S':'
asbag56
(g77
g58
NtRp2354
(dp2355
g61
(dp2356
sg70
g2342
sg63
(lp2357
g56
(g57
g58
NtRp2358
(dp2359
g61
(dp2360
g69
I4
ssg70
g2354
sg63
(lp2361
g99
asbasbasbag56
(g72
g58
NtRp2362
(dp2363
g61
(dp2364
sg70
g2231
sg63
(lp2365
g56
(g77
g58
NtRp2366
(dp2367
g61
(dp2368
g81
g82
ssg70
g2362
sg63
(lp2369
g1337
asbag56
(g77
g58
NtRp2370
(dp2371
g61
(dp2372
g88
g89
ssg70
g2362
sg63
(lp2373
S':'
asbag56
(g77
g58
NtRp2374
(dp2375
g61
(dp2376
sg70
g2362
sg63
(lp2377
g56
(g57
g58
NtRp2378
(dp2379
g61
(dp2380
g69
I4
ssg70
g2374
sg63
(lp2381
g1350
asbasbasbag56
(g72
g58
NtRp2382
(dp2383
g61
(dp2384
sg70
g2231
sg63
(lp2385
g56
(g77
g58
NtRp2386
(dp2387
g61
(dp2388
g81
g82
ssg70
g2382
sg63
(lp2389
g1557
asbag56
(g77
g58
NtRp2390
(dp2391
g61
(dp2392
g88
g89
ssg70
g2382
sg63
(lp2393
S':'
asbag56
(g77
g58
NtRp2394
(dp2395
g61
(dp2396
sg70
g2382
sg63
(lp2397
g56
(g57
g58
NtRp2398
(dp2399
g61
(dp2400
g69
I4
ssg70
g2394
sg63
(lp2401
g99
asbasbasbag56
(g72
g58
NtRp2402
(dp2403
g61
(dp2404
sg70
g2231
sg63
(lp2405
g56
(g77
g58
NtRp2406
(dp2407
g61
(dp2408
g81
g82
ssg70
g2402
sg63
(lp2409
g1795
asbag56
(g77
g58
NtRp2410
(dp2411
g61
(dp2412
g88
g89
ssg70
g2402
sg63
(lp2413
S':'
asbag56
(g77
g58
NtRp2414
(dp2415
g61
(dp2416
sg70
g2402
sg63
(lp2417
g56
(g57
g58
NtRp2418
(dp2419
g61
(dp2420
g69
I4
ssg70
g2414
sg63
(lp2421
g1808
asbasbasbag56
(g72
g58
NtRp2422
(dp2423
g61
(dp2424
sg70
g2231
sg63
(lp2425
g56
(g77
g58
NtRp2426
(dp2427
g61
(dp2428
g81
g82
ssg70
g2422
sg63
(lp2429
g1838
asbag56
(g77
g58
NtRp2430
(dp2431
g61
(dp2432
g88
g89
ssg70
g2422
sg63
(lp2433
S':'
asbag56
(g77
g58
NtRp2434
(dp2435
g61
(dp2436
sg70
g2422
sg63
(lp2437
g56
(g57
g58
NtRp2438
(dp2439
g61
(dp2440
g69
I4
ssg70
g2434
sg63
(lp2441
g56
(g65
g58
NtRp2442
(dp2443
g61
(dp2444
g69
I3
ssg70
Nsg63
(lp2445
g56
(g72
g58
NtRp2446
(dp2447
g61
(dp2448
sg70
g2442
sg63
(lp2449
g56
(g77
g58
NtRp2450
(dp2451
g61
(dp2452
sg70
g2446
sg63
(lp2453
g56
(g57
g58
NtRp2454
(dp2455
g61
(dp2456
g69
I3
ssg70
g2450
sg63
(lp2457
S'1'
asbasbasbag56
(g72
g58
NtRp2458
(dp2459
g61
(dp2460
sg70
g2442
sg63
(lp2461
g56
(g77
g58
NtRp2462
(dp2463
g61
(dp2464
sg70
g2458
sg63
(lp2465
g56
(g57
g58
NtRp2466
(dp2467
g61
(dp2468
g69
I3
ssg70
g2462
sg63
(lp2469
S'99'
p2470
asbasbasbag56
(g72
g58
NtRp2471
(dp2472
g61
(dp2473
sg70
g2442
sg63
(lp2474
g56
(g77
g58
NtRp2475
(dp2476
g61
(dp2477
sg70
g2471
sg63
(lp2478
g56
(g57
g58
NtRp2479
(dp2480
g61
(dp2481
g69
I3
ssg70
g2475
sg63
(lp2482
S'2'
asbasbasbag56
(g72
g58
NtRp2483
(dp2484
g61
(dp2485
sg70
g2442
sg63
(lp2486
g56
(g77
g58
NtRp2487
(dp2488
g61
(dp2489
sg70
g2483
sg63
(lp2490
g56
(g57
g58
NtRp2491
(dp2492
g61
(dp2493
g69
I3
ssg70
g2487
sg63
(lp2494
S'datetime.datetime(2011, 9, 26, 6, 55, 33)'
p2495
asbasbasbag56
(g72
g58
NtRp2496
(dp2497
g61
(dp2498
sg70
g2442
sg63
(lp2499
g56
(g77
g58
NtRp2500
(dp2501
g61
(dp2502
sg70
g2496
sg63
(lp2503
g56
(g57
g58
NtRp2504
(dp2505
g61
(dp2506
g69
I3
ssg70
g2500
sg63
(lp2507
g1917
asbasbasbasbasbasbasbasbasbasbasbag56
(g72
g58
NtRp2508
(dp2509
g61
(dp2510
sg70
g66
sg63
(lp2511
g56
(g77
g58
NtRp2512
(dp2513
g61
(dp2514
g81
g82
ssg70
g2508
sg63
(lp2515
S'is_https'
p2516
asbag56
(g77
g58
NtRp2517
(dp2518
g61
(dp2519
g88
g89
ssg70
g2508
sg63
(lp2520
S':'
asbag56
(g77
g58
NtRp2521
(dp2522
g61
(dp2523
sg70
g2508
sg63
(lp2524
g56
(g57
g58
NtRp2525
(dp2526
g61
(dp2527
g69
I5
ssg70
g2521
sg63
(lp2528
g99
asbasbasbag56
(g72
g58
NtRp2529
(dp2530
g61
(dp2531
sg70
g66
sg63
(lp2532
g56
(g77
g58
NtRp2533
(dp2534
g61
(dp2535
g81
g82
ssg70
g2529
sg63
(lp2536
S'is_local'
p2537
asbag56
(g77
g58
NtRp2538
(dp2539
g61
(dp2540
g88
g89
ssg70
g2529
sg63
(lp2541
S':'
asbag56
(g77
g58
NtRp2542
(dp2543
g61
(dp2544
sg70
g2529
sg63
(lp2545
g56
(g57
g58
NtRp2546
(dp2547
g61
(dp2548
g69
I5
ssg70
g2542
sg63
(lp2549
g2026
asbasbasbag56
(g72
g58
NtRp2550
(dp2551
g61
(dp2552
sg70
g66
sg63
(lp2553
g56
(g77
g58
NtRp2554
(dp2555
g61
(dp2556
g81
g82
ssg70
g2550
sg63
(lp2557
S'is_restful'
p2558
asbag56
(g77
g58
NtRp2559
(dp2560
g61
(dp2561
g88
g89
ssg70
g2550
sg63
(lp2562
S':'
asbag56
(g77
g58
NtRp2563
(dp2564
g61
(dp2565
sg70
g2550
sg63
(lp2566
g56
(g57
g58
NtRp2567
(dp2568
g61
(dp2569
g69
I5
ssg70
g2563
sg63
(lp2570
g99
asbasbasbag56
(g72
g58
NtRp2571
(dp2572
g61
(dp2573
sg70
g66
sg63
(lp2574
g56
(g77
g58
NtRp2575
(dp2576
g61
(dp2577
g81
g82
ssg70
g2571
sg63
(lp2578
S'now'
p2579
asbag56
(g77
g58
NtRp2580
(dp2581
g61
(dp2582
g88
g89
ssg70
g2571
sg63
(lp2583
S':'
asbag56
(g77
g58
NtRp2584
(dp2585
g61
(dp2586
sg70
g2571
sg63
(lp2587
g56
(g57
g58
NtRp2588
(dp2589
g61
(dp2590
g69
I5
ssg70
g2584
sg63
(lp2591
S'datetime.datetime(2011, 9, 30, 16, 5, 12, 364718)'
p2592
asbasbasbag56
(g72
g58
NtRp2593
(dp2594
g61
(dp2595
sg70
g66
sg63
(lp2596
g56
(g77
g58
NtRp2597
(dp2598
g61
(dp2599
g81
g82
ssg70
g2593
sg63
(lp2600
S'post_vars'
p2601
asbag56
(g77
g58
NtRp2602
(dp2603
g61
(dp2604
g88
g89
ssg70
g2593
sg63
(lp2605
S':'
asbag56
(g77
g58
NtRp2606
(dp2607
g61
(dp2608
sg70
g2593
sg63
(lp2609
g56
(g57
g58
NtRp2610
(dp2611
g61
(dp2612
g69
I5
ssg70
g2606
sg63
(lp2613
g56
(g65
g58
NtRp2614
(dp2615
g61
(dp2616
g69
I4
ssg70
Nsg63
(lp2617
sbasbasbasbag56
(g72
g58
NtRp2618
(dp2619
g61
(dp2620
sg70
g66
sg63
(lp2621
g56
(g77
g58
NtRp2622
(dp2623
g61
(dp2624
g81
g82
ssg70
g2618
sg63
(lp2625
S'url'
p2626
asbag56
(g77
g58
NtRp2627
(dp2628
g61
(dp2629
g88
g89
ssg70
g2618
sg63
(lp2630
S':'
asbag56
(g77
g58
NtRp2631
(dp2632
g61
(dp2633
sg70
g2618
sg63
(lp2634
g56
(g57
g58
NtRp2635
(dp2636
g61
(dp2637
g69
I5
ssg70
g2631
sg63
(lp2638
S'/places/default/index'
p2639
asbasbasbag56
(g72
g58
NtRp2640
(dp2641
g61
(dp2642
sg70
g66
sg63
(lp2643
g56
(g77
g58
NtRp2644
(dp2645
g61
(dp2646
g81
g82
ssg70
g2640
sg63
(lp2647
S'utcnow'
p2648
asbag56
(g77
g58
NtRp2649
(dp2650
g61
(dp2651
g88
g89
ssg70
g2640
sg63
(lp2652
S':'
asbag56
(g77
g58
NtRp2653
(dp2654
g61
(dp2655
sg70
g2640
sg63
(lp2656
g56
(g57
g58
NtRp2657
(dp2658
g61
(dp2659
g69
I5
ssg70
g2653
sg63
(lp2660
S'datetime.datetime(2011, 9, 30, 20, 5, 12, 364778)'
p2661
asbasbasbag56
(g72
g58
NtRp2662
(dp2663
g61
(dp2664
sg70
g66
sg63
(lp2665
g56
(g77
g58
NtRp2666
(dp2667
g61
(dp2668
g81
g82
ssg70
g2662
sg63
(lp2669
S'uuid'
p2670
asbag56
(g77
g58
NtRp2671
(dp2672
g61
(dp2673
g88
g89
ssg70
g2662
sg63
(lp2674
S':'
asbag56
(g77
g58
NtRp2675
(dp2676
g61
(dp2677
sg70
g2662
sg63
(lp2678
g56
(g57
g58
NtRp2679
(dp2680
g61
(dp2681
g69
I5
ssg70
g2675
sg63
(lp2682
S'places/127.0.0.1.2011-09-30.16-05-12.b072ccf7-632a-4878-abe9-943562f9ec50'
p2683
asbasbasbag56
(g72
g58
NtRp2684
(dp2685
g61
(dp2686
sg70
g66
sg63
(lp2687
g56
(g77
g58
NtRp2688
(dp2689
g61
(dp2690
g81
g82
ssg70
g2684
sg63
(lp2691
S'vars'
p2692
asbag56
(g77
g58
NtRp2693
(dp2694
g61
(dp2695
g88
g89
ssg70
g2684
sg63
(lp2696
S':'
asbag56
(g77
g58
NtRp2697
(dp2698
g61
(dp2699
sg70
g2684
sg63
(lp2700
g56
(g57
g58
NtRp2701
(dp2702
g61
(dp2703
g69
I5
ssg70
g2697
sg63
(lp2704
g56
(g65
g58
NtRp2705
(dp2706
g61
(dp2707
g69
I4
ssg70
Nsg63
(lp2708
sbasbasbasbag56
(g72
g58
NtRp2709
(dp2710
g61
(dp2711
sg70
g66
sg63
(lp2712
g56
(g77
g58
NtRp2713
(dp2714
g61
(dp2715
g81
g82
ssg70
g2709
sg63
(lp2716
S'wsgi'
p2717
asbag56
(g77
g58
NtRp2718
(dp2719
g61
(dp2720
g88
g89
ssg70
g2709
sg63
(lp2721
S':'
asbag56
(g77
g58
NtRp2722
(dp2723
g61
(dp2724
sg70
g2709
sg63
(lp2725
g56
(g57
g58
NtRp2726
(dp2727
g61
(dp2728
g69
I5
ssg70
g2722
sg63
(lp2729
g56
(g65
g58
NtRp2730
(dp2731
g61
(dp2732
g69
I4
ssg70
Nsg63
(lp2733
g56
(g72
g58
NtRp2734
(dp2735
g61
(dp2736
sg70
g2730
sg63
(lp2737
g56
(g77
g58
NtRp2738
(dp2739
g61
(dp2740
g81
g82
ssg70
g2734
sg63
(lp2741
S'environ'
p2742
asbag56
(g77
g58
NtRp2743
(dp2744
g61
(dp2745
g88
g89
ssg70
g2734
sg63
(lp2746
S':'
asbag56
(g77
g58
NtRp2747
(dp2748
g61
(dp2749
sg70
g2734
sg63
(lp2750
g56
(g57
g58
NtRp2751
(dp2752
g61
(dp2753
g69
I4
ssg70
g2747
sg63
(lp2754
g56
(g65
g58
NtRp2755
(dp2756
g61
(dp2757
g69
I3
ssg70
Nsg63
(lp2758
g56
(g72
g58
NtRp2759
(dp2760
g61
(dp2761
sg70
g2755
sg63
(lp2762
g56
(g77
g58
NtRp2763
(dp2764
g61
(dp2765
g81
g82
ssg70
g2759
sg63
(lp2766
S'HTTP_ACCEPT'
p2767
asbag56
(g77
g58
NtRp2768
(dp2769
g61
(dp2770
g88
g89
ssg70
g2759
sg63
(lp2771
S':'
asbag56
(g77
g58
NtRp2772
(dp2773
g61
(dp2774
sg70
g2759
sg63
(lp2775
g56
(g57
g58
NtRp2776
(dp2777
g61
(dp2778
g69
I3
ssg70
g2772
sg63
(lp2779
g1372
asbasbasbag56
(g72
g58
NtRp2780
(dp2781
g61
(dp2782
sg70
g2755
sg63
(lp2783
g56
(g77
g58
NtRp2784
(dp2785
g61
(dp2786
g81
g82
ssg70
g2780
sg63
(lp2787
S'HTTP_ACCEPT_CHARSET'
p2788
asbag56
(g77
g58
NtRp2789
(dp2790
g61
(dp2791
g88
g89
ssg70
g2780
sg63
(lp2792
S':'
asbag56
(g77
g58
NtRp2793
(dp2794
g61
(dp2795
sg70
g2780
sg63
(lp2796
g56
(g57
g58
NtRp2797
(dp2798
g61
(dp2799
g69
I3
ssg70
g2793
sg63
(lp2800
g1394
asbasbasbag56
(g72
g58
NtRp2801
(dp2802
g61
(dp2803
sg70
g2755
sg63
(lp2804
g56
(g77
g58
NtRp2805
(dp2806
g61
(dp2807
g81
g82
ssg70
g2801
sg63
(lp2808
S'HTTP_ACCEPT_ENCODING'
p2809
asbag56
(g77
g58
NtRp2810
(dp2811
g61
(dp2812
g88
g89
ssg70
g2801
sg63
(lp2813
S':'
asbag56
(g77
g58
NtRp2814
(dp2815
g61
(dp2816
sg70
g2801
sg63
(lp2817
g56
(g57
g58
NtRp2818
(dp2819
g61
(dp2820
g69
I3
ssg70
g2814
sg63
(lp2821
g1416
asbasbasbag56
(g72
g58
NtRp2822
(dp2823
g61
(dp2824
sg70
g2755
sg63
(lp2825
g56
(g77
g58
NtRp2826
(dp2827
g61
(dp2828
g81
g82
ssg70
g2822
sg63
(lp2829
S'HTTP_ACCEPT_LANGUAGE'
p2830
asbag56
(g77
g58
NtRp2831
(dp2832
g61
(dp2833
g88
g89
ssg70
g2822
sg63
(lp2834
S':'
asbag56
(g77
g58
NtRp2835
(dp2836
g61
(dp2837
sg70
g2822
sg63
(lp2838
g56
(g57
g58
NtRp2839
(dp2840
g61
(dp2841
g69
I3
ssg70
g2835
sg63
(lp2842
g1438
asbasbasbag56
(g72
g58
NtRp2843
(dp2844
g61
(dp2845
sg70
g2755
sg63
(lp2846
g56
(g77
g58
NtRp2847
(dp2848
g61
(dp2849
g81
g82
ssg70
g2843
sg63
(lp2850
S'HTTP_CACHE_CONTROL'
p2851
asbag56
(g77
g58
NtRp2852
(dp2853
g61
(dp2854
g88
g89
ssg70
g2843
sg63
(lp2855
S':'
asbag56
(g77
g58
NtRp2856
(dp2857
g61
(dp2858
sg70
g2843
sg63
(lp2859
g56
(g57
g58
NtRp2860
(dp2861
g61
(dp2862
g69
I3
ssg70
g2856
sg63
(lp2863
g1460
asbasbasbag56
(g72
g58
NtRp2864
(dp2865
g61
(dp2866
sg70
g2755
sg63
(lp2867
g56
(g77
g58
NtRp2868
(dp2869
g61
(dp2870
g81
g82
ssg70
g2864
sg63
(lp2871
S'HTTP_CONNECTION'
p2872
asbag56
(g77
g58
NtRp2873
(dp2874
g61
(dp2875
g88
g89
ssg70
g2864
sg63
(lp2876
S':'
asbag56
(g77
g58
NtRp2877
(dp2878
g61
(dp2879
sg70
g2864
sg63
(lp2880
g56
(g57
g58
NtRp2881
(dp2882
g61
(dp2883
g69
I3
ssg70
g2877
sg63
(lp2884
g1482
asbasbasbag56
(g72
g58
NtRp2885
(dp2886
g61
(dp2887
sg70
g2755
sg63
(lp2888
g56
(g77
g58
NtRp2889
(dp2890
g61
(dp2891
g81
g82
ssg70
g2885
sg63
(lp2892
S'HTTP_COOKIE'
p2893
asbag56
(g77
g58
NtRp2894
(dp2895
g61
(dp2896
g88
g89
ssg70
g2885
sg63
(lp2897
S':'
asbag56
(g77
g58
NtRp2898
(dp2899
g61
(dp2900
sg70
g2885
sg63
(lp2901
g56
(g57
g58
NtRp2902
(dp2903
g61
(dp2904
g69
I3
ssg70
g2898
sg63
(lp2905
g1504
asbasbasbag56
(g72
g58
NtRp2906
(dp2907
g61
(dp2908
sg70
g2755
sg63
(lp2909
g56
(g77
g58
NtRp2910
(dp2911
g61
(dp2912
g81
g82
ssg70
g2906
sg63
(lp2913
S'HTTP_HOST'
p2914
asbag56
(g77
g58
NtRp2915
(dp2916
g61
(dp2917
g88
g89
ssg70
g2906
sg63
(lp2918
S':'
asbag56
(g77
g58
NtRp2919
(dp2920
g61
(dp2921
sg70
g2906
sg63
(lp2922
g56
(g57
g58
NtRp2923
(dp2924
g61
(dp2925
g69
I3
ssg70
g2919
sg63
(lp2926
g1526
asbasbasbag56
(g72
g58
NtRp2927
(dp2928
g61
(dp2929
sg70
g2755
sg63
(lp2930
g56
(g77
g58
NtRp2931
(dp2932
g61
(dp2933
g81
g82
ssg70
g2927
sg63
(lp2934
S'HTTP_USER_AGENT'
p2935
asbag56
(g77
g58
NtRp2936
(dp2937
g61
(dp2938
g88
g89
ssg70
g2927
sg63
(lp2939
S':'
asbag56
(g77
g58
NtRp2940
(dp2941
g61
(dp2942
sg70
g2927
sg63
(lp2943
g56
(g57
g58
NtRp2944
(dp2945
g61
(dp2946
g69
I3
ssg70
g2940
sg63
(lp2947
g1548
asbasbasbag56
(g72
g58
NtRp2948
(dp2949
g61
(dp2950
sg70
g2755
sg63
(lp2951
g56
(g77
g58
NtRp2952
(dp2953
g61
(dp2954
g81
g82
ssg70
g2948
sg63
(lp2955
S'PATH_INFO'
p2956
asbag56
(g77
g58
NtRp2957
(dp2958
g61
(dp2959
g88
g89
ssg70
g2948
sg63
(lp2960
S':'
asbag56
(g77
g58
NtRp2961
(dp2962
g61
(dp2963
sg70
g2948
sg63
(lp2964
g56
(g57
g58
NtRp2965
(dp2966
g61
(dp2967
g69
I3
ssg70
g2961
sg63
(lp2968
g1591
asbasbasbag56
(g72
g58
NtRp2969
(dp2970
g61
(dp2971
sg70
g2755
sg63
(lp2972
g56
(g77
g58
NtRp2973
(dp2974
g61
(dp2975
g81
g82
ssg70
g2969
sg63
(lp2976
S'QUERY_STRING'
p2977
asbag56
(g77
g58
NtRp2978
(dp2979
g61
(dp2980
g88
g89
ssg70
g2969
sg63
(lp2981
S':'
asbag56
(g77
g58
NtRp2982
(dp2983
g61
(dp2984
sg70
g2969
sg63
(lp2985
g56
(g57
g58
NtRp2986
(dp2987
g61
(dp2988
g69
I3
ssg70
g2982
sg63
(lp2989
S''
asbasbasbag56
(g72
g58
NtRp2990
(dp2991
g61
(dp2992
sg70
g2755
sg63
(lp2993
g56
(g77
g58
NtRp2994
(dp2995
g61
(dp2996
g81
g82
ssg70
g2990
sg63
(lp2997
S'REMOTE_ADDR'
p2998
asbag56
(g77
g58
NtRp2999
(dp3000
g61
(dp3001
g88
g89
ssg70
g2990
sg63
(lp3002
S':'
asbag56
(g77
g58
NtRp3003
(dp3004
g61
(dp3005
sg70
g2990
sg63
(lp3006
g56
(g57
g58
NtRp3007
(dp3008
g61
(dp3009
g69
I3
ssg70
g3003
sg63
(lp3010
g189
asbasbasbag56
(g72
g58
NtRp3011
(dp3012
g61
(dp3013
sg70
g2755
sg63
(lp3014
g56
(g77
g58
NtRp3015
(dp3016
g61
(dp3017
g81
g82
ssg70
g3011
sg63
(lp3018
S'REMOTE_PORT'
p3019
asbag56
(g77
g58
NtRp3020
(dp3021
g61
(dp3022
g88
g89
ssg70
g3011
sg63
(lp3023
S':'
asbag56
(g77
g58
NtRp3024
(dp3025
g61
(dp3026
sg70
g3011
sg63
(lp3027
g56
(g57
g58
NtRp3028
(dp3029
g61
(dp3030
g69
I3
ssg70
g3024
sg63
(lp3031
g1655
asbasbasbag56
(g72
g58
NtRp3032
(dp3033
g61
(dp3034
sg70
g2755
sg63
(lp3035
g56
(g77
g58
NtRp3036
(dp3037
g61
(dp3038
g81
g82
ssg70
g3032
sg63
(lp3039
S'REQUEST_METHOD'
p3040
asbag56
(g77
g58
NtRp3041
(dp3042
g61
(dp3043
g88
g89
ssg70
g3032
sg63
(lp3044
S':'
asbag56
(g77
g58
NtRp3045
(dp3046
g61
(dp3047
sg70
g3032
sg63
(lp3048
g56
(g57
g58
NtRp3049
(dp3050
g61
(dp3051
g69
I3
ssg70
g3045
sg63
(lp3052
g1677
asbasbasbag56
(g72
g58
NtRp3053
(dp3054
g61
(dp3055
sg70
g2755
sg63
(lp3056
g56
(g77
g58
NtRp3057
(dp3058
g61
(dp3059
g81
g82
ssg70
g3053
sg63
(lp3060
S'SCRIPT_NAME'
p3061
asbag56
(g77
g58
NtRp3062
(dp3063
g61
(dp3064
g88
g89
ssg70
g3053
sg63
(lp3065
S':'
asbag56
(g77
g58
NtRp3066
(dp3067
g61
(dp3068
sg70
g3053
sg63
(lp3069
g56
(g57
g58
NtRp3070
(dp3071
g61
(dp3072
g69
I3
ssg70
g3066
sg63
(lp3073
S''
asbasbasbag56
(g72
g58
NtRp3074
(dp3075
g61
(dp3076
sg70
g2755
sg63
(lp3077
g56
(g77
g58
NtRp3078
(dp3079
g61
(dp3080
g81
g82
ssg70
g3074
sg63
(lp3081
S'SERVER_NAME'
p3082
asbag56
(g77
g58
NtRp3083
(dp3084
g61
(dp3085
g88
g89
ssg70
g3074
sg63
(lp3086
S':'
asbag56
(g77
g58
NtRp3087
(dp3088
g61
(dp3089
sg70
g3074
sg63
(lp3090
g56
(g57
g58
NtRp3091
(dp3092
g61
(dp3093
g69
I3
ssg70
g3087
sg63
(lp3094
g1720
asbasbasbag56
(g72
g58
NtRp3095
(dp3096
g61
(dp3097
sg70
g2755
sg63
(lp3098
g56
(g77
g58
NtRp3099
(dp3100
g61
(dp3101
g81
g82
ssg70
g3095
sg63
(lp3102
S'SERVER_PORT'
p3103
asbag56
(g77
g58
NtRp3104
(dp3105
g61
(dp3106
g88
g89
ssg70
g3095
sg63
(lp3107
S':'
asbag56
(g77
g58
NtRp3108
(dp3109
g61
(dp3110
sg70
g3095
sg63
(lp3111
g56
(g57
g58
NtRp3112
(dp3113
g61
(dp3114
g69
I3
ssg70
g3108
sg63
(lp3115
g1742
asbasbasbag56
(g72
g58
NtRp3116
(dp3117
g61
(dp3118
sg70
g2755
sg63
(lp3119
g56
(g77
g58
NtRp3120
(dp3121
g61
(dp3122
g81
g82
ssg70
g3116
sg63
(lp3123
S'SERVER_PROTOCOL'
p3124
asbag56
(g77
g58
NtRp3125
(dp3126
g61
(dp3127
g88
g89
ssg70
g3116
sg63
(lp3128
S':'
asbag56
(g77
g58
NtRp3129
(dp3130
g61
(dp3131
sg70
g3116
sg63
(lp3132
g56
(g57
g58
NtRp3133
(dp3134
g61
(dp3135
g69
I3
ssg70
g3129
sg63
(lp3136
g1764
asbasbasbag56
(g72
g58
NtRp3137
(dp3138
g61
(dp3139
sg70
g2755
sg63
(lp3140
g56
(g77
g58
NtRp3141
(dp3142
g61
(dp3143
g81
g82
ssg70
g3137
sg63
(lp3144
S'SERVER_SOFTWARE'
p3145
asbag56
(g77
g58
NtRp3146
(dp3147
g61
(dp3148
g88
g89
ssg70
g3137
sg63
(lp3149
S':'
asbag56
(g77
g58
NtRp3150
(dp3151
g61
(dp3152
sg70
g3137
sg63
(lp3153
g56
(g57
g58
NtRp3154
(dp3155
g61
(dp3156
g69
I3
ssg70
g3150
sg63
(lp3157
g1786
asbasbasbag56
(g72
g58
NtRp3158
(dp3159
g61
(dp3160
sg70
g2755
sg63
(lp3161
g56
(g77
g58
NtRp3162
(dp3163
g61
(dp3164
g81
g82
ssg70
g3158
sg63
(lp3165
S'wsgi.errors'
p3166
asbag56
(g77
g58
NtRp3167
(dp3168
g61
(dp3169
g88
g89
ssg70
g3158
sg63
(lp3170
S':'
asbag56
(g77
g58
NtRp3171
(dp3172
g61
(dp3173
sg70
g3158
sg63
(lp3174
g56
(g57
g58
NtRp3175
(dp3176
g61
(dp3177
g69
I3
ssg70
g3171
sg63
(lp3178
S"<open file '<stderr>', mode 'w' at 0x7f4a416fc270>"
p3179
asbasbasbag56
(g72
g58
NtRp3180
(dp3181
g61
(dp3182
sg70
g2755
sg63
(lp3183
g56
(g77
g58
NtRp3184
(dp3185
g61
(dp3186
g81
g82
ssg70
g3180
sg63
(lp3187
S'wsgi.file_wrapper'
p3188
asbag56
(g77
g58
NtRp3189
(dp3190
g61
(dp3191
g88
g89
ssg70
g3180
sg63
(lp3192
S':'
asbag56
(g77
g58
NtRp3193
(dp3194
g61
(dp3195
sg70
g3180
sg63
(lp3196
g56
(g57
g58
NtRp3197
(dp3198
g61
(dp3199
g69
I3
ssg70
g3193
sg63
(lp3200
S'<class wsgiref.util.FileWrapper at 0x24b4870>'
p3201
asbasbasbag56
(g72
g58
NtRp3202
(dp3203
g61
(dp3204
sg70
g2755
sg63
(lp3205
g56
(g77
g58
NtRp3206
(dp3207
g61
(dp3208
g81
g82
ssg70
g3202
sg63
(lp3209
S'wsgi.input'
p3210
asbag56
(g77
g58
NtRp3211
(dp3212
g61
(dp3213
g88
g89
ssg70
g3202
sg63
(lp3214
S':'
asbag56
(g77
g58
NtRp3215
(dp3216
g61
(dp3217
sg70
g3202
sg63
(lp3218
g56
(g57
g58
NtRp3219
(dp3220
g61
(dp3221
g69
I3
ssg70
g3215
sg63
(lp3222
S'<cStringIO.StringO object at 0x3f885a8>'
p3223
asbasbasbag56
(g72
g58
NtRp3224
(dp3225
g61
(dp3226
sg70
g2755
sg63
(lp3227
g56
(g77
g58
NtRp3228
(dp3229
g61
(dp3230
g81
g82
ssg70
g3224
sg63
(lp3231
S'wsgi.multiprocess'
p3232
asbag56
(g77
g58
NtRp3233
(dp3234
g61
(dp3235
g88
g89
ssg70
g3224
sg63
(lp3236
S':'
asbag56
(g77
g58
NtRp3237
(dp3238
g61
(dp3239
sg70
g3224
sg63
(lp3240
g56
(g57
g58
NtRp3241
(dp3242
g61
(dp3243
g69
I3
ssg70
g3237
sg63
(lp3244
g99
asbasbasbag56
(g72
g58
NtRp3245
(dp3246
g61
(dp3247
sg70
g2755
sg63
(lp3248
g56
(g77
g58
NtRp3249
(dp3250
g61
(dp3251
g81
g82
ssg70
g3245
sg63
(lp3252
S'wsgi.multithread'
p3253
asbag56
(g77
g58
NtRp3254
(dp3255
g61
(dp3256
g88
g89
ssg70
g3245
sg63
(lp3257
S':'
asbag56
(g77
g58
NtRp3258
(dp3259
g61
(dp3260
sg70
g3245
sg63
(lp3261
g56
(g57
g58
NtRp3262
(dp3263
g61
(dp3264
g69
I3
ssg70
g3258
sg63
(lp3265
g2026
asbasbasbag56
(g72
g58
NtRp3266
(dp3267
g61
(dp3268
sg70
g2755
sg63
(lp3269
g56
(g77
g58
NtRp3270
(dp3271
g61
(dp3272
g81
g82
ssg70
g3266
sg63
(lp3273
S'wsgi.run_once'
p3274
asbag56
(g77
g58
NtRp3275
(dp3276
g61
(dp3277
g88
g89
ssg70
g3266
sg63
(lp3278
S':'
asbag56
(g77
g58
NtRp3279
(dp3280
g61
(dp3281
sg70
g3266
sg63
(lp3282
g56
(g57
g58
NtRp3283
(dp3284
g61
(dp3285
g69
I3
ssg70
g3279
sg63
(lp3286
g99
asbasbasbag56
(g72
g58
NtRp3287
(dp3288
g61
(dp3289
sg70
g2755
sg63
(lp3290
g56
(g77
g58
NtRp3291
(dp3292
g61
(dp3293
g81
g82
ssg70
g3287
sg63
(lp3294
S'wsgi.url_scheme'
p3295
asbag56
(g77
g58
NtRp3296
(dp3297
g61
(dp3298
g88
g89
ssg70
g3287
sg63
(lp3299
S':'
asbag56
(g77
g58
NtRp3300
(dp3301
g61
(dp3302
sg70
g3287
sg63
(lp3303
g56
(g57
g58
NtRp3304
(dp3305
g61
(dp3306
g69
I3
ssg70
g3300
sg63
(lp3307
g2069
asbasbasbag56
(g72
g58
NtRp3308
(dp3309
g61
(dp3310
sg70
g2755
sg63
(lp3311
g56
(g77
g58
NtRp3312
(dp3313
g61
(dp3314
g81
g82
ssg70
g3308
sg63
(lp3315
S'wsgi.version'
p3316
asbag56
(g77
g58
NtRp3317
(dp3318
g61
(dp3319
g88
g89
ssg70
g3308
sg63
(lp3320
S':'
asbag56
(g77
g58
NtRp3321
(dp3322
g61
(dp3323
sg70
g3308
sg63
(lp3324
g56
(g57
g58
NtRp3325
(dp3326
g61
(dp3327
g69
I3
ssg70
g3321
sg63
(lp3328
S'1'
asbasbasbasbasbasbasbasbasbasbasbasbasbsS'frames'
p3329
(lp3330
(dp3331
S'file'
p3332
S'/home/ian/Dropbox/Web_Pages/web2py-linux/gluon/restricted.py'
p3333
sS'dump'
p3334
(dp3335
S'environment'
p3336
S"{'A': <class 'gluon.html.A'>, 'Auth': <class 'gluon.tools.Auth'>, 'B': <class 'gluon.html.B'>, 'BEAUTIFY': <class 'gluon.html.BEAUTIFY'>, 'BODY': <class 'gluon.html.BODY'>, 'BR': <class 'gluon.html.BR'>, 'BUTTON': <class 'gluon.html.BUTTON'>, 'CAT': <class 'gluon.html.CAT'>, 'CENTER': <class 'gluon.html.CENTER'>, 'CLEANUP': <class 'gluon.validators.CLEANUP'>, ...}"
p3337
sS'ccode'
p3338
S'<code object <module> at 0x3f9a2b0, file "/home/...cations/places/views/default/index.html", line 1>'
p3339
ssS'lnum'
p3340
I194
sS'lines'
p3341
(dp3342
I192
S'        else:'
p3343
sI193
S'            ccode = compile2(code,layer)'
p3344
sI194
S'        exec ccode in environment'
p3345
sI195
S'    except HTTP:'
p3346
sI196
S'        raise'
p3347
sI197
S'    except Exception, error:'
p3348
sI198
S'        # XXX Show exception in Wing IDE if running in debugger'
p3349
sI189
S'    try:'
p3350
sI190
S'        if type(code) == types.CodeType:'
p3351
sI191
S'            ccode = code'
p3352
ssS'call'
p3353
S'(code=r"left_sidebar_enabled=right_sidebar_enabled=False...nse.write(\'\\n  </body>\\n</html>\\n\', escape=False)", environment={\'A\': <class \'gluon.html.A\'>, \'Auth\': <class \'gluon.tools.Auth\'>, \'B\': <class \'gluon.html.B\'>, \'BEAUTIFY\': <class \'gluon.html.BEAUTIFY\'>, \'BODY\': <class \'gluon.html.BODY\'>, \'BR\': <class \'gluon.html.BR\'>, \'BUTTON\': <class \'gluon.html.BUTTON\'>, \'CAT\': <class \'gluon.html.CAT\'>, \'CENTER\': <class \'gluon.html.CENTER\'>, \'CLEANUP\': <class \'gluon.validators.CLEANUP\'>, ...}, layer=\'/home/ian/Dropbox/Web_Pages/web2py-linux/applications/places/views/default/index.html\')'
p3354
sS'func'
p3355
S'restricted'
p3356
sa(dp3357
g3332
S'/home/ian/Dropbox/Web_Pages/web2py-linux/applications/places/views/default/index.html'
p3358
sg3334
(dp3359
sg3340
I88
sg3341
(dp3360
I96
S"    response.write(LOAD('index.load',ajax=True))"
p3361
sI97
S"    response.write('\\n\\n</section>\\n\\n', escape=False)"
p3362
sI98
S'else:'
p3363
sI79
S'    pass'
p3364
sI80
S'response.write(\'\\n\\n      <!-- content -->\\n      <div id="content" \', escape=False)'
p3365
sI81
S'response.write(XML(style_content))'
p3366
sI82
S"response.write(' >\\n        ', escape=False)"
p3367
sI83
S"response.write('\\n\\n<ul>\\n', escape=False)"
p3368
sI84
S'for tag in session.tags:'
p3369
sI85
S"    response.write('\\n\\n', escape=False)"
p3370
sI86
S'    if tag.tag == session.current:'
p3371
sI87
S"        response.write('\\n', escape=False)"
p3372
sI88
S'        response.write(LI(A(tag, _href(\'index.load\', args=[tag.tag]), _class=\'current\', cid="links")))'
p3373
sI89
S"        response.write('\\n\\n', escape=False)"
p3374
sI90
S'    else:'
p3375
sI91
S"        response.write('\\n', escape=False)"
p3376
sI92
S'        response.write(LI(A(tag, _href(\'index.load\', args=[tag.tag]), cid="links")))'
p3377
sI93
S"        response.write('\\n\\n', escape=False)"
p3378
sI94
S'        pass'
p3379
sI95
S'    response.write(\'\\n\\n</ul>\\n\\n<section id="links">\\n\\n\', escape=False)'
p3380
ssg3353
S'()'
p3381
sg3355
S'<module>'
p3382
sasS'pyver'
p3383
S'Python 2.7.1+: /usr/bin/python2.7'
p3384
sS'session'
p3385
g56
(g57
g58
NtRp3386
(dp3387
g61
(dp3388
sg63
(lp3389
g56
(g65
g58
NtRp3390
(dp3391
g61
(dp3392
g69
I5
ssg70
Nsg63
(lp3393
g56
(g72
g58
NtRp3394
(dp3395
g61
(dp3396
sg70
g3390
sg63
(lp3397
g56
(g77
g58
NtRp3398
(dp3399
g61
(dp3400
g81
g82
ssg70
g3394
sg63
(lp3401
S'current'
p3402
asbag56
(g77
g58
NtRp3403
(dp3404
g61
(dp3405
g88
g89
ssg70
g3394
sg63
(lp3406
S':'
asbag56
(g77
g58
NtRp3407
(dp3408
g61
(dp3409
sg70
g3394
sg63
(lp3410
g56
(g57
g58
NtRp3411
(dp3412
g61
(dp3413
g69
I5
ssg70
g3407
sg63
(lp3414
S'kitchen'
p3415
asbasbasbag56
(g72
g58
NtRp3416
(dp3417
g61
(dp3418
sg70
g3390
sg63
(lp3419
g56
(g77
g58
NtRp3420
(dp3421
g61
(dp3422
g81
g82
ssg70
g3416
sg63
(lp3423
S'last_query'
p3424
asbag56
(g77
g58
NtRp3425
(dp3426
g61
(dp3427
g88
g89
ssg70
g3416
sg63
(lp3428
S':'
asbag56
(g77
g58
NtRp3429
(dp3430
g61
(dp3431
sg70
g3416
sg63
(lp3432
g56
(g57
g58
NtRp3433
(dp3434
g61
(dp3435
g69
I5
ssg70
g3429
sg63
(lp3436
S'db.tags.id>0'
p3437
asbasbasbag56
(g72
g58
NtRp3438
(dp3439
g61
(dp3440
sg70
g3390
sg63
(lp3441
g56
(g77
g58
NtRp3442
(dp3443
g61
(dp3444
g81
g82
ssg70
g3438
sg63
(lp3445
S'tags'
p3446
asbag56
(g77
g58
NtRp3447
(dp3448
g61
(dp3449
g88
g89
ssg70
g3438
sg63
(lp3450
S':'
asbag56
(g77
g58
NtRp3451
(dp3452
g61
(dp3453
sg70
g3438
sg63
(lp3454
g56
(g57
g58
NtRp3455
(dp3456
g61
(dp3457
g69
I5
ssg70
g3451
sg63
(lp3458
cgluon.dal
Rows_unpickler
p3459
(S"(lp1\n(dp2\nS'tag'\np3\nS'kitchen'\np4\nsS'id'\np5\nI1\nsa(dp6\nS'tag'\np7\nS'kids'\np8\nsS'id'\np9\nI2\nsa(dp10\nS'tag'\np11\nS'research'\np12\nsS'id'\np13\nI3\nsa(dp14\nS'tag'\np15\nS'webdev'\np16\nsS'id'\np17\nI4\nsa(dp18\nS'tag'\np19\nS'photography'\np20\nsS'id'\np21\nI5\nsa(dp22\nS'tag'\np23\nS'entertainment'\np24\nsS'id'\np25\nI6\nsa(dp26\nS'tag'\np27\nS'games'\np28\nsS'id'\np29\nI7\nsa(dp30\nS'tag'\np31\nS'design'\np32\nsS'id'\np33\nI8\nsa(dp34\nS'tag'\np35\nS'research'\np36\nsS'id'\np37\nI9\nsa."
tRp3460
asbasbasbasbasbsS'etype'
p3461
S"<type 'exceptions.NameError'>"
p3462
sS'date'
p3463
S'Fri Sep 30 16:05:12 2011'
p3464
sS'response'
p3465
g56
(g57
g58
NtRp3466
(dp3467
g61
(dp3468
sg63
(lp3469
g56
(g65
g58
NtRp3470
(dp3471
g61
(dp3472
g69
I5
ssg70
Nsg63
(lp3473
g56
(g72
g58
NtRp3474
(dp3475
g61
(dp3476
sg70
g3470
sg63
(lp3477
g56
(g77
g58
NtRp3478
(dp3479
g61
(dp3480
g81
g82
ssg70
g3474
sg63
(lp3481
g154
asbag56
(g77
g58
NtRp3482
(dp3483
g61
(dp3484
g88
g89
ssg70
g3474
sg63
(lp3485
S':'
asbag56
(g77
g58
NtRp3486
(dp3487
g61
(dp3488
sg70
g3474
sg63
(lp3489
g56
(g57
g58
NtRp3490
(dp3491
g61
(dp3492
g69
I5
ssg70
g3486
sg63
(lp3493
S'<cStringIO.StringO object at 0x3f88148>'
p3494
asbasbasbag56
(g72
g58
NtRp3495
(dp3496
g61
(dp3497
sg70
g3470
sg63
(lp3498
g56
(g77
g58
NtRp3499
(dp3500
g61
(dp3501
g81
g82
ssg70
g3495
sg63
(lp3502
g220
asbag56
(g77
g58
NtRp3503
(dp3504
g61
(dp3505
g88
g89
ssg70
g3495
sg63
(lp3506
S':'
asbag56
(g77
g58
NtRp3507
(dp3508
g61
(dp3509
sg70
g3495
sg63
(lp3510
g56
(g57
g58
NtRp3511
(dp3512
g61
(dp3513
g69
I5
ssg70
g3507
sg63
(lp3514
g56
(g65
g58
NtRp3515
(dp3516
g61
(dp3517
g69
I4
ssg70
Nsg63
(lp3518
g56
(g72
g58
NtRp3519
(dp3520
g61
(dp3521
sg70
g3515
sg63
(lp3522
g56
(g77
g58
NtRp3523
(dp3524
g61
(dp3525
g81
g82
ssg70
g3519
sg63
(lp3526
S'session_id_places'
p3527
asbag56
(g77
g58
NtRp3528
(dp3529
g61
(dp3530
g88
g89
ssg70
g3519
sg63
(lp3531
S':'
asbag56
(g77
g58
NtRp3532
(dp3533
g61
(dp3534
sg70
g3519
sg63
(lp3535
g56
(g57
g58
NtRp3536
(dp3537
g61
(dp3538
g69
I4
ssg70
g3532
sg63
(lp3539
g56
(g65
g58
NtRp3540
(dp3541
g61
(dp3542
g69
I3
ssg70
Nsg63
(lp3543
g56
(g72
g58
NtRp3544
(dp3545
g61
(dp3546
sg70
g3540
sg63
(lp3547
g56
(g77
g58
NtRp3548
(dp3549
g61
(dp3550
g81
g82
ssg70
g3544
sg63
(lp3551
g270
asbag56
(g77
g58
NtRp3552
(dp3553
g61
(dp3554
g88
g89
ssg70
g3544
sg63
(lp3555
S':'
asbag56
(g77
g58
NtRp3556
(dp3557
g61
(dp3558
sg70
g3544
sg63
(lp3559
g56
(g57
g58
NtRp3560
(dp3561
g61
(dp3562
g69
I3
ssg70
g3556
sg63
(lp3563
S''
asbasbasbag56
(g72
g58
NtRp3564
(dp3565
g61
(dp3566
sg70
g3540
sg63
(lp3567
g56
(g77
g58
NtRp3568
(dp3569
g61
(dp3570
g81
g82
ssg70
g3564
sg63
(lp3571
g291
asbag56
(g77
g58
NtRp3572
(dp3573
g61
(dp3574
g88
g89
ssg70
g3564
sg63
(lp3575
S':'
asbag56
(g77
g58
NtRp3576
(dp3577
g61
(dp3578
sg70
g3564
sg63
(lp3579
g56
(g57
g58
NtRp3580
(dp3581
g61
(dp3582
g69
I3
ssg70
g3576
sg63
(lp3583
S''
asbasbasbag56
(g72
g58
NtRp3584
(dp3585
g61
(dp3586
sg70
g3540
sg63
(lp3587
g56
(g77
g58
NtRp3588
(dp3589
g61
(dp3590
g81
g82
ssg70
g3584
sg63
(lp3591
g312
asbag56
(g77
g58
NtRp3592
(dp3593
g61
(dp3594
g88
g89
ssg70
g3584
sg63
(lp3595
S':'
asbag56
(g77
g58
NtRp3596
(dp3597
g61
(dp3598
sg70
g3584
sg63
(lp3599
g56
(g57
g58
NtRp3600
(dp3601
g61
(dp3602
g69
I3
ssg70
g3596
sg63
(lp3603
S''
asbasbasbag56
(g72
g58
NtRp3604
(dp3605
g61
(dp3606
sg70
g3540
sg63
(lp3607
g56
(g77
g58
NtRp3608
(dp3609
g61
(dp3610
g81
g82
ssg70
g3604
sg63
(lp3611
g333
asbag56
(g77
g58
NtRp3612
(dp3613
g61
(dp3614
g88
g89
ssg70
g3604
sg63
(lp3615
S':'
asbag56
(g77
g58
NtRp3616
(dp3617
g61
(dp3618
sg70
g3604
sg63
(lp3619
g56
(g57
g58
NtRp3620
(dp3621
g61
(dp3622
g69
I3
ssg70
g3616
sg63
(lp3623
S''
asbasbasbag56
(g72
g58
NtRp3624
(dp3625
g61
(dp3626
sg70
g3540
sg63
(lp3627
g56
(g77
g58
NtRp3628
(dp3629
g61
(dp3630
g81
g82
ssg70
g3624
sg63
(lp3631
g354
asbag56
(g77
g58
NtRp3632
(dp3633
g61
(dp3634
g88
g89
ssg70
g3624
sg63
(lp3635
S':'
asbag56
(g77
g58
NtRp3636
(dp3637
g61
(dp3638
sg70
g3624
sg63
(lp3639
g56
(g57
g58
NtRp3640
(dp3641
g61
(dp3642
g69
I3
ssg70
g3636
sg63
(lp3643
S''
asbasbasbag56
(g72
g58
NtRp3644
(dp3645
g61
(dp3646
sg70
g3540
sg63
(lp3647
g56
(g77
g58
NtRp3648
(dp3649
g61
(dp3650
g81
g82
ssg70
g3644
sg63
(lp3651
g375
asbag56
(g77
g58
NtRp3652
(dp3653
g61
(dp3654
g88
g89
ssg70
g3644
sg63
(lp3655
S':'
asbag56
(g77
g58
NtRp3656
(dp3657
g61
(dp3658
sg70
g3644
sg63
(lp3659
g56
(g57
g58
NtRp3660
(dp3661
g61
(dp3662
g69
I3
ssg70
g3656
sg63
(lp3663
S'/'
asbasbasbag56
(g72
g58
NtRp3664
(dp3665
g61
(dp3666
sg70
g3540
sg63
(lp3667
g56
(g77
g58
NtRp3668
(dp3669
g61
(dp3670
g81
g82
ssg70
g3664
sg63
(lp3671
g396
asbag56
(g77
g58
NtRp3672
(dp3673
g61
(dp3674
g88
g89
ssg70
g3664
sg63
(lp3675
S':'
asbag56
(g77
g58
NtRp3676
(dp3677
g61
(dp3678
sg70
g3664
sg63
(lp3679
g56
(g57
g58
NtRp3680
(dp3681
g61
(dp3682
g69
I3
ssg70
g3676
sg63
(lp3683
S''
asbasbasbag56
(g72
g58
NtRp3684
(dp3685
g61
(dp3686
sg70
g3540
sg63
(lp3687
g56
(g77
g58
NtRp3688
(dp3689
g61
(dp3690
g81
g82
ssg70
g3684
sg63
(lp3691
g417
asbag56
(g77
g58
NtRp3692
(dp3693
g61
(dp3694
g88
g89
ssg70
g3684
sg63
(lp3695
S':'
asbag56
(g77
g58
NtRp3696
(dp3697
g61
(dp3698
sg70
g3684
sg63
(lp3699
g56
(g57
g58
NtRp3700
(dp3701
g61
(dp3702
g69
I3
ssg70
g3696
sg63
(lp3703
S''
asbasbasbasbasbasbasbasbasbasbasbag56
(g72
g58
NtRp3704
(dp3705
g61
(dp3706
sg70
g3470
sg63
(lp3707
g56
(g77
g58
NtRp3708
(dp3709
g61
(dp3710
g81
g82
ssg70
g3704
sg63
(lp3711
S'files'
p3712
asbag56
(g77
g58
NtRp3713
(dp3714
g61
(dp3715
g88
g89
ssg70
g3704
sg63
(lp3716
S':'
asbag56
(g77
g58
NtRp3717
(dp3718
g61
(dp3719
sg70
g3704
sg63
(lp3720
g56
(g57
g58
NtRp3721
(dp3722
g61
(dp3723
g69
I5
ssg70
g3717
sg63
(lp3724
g56
(g65
g58
NtRp3725
(dp3726
g61
(dp3727
g69
I4
ssg70
Nsg63
(lp3728
g56
(g72
g58
NtRp3729
(dp3730
g61
(dp3731
sg70
g3725
sg63
(lp3732
g56
(g77
g58
NtRp3733
(dp3734
g61
(dp3735
sg70
g3729
sg63
(lp3736
g56
(g57
g58
NtRp3737
(dp3738
g61
(dp3739
g69
I4
ssg70
g3733
sg63
(lp3740
S'/places/static/js/jquery.js'
p3741
asbasbasbag56
(g72
g58
NtRp3742
(dp3743
g61
(dp3744
sg70
g3725
sg63
(lp3745
g56
(g77
g58
NtRp3746
(dp3747
g61
(dp3748
sg70
g3742
sg63
(lp3749
g56
(g57
g58
NtRp3750
(dp3751
g61
(dp3752
g69
I4
ssg70
g3746
sg63
(lp3753
S'/places/static/css/anytime.css'
p3754
asbasbasbag56
(g72
g58
NtRp3755
(dp3756
g61
(dp3757
sg70
g3725
sg63
(lp3758
g56
(g77
g58
NtRp3759
(dp3760
g61
(dp3761
sg70
g3755
sg63
(lp3762
g56
(g57
g58
NtRp3763
(dp3764
g61
(dp3765
g69
I4
ssg70
g3759
sg63
(lp3766
S'/places/static/js/anytime.js'
p3767
asbasbasbag56
(g72
g58
NtRp3768
(dp3769
g61
(dp3770
sg70
g3725
sg63
(lp3771
g56
(g77
g58
NtRp3772
(dp3773
g61
(dp3774
sg70
g3768
sg63
(lp3775
g56
(g57
g58
NtRp3776
(dp3777
g61
(dp3778
g69
I4
ssg70
g3772
sg63
(lp3779
S'/places/static/css/base.css'
p3780
asbasbasbag56
(g72
g58
NtRp3781
(dp3782
g61
(dp3783
sg70
g3725
sg63
(lp3784
g56
(g77
g58
NtRp3785
(dp3786
g61
(dp3787
sg70
g3781
sg63
(lp3788
g56
(g57
g58
NtRp3789
(dp3790
g61
(dp3791
g69
I4
ssg70
g3785
sg63
(lp3792
S'/places/static/css/superfish.css'
p3793
asbasbasbag56
(g72
g58
NtRp3794
(dp3795
g61
(dp3796
sg70
g3725
sg63
(lp3797
g56
(g77
g58
NtRp3798
(dp3799
g61
(dp3800
sg70
g3794
sg63
(lp3801
g56
(g57
g58
NtRp3802
(dp3803
g61
(dp3804
g69
I4
ssg70
g3798
sg63
(lp3805
S'/places/static/js/superfish.js'
p3806
asbasbasbasbasbasbasbag56
(g72
g58
NtRp3807
(dp3808
g61
(dp3809
sg70
g3470
sg63
(lp3810
g56
(g77
g58
NtRp3811
(dp3812
g61
(dp3813
g81
g82
ssg70
g3807
sg63
(lp3814
S'flash'
p3815
asbag56
(g77
g58
NtRp3816
(dp3817
g61
(dp3818
g88
g89
ssg70
g3807
sg63
(lp3819
S':'
asbag56
(g77
g58
NtRp3820
(dp3821
g61
(dp3822
sg70
g3807
sg63
(lp3823
g56
(g57
g58
NtRp3824
(dp3825
g61
(dp3826
g69
I5
ssg70
g3820
sg63
(lp3827
S''
asbasbasbag56
(g72
g58
NtRp3828
(dp3829
g61
(dp3830
sg70
g3470
sg63
(lp3831
g56
(g77
g58
NtRp3832
(dp3833
g61
(dp3834
g81
g82
ssg70
g3828
sg63
(lp3835
S'generic_patterns'
p3836
asbag56
(g77
g58
NtRp3837
(dp3838
g61
(dp3839
g88
g89
ssg70
g3828
sg63
(lp3840
S':'
asbag56
(g77
g58
NtRp3841
(dp3842
g61
(dp3843
sg70
g3828
sg63
(lp3844
g56
(g57
g58
NtRp3845
(dp3846
g61
(dp3847
g69
I5
ssg70
g3841
sg63
(lp3848
g56
(g65
g58
NtRp3849
(dp3850
g61
(dp3851
g69
I4
ssg70
Nsg63
(lp3852
g56
(g72
g58
NtRp3853
(dp3854
g61
(dp3855
sg70
g3849
sg63
(lp3856
g56
(g77
g58
NtRp3857
(dp3858
g61
(dp3859
sg70
g3853
sg63
(lp3860
g56
(g57
g58
NtRp3861
(dp3862
g61
(dp3863
g69
I4
ssg70
g3857
sg63
(lp3864
S'*'
asbasbasbasbasbasbasbag56
(g72
g58
NtRp3865
(dp3866
g61
(dp3867
sg70
g3470
sg63
(lp3868
g56
(g77
g58
NtRp3869
(dp3870
g61
(dp3871
g81
g82
ssg70
g3865
sg63
(lp3872
S'headers'
p3873
asbag56
(g77
g58
NtRp3874
(dp3875
g61
(dp3876
g88
g89
ssg70
g3865
sg63
(lp3877
S':'
asbag56
(g77
g58
NtRp3878
(dp3879
g61
(dp3880
sg70
g3865
sg63
(lp3881
g56
(g57
g58
NtRp3882
(dp3883
g61
(dp3884
g69
I5
ssg70
g3878
sg63
(lp3885
g56
(g65
g58
NtRp3886
(dp3887
g61
(dp3888
g69
I4
ssg70
Nsg63
(lp3889
g56
(g72
g58
NtRp3890
(dp3891
g61
(dp3892
sg70
g3886
sg63
(lp3893
g56
(g77
g58
NtRp3894
(dp3895
g61
(dp3896
g81
g82
ssg70
g3890
sg63
(lp3897
S'Cache-Control'
p3898
asbag56
(g77
g58
NtRp3899
(dp3900
g61
(dp3901
g88
g89
ssg70
g3890
sg63
(lp3902
S':'
asbag56
(g77
g58
NtRp3903
(dp3904
g61
(dp3905
sg70
g3890
sg63
(lp3906
g56
(g57
g58
NtRp3907
(dp3908
g61
(dp3909
g69
I4
ssg70
g3903
sg63
(lp3910
S'no-store, no-cache, must-revalidate, post-check=0, pre-check=0'
p3911
asbasbasbag56
(g72
g58
NtRp3912
(dp3913
g61
(dp3914
sg70
g3886
sg63
(lp3915
g56
(g77
g58
NtRp3916
(dp3917
g61
(dp3918
g81
g82
ssg70
g3912
sg63
(lp3919
S'Content-Type'
p3920
asbag56
(g77
g58
NtRp3921
(dp3922
g61
(dp3923
g88
g89
ssg70
g3912
sg63
(lp3924
S':'
asbag56
(g77
g58
NtRp3925
(dp3926
g61
(dp3927
sg70
g3912
sg63
(lp3928
g56
(g57
g58
NtRp3929
(dp3930
g61
(dp3931
g69
I4
ssg70
g3925
sg63
(lp3932
S'text/html; charset=utf-8'
p3933
asbasbasbag56
(g72
g58
NtRp3934
(dp3935
g61
(dp3936
sg70
g3886
sg63
(lp3937
g56
(g77
g58
NtRp3938
(dp3939
g61
(dp3940
g81
g82
ssg70
g3934
sg63
(lp3941
S'Expires'
p3942
asbag56
(g77
g58
NtRp3943
(dp3944
g61
(dp3945
g88
g89
ssg70
g3934
sg63
(lp3946
S':'
asbag56
(g77
g58
NtRp3947
(dp3948
g61
(dp3949
sg70
g3934
sg63
(lp3950
g56
(g57
g58
NtRp3951
(dp3952
g61
(dp3953
g69
I4
ssg70
g3947
sg63
(lp3954
S'Fri, 30 Sep 2011 20:05:12 GMT'
p3955
asbasbasbag56
(g72
g58
NtRp3956
(dp3957
g61
(dp3958
sg70
g3886
sg63
(lp3959
g56
(g77
g58
NtRp3960
(dp3961
g61
(dp3962
g81
g82
ssg70
g3956
sg63
(lp3963
S'Pragma'
p3964
asbag56
(g77
g58
NtRp3965
(dp3966
g61
(dp3967
g88
g89
ssg70
g3956
sg63
(lp3968
S':'
asbag56
(g77
g58
NtRp3969
(dp3970
g61
(dp3971
sg70
g3956
sg63
(lp3972
g56
(g57
g58
NtRp3973
(dp3974
g61
(dp3975
g69
I4
ssg70
g3969
sg63
(lp3976
S'no-cache'
p3977
asbasbasbag56
(g72
g58
NtRp3978
(dp3979
g61
(dp3980
sg70
g3886
sg63
(lp3981
g56
(g77
g58
NtRp3982
(dp3983
g61
(dp3984
g81
g82
ssg70
g3978
sg63
(lp3985
S'X-Powered-By'
p3986
asbag56
(g77
g58
NtRp3987
(dp3988
g61
(dp3989
g88
g89
ssg70
g3978
sg63
(lp3990
S':'
asbag56
(g77
g58
NtRp3991
(dp3992
g61
(dp3993
sg70
g3978
sg63
(lp3994
g56
(g57
g58
NtRp3995
(dp3996
g61
(dp3997
g69
I4
ssg70
g3991
sg63
(lp3998
S'web2py'
p3999
asbasbasbasbasbasbasbag56
(g72
g58
NtRp4000
(dp4001
g61
(dp4002
sg70
g3470
sg63
(lp4003
g56
(g77
g58
NtRp4004
(dp4005
g61
(dp4006
g81
g82
ssg70
g4000
sg63
(lp4007
S'menu'
p4008
asbag56
(g77
g58
NtRp4009
(dp4010
g61
(dp4011
g88
g89
ssg70
g4000
sg63
(lp4012
S':'
asbag56
(g77
g58
NtRp4013
(dp4014
g61
(dp4015
sg70
g4000
sg63
(lp4016
g56
(g57
g58
NtRp4017
(dp4018
g61
(dp4019
g69
I5
ssg70
g4013
sg63
(lp4020
g56
(g65
g58
NtRp4021
(dp4022
g61
(dp4023
g69
I4
ssg70
Nsg63
(lp4024
g56
(g72
g58
NtRp4025
(dp4026
g61
(dp4027
sg70
g4021
sg63
(lp4028
g56
(g77
g58
NtRp4029
(dp4030
g61
(dp4031
sg70
g4025
sg63
(lp4032
g56
(g57
g58
NtRp4033
(dp4034
g61
(dp4035
g69
I4
ssg70
g4029
sg63
(lp4036
g56
(g65
g58
NtRp4037
(dp4038
g61
(dp4039
g69
I3
ssg70
Nsg63
(lp4040
g56
(g72
g58
NtRp4041
(dp4042
g61
(dp4043
sg70
g4037
sg63
(lp4044
g56
(g77
g58
NtRp4045
(dp4046
g61
(dp4047
sg70
g4041
sg63
(lp4048
g56
(g57
g58
NtRp4049
(dp4050
g61
(dp4051
g69
I3
ssg70
g4045
sg63
(lp4052
cgluon.languages
lazyT_unpickle
p4053
(S't\x04\x00\x00\x00Home'
tRp4054
asbasbasbag56
(g72
g58
NtRp4055
(dp4056
g61
(dp4057
sg70
g4037
sg63
(lp4058
g56
(g77
g58
NtRp4059
(dp4060
g61
(dp4061
sg70
g4055
sg63
(lp4062
g56
(g57
g58
NtRp4063
(dp4064
g61
(dp4065
g69
I3
ssg70
g4059
sg63
(lp4066
g99
asbasbasbag56
(g72
g58
NtRp4067
(dp4068
g61
(dp4069
sg70
g4037
sg63
(lp4070
g56
(g77
g58
NtRp4071
(dp4072
g61
(dp4073
sg70
g4067
sg63
(lp4074
g56
(g57
g58
NtRp4075
(dp4076
g61
(dp4077
g69
I3
ssg70
g4071
sg63
(lp4078
S'/places/default/index'
p4079
asbasbasbag56
(g72
g58
NtRp4080
(dp4081
g61
(dp4082
sg70
g4037
sg63
(lp4083
g56
(g77
g58
NtRp4084
(dp4085
g61
(dp4086
sg70
g4080
sg63
(lp4087
g56
(g57
g58
NtRp4088
(dp4089
g61
(dp4090
g69
I3
ssg70
g4084
sg63
(lp4091
g56
(g65
g58
NtRp4092
(dp4093
g61
(dp4094
g69
I2
ssg70
Nsg63
(lp4095
sbasbasbasbasbasbasbasbag56
(g72
g58
NtRp4096
(dp4097
g61
(dp4098
sg70
g4021
sg63
(lp4099
g56
(g77
g58
NtRp4100
(dp4101
g61
(dp4102
sg70
g4096
sg63
(lp4103
g56
(g57
g58
NtRp4104
(dp4105
g61
(dp4106
g69
I4
ssg70
g4100
sg63
(lp4107
g56
(g65
g58
NtRp4108
(dp4109
g61
(dp4110
g69
I3
ssg70
Nsg63
(lp4111
g56
(g72
g58
NtRp4112
(dp4113
g61
(dp4114
sg70
g4108
sg63
(lp4115
g56
(g77
g58
NtRp4116
(dp4117
g61
(dp4118
sg70
g4112
sg63
(lp4119
g56
(g57
g58
NtRp4120
(dp4121
g61
(dp4122
g69
I3
ssg70
g4116
sg63
(lp4123
g4053
(S's\x08\x00\x00\x00This App'
tRp4124
asbasbasbag56
(g72
g58
NtRp4125
(dp4126
g61
(dp4127
sg70
g4108
sg63
(lp4128
g56
(g77
g58
NtRp4129
(dp4130
g61
(dp4131
sg70
g4125
sg63
(lp4132
g56
(g57
g58
NtRp4133
(dp4134
g61
(dp4135
g69
I3
ssg70
g4129
sg63
(lp4136
g99
asbasbasbag56
(g72
g58
NtRp4137
(dp4138
g61
(dp4139
sg70
g4108
sg63
(lp4140
g56
(g77
g58
NtRp4141
(dp4142
g61
(dp4143
sg70
g4137
sg63
(lp4144
g56
(g57
g58
NtRp4145
(dp4146
g61
(dp4147
g69
I3
ssg70
g4141
sg63
(lp4148
S'/admin/default/design/places'
p4149
asbasbasbag56
(g72
g58
NtRp4150
(dp4151
g61
(dp4152
sg70
g4108
sg63
(lp4153
g56
(g77
g58
NtRp4154
(dp4155
g61
(dp4156
sg70
g4150
sg63
(lp4157
g56
(g57
g58
NtRp4158
(dp4159
g61
(dp4160
g69
I3
ssg70
g4154
sg63
(lp4161
g56
(g65
g58
NtRp4162
(dp4163
g61
(dp4164
g69
I2
ssg70
Nsg63
(lp4165
g56
(g72
g58
NtRp4166
(dp4167
g61
(dp4168
sg70
g4162
sg63
(lp4169
g56
(g77
g58
NtRp4170
(dp4171
g61
(dp4172
sg70
g4166
sg63
(lp4173
g56
(g57
g58
NtRp4174
(dp4175
g61
(dp4176
g69
I2
ssg70
g4170
sg63
(lp4177
g56
(g65
g58
NtRp4178
(dp4179
g61
(dp4180
g69
I1
ssg70
Nsg63
(lp4181
g56
(g72
g58
NtRp4182
(dp4183
g61
(dp4184
sg70
g4178
sg63
(lp4185
g56
(g77
g58
NtRp4186
(dp4187
g61
(dp4188
sg70
g4182
sg63
(lp4189
g56
(g57
g58
NtRp4190
(dp4191
g61
(dp4192
g69
I1
ssg70
g4186
sg63
(lp4193
g4053
(S't\n\x00\x00\x00Controller'
tRp4194
asbasbasbag56
(g72
g58
NtRp4195
(dp4196
g61
(dp4197
sg70
g4178
sg63
(lp4198
g56
(g77
g58
NtRp4199
(dp4200
g61
(dp4201
sg70
g4195
sg63
(lp4202
g56
(g57
g58
NtRp4203
(dp4204
g61
(dp4205
g69
I1
ssg70
g4199
sg63
(lp4206
I00
asbasbasbag56
(g72
g58
NtRp4207
(dp4208
g61
(dp4209
sg70
g4178
sg63
(lp4210
g56
(g77
g58
NtRp4211
(dp4212
g61
(dp4213
sg70
g4207
sg63
(lp4214
g56
(g57
g58
NtRp4215
(dp4216
g61
(dp4217
g69
I1
ssg70
g4211
sg63
(lp4218
S'/admin/default/edit/places/controllers/default.py'
p4219
asbasbasbasbasbasbasbag56
(g72
g58
NtRp4220
(dp4221
g61
(dp4222
sg70
g4162
sg63
(lp4223
g56
(g77
g58
NtRp4224
(dp4225
g61
(dp4226
sg70
g4220
sg63
(lp4227
g56
(g57
g58
NtRp4228
(dp4229
g61
(dp4230
g69
I2
ssg70
g4224
sg63
(lp4231
g56
(g65
g58
NtRp4232
(dp4233
g61
(dp4234
g69
I1
ssg70
Nsg63
(lp4235
g56
(g72
g58
NtRp4236
(dp4237
g61
(dp4238
sg70
g4232
sg63
(lp4239
g56
(g77
g58
NtRp4240
(dp4241
g61
(dp4242
sg70
g4236
sg63
(lp4243
g56
(g57
g58
NtRp4244
(dp4245
g61
(dp4246
g69
I1
ssg70
g4240
sg63
(lp4247
g4053
(S't\x04\x00\x00\x00View'
tRp4248
asbasbasbag56
(g72
g58
NtRp4249
(dp4250
g61
(dp4251
sg70
g4232
sg63
(lp4252
g56
(g77
g58
NtRp4253
(dp4254
g61
(dp4255
sg70
g4249
sg63
(lp4256
g56
(g57
g58
NtRp4257
(dp4258
g61
(dp4259
g69
I1
ssg70
g4253
sg63
(lp4260
I00
asbasbasbag56
(g72
g58
NtRp4261
(dp4262
g61
(dp4263
sg70
g4232
sg63
(lp4264
g56
(g77
g58
NtRp4265
(dp4266
g61
(dp4267
sg70
g4261
sg63
(lp4268
g56
(g57
g58
NtRp4269
(dp4270
g61
(dp4271
g69
I1
ssg70
g4265
sg63
(lp4272
S'/admin/default/edit/places/views/default/index.html'
p4273
asbasbasbasbasbasbasbag56
(g72
g58
NtRp4274
(dp4275
g61
(dp4276
sg70
g4162
sg63
(lp4277
g56
(g77
g58
NtRp4278
(dp4279
g61
(dp4280
sg70
g4274
sg63
(lp4281
g56
(g57
g58
NtRp4282
(dp4283
g61
(dp4284
g69
I2
ssg70
g4278
sg63
(lp4285
g56
(g65
g58
NtRp4286
(dp4287
g61
(dp4288
g69
I1
ssg70
Nsg63
(lp4289
g56
(g72
g58
NtRp4290
(dp4291
g61
(dp4292
sg70
g4286
sg63
(lp4293
g56
(g77
g58
NtRp4294
(dp4295
g61
(dp4296
sg70
g4290
sg63
(lp4297
g56
(g57
g58
NtRp4298
(dp4299
g61
(dp4300
g69
I1
ssg70
g4294
sg63
(lp4301
g4053
(S't\x06\x00\x00\x00Layout'
tRp4302
asbasbasbag56
(g72
g58
NtRp4303
(dp4304
g61
(dp4305
sg70
g4286
sg63
(lp4306
g56
(g77
g58
NtRp4307
(dp4308
g61
(dp4309
sg70
g4303
sg63
(lp4310
g56
(g57
g58
NtRp4311
(dp4312
g61
(dp4313
g69
I1
ssg70
g4307
sg63
(lp4314
I00
asbasbasbag56
(g72
g58
NtRp4315
(dp4316
g61
(dp4317
sg70
g4286
sg63
(lp4318
g56
(g77
g58
NtRp4319
(dp4320
g61
(dp4321
sg70
g4315
sg63
(lp4322
g56
(g57
g58
NtRp4323
(dp4324
g61
(dp4325
g69
I1
ssg70
g4319
sg63
(lp4326
S'/admin/default/edit/places/views/layout.html'
p4327
asbasbasbasbasbasbasbag56
(g72
g58
NtRp4328
(dp4329
g61
(dp4330
sg70
g4162
sg63
(lp4331
g56
(g77
g58
NtRp4332
(dp4333
g61
(dp4334
sg70
g4328
sg63
(lp4335
g56
(g57
g58
NtRp4336
(dp4337
g61
(dp4338
g69
I2
ssg70
g4332
sg63
(lp4339
g56
(g65
g58
NtRp4340
(dp4341
g61
(dp4342
g69
I1
ssg70
Nsg63
(lp4343
g56
(g72
g58
NtRp4344
(dp4345
g61
(dp4346
sg70
g4340
sg63
(lp4347
g56
(g77
g58
NtRp4348
(dp4349
g61
(dp4350
sg70
g4344
sg63
(lp4351
g56
(g57
g58
NtRp4352
(dp4353
g61
(dp4354
g69
I1
ssg70
g4348
sg63
(lp4355
g4053
(S't\n\x00\x00\x00Stylesheet'
tRp4356
asbasbasbag56
(g72
g58
NtRp4357
(dp4358
g61
(dp4359
sg70
g4340
sg63
(lp4360
g56
(g77
g58
NtRp4361
(dp4362
g61
(dp4363
sg70
g4357
sg63
(lp4364
g56
(g57
g58
NtRp4365
(dp4366
g61
(dp4367
g69
I1
ssg70
g4361
sg63
(lp4368
I00
asbasbasbag56
(g72
g58
NtRp4369
(dp4370
g61
(dp4371
sg70
g4340
sg63
(lp4372
g56
(g77
g58
NtRp4373
(dp4374
g61
(dp4375
sg70
g4369
sg63
(lp4376
g56
(g57
g58
NtRp4377
(dp4378
g61
(dp4379
g69
I1
ssg70
g4373
sg63
(lp4380
S'/admin/default/edit/places/static/base.css'
p4381
asbasbasbasbasbasbasbag56
(g72
g58
NtRp4382
(dp4383
g61
(dp4384
sg70
g4162
sg63
(lp4385
g56
(g77
g58
NtRp4386
(dp4387
g61
(dp4388
sg70
g4382
sg63
(lp4389
g56
(g57
g58
NtRp4390
(dp4391
g61
(dp4392
g69
I2
ssg70
g4386
sg63
(lp4393
g56
(g65
g58
NtRp4394
(dp4395
g61
(dp4396
g69
I1
ssg70
Nsg63
(lp4397
g56
(g72
g58
NtRp4398
(dp4399
g61
(dp4400
sg70
g4394
sg63
(lp4401
g56
(g77
g58
NtRp4402
(dp4403
g61
(dp4404
sg70
g4398
sg63
(lp4405
g56
(g57
g58
NtRp4406
(dp4407
g61
(dp4408
g69
I1
ssg70
g4402
sg63
(lp4409
g4053
(S's\x08\x00\x00\x00DB Model'
tRp4410
asbasbasbag56
(g72
g58
NtRp4411
(dp4412
g61
(dp4413
sg70
g4394
sg63
(lp4414
g56
(g77
g58
NtRp4415
(dp4416
g61
(dp4417
sg70
g4411
sg63
(lp4418
g56
(g57
g58
NtRp4419
(dp4420
g61
(dp4421
g69
I1
ssg70
g4415
sg63
(lp4422
I00
asbasbasbag56
(g72
g58
NtRp4423
(dp4424
g61
(dp4425
sg70
g4394
sg63
(lp4426
g56
(g77
g58
NtRp4427
(dp4428
g61
(dp4429
sg70
g4423
sg63
(lp4430
g56
(g57
g58
NtRp4431
(dp4432
g61
(dp4433
g69
I1
ssg70
g4427
sg63
(lp4434
S'/admin/default/edit/places/models/db.py'
p4435
asbasbasbasbasbasbasbag56
(g72
g58
NtRp4436
(dp4437
g61
(dp4438
sg70
g4162
sg63
(lp4439
g56
(g77
g58
NtRp4440
(dp4441
g61
(dp4442
sg70
g4436
sg63
(lp4443
g56
(g57
g58
NtRp4444
(dp4445
g61
(dp4446
g69
I2
ssg70
g4440
sg63
(lp4447
g56
(g65
g58
NtRp4448
(dp4449
g61
(dp4450
g69
I1
ssg70
Nsg63
(lp4451
g56
(g72
g58
NtRp4452
(dp4453
g61
(dp4454
sg70
g4448
sg63
(lp4455
g56
(g77
g58
NtRp4456
(dp4457
g61
(dp4458
sg70
g4452
sg63
(lp4459
g56
(g57
g58
NtRp4460
(dp4461
g61
(dp4462
g69
I1
ssg70
g4456
sg63
(lp4463
g4053
(S's\n\x00\x00\x00Menu Model'
tRp4464
asbasbasbag56
(g72
g58
NtRp4465
(dp4466
g61
(dp4467
sg70
g4448
sg63
(lp4468
g56
(g77
g58
NtRp4469
(dp4470
g61
(dp4471
sg70
g4465
sg63
(lp4472
g56
(g57
g58
NtRp4473
(dp4474
g61
(dp4475
g69
I1
ssg70
g4469
sg63
(lp4476
I00
asbasbasbag56
(g72
g58
NtRp4477
(dp4478
g61
(dp4479
sg70
g4448
sg63
(lp4480
g56
(g77
g58
NtRp4481
(dp4482
g61
(dp4483
sg70
g4477
sg63
(lp4484
g56
(g57
g58
NtRp4485
(dp4486
g61
(dp4487
g69
I1
ssg70
g4481
sg63
(lp4488
S'/admin/default/edit/places/models/menu.py'
p4489
asbasbasbasbasbasbasbag56
(g72
g58
NtRp4490
(dp4491
g61
(dp4492
sg70
g4162
sg63
(lp4493
g56
(g77
g58
NtRp4494
(dp4495
g61
(dp4496
sg70
g4490
sg63
(lp4497
g56
(g57
g58
NtRp4498
(dp4499
g61
(dp4500
g69
I2
ssg70
g4494
sg63
(lp4501
g56
(g65
g58
NtRp4502
(dp4503
g61
(dp4504
g69
I1
ssg70
Nsg63
(lp4505
g56
(g72
g58
NtRp4506
(dp4507
g61
(dp4508
sg70
g4502
sg63
(lp4509
g56
(g77
g58
NtRp4510
(dp4511
g61
(dp4512
sg70
g4506
sg63
(lp4513
g56
(g57
g58
NtRp4514
(dp4515
g61
(dp4516
g69
I1
ssg70
g4510
sg63
(lp4517
g4053
(S't\x08\x00\x00\x00Database'
tRp4518
asbasbasbag56
(g72
g58
NtRp4519
(dp4520
g61
(dp4521
sg70
g4502
sg63
(lp4522
g56
(g77
g58
NtRp4523
(dp4524
g61
(dp4525
sg70
g4519
sg63
(lp4526
g56
(g57
g58
NtRp4527
(dp4528
g61
(dp4529
g69
I1
ssg70
g4523
sg63
(lp4530
I00
asbasbasbag56
(g72
g58
NtRp4531
(dp4532
g61
(dp4533
sg70
g4502
sg63
(lp4534
g56
(g77
g58
NtRp4535
(dp4536
g61
(dp4537
sg70
g4531
sg63
(lp4538
g56
(g57
g58
NtRp4539
(dp4540
g61
(dp4541
g69
I1
ssg70
g4535
sg63
(lp4542
S'/places/appadmin/index'
p4543
asbasbasbasbasbasbasbag56
(g72
g58
NtRp4544
(dp4545
g61
(dp4546
sg70
g4162
sg63
(lp4547
g56
(g77
g58
NtRp4548
(dp4549
g61
(dp4550
sg70
g4544
sg63
(lp4551
g56
(g57
g58
NtRp4552
(dp4553
g61
(dp4554
g69
I2
ssg70
g4548
sg63
(lp4555
g56
(g65
g58
NtRp4556
(dp4557
g61
(dp4558
g69
I1
ssg70
Nsg63
(lp4559
g56
(g72
g58
NtRp4560
(dp4561
g61
(dp4562
sg70
g4556
sg63
(lp4563
g56
(g77
g58
NtRp4564
(dp4565
g61
(dp4566
sg70
g4560
sg63
(lp4567
g56
(g57
g58
NtRp4568
(dp4569
g61
(dp4570
g69
I1
ssg70
g4564
sg63
(lp4571
g4053
(S't\x06\x00\x00\x00Errors'
tRp4572
asbasbasbag56
(g72
g58
NtRp4573
(dp4574
g61
(dp4575
sg70
g4556
sg63
(lp4576
g56
(g77
g58
NtRp4577
(dp4578
g61
(dp4579
sg70
g4573
sg63
(lp4580
g56
(g57
g58
NtRp4581
(dp4582
g61
(dp4583
g69
I1
ssg70
g4577
sg63
(lp4584
I00
asbasbasbag56
(g72
g58
NtRp4585
(dp4586
g61
(dp4587
sg70
g4556
sg63
(lp4588
g56
(g77
g58
NtRp4589
(dp4590
g61
(dp4591
sg70
g4585
sg63
(lp4592
g56
(g57
g58
NtRp4593
(dp4594
g61
(dp4595
g69
I1
ssg70
g4589
sg63
(lp4596
S'/admin/default/errors/places'
p4597
asbasbasbasbasbasbasbag56
(g72
g58
NtRp4598
(dp4599
g61
(dp4600
sg70
g4162
sg63
(lp4601
g56
(g77
g58
NtRp4602
(dp4603
g61
(dp4604
sg70
g4598
sg63
(lp4605
g56
(g57
g58
NtRp4606
(dp4607
g61
(dp4608
g69
I2
ssg70
g4602
sg63
(lp4609
g56
(g65
g58
NtRp4610
(dp4611
g61
(dp4612
g69
I1
ssg70
Nsg63
(lp4613
g56
(g72
g58
NtRp4614
(dp4615
g61
(dp4616
sg70
g4610
sg63
(lp4617
g56
(g77
g58
NtRp4618
(dp4619
g61
(dp4620
sg70
g4614
sg63
(lp4621
g56
(g57
g58
NtRp4622
(dp4623
g61
(dp4624
g69
I1
ssg70
g4618
sg63
(lp4625
g4053
(S't\x05\x00\x00\x00About'
tRp4626
asbasbasbag56
(g72
g58
NtRp4627
(dp4628
g61
(dp4629
sg70
g4610
sg63
(lp4630
g56
(g77
g58
NtRp4631
(dp4632
g61
(dp4633
sg70
g4627
sg63
(lp4634
g56
(g57
g58
NtRp4635
(dp4636
g61
(dp4637
g69
I1
ssg70
g4631
sg63
(lp4638
I00
asbasbasbag56
(g72
g58
NtRp4639
(dp4640
g61
(dp4641
sg70
g4610
sg63
(lp4642
g56
(g77
g58
NtRp4643
(dp4644
g61
(dp4645
sg70
g4639
sg63
(lp4646
g56
(g57
g58
NtRp4647
(dp4648
g61
(dp4649
g69
I1
ssg70
g4643
sg63
(lp4650
S'/admin/default/about/places'
p4651
asbasbasbasbasbasbasbasbasbasbasbasbasbasbasbag56
(g72
g58
NtRp4652
(dp4653
g61
(dp4654
sg70
g4021
sg63
(lp4655
g56
(g77
g58
NtRp4656
(dp4657
g61
(dp4658
sg70
g4652
sg63
(lp4659
g56
(g57
g58
NtRp4660
(dp4661
g61
(dp4662
g69
I4
ssg70
g4656
sg63
(lp4663
g56
(g65
g58
NtRp4664
(dp4665
g61
(dp4666
g69
I3
ssg70
Nsg63
(lp4667
g56
(g72
g58
NtRp4668
(dp4669
g61
(dp4670
sg70
g4664
sg63
(lp4671
g56
(g77
g58
NtRp4672
(dp4673
g61
(dp4674
sg70
g4668
sg63
(lp4675
g56
(g57
g58
NtRp4676
(dp4677
g61
(dp4678
g69
I3
ssg70
g4672
sg63
(lp4679
g4053
(S't\t\x00\x00\x00Resources'
tRp4680
asbasbasbag56
(g72
g58
NtRp4681
(dp4682
g61
(dp4683
sg70
g4664
sg63
(lp4684
g56
(g77
g58
NtRp4685
(dp4686
g61
(dp4687
sg70
g4681
sg63
(lp4688
g56
(g57
g58
NtRp4689
(dp4690
g61
(dp4691
g69
I3
ssg70
g4685
sg63
(lp4692
g99
asbasbasbag56
(g72
g58
NtRp4693
(dp4694
g61
(dp4695
sg70
g4664
sg63
(lp4696
g56
(g77
g58
NtRp4697
(dp4698
g61
(dp4699
sg70
g4693
sg63
(lp4700
g56
(g57
g58
NtRp4701
(dp4702
g61
(dp4703
g69
I3
ssg70
g4697
sg63
(lp4704
S'None'
p4705
asbasbasbag56
(g72
g58
NtRp4706
(dp4707
g61
(dp4708
sg70
g4664
sg63
(lp4709
g56
(g77
g58
NtRp4710
(dp4711
g61
(dp4712
sg70
g4706
sg63
(lp4713
g56
(g57
g58
NtRp4714
(dp4715
g61
(dp4716
g69
I3
ssg70
g4710
sg63
(lp4717
g56
(g65
g58
NtRp4718
(dp4719
g61
(dp4720
g69
I2
ssg70
Nsg63
(lp4721
g56
(g72
g58
NtRp4722
(dp4723
g61
(dp4724
sg70
g4718
sg63
(lp4725
g56
(g77
g58
NtRp4726
(dp4727
g61
(dp4728
sg70
g4722
sg63
(lp4729
g56
(g57
g58
NtRp4730
(dp4731
g61
(dp4732
g69
I2
ssg70
g4726
sg63
(lp4733
g56
(g65
g58
NtRp4734
(dp4735
g61
(dp4736
g69
I1
ssg70
Nsg63
(lp4737
g56
(g72
g58
NtRp4738
(dp4739
g61
(dp4740
sg70
g4734
sg63
(lp4741
g56
(g77
g58
NtRp4742
(dp4743
g61
(dp4744
sg70
g4738
sg63
(lp4745
g56
(g57
g58
NtRp4746
(dp4747
g61
(dp4748
g69
I1
ssg70
g4742
sg63
(lp4749
g4053
(S't\r\x00\x00\x00Documentation'
tRp4750
asbasbasbag56
(g72
g58
NtRp4751
(dp4752
g61
(dp4753
sg70
g4734
sg63
(lp4754
g56
(g77
g58
NtRp4755
(dp4756
g61
(dp4757
sg70
g4751
sg63
(lp4758
g56
(g57
g58
NtRp4759
(dp4760
g61
(dp4761
g69
I1
ssg70
g4755
sg63
(lp4762
I00
asbasbasbag56
(g72
g58
NtRp4763
(dp4764
g61
(dp4765
sg70
g4734
sg63
(lp4766
g56
(g77
g58
NtRp4767
(dp4768
g61
(dp4769
sg70
g4763
sg63
(lp4770
g56
(g57
g58
NtRp4771
(dp4772
g61
(dp4773
g69
I1
ssg70
g4767
sg63
(lp4774
S'http://www.web2py.com/book'
p4775
asbasbasbag56
(g72
g58
NtRp4776
(dp4777
g61
(dp4778
sg70
g4734
sg63
(lp4779
g56
(g77
g58
NtRp4780
(dp4781
g61
(dp4782
sg70
g4776
sg63
(lp4783
g56
(g57
g58
NtRp4784
(dp4785
g61
(dp4786
g69
I1
ssg70
g4780
sg63
(lp4787
(lp4788
(g4053
(S't\x07\x00\x00\x00Preface'
tRp4789
I00
S'http://www.web2py.com/book/default/chapter/00'
p4790
tp4791
a(g4053
(S't\x0c\x00\x00\x00Introduction'
tRp4792
I00
S'http://www.web2py.com/book/default/chapter/01'
p4793
tp4794
a(g4053
(S't\x06\x00\x00\x00Python'
tRp4795
I00
S'http://www.web2py.com/book/default/chapter/02'
p4796
tp4797
a(g4053
(S't\x08\x00\x00\x00Overview'
tRp4798
I00
S'http://www.web2py.com/book/default/chapter/03'
p4799
tp4800
a(g4053
(S's\x08\x00\x00\x00The Core'
tRp4801
I00
S'http://www.web2py.com/book/default/chapter/04'
p4802
tp4803
a(g4053
(S's\t\x00\x00\x00The Views'
tRp4804
I00
S'http://www.web2py.com/book/default/chapter/05'
p4805
tp4806
a(g4053
(S't\x08\x00\x00\x00Database'
tRp4807
I00
S'http://www.web2py.com/book/default/chapter/06'
p4808
tp4809
a(g4053
(S's\x14\x00\x00\x00Forms and Validators'
tRp4810
I00
S'http://www.web2py.com/book/default/chapter/07'
p4811
tp4812
a(g4053
(S's\x0e\x00\x00\x00Access Control'
tRp4813
I00
S'http://www.web2py.com/book/default/chapter/08'
p4814
tp4815
a(g4053
(S't\x08\x00\x00\x00Services'
tRp4816
I00
S'http://www.web2py.com/book/default/chapter/09'
p4817
tp4818
a(g4053
(S's\x0c\x00\x00\x00Ajax Recipes'
tRp4819
I00
S'http://www.web2py.com/book/default/chapter/10'
p4820
tp4821
a(g4053
(S's\x12\x00\x00\x00Deployment Recipes'
tRp4822
I00
S'http://www.web2py.com/book/default/chapter/11'
p4823
tp4824
a(g4053
(S's\r\x00\x00\x00Other Recipes'
tRp4825
I00
S'http://www.web2py.com/book/default/chapter/12'
p4826
tp4827
a(g4053
(S's\r\x00\x00\x00Buy this book'
tRp4828
I00
S'http://stores.lulu.com/web2py'
p4829
tp4830
aasbasbasbasbasbasbasbag56
(g72
g58
NtRp4831
(dp4832
g61
(dp4833
sg70
g4718
sg63
(lp4834
g56
(g77
g58
NtRp4835
(dp4836
g61
(dp4837
sg70
g4831
sg63
(lp4838
g56
(g57
g58
NtRp4839
(dp4840
g61
(dp4841
g69
I2
ssg70
g4835
sg63
(lp4842
g56
(g65
g58
NtRp4843
(dp4844
g61
(dp4845
g69
I1
ssg70
Nsg63
(lp4846
g56
(g72
g58
NtRp4847
(dp4848
g61
(dp4849
sg70
g4843
sg63
(lp4850
g56
(g77
g58
NtRp4851
(dp4852
g61
(dp4853
sg70
g4847
sg63
(lp4854
g56
(g57
g58
NtRp4855
(dp4856
g61
(dp4857
g69
I1
ssg70
g4851
sg63
(lp4858
g4053
(S't\t\x00\x00\x00Community'
tRp4859
asbasbasbag56
(g72
g58
NtRp4860
(dp4861
g61
(dp4862
sg70
g4843
sg63
(lp4863
g56
(g77
g58
NtRp4864
(dp4865
g61
(dp4866
sg70
g4860
sg63
(lp4867
g56
(g57
g58
NtRp4868
(dp4869
g61
(dp4870
g69
I1
ssg70
g4864
sg63
(lp4871
I00
asbasbasbag56
(g72
g58
NtRp4872
(dp4873
g61
(dp4874
sg70
g4843
sg63
(lp4875
g56
(g77
g58
NtRp4876
(dp4877
g61
(dp4878
sg70
g4872
sg63
(lp4879
g56
(g57
g58
NtRp4880
(dp4881
g61
(dp4882
g69
I1
ssg70
g4876
sg63
(lp4883
Nasbasbasbag56
(g72
g58
NtRp4884
(dp4885
g61
(dp4886
sg70
g4843
sg63
(lp4887
g56
(g77
g58
NtRp4888
(dp4889
g61
(dp4890
sg70
g4884
sg63
(lp4891
g56
(g57
g58
NtRp4892
(dp4893
g61
(dp4894
g69
I1
ssg70
g4888
sg63
(lp4895
(lp4896
(g4053
(S't\x06\x00\x00\x00Groups'
tRp4897
I00
S'http://www.web2py.com/examples/default/usergroups'
p4898
tp4899
a(g4053
(S't\x07\x00\x00\x00Twitter'
tRp4900
I00
S'http://twitter.com/web2py'
p4901
tp4902
a(g4053
(S's\t\x00\x00\x00Live chat'
tRp4903
I00
S'http://mibbit.com/?channel=%23web2py&server=irc.mibbit.net'
p4904
tp4905
a(g4053
(S's\n\x00\x00\x00User Voice'
tRp4906
I00
S'http://web2py.uservoice.com/'
p4907
tp4908
aasbasbasbasbasbasbasbag56
(g72
g58
NtRp4909
(dp4910
g61
(dp4911
sg70
g4718
sg63
(lp4912
g56
(g77
g58
NtRp4913
(dp4914
g61
(dp4915
sg70
g4909
sg63
(lp4916
g56
(g57
g58
NtRp4917
(dp4918
g61
(dp4919
g69
I2
ssg70
g4913
sg63
(lp4920
g56
(g65
g58
NtRp4921
(dp4922
g61
(dp4923
g69
I1
ssg70
Nsg63
(lp4924
g56
(g72
g58
NtRp4925
(dp4926
g61
(dp4927
sg70
g4921
sg63
(lp4928
g56
(g77
g58
NtRp4929
(dp4930
g61
(dp4931
sg70
g4925
sg63
(lp4932
g56
(g57
g58
NtRp4933
(dp4934
g61
(dp4935
g69
I1
ssg70
g4929
sg63
(lp4936
g4053
(S't\x06\x00\x00\x00Web2py'
tRp4937
asbasbasbag56
(g72
g58
NtRp4938
(dp4939
g61
(dp4940
sg70
g4921
sg63
(lp4941
g56
(g77
g58
NtRp4942
(dp4943
g61
(dp4944
sg70
g4938
sg63
(lp4945
g56
(g57
g58
NtRp4946
(dp4947
g61
(dp4948
g69
I1
ssg70
g4942
sg63
(lp4949
I00
asbasbasbag56
(g72
g58
NtRp4950
(dp4951
g61
(dp4952
sg70
g4921
sg63
(lp4953
g56
(g77
g58
NtRp4954
(dp4955
g61
(dp4956
sg70
g4950
sg63
(lp4957
g56
(g57
g58
NtRp4958
(dp4959
g61
(dp4960
g69
I1
ssg70
g4954
sg63
(lp4961
S'http://www.web2py.com'
p4962
asbasbasbag56
(g72
g58
NtRp4963
(dp4964
g61
(dp4965
sg70
g4921
sg63
(lp4966
g56
(g77
g58
NtRp4967
(dp4968
g61
(dp4969
sg70
g4963
sg63
(lp4970
g56
(g57
g58
NtRp4971
(dp4972
g61
(dp4973
g69
I1
ssg70
g4967
sg63
(lp4974
(lp4975
(g4053
(S't\x08\x00\x00\x00Download'
tRp4976
I00
S'http://www.web2py.com/examples/default/download'
p4977
tp4978
a(g4053
(S't\x07\x00\x00\x00Support'
tRp4979
I00
S'http://www.web2py.com/examples/default/support'
p4980
tp4981
a(g4053
(S's\x0e\x00\x00\x00Quick Examples'
tRp4982
I00
S'http://web2py.com/examples/default/examples'
p4983
tp4984
a(g4053
(S't\x03\x00\x00\x00FAQ'
tRp4985
I00
S'http://web2py.com/AlterEgo'
p4986
tp4987
a(g4053
(S's\x11\x00\x00\x00Free Applications'
tRp4988
I00
S'http://web2py.com/appliances'
p4989
tp4990
a(g4053
(S't\x07\x00\x00\x00Plugins'
tRp4991
I00
S'http://web2py.com/plugins'
p4992
tp4993
a(g4053
(S't\x07\x00\x00\x00Recipes'
tRp4994
I00
S'http://web2pyslices.com/'
p4995
tp4996
a(g4053
(S't\x04\x00\x00\x00Demo'
tRp4997
I00
S'http://web2py.com/demo_admin'
p4998
tp4999
a(g4053
(S't\x08\x00\x00\x00Semantic'
tRp5000
I00
S'http://web2py.com/semantic'
p5001
tp5002
a(g4053
(S't\x07\x00\x00\x00Layouts'
tRp5003
I00
S'http://web2py.com/layouts'
p5004
tp5005
a(g4053
(S't\x06\x00\x00\x00Videos'
tRp5006
I00
S'http://www.web2py.com/examples/default/videos/'
p5007
tp5008
aasbasbasbasbasbasbasbasbasbasbasbasbasbasbasbasbasbasbasbag56
(g72
g58
NtRp5009
(dp5010
g61
(dp5011
sg70
g3470
sg63
(lp5012
g56
(g77
g58
NtRp5013
(dp5014
g61
(dp5015
g81
g82
ssg70
g5009
sg63
(lp5016
S'meta'
p5017
asbag56
(g77
g58
NtRp5018
(dp5019
g61
(dp5020
g88
g89
ssg70
g5009
sg63
(lp5021
S':'
asbag56
(g77
g58
NtRp5022
(dp5023
g61
(dp5024
sg70
g5009
sg63
(lp5025
g56
(g57
g58
NtRp5026
(dp5027
g61
(dp5028
g69
I5
ssg70
g5022
sg63
(lp5029
g56
(g65
g58
NtRp5030
(dp5031
g61
(dp5032
g69
I4
ssg70
Nsg63
(lp5033
g56
(g72
g58
NtRp5034
(dp5035
g61
(dp5036
sg70
g5030
sg63
(lp5037
g56
(g77
g58
NtRp5038
(dp5039
g61
(dp5040
g81
g82
ssg70
g5034
sg63
(lp5041
S'author'
p5042
asbag56
(g77
g58
NtRp5043
(dp5044
g61
(dp5045
g88
g89
ssg70
g5034
sg63
(lp5046
S':'
asbag56
(g77
g58
NtRp5047
(dp5048
g61
(dp5049
sg70
g5034
sg63
(lp5050
g56
(g57
g58
NtRp5051
(dp5052
g61
(dp5053
g69
I4
ssg70
g5047
sg63
(lp5054
S'Your Name <you@example.com>'
p5055
asbasbasbag56
(g72
g58
NtRp5056
(dp5057
g61
(dp5058
sg70
g5030
sg63
(lp5059
g56
(g77
g58
NtRp5060
(dp5061
g61
(dp5062
g81
g82
ssg70
g5056
sg63
(lp5063
S'copyright'
p5064
asbag56
(g77
g58
NtRp5065
(dp5066
g61
(dp5067
g88
g89
ssg70
g5056
sg63
(lp5068
S':'
asbag56
(g77
g58
NtRp5069
(dp5070
g61
(dp5071
sg70
g5056
sg63
(lp5072
g56
(g57
g58
NtRp5073
(dp5074
g61
(dp5075
g69
I4
ssg70
g5069
sg63
(lp5076
S'Copyright 2011'
p5077
asbasbasbag56
(g72
g58
NtRp5078
(dp5079
g61
(dp5080
sg70
g5030
sg63
(lp5081
g56
(g77
g58
NtRp5082
(dp5083
g61
(dp5084
g81
g82
ssg70
g5078
sg63
(lp5085
S'description'
p5086
asbag56
(g77
g58
NtRp5087
(dp5088
g61
(dp5089
g88
g89
ssg70
g5078
sg63
(lp5090
S':'
asbag56
(g77
g58
NtRp5091
(dp5092
g61
(dp5093
sg70
g5078
sg63
(lp5094
g56
(g57
g58
NtRp5095
(dp5096
g61
(dp5097
g69
I4
ssg70
g5091
sg63
(lp5098
S'a cool new app'
p5099
asbasbasbag56
(g72
g58
NtRp5100
(dp5101
g61
(dp5102
sg70
g5030
sg63
(lp5103
g56
(g77
g58
NtRp5104
(dp5105
g61
(dp5106
g81
g82
ssg70
g5100
sg63
(lp5107
S'generator'
p5108
asbag56
(g77
g58
NtRp5109
(dp5110
g61
(dp5111
g88
g89
ssg70
g5100
sg63
(lp5112
S':'
asbag56
(g77
g58
NtRp5113
(dp5114
g61
(dp5115
sg70
g5100
sg63
(lp5116
g56
(g57
g58
NtRp5117
(dp5118
g61
(dp5119
g69
I4
ssg70
g5113
sg63
(lp5120
S'Web2py Web Framework'
p5121
asbasbasbag56
(g72
g58
NtRp5122
(dp5123
g61
(dp5124
sg70
g5030
sg63
(lp5125
g56
(g77
g58
NtRp5126
(dp5127
g61
(dp5128
g81
g82
ssg70
g5122
sg63
(lp5129
S'keywords'
p5130
asbag56
(g77
g58
NtRp5131
(dp5132
g61
(dp5133
g88
g89
ssg70
g5122
sg63
(lp5134
S':'
asbag56
(g77
g58
NtRp5135
(dp5136
g61
(dp5137
sg70
g5122
sg63
(lp5138
g56
(g57
g58
NtRp5139
(dp5140
g61
(dp5141
g69
I4
ssg70
g5135
sg63
(lp5142
S'web2py, python, framework'
p5143
asbasbasbasbasbasbasbag56
(g72
g58
NtRp5144
(dp5145
g61
(dp5146
sg70
g3470
sg63
(lp5147
g56
(g77
g58
NtRp5148
(dp5149
g61
(dp5150
g81
g82
ssg70
g5144
sg63
(lp5151
S'postprocessing'
p5152
asbag56
(g77
g58
NtRp5153
(dp5154
g61
(dp5155
g88
g89
ssg70
g5144
sg63
(lp5156
S':'
asbag56
(g77
g58
NtRp5157
(dp5158
g61
(dp5159
sg70
g5144
sg63
(lp5160
g56
(g57
g58
NtRp5161
(dp5162
g61
(dp5163
g69
I5
ssg70
g5157
sg63
(lp5164
g56
(g65
g58
NtRp5165
(dp5166
g61
(dp5167
g69
I4
ssg70
Nsg63
(lp5168
sbasbasbasbag56
(g72
g58
NtRp5169
(dp5170
g61
(dp5171
sg70
g3470
sg63
(lp5172
g56
(g77
g58
NtRp5173
(dp5174
g61
(dp5175
g81
g82
ssg70
g5169
sg63
(lp5176
S'session_file'
p5177
asbag56
(g77
g58
NtRp5178
(dp5179
g61
(dp5180
g88
g89
ssg70
g5169
sg63
(lp5181
S':'
asbag56
(g77
g58
NtRp5182
(dp5183
g61
(dp5184
sg70
g5169
sg63
(lp5185
g56
(g57
g58
NtRp5186
(dp5187
g61
(dp5188
g69
I5
ssg70
g5182
sg63
(lp5189
S"<open file '/home/ian/Dropbox/Web_Pages/web2py-linux/applications/places/sessions/127.0.0.1-ae378f77-b944-4a55-be06-eed4ce913913', mode 'rb+' at 0x3f72030>"
p5190
asbasbasbag56
(g72
g58
NtRp5191
(dp5192
g61
(dp5193
sg70
g3470
sg63
(lp5194
g56
(g77
g58
NtRp5195
(dp5196
g61
(dp5197
g81
g82
ssg70
g5191
sg63
(lp5198
S'session_filename'
p5199
asbag56
(g77
g58
NtRp5200
(dp5201
g61
(dp5202
g88
g89
ssg70
g5191
sg63
(lp5203
S':'
asbag56
(g77
g58
NtRp5204
(dp5205
g61
(dp5206
sg70
g5191
sg63
(lp5207
g56
(g57
g58
NtRp5208
(dp5209
g61
(dp5210
g69
I5
ssg70
g5204
sg63
(lp5211
S'/home/ian/Dropbox/Web_Pages/web2py-linux/applications/places/sessions/127.0.0.1-ae378f77-b944-4a55-be06-eed4ce913913'
p5212
asbasbasbag56
(g72
g58
NtRp5213
(dp5214
g61
(dp5215
sg70
g3470
sg63
(lp5216
g56
(g77
g58
NtRp5217
(dp5218
g61
(dp5219
g81
g82
ssg70
g5213
sg63
(lp5220
S'session_id'
p5221
asbag56
(g77
g58
NtRp5222
(dp5223
g61
(dp5224
g88
g89
ssg70
g5213
sg63
(lp5225
S':'
asbag56
(g77
g58
NtRp5226
(dp5227
g61
(dp5228
sg70
g5213
sg63
(lp5229
g56
(g57
g58
NtRp5230
(dp5231
g61
(dp5232
g69
I5
ssg70
g5226
sg63
(lp5233
S'127.0.0.1-ae378f77-b944-4a55-be06-eed4ce913913'
p5234
asbasbasbag56
(g72
g58
NtRp5235
(dp5236
g61
(dp5237
sg70
g3470
sg63
(lp5238
g56
(g77
g58
NtRp5239
(dp5240
g61
(dp5241
g81
g82
ssg70
g5235
sg63
(lp5242
S'session_id_name'
p5243
asbag56
(g77
g58
NtRp5244
(dp5245
g61
(dp5246
g88
g89
ssg70
g5235
sg63
(lp5247
S':'
asbag56
(g77
g58
NtRp5248
(dp5249
g61
(dp5250
sg70
g5235
sg63
(lp5251
g56
(g57
g58
NtRp5252
(dp5253
g61
(dp5254
g69
I5
ssg70
g5248
sg63
(lp5255
g3527
asbasbasbag56
(g72
g58
NtRp5256
(dp5257
g61
(dp5258
sg70
g3470
sg63
(lp5259
g56
(g77
g58
NtRp5260
(dp5261
g61
(dp5262
g81
g82
ssg70
g5256
sg63
(lp5263
S'session_locked'
p5264
asbag56
(g77
g58
NtRp5265
(dp5266
g61
(dp5267
g88
g89
ssg70
g5256
sg63
(lp5268
S':'
asbag56
(g77
g58
NtRp5269
(dp5270
g61
(dp5271
sg70
g5256
sg63
(lp5272
g56
(g57
g58
NtRp5273
(dp5274
g61
(dp5275
g69
I5
ssg70
g5269
sg63
(lp5276
g2026
asbasbasbag56
(g72
g58
NtRp5277
(dp5278
g61
(dp5279
sg70
g3470
sg63
(lp5280
g56
(g77
g58
NtRp5281
(dp5282
g61
(dp5283
g81
g82
ssg70
g5277
sg63
(lp5284
S'session_new'
p5285
asbag56
(g77
g58
NtRp5286
(dp5287
g61
(dp5288
g88
g89
ssg70
g5277
sg63
(lp5289
S':'
asbag56
(g77
g58
NtRp5290
(dp5291
g61
(dp5292
sg70
g5277
sg63
(lp5293
g56
(g57
g58
NtRp5294
(dp5295
g61
(dp5296
g69
I5
ssg70
g5290
sg63
(lp5297
g99
asbasbasbag56
(g72
g58
NtRp5298
(dp5299
g61
(dp5300
sg70
g3470
sg63
(lp5301
g56
(g77
g58
NtRp5302
(dp5303
g61
(dp5304
g81
g82
ssg70
g5298
sg63
(lp5305
S'status'
p5306
asbag56
(g77
g58
NtRp5307
(dp5308
g61
(dp5309
g88
g89
ssg70
g5298
sg63
(lp5310
S':'
asbag56
(g77
g58
NtRp5311
(dp5312
g61
(dp5313
sg70
g5298
sg63
(lp5314
g56
(g57
g58
NtRp5315
(dp5316
g61
(dp5317
g69
I5
ssg70
g5311
sg63
(lp5318
S'200'
p5319
asbasbasbag56
(g72
g58
NtRp5320
(dp5321
g61
(dp5322
sg70
g3470
sg63
(lp5323
g56
(g77
g58
NtRp5324
(dp5325
g61
(dp5326
g81
g82
ssg70
g5320
sg63
(lp5327
S'subtitle'
p5328
asbag56
(g77
g58
NtRp5329
(dp5330
g61
(dp5331
g88
g89
ssg70
g5320
sg63
(lp5332
S':'
asbag56
(g77
g58
NtRp5333
(dp5334
g61
(dp5335
sg70
g5320
sg63
(lp5336
g56
(g57
g58
NtRp5337
(dp5338
g61
(dp5339
g69
I5
ssg70
g5333
sg63
(lp5340
g4053
(S's\r\x00\x00\x00customize me!'
tRp5341
asbasbasbag56
(g72
g58
NtRp5342
(dp5343
g61
(dp5344
sg70
g3470
sg63
(lp5345
g56
(g77
g58
NtRp5346
(dp5347
g61
(dp5348
g81
g82
ssg70
g5342
sg63
(lp5349
S'title'
p5350
asbag56
(g77
g58
NtRp5351
(dp5352
g61
(dp5353
g88
g89
ssg70
g5342
sg63
(lp5354
S':'
asbag56
(g77
g58
NtRp5355
(dp5356
g61
(dp5357
sg70
g5342
sg63
(lp5358
g56
(g57
g58
NtRp5359
(dp5360
g61
(dp5361
g69
I5
ssg70
g5355
sg63
(lp5362
g121
asbasbasbag56
(g72
g58
NtRp5363
(dp5364
g61
(dp5365
sg70
g3470
sg63
(lp5366
g56
(g77
g58
NtRp5367
(dp5368
g61
(dp5369
g81
g82
ssg70
g5363
sg63
(lp5370
g2670
asbag56
(g77
g58
NtRp5371
(dp5372
g61
(dp5373
g88
g89
ssg70
g5363
sg63
(lp5374
S':'
asbag56
(g77
g58
NtRp5375
(dp5376
g61
(dp5377
sg70
g5363
sg63
(lp5378
g56
(g57
g58
NtRp5379
(dp5380
g61
(dp5381
g69
I5
ssg70
g5375
sg63
(lp5382
g2683
asbasbasbag56
(g72
g58
NtRp5383
(dp5384
g61
(dp5385
sg70
g3470
sg63
(lp5386
g56
(g77
g58
NtRp5387
(dp5388
g61
(dp5389
g81
g82
ssg70
g5383
sg63
(lp5390
S'view'
p5391
asbag56
(g77
g58
NtRp5392
(dp5393
g61
(dp5394
g88
g89
ssg70
g5383
sg63
(lp5395
S':'
asbag56
(g77
g58
NtRp5396
(dp5397
g61
(dp5398
sg70
g5383
sg63
(lp5399
g56
(g57
g58
NtRp5400
(dp5401
g61
(dp5402
g69
I5
ssg70
g5396
sg63
(lp5403
S'default/index.html'
p5404
asbasbasbasbasbsS'locals'
p5405
(dp5406
S'Service'
p5407
S"<class 'gluon.tools.Service'>"
p5408
sS'OBJECT'
p5409
S"<class 'gluon.html.OBJECT'>"
p5410
sS'SQLDB'
p5411
S"<class 'gluon.dal.DAL'>"
p5412
sg3385
S"<Storage {'last_query': 'db.tags.id>0', 'tags': ...reate]': 'a842512c-b0e5-49e5-820c-2809334c3c2e'}>"
p5413
sS'LINK'
p5414
S"<class 'gluon.html.LINK'>"
p5415
sS'BR'
p5416
S"<class 'gluon.html.BR'>"
p5417
sS'local_import'
p5418
S'<function <lambda>>'
p5419
sS'OPTGROUP'
p5420
S"<class 'gluon.html.OPTGROUP'>"
p5421
sS'PRE'
p5422
S"<class 'gluon.html.PRE'>"
p5423
sS'IS_INT_IN_RANGE'
p5424
S"<class 'gluon.validators.IS_INT_IN_RANGE'>"
p5425
sS'left_sidebar_enabled'
p5426
g99
sS'IS_LOWER'
p5427
S"<class 'gluon.validators.IS_LOWER'>"
p5428
sS'IS_STRONG'
p5429
S"<class 'gluon.validators.IS_STRONG'>"
p5430
sS'cache'
p5431
S'<gluon.cache.Cache object>'
p5432
sS'IS_IN_DB'
p5433
S"<class 'gluon.validators.IS_IN_DB'>"
p5434
sS'TAG'
p5435
S'<gluon.html.__TAG__ object>'
p5436
sS'SQLField'
p5437
S"<class 'gluon.dal.Field'>"
p5438
sS'mail'
p5439
S'<gluon.tools.Mail object>'
p5440
sS'BODY'
p5441
S"<class 'gluon.html.BODY'>"
p5442
sS'IS_DATE_IN_RANGE'
p5443
S"<class 'gluon.validators.IS_DATE_IN_RANGE'>"
p5444
sS'TH'
p5445
S"<class 'gluon.html.TH'>"
p5446
sS'URL'
p5447
S'<function URL>'
p5448
sS'__file__'
p5449
S"'/home/ian/Dropbox/Web_Pages/web2py-linux/applications/places/views/default/index.html'"
p5450
sS'db'
p5451
S"<DAL {'auth_event': <Table {'origin': <gluon.dal..., 'id': <gluon.dal.Field object at 0x3f8e790>}>}>"
p5452
sS'auth'
p5453
S'<gluon.tools.Auth object>'
p5454
sS'P'
S"<class 'gluon.html.P'>"
p5455
sS'TFOOT'
p5456
S"<class 'gluon.html.TFOOT'>"
p5457
sS'XHTML'
p5458
S"<class 'gluon.html.XHTML'>"
p5459
sS'ON'
p5460
g2026
sS'OL'
p5461
S"<class 'gluon.html.OL'>"
p5462
sS'TEXTAREA'
p5463
S"<class 'gluon.html.TEXTAREA'>"
p5464
sS'MENU'
p5465
S"<class 'gluon.html.MENU'>"
p5466
sS'LOAD'
p5467
S'<gluon.compileapp.LoadFactory object>'
p5468
sS'CODE'
p5469
S"<class 'gluon.html.CODE'>"
p5470
sS'HTTP'
p5471
S"<class 'gluon.http.HTTP'>"
p5472
sS'HR'
p5473
S"<class 'gluon.html.HR'>"
p5474
sS'IS_DATETIME'
p5475
S"<class 'gluon.validators.IS_DATETIME'>"
p5476
sS'HEAD'
p5477
S"<class 'gluon.html.HEAD'>"
p5478
sS'LABEL'
p5479
S"<class 'gluon.html.LABEL'>"
p5480
sS'CLEANUP'
p5481
S"<class 'gluon.validators.CLEANUP'>"
p5482
sS'plugins'
p5483
S'<gluon.tools.PluginManager object>'
p5484
sS'SELECT'
p5485
S"<class 'gluon.html.SELECT'>"
p5486
sS'use_janrain'
p5487
S'<function use_janrain>'
p5488
sS'CENTER'
p5489
S"<class 'gluon.html.CENTER'>"
p5490
sS'prettydate'
p5491
S'<function prettydate>'
p5492
sS'Crud'
p5493
S"<class 'gluon.tools.Crud'>"
p5494
sS'Auth'
p5495
S"<class 'gluon.tools.Auth'>"
p5496
sS'__builtins__'
p5497
S"{'ArithmeticError': <type 'exceptions.ArithmeticError'>, 'AssertionError': <type 'exceptions.AssertionError'>, 'AttributeError': <type 'exceptions.AttributeError'>, 'BaseException': <type 'exceptions.BaseException'>, 'BufferError': <type 'exceptions.BufferError'>, 'BytesWarning': <type 'exceptions.BytesWarning'>, 'DeprecationWarning': <type 'exceptions.DeprecationWarning'>, 'EOFError': <type 'exceptions.EOFError'>, 'Ellipsis': Ellipsis, 'EnvironmentError': <type 'exceptions.EnvironmentError'>, ...}"
p5498
sS'HTML'
p5499
S"<class 'gluon.html.HTML'>"
p5500
sS'SQLFORM'
p5501
S"<class 'gluon.sqlhtml.SQLFORM'>"
p5502
sS'EM'
p5503
S"<class 'gluon.html.EM'>"
p5504
sS'redirect'
p5505
S'<function redirect>'
p5506
sS'FIELDSET'
p5507
S"<class 'gluon.html.FIELDSET'>"
p5508
sS'IS_EQUAL_TO'
p5509
S"<class 'gluon.validators.IS_EQUAL_TO'>"
p5510
sS'embed64'
p5511
S'<function embed64>'
p5512
sS'IS_LIST_OF'
p5513
S"<class 'gluon.validators.IS_LIST_OF'>"
p5514
sS'INPUT'
p5515
S"<class 'gluon.html.INPUT'>"
p5516
sS'EMBED'
p5517
S"<class 'gluon.html.EMBED'>"
p5518
sS'_'
S'<function _>'
p5519
sS'FORM'
p5520
S"<class 'gluon.html.FORM'>"
p5521
sS'width_content'
p5522
S"'100%'"
p5523
sS'H2'
p5524
S"<class 'gluon.html.H2'>"
p5525
sS'H3'
p5526
S"<class 'gluon.html.H3'>"
p5527
sS'BUTTON'
p5528
S"<class 'gluon.html.BUTTON'>"
p5529
sS'H1'
p5530
S"<class 'gluon.html.H1'>"
p5531
sS'H6'
p5532
S"<class 'gluon.html.H6'>"
p5533
sS'H4'
p5534
S"<class 'gluon.html.H4'>"
p5535
sS'H5'
p5536
S"<class 'gluon.html.H5'>"
p5537
sS'UL'
p5538
S"<class 'gluon.html.UL'>"
p5539
sS'IS_UPPER'
p5540
S"<class 'gluon.validators.IS_UPPER'>"
p5541
sS'xmlescape'
p5542
S'<function xmlescape>'
p5543
sS'IS_TIME'
p5544
S"<class 'gluon.validators.IS_TIME'>"
p5545
sS'OPTION'
p5546
S"<class 'gluon.html.OPTION'>"
p5547
sS'TITLE'
p5548
S"<class 'gluon.html.TITLE'>"
p5549
sS'CRYPT'
p5550
S"<class 'gluon.validators.CRYPT'>"
p5551
sS'IS_EMPTY_OR'
p5552
S"<class 'gluon.validators.IS_EMPTY_OR'>"
p5553
sS'MARKMIN'
p5554
S"<class 'gluon.html.MARKMIN'>"
p5555
sS'COL'
p5556
S"<class 'gluon.html.COL'>"
p5557
sS'service'
p5558
S'<gluon.tools.Service object>'
p5559
sS'SCRIPT'
p5560
S"<class 'gluon.html.SCRIPT'>"
p5561
sS'TABLE'
p5562
S"<class 'gluon.html.TABLE'>"
p5563
sS'IS_IPV4'
p5564
S"<class 'gluon.validators.IS_IPV4'>"
p5565
sS'IS_LENGTH'
p5566
S"<class 'gluon.validators.IS_LENGTH'>"
p5567
sS'XML'
p5568
S"<class 'gluon.html.XML'>"
p5569
sS'B'
S"<class 'gluon.html.B'>"
p5570
sS'IMG'
p5571
S"<class 'gluon.html.IMG'>"
p5572
sS'SQLTABLE'
p5573
S"<class 'gluon.sqlhtml.SQLTABLE'>"
p5574
sS'IS_MATCH'
p5575
S"<class 'gluon.validators.IS_MATCH'>"
p5576
sS'IS_ALPHANUMERIC'
p5577
S"<class 'gluon.validators.IS_ALPHANUMERIC'>"
p5578
sS'SPAN'
p5579
S"<class 'gluon.html.SPAN'>"
p5580
sS'IS_SLUG'
p5581
S"<class 'gluon.validators.IS_SLUG'>"
p5582
sS'BEAUTIFY'
p5583
S"<class 'gluon.html.BEAUTIFY'>"
p5584
sS'META'
p5585
S"<class 'gluon.html.META'>"
p5586
sS'IS_DATE'
p5587
S"<class 'gluon.validators.IS_DATE'>"
p5588
sS'IS_EMAIL'
p5589
S"<class 'gluon.validators.IS_EMAIL'>"
p5590
sS'links'
p5591
S'<gluon.dal.Rows object>'
p5592
sS'IS_NOT_EMPTY'
p5593
S"<class 'gluon.validators.IS_NOT_EMPTY'>"
p5594
sS'IS_FLOAT_IN_RANGE'
p5595
S"<class 'gluon.validators.IS_FLOAT_IN_RANGE'>"
p5596
sS'TBODY'
p5597
S"<class 'gluon.html.TBODY'>"
p5598
sS'CAT'
p5599
S"<class 'gluon.html.CAT'>"
p5600
sS'Field'
p5601
S"<class 'gluon.dal.Field'>"
p5602
sS'tag'
p5603
S"<Row {'update_record': <function <lambda> at 0x3...elete_record': <function <lambda> at 0x3f9b0c8>}>"
p5604
sS'DIV'
p5605
S"<class 'gluon.html.DIV'>"
p5606
sS'LEGEND'
p5607
S"<class 'gluon.html.LEGEND'>"
p5608
sS'COLGROUP'
p5609
S"<class 'gluon.html.COLGROUP'>"
p5610
sS'DAL'
p5611
S"<class 'gluon.dal.DAL'>"
p5612
sS'TT'
p5613
S"<class 'gluon.html.TT'>"
p5614
sS'TR'
p5615
S"<class 'gluon.html.TR'>"
p5616
sS'LI'
p5617
S"<class 'gluon.html.LI'>"
p5618
sS'right_sidebar_enabled'
p5619
g99
sS'IFRAME'
p5620
S"<class 'gluon.html.IFRAME'>"
p5621
sS'TD'
p5622
S"<class 'gluon.html.TD'>"
p5623
sS'PluginManager'
p5624
S"<class 'gluon.tools.PluginManager'>"
p5625
sS'IS_URL'
p5626
S"<class 'gluon.validators.IS_URL'>"
p5627
sS'A'
S"<class 'gluon.html.A'>"
p5628
sS'STYLE'
p5629
S"<class 'gluon.html.STYLE'>"
p5630
sS'IS_DATETIME_IN_RANGE'
p5631
S"<class 'gluon.validators.IS_DATETIME_IN_RANGE'>"
p5632
sS'IS_IMAGE'
p5633
S"<class 'gluon.validators.IS_IMAGE'>"
p5634
sS'I'
S"<class 'gluon.html.I'>"
p5635
sS'crud'
p5636
S'<gluon.tools.Crud object>'
p5637
sS'right_sidebar_style'
p5638
S'\'style="display: none;"\''
p5639
sS'IS_NOT_IN_DB'
p5640
S"<class 'gluon.validators.IS_NOT_IN_DB'>"
p5641
sg3465
S"<Storage {'body': <cStringIO.StringO object at 0...da> at 0x3f89140>, 'view': 'default/index.html'}>"
p5642
sS'THEAD'
p5643
S"<class 'gluon.html.THEAD'>"
p5644
sS'IS_NULL_OR'
p5645
S"<class 'gluon.validators.IS_EMPTY_OR'>"
p5646
sS'left_sidebar_style'
p5647
S'\'style="display: none;"\''
p5648
sg55
S"<Storage {'body': <cStringIO.StringO object at 0..._vars': <Storage {}>, 'post_vars': <Storage {}>}>"
p5649
sS'IS_EXPR'
p5650
S"<class 'gluon.validators.IS_EXPR'>"
p5651
sS'T'
S'<gluon.languages.translator object>'
p5652
sS'IS_IN_SET'
p5653
S"<class 'gluon.validators.IS_IN_SET'>"
p5654
sS'IS_UPLOAD_FILENAME'
p5655
S"<class 'gluon.validators.IS_UPLOAD_FILENAME'>"
p5656
sS'style_content'
p5657
S'\'style="width: 100%"\''
p5658
sS'IS_DECIMAL_IN_RANGE'
p5659
S"<class 'gluon.validators.IS_DECIMAL_IN_RANGE'>"
p5660
sssS'traceback'
p5661
S'Traceback (most recent call last):\n  File "/home/ian/Dropbox/Web_Pages/web2py-linux/gluon/restricted.py", line 194, in restricted\n    exec ccode in environment\n  File "/home/ian/Dropbox/Web_Pages/web2py-linux/applications/places/views/default/index.html", line 88, in <module>\nNameError: name \'_href\' is not defined\n'
p5662
s.