(dp1
S'output'
p2
S''
sS'layer'
p3
S'/home/ian/web2py/applications/places/views/default/index.html'
p4
sS'code'
p5
S'left_sidebar_enabled=right_sidebar_enabled=False\nresponse.write(\'\\n\', escape=False)\nresponse.write(\'<!DOCTYPE html>\\n<html lang="\', escape=False)\nresponse.write(T.accepted_language or \'en\')\nresponse.write(\'" class="no-js"><!-- no-js need it for modernzr -->\\n  <head>\\n    \\n    <meta charset="utf-8" />        \\n    <!-- www.phpied.com/conditional-comments-block-downloads/ -->\\n    <!--[if IE]><![endif]-->    \\n    <!-- Always force latest IE rendering engine \\n     (even in intranet) & Chrome Frame \\n     Remove this if you use the .htaccess -->\\n    <meta http-equiv="X-UA-Compatible" content="IE=edge,chrome=1">\\n    \\n    <title>\', escape=False)\nresponse.write(response.title or request.application)\nresponse.write(\'</title>\\n    \\n    <!-- http://dev.w3.org/html5/markup/meta.name.html -->\\n    <meta name="application-name" content="\', escape=False)\nresponse.write(request.application)\nresponse.write(\'" /> \\n    \\n    <!-- Speaking of Google, don\\\'t forget to set your site up: \\n     http://google.com/webmasters -->\\n    <meta name="google-site-verification" content="" />\\n    \\n    <!--  Mobile Viewport Fix\\n      j.mp/mobileviewport & davidbcalhoun.com/2010/viewport-metatag \\n      device-width: Occupy full width of the screen in its current orientation\\n      initial-scale = 1.0 retains dimensions instead of zooming out if page height > device height\\n      maximum-scale = 1.0 retains dimensions instead of zooming in if page width < device width\\n      -->\\n    <meta name="viewport" content="width=device-width, initial-scale=1.0, maximum-scale=1.0">\\n    \\n    <!-- Place favicon.ico and apple-touch-icon.png in the root of your domain and delete these references -->\\n    <link rel="shortcut icon" href="\', escape=False)\nresponse.write(URL(\'static\',\'favicon.ico\'))\nresponse.write(\'" type="image/x-icon">\\n    <link rel="apple-touch-icon" href="\', escape=False)\nresponse.write(URL(\'static\',\'favicon.png\'))\nresponse.write(\'">\\n\\n    <!-- For the less-enabled mobile browsers like Opera Mini -->\\n    <link rel="stylesheet" media="handheld" href="\', escape=False)\nresponse.write(URL(\'static\',\'css/handheld.css\'))\nresponse.write(\'">\\n    \\n    <!-- All JavaScript at the bottom, except for Modernizr which enables HTML5 elements & feature detects -->\\n    <script src="\', escape=False)\nresponse.write(URL(\'static\',\'js/modernizr-1.7.min.js\'))\nresponse.write(\'"></script>\\n    \\n    \', escape=False)\n#------  require CSS and JS files for this page (read info in base.css) ------\nresponse.write(\'\\n    \', escape=False)\nresponse.files.append(URL(\'static\',\'css/base.css\'))\nresponse.write(\'\\n    \', escape=False)\nresponse.files.append(URL(\'static\',\'css/superfish.css\'))\nresponse.write(\'\\n    \', escape=False)\nresponse.files.append(URL(\'static\',\'js/superfish.js\'))\nresponse.write(\'\\n    \', escape=False)\n#------ include web2py specific js code (jquery, calendar, form stuff) ------\nresponse.write(\'\\n    \', escape=False)\nresponse.files.insert(0,URL(\'static\',\'js/jquery.js\'))\nresponse.files.insert(1,URL(\'static\',\'css/anytime.css\'))\nresponse.files.insert(2,URL(\'static\',\'js/anytime.js\'))\nresponse.include_meta()\nresponse.include_files()\nresponse.write(\'\\n<script type="text/javascript"><!--\\n    // These variables are used by the web2py_ajax_init function in web2py_ajax.js (which is loaded below).\\n    var w2p_ajax_confirm_message = "\', escape=False)\nresponse.write(T(\'Are you sure you want to delete this object?\'))\nresponse.write(\'";\\n    var w2p_ajax_date_format = "\', escape=False)\nresponse.write(T(\'%Y-%m-%d\'))\nresponse.write(\'";\\n    var w2p_ajax_datetime_format = "\', escape=False)\nresponse.write(T(\'%Y-%m-%d %H:%M:%S\'))\nresponse.write(\'";\\n    //--></script>\\n    <script src="\', escape=False)\nresponse.write(URL(\'static\',\'js/web2py_ajax.js\'))\nresponse.write(\'" type="text/javascript"></script>\\n\', escape=False)\nresponse.write(\'\\n\\n    \', escape=False)\n#using sidebars need to know what sidebar you want to use\n#prior of using it, because of static width size of content, you can use\n#left_sidebar, right_sidebar, both or none (False left and right)\nleft_sidebar_enabled = globals().get(\'left_sidebar_enabled\',False)\nright_sidebar_enabled = globals().get(\'right_sidebar_enabled\',False)\nif left_sidebar_enabled and right_sidebar_enabled: width_content=\'63%\'\nelif left_sidebar_enabled != right_sidebar_enabled: width_content=\'740px\'\nelse: width_content=\'100%\'\nif left_sidebar_enabled: left_sidebar_style = \'style="display: block;"\'\nelse: left_sidebar_style = \'style="display: none;"\'\nif right_sidebar_enabled: right_sidebar_style = \'style="display: block;"\'\nelse: right_sidebar_style = \'style="display: none;"\'\nstyle_content = \'style="width: %s"\' % width_content\nresponse.write(\'\\n    \\n    <!--use html5shiv to let IE see new html entities and give them block style so that they are treated properly--> \\n    <!--[if IE]>\\n        <script src="http://html5shiv.googlecode.com/svn/trunk/html5.js"></script>\\n    <![endif]-->\\n    <style>\\n      article, aside, details, figcaption, figure, footer, header,\\n      hgroup, menu, nav, section { display: block; }\\n    </style>\\n      \\n    \\n  </head>\\n  \\n  <!-- paulirish.com/2008/conditional-stylesheets-vs-css-hacks-answer-neither/ -->  \\n  <!--[if lt IE 7 ]> <body class="ie6"> <![endif]-->\\n  <!--[if IE 7 ]>    <body class="ie7"> <![endif]-->\\n  <!--[if IE 8 ]>    <body class="ie8"> <![endif]-->\\n  <!--[if IE 9 ]>    <body class="ie9"> <![endif]-->\\n  <!--[if (gt IE 9)|!(IE)]><!--> <body> <!--<![endif]-->\\n    \\n    <div class="flash">\', escape=False)\nresponse.write(response.flash or \'\')\nresponse.write(\'</div> <!-- notification div -->                           \\n    \\n    <header>\\n        \\n      \', escape=False)\nresponse.write(\' <!-- this is default header -->\\n      \', escape=False)\ntry:\n    response.write(auth.navbar(action=URL(\'default\',\'user\')))\nexcept:pass\nresponse.write(\'               \\n      <h1 id="appname">\', escape=False)\nresponse.write(A(request.application.capitalize(), _href=URL(\'default\', \'index\')))\nresponse.write(\'</h1>\\n      <div style="clear: both;"></div><!-- Clear the divs -->\\n      \', escape=False)\nresponse.write(\'                \\n                             \\n    </header>\\n    \\n    <div id="page" class="\', escape=False)\nresponse.write(request.controller)\nresponse.write(\' \', escape=False)\nresponse.write(request.function)\nresponse.write(\'">    \\n\\n      \', escape=False)\nif left_sidebar_enabled:\n    response.write(\'\\n          <div id="left_sidebar" \', escape=False)\n    response.write(XML(left_sidebar_style))\n    response.write(\' >\\n            <div style="padding: 4px;">\\n          \', escape=False)\n    response.write(\'New Left Sidebar Content\', escape=False)\n    response.write(\'       \\n            </div>\\n          </div><!-- left_sidebar -->\\n      \', escape=False)\n    pass\nresponse.write(\'\\n\\n      <!-- content of other views-->\\n      \', escape=False)\nresponse.write("\\n\\n<ul id=\'menu\' class=\'clearfix\'>\\n", escape=False)\nfor tag in db(db.tags).select():\n    response.write(\'\\n\\n\', escape=False)\n    response.write(LI(A(tag.tag, _href=URL(\'index.load\', args=[tag.tag]), cid="links")))\n    response.write(\'\\n\\n\', escape=False)\n    pass\nresponse.write("\\n<li class=\'adder\'>", escape=False)\nresponse.write(A(\'+\', _href=URL(\'create.load\')")\nresponse.write(\'</li>\\n</ul>\\n\\n<section id="links">\\n\\n\', escape=False)\nresponse.write(LOAD(\'index.load\',ajax=True))\nresponse.write(\'\\n\\n</section>\\n\\n\', escape=False)\n#=BEAUTIFY(response._vars)\nresponse.write(\'\\n\\n\', escape=False)\nresponse.write(\'\\n\', escape=False)\nresponse.write(\'\\n\', escape=False)\nresponse.write(\' \\n      <!-- content -->\\n\\n      \', escape=False)\nif right_sidebar_enabled:\n    response.write(\'\\n          <div id="right_sidebar" \', escape=False)\n    response.write(XML(right_sidebar_style))\n    response.write(\' >\\n            <div style="padding: 4px;">\\n              \', escape=False)\n    response.write(\'New Right Sidebar Content\', escape=False)\n    response.write(\'\\n            </div>\\n          </div><!-- right_sidebar -->\\n      \', escape=False)\n    pass\nresponse.write(\'\\n       \\n      <div style="clear: both;"></div><!-- Clear the divs -->                         \\n    \\n    </div><!--page-->\\n    \\n    <footer>\\n      \', escape=False)\nresponse.write(\' <!-- this is default footer -->\\n      <a href="http://www.web2py.com/" >\\n        <img src="\', escape=False)\nresponse.write(URL(\'static\',\'images/poweredby.png\'))\nresponse.write(\'"/>\\n      </a>\\n      \', escape=False)\nresponse.write(T(\'Copyright\'))\nresponse.write(\' &#169; Ian W. Scott 2011 (licensed under GPL 3.0)               \\n      <div style="clear: both;"></div><!-- Clear the divs -->\\n      \', escape=False)\nresponse.write(\'\\n    </footer>           \\n\\n\\t<div id=\\\'modal_frame\\\'></div>\\n\\n    <!--[if lt IE 7 ]>\\n    <script src="\', escape=False)\nresponse.write(URL(\'static\',\'js/dd_belatedpng.js\'))\nresponse.write(\'"></script>\\n    <script> DD_belatedPNG.fix(\\\'img, .png_bg\\\'); //fix any <img> or .png_bg background-images </script>\\n    <![endif]-->\\n    \\n    <!-- asynchronous google analytics: mathiasbynens.be/notes/async-analytics-snippet \\n     change the UA-XXXXX-X to be your site\\\'s ID -->\\n    <!--   \\n       <script>\\n         var _gaq = [[\\\'_setAccount\\\', \\\'UA-XXXXX-X\\\'], [\\\'_trackPageview\\\']];\\n         (function(d, t) {\\n         var g = d.createElement(t),\\n         s = d.getElementsByTagName(t)[0];\\n         g.async = true;\\n         g.src = \\\'//www.google-analytics.com/ga.js\\\';\\n         s.parentNode.insertBefore(g, s);\\n         })(document, \\\'script\\\');\\n       </script>\\n       -->    \\n  </body>\\n</html>\\n\', escape=False)'
p6
sS'snapshot'
p7
(dp8
S'exception'
p9
(dp10
S'__getslice__'
p11
S"<method-wrapper '__getslice__' of exceptions.SyntaxError object>"
p12
sS'text'
p13
S'\'response.write(A(\\\'+\\\', _href=URL(\\\'create.load\\\')")\\n\''
p14
sS'__str__'
p15
S"<method-wrapper '__str__' of exceptions.SyntaxError object>"
p16
sS'__reduce__'
p17
S'<built-in method __reduce__ of exceptions.SyntaxError object>'
p18
sS'__dict__'
p19
S'{}'
p20
sS'__sizeof__'
p21
S'<built-in method __sizeof__ of exceptions.SyntaxError object>'
p22
sS'__init__'
p23
S"<method-wrapper '__init__' of exceptions.SyntaxError object>"
p24
sS'__setattr__'
p25
S"<method-wrapper '__setattr__' of exceptions.SyntaxError object>"
p26
sS'__reduce_ex__'
p27
S'<built-in method __reduce_ex__ of exceptions.SyntaxError object>'
p28
sS'__new__'
p29
S'<built-in method __new__ of type object>'
p30
sS'__format__'
p31
S'<built-in method __format__ of exceptions.SyntaxError object>'
p32
sS'__class__'
p33
S"<type 'exceptions.SyntaxError'>"
p34
sS'filename'
p35
S"'/home/ian/web2py/applications/places/views/default/index.html'"
p36
sS'lineno'
p37
S'86'
p38
sS'msg'
p39
S"'EOL while scanning string literal'"
p40
sS'__doc__'
p41
S"'Invalid syntax.'"
p42
sS'__getitem__'
p43
S"<method-wrapper '__getitem__' of exceptions.SyntaxError object>"
p44
sS'__setstate__'
p45
S'<built-in method __setstate__ of exceptions.SyntaxError object>'
p46
sS'__getattribute__'
p47
S"<method-wrapper '__getattribute__' of exceptions.SyntaxError object>"
p48
sS'print_file_and_line'
p49
S'None'
p50
sS'args'
p51
S'(\'EOL while scanning string literal\', (\'/home/ian/web2py/applications/places/views/default/index.html\', 86, 48, \'response.write(A(\\\'+\\\', _href=URL(\\\'create.load\\\')")\\n\'))'
p52
sS'__subclasshook__'
p53
S'<built-in method __subclasshook__ of type object>'
p54
sS'offset'
p55
S'48'
p56
sS'__unicode__'
p57
S'<built-in method __unicode__ of exceptions.SyntaxError object>'
p58
sS'__delattr__'
p59
S"<method-wrapper '__delattr__' of exceptions.SyntaxError object>"
p60
sS'__repr__'
p61
S"<method-wrapper '__repr__' of exceptions.SyntaxError object>"
p62
sS'__hash__'
p63
S"<method-wrapper '__hash__' of exceptions.SyntaxError object>"
p64
ssS'evalue'
p65
S'EOL while scanning string literal (index.html, line 86)'
p66
sS'request'
p67
ccopy_reg
_reconstructor
p68
(cgluon.html
BEAUTIFY
p69
c__builtin__
object
p70
NtRp71
(dp72
S'attributes'
p73
(dp74
sS'components'
p75
(lp76
g68
(cgluon.html
TABLE
p77
g70
NtRp78
(dp79
g73
(dp80
S'level'
p81
I5
ssS'parent'
p82
Nsg75
(lp83
g68
(cgluon.html
TR
p84
g70
NtRp85
(dp86
g73
(dp87
sg82
g78
sg75
(lp88
g68
(cgluon.html
TD
p89
g70
NtRp90
(dp91
g73
(dp92
S'_style'
p93
S'font-weight:bold;'
p94
ssg82
g85
sg75
(lp95
S'ajax'
p96
asbag68
(g89
g70
NtRp97
(dp98
g73
(dp99
S'_valign'
p100
S'top'
p101
ssg82
g85
sg75
(lp102
S':'
asbag68
(g89
g70
NtRp103
(dp104
g73
(dp105
sg82
g85
sg75
(lp106
g68
(g69
g70
NtRp107
(dp108
g73
(dp109
g81
I5
ssg82
g103
sg75
(lp110
S'False'
p111
asbasbasbag68
(g84
g70
NtRp112
(dp113
g73
(dp114
sg82
g78
sg75
(lp115
g68
(g89
g70
NtRp116
(dp117
g73
(dp118
g93
g94
ssg82
g112
sg75
(lp119
S'application'
p120
asbag68
(g89
g70
NtRp121
(dp122
g73
(dp123
g100
g101
ssg82
g112
sg75
(lp124
S':'
asbag68
(g89
g70
NtRp125
(dp126
g73
(dp127
sg82
g112
sg75
(lp128
g68
(g69
g70
NtRp129
(dp130
g73
(dp131
g81
I5
ssg82
g125
sg75
(lp132
S'places'
p133
asbasbasbag68
(g84
g70
NtRp134
(dp135
g73
(dp136
sg82
g78
sg75
(lp137
g68
(g89
g70
NtRp138
(dp139
g73
(dp140
g93
g94
ssg82
g134
sg75
(lp141
g51
asbag68
(g89
g70
NtRp142
(dp143
g73
(dp144
g100
g101
ssg82
g134
sg75
(lp145
S':'
asbag68
(g89
g70
NtRp146
(dp147
g73
(dp148
sg82
g134
sg75
(lp149
g68
(g69
g70
NtRp150
(dp151
g73
(dp152
g81
I5
ssg82
g146
sg75
(lp153
g68
(g77
g70
NtRp154
(dp155
g73
(dp156
g81
I4
ssg82
Nsg75
(lp157
sbasbasbasbag68
(g84
g70
NtRp158
(dp159
g73
(dp160
sg82
g78
sg75
(lp161
g68
(g89
g70
NtRp162
(dp163
g73
(dp164
g93
g94
ssg82
g158
sg75
(lp165
S'body'
p166
asbag68
(g89
g70
NtRp167
(dp168
g73
(dp169
g100
g101
ssg82
g158
sg75
(lp170
S':'
asbag68
(g89
g70
NtRp171
(dp172
g73
(dp173
sg82
g158
sg75
(lp174
g68
(g69
g70
NtRp175
(dp176
g73
(dp177
g81
I5
ssg82
g171
sg75
(lp178
S'<cStringIO.StringO object at 0x367d228>'
p179
asbasbasbag68
(g84
g70
NtRp180
(dp181
g73
(dp182
sg82
g78
sg75
(lp183
g68
(g89
g70
NtRp184
(dp185
g73
(dp186
g93
g94
ssg82
g180
sg75
(lp187
S'client'
p188
asbag68
(g89
g70
NtRp189
(dp190
g73
(dp191
g100
g101
ssg82
g180
sg75
(lp192
S':'
asbag68
(g89
g70
NtRp193
(dp194
g73
(dp195
sg82
g180
sg75
(lp196
g68
(g69
g70
NtRp197
(dp198
g73
(dp199
g81
I5
ssg82
g193
sg75
(lp200
S'127.0.0.1'
p201
asbasbasbag68
(g84
g70
NtRp202
(dp203
g73
(dp204
sg82
g78
sg75
(lp205
g68
(g89
g70
NtRp206
(dp207
g73
(dp208
g93
g94
ssg82
g202
sg75
(lp209
S'controller'
p210
asbag68
(g89
g70
NtRp211
(dp212
g73
(dp213
g100
g101
ssg82
g202
sg75
(lp214
S':'
asbag68
(g89
g70
NtRp215
(dp216
g73
(dp217
sg82
g202
sg75
(lp218
g68
(g69
g70
NtRp219
(dp220
g73
(dp221
g81
I5
ssg82
g215
sg75
(lp222
S'default'
p223
asbasbasbag68
(g84
g70
NtRp224
(dp225
g73
(dp226
sg82
g78
sg75
(lp227
g68
(g89
g70
NtRp228
(dp229
g73
(dp230
g93
g94
ssg82
g224
sg75
(lp231
S'cookies'
p232
asbag68
(g89
g70
NtRp233
(dp234
g73
(dp235
g100
g101
ssg82
g224
sg75
(lp236
S':'
asbag68
(g89
g70
NtRp237
(dp238
g73
(dp239
sg82
g224
sg75
(lp240
g68
(g69
g70
NtRp241
(dp242
g73
(dp243
g81
I5
ssg82
g237
sg75
(lp244
g68
(g77
g70
NtRp245
(dp246
g73
(dp247
g81
I4
ssg82
Nsg75
(lp248
g68
(g84
g70
NtRp249
(dp250
g73
(dp251
sg82
g245
sg75
(lp252
g68
(g89
g70
NtRp253
(dp254
g73
(dp255
g93
g94
ssg82
g249
sg75
(lp256
S'session_id_admin'
p257
asbag68
(g89
g70
NtRp258
(dp259
g73
(dp260
g100
g101
ssg82
g249
sg75
(lp261
S':'
asbag68
(g89
g70
NtRp262
(dp263
g73
(dp264
sg82
g249
sg75
(lp265
g68
(g69
g70
NtRp266
(dp267
g73
(dp268
g81
I4
ssg82
g262
sg75
(lp269
g68
(g77
g70
NtRp270
(dp271
g73
(dp272
g81
I3
ssg82
Nsg75
(lp273
g68
(g84
g70
NtRp274
(dp275
g73
(dp276
sg82
g270
sg75
(lp277
g68
(g89
g70
NtRp278
(dp279
g73
(dp280
g93
g94
ssg82
g274
sg75
(lp281
S'comment'
p282
asbag68
(g89
g70
NtRp283
(dp284
g73
(dp285
g100
g101
ssg82
g274
sg75
(lp286
S':'
asbag68
(g89
g70
NtRp287
(dp288
g73
(dp289
sg82
g274
sg75
(lp290
g68
(g69
g70
NtRp291
(dp292
g73
(dp293
g81
I3
ssg82
g287
sg75
(lp294
S''
asbasbasbag68
(g84
g70
NtRp295
(dp296
g73
(dp297
sg82
g270
sg75
(lp298
g68
(g89
g70
NtRp299
(dp300
g73
(dp301
g93
g94
ssg82
g295
sg75
(lp302
S'domain'
p303
asbag68
(g89
g70
NtRp304
(dp305
g73
(dp306
g100
g101
ssg82
g295
sg75
(lp307
S':'
asbag68
(g89
g70
NtRp308
(dp309
g73
(dp310
sg82
g295
sg75
(lp311
g68
(g69
g70
NtRp312
(dp313
g73
(dp314
g81
I3
ssg82
g308
sg75
(lp315
S''
asbasbasbag68
(g84
g70
NtRp316
(dp317
g73
(dp318
sg82
g270
sg75
(lp319
g68
(g89
g70
NtRp320
(dp321
g73
(dp322
g93
g94
ssg82
g316
sg75
(lp323
S'expires'
p324
asbag68
(g89
g70
NtRp325
(dp326
g73
(dp327
g100
g101
ssg82
g316
sg75
(lp328
S':'
asbag68
(g89
g70
NtRp329
(dp330
g73
(dp331
sg82
g316
sg75
(lp332
g68
(g69
g70
NtRp333
(dp334
g73
(dp335
g81
I3
ssg82
g329
sg75
(lp336
S''
asbasbasbag68
(g84
g70
NtRp337
(dp338
g73
(dp339
sg82
g270
sg75
(lp340
g68
(g89
g70
NtRp341
(dp342
g73
(dp343
g93
g94
ssg82
g337
sg75
(lp344
S'httponly'
p345
asbag68
(g89
g70
NtRp346
(dp347
g73
(dp348
g100
g101
ssg82
g337
sg75
(lp349
S':'
asbag68
(g89
g70
NtRp350
(dp351
g73
(dp352
sg82
g337
sg75
(lp353
g68
(g69
g70
NtRp354
(dp355
g73
(dp356
g81
I3
ssg82
g350
sg75
(lp357
S''
asbasbasbag68
(g84
g70
NtRp358
(dp359
g73
(dp360
sg82
g270
sg75
(lp361
g68
(g89
g70
NtRp362
(dp363
g73
(dp364
g93
g94
ssg82
g358
sg75
(lp365
S'max-age'
p366
asbag68
(g89
g70
NtRp367
(dp368
g73
(dp369
g100
g101
ssg82
g358
sg75
(lp370
S':'
asbag68
(g89
g70
NtRp371
(dp372
g73
(dp373
sg82
g358
sg75
(lp374
g68
(g69
g70
NtRp375
(dp376
g73
(dp377
g81
I3
ssg82
g371
sg75
(lp378
S''
asbasbasbag68
(g84
g70
NtRp379
(dp380
g73
(dp381
sg82
g270
sg75
(lp382
g68
(g89
g70
NtRp383
(dp384
g73
(dp385
g93
g94
ssg82
g379
sg75
(lp386
S'path'
p387
asbag68
(g89
g70
NtRp388
(dp389
g73
(dp390
g100
g101
ssg82
g379
sg75
(lp391
S':'
asbag68
(g89
g70
NtRp392
(dp393
g73
(dp394
sg82
g379
sg75
(lp395
g68
(g69
g70
NtRp396
(dp397
g73
(dp398
g81
I3
ssg82
g392
sg75
(lp399
S''
asbasbasbag68
(g84
g70
NtRp400
(dp401
g73
(dp402
sg82
g270
sg75
(lp403
g68
(g89
g70
NtRp404
(dp405
g73
(dp406
g93
g94
ssg82
g400
sg75
(lp407
S'secure'
p408
asbag68
(g89
g70
NtRp409
(dp410
g73
(dp411
g100
g101
ssg82
g400
sg75
(lp412
S':'
asbag68
(g89
g70
NtRp413
(dp414
g73
(dp415
sg82
g400
sg75
(lp416
g68
(g69
g70
NtRp417
(dp418
g73
(dp419
g81
I3
ssg82
g413
sg75
(lp420
S''
asbasbasbag68
(g84
g70
NtRp421
(dp422
g73
(dp423
sg82
g270
sg75
(lp424
g68
(g89
g70
NtRp425
(dp426
g73
(dp427
g93
g94
ssg82
g421
sg75
(lp428
S'version'
p429
asbag68
(g89
g70
NtRp430
(dp431
g73
(dp432
g100
g101
ssg82
g421
sg75
(lp433
S':'
asbag68
(g89
g70
NtRp434
(dp435
g73
(dp436
sg82
g421
sg75
(lp437
g68
(g69
g70
NtRp438
(dp439
g73
(dp440
g81
I3
ssg82
g434
sg75
(lp441
S''
asbasbasbasbasbasbasbag68
(g84
g70
NtRp442
(dp443
g73
(dp444
sg82
g245
sg75
(lp445
g68
(g89
g70
NtRp446
(dp447
g73
(dp448
g93
g94
ssg82
g442
sg75
(lp449
S'session_id_places'
p450
asbag68
(g89
g70
NtRp451
(dp452
g73
(dp453
g100
g101
ssg82
g442
sg75
(lp454
S':'
asbag68
(g89
g70
NtRp455
(dp456
g73
(dp457
sg82
g442
sg75
(lp458
g68
(g69
g70
NtRp459
(dp460
g73
(dp461
g81
I4
ssg82
g455
sg75
(lp462
g68
(g77
g70
NtRp463
(dp464
g73
(dp465
g81
I3
ssg82
Nsg75
(lp466
g68
(g84
g70
NtRp467
(dp468
g73
(dp469
sg82
g463
sg75
(lp470
g68
(g89
g70
NtRp471
(dp472
g73
(dp473
g93
g94
ssg82
g467
sg75
(lp474
g282
asbag68
(g89
g70
NtRp475
(dp476
g73
(dp477
g100
g101
ssg82
g467
sg75
(lp478
S':'
asbag68
(g89
g70
NtRp479
(dp480
g73
(dp481
sg82
g467
sg75
(lp482
g68
(g69
g70
NtRp483
(dp484
g73
(dp485
g81
I3
ssg82
g479
sg75
(lp486
S''
asbasbasbag68
(g84
g70
NtRp487
(dp488
g73
(dp489
sg82
g463
sg75
(lp490
g68
(g89
g70
NtRp491
(dp492
g73
(dp493
g93
g94
ssg82
g487
sg75
(lp494
g303
asbag68
(g89
g70
NtRp495
(dp496
g73
(dp497
g100
g101
ssg82
g487
sg75
(lp498
S':'
asbag68
(g89
g70
NtRp499
(dp500
g73
(dp501
sg82
g487
sg75
(lp502
g68
(g69
g70
NtRp503
(dp504
g73
(dp505
g81
I3
ssg82
g499
sg75
(lp506
S''
asbasbasbag68
(g84
g70
NtRp507
(dp508
g73
(dp509
sg82
g463
sg75
(lp510
g68
(g89
g70
NtRp511
(dp512
g73
(dp513
g93
g94
ssg82
g507
sg75
(lp514
g324
asbag68
(g89
g70
NtRp515
(dp516
g73
(dp517
g100
g101
ssg82
g507
sg75
(lp518
S':'
asbag68
(g89
g70
NtRp519
(dp520
g73
(dp521
sg82
g507
sg75
(lp522
g68
(g69
g70
NtRp523
(dp524
g73
(dp525
g81
I3
ssg82
g519
sg75
(lp526
S''
asbasbasbag68
(g84
g70
NtRp527
(dp528
g73
(dp529
sg82
g463
sg75
(lp530
g68
(g89
g70
NtRp531
(dp532
g73
(dp533
g93
g94
ssg82
g527
sg75
(lp534
g345
asbag68
(g89
g70
NtRp535
(dp536
g73
(dp537
g100
g101
ssg82
g527
sg75
(lp538
S':'
asbag68
(g89
g70
NtRp539
(dp540
g73
(dp541
sg82
g527
sg75
(lp542
g68
(g69
g70
NtRp543
(dp544
g73
(dp545
g81
I3
ssg82
g539
sg75
(lp546
S''
asbasbasbag68
(g84
g70
NtRp547
(dp548
g73
(dp549
sg82
g463
sg75
(lp550
g68
(g89
g70
NtRp551
(dp552
g73
(dp553
g93
g94
ssg82
g547
sg75
(lp554
g366
asbag68
(g89
g70
NtRp555
(dp556
g73
(dp557
g100
g101
ssg82
g547
sg75
(lp558
S':'
asbag68
(g89
g70
NtRp559
(dp560
g73
(dp561
sg82
g547
sg75
(lp562
g68
(g69
g70
NtRp563
(dp564
g73
(dp565
g81
I3
ssg82
g559
sg75
(lp566
S''
asbasbasbag68
(g84
g70
NtRp567
(dp568
g73
(dp569
sg82
g463
sg75
(lp570
g68
(g89
g70
NtRp571
(dp572
g73
(dp573
g93
g94
ssg82
g567
sg75
(lp574
g387
asbag68
(g89
g70
NtRp575
(dp576
g73
(dp577
g100
g101
ssg82
g567
sg75
(lp578
S':'
asbag68
(g89
g70
NtRp579
(dp580
g73
(dp581
sg82
g567
sg75
(lp582
g68
(g69
g70
NtRp583
(dp584
g73
(dp585
g81
I3
ssg82
g579
sg75
(lp586
S''
asbasbasbag68
(g84
g70
NtRp587
(dp588
g73
(dp589
sg82
g463
sg75
(lp590
g68
(g89
g70
NtRp591
(dp592
g73
(dp593
g93
g94
ssg82
g587
sg75
(lp594
g408
asbag68
(g89
g70
NtRp595
(dp596
g73
(dp597
g100
g101
ssg82
g587
sg75
(lp598
S':'
asbag68
(g89
g70
NtRp599
(dp600
g73
(dp601
sg82
g587
sg75
(lp602
g68
(g69
g70
NtRp603
(dp604
g73
(dp605
g81
I3
ssg82
g599
sg75
(lp606
S''
asbasbasbag68
(g84
g70
NtRp607
(dp608
g73
(dp609
sg82
g463
sg75
(lp610
g68
(g89
g70
NtRp611
(dp612
g73
(dp613
g93
g94
ssg82
g607
sg75
(lp614
g429
asbag68
(g89
g70
NtRp615
(dp616
g73
(dp617
g100
g101
ssg82
g607
sg75
(lp618
S':'
asbag68
(g89
g70
NtRp619
(dp620
g73
(dp621
sg82
g607
sg75
(lp622
g68
(g69
g70
NtRp623
(dp624
g73
(dp625
g81
I3
ssg82
g619
sg75
(lp626
S''
asbasbasbasbasbasbasbasbasbasbasbag68
(g84
g70
NtRp627
(dp628
g73
(dp629
sg82
g78
sg75
(lp630
g68
(g89
g70
NtRp631
(dp632
g73
(dp633
g93
g94
ssg82
g627
sg75
(lp634
S'env'
p635
asbag68
(g89
g70
NtRp636
(dp637
g73
(dp638
g100
g101
ssg82
g627
sg75
(lp639
S':'
asbag68
(g89
g70
NtRp640
(dp641
g73
(dp642
sg82
g627
sg75
(lp643
g68
(g69
g70
NtRp644
(dp645
g73
(dp646
g81
I5
ssg82
g640
sg75
(lp647
g68
(g77
g70
NtRp648
(dp649
g73
(dp650
g81
I4
ssg82
Nsg75
(lp651
g68
(g84
g70
NtRp652
(dp653
g73
(dp654
sg82
g648
sg75
(lp655
g68
(g89
g70
NtRp656
(dp657
g73
(dp658
g93
g94
ssg82
g652
sg75
(lp659
S'app_folders'
p660
asbag68
(g89
g70
NtRp661
(dp662
g73
(dp663
g100
g101
ssg82
g652
sg75
(lp664
S':'
asbag68
(g89
g70
NtRp665
(dp666
g73
(dp667
sg82
g652
sg75
(lp668
g68
(g69
g70
NtRp669
(dp670
g73
(dp671
g81
I4
ssg82
g665
sg75
(lp672
S"set(['/home/ian/web2py/applications/places/', '/home/ian/web2py/applications/admin/'])"
p673
asbasbasbag68
(g84
g70
NtRp674
(dp675
g73
(dp676
sg82
g648
sg75
(lp677
g68
(g89
g70
NtRp678
(dp679
g73
(dp680
g93
g94
ssg82
g674
sg75
(lp681
S'applications_parent'
p682
asbag68
(g89
g70
NtRp683
(dp684
g73
(dp685
g100
g101
ssg82
g674
sg75
(lp686
S':'
asbag68
(g89
g70
NtRp687
(dp688
g73
(dp689
sg82
g674
sg75
(lp690
g68
(g69
g70
NtRp691
(dp692
g73
(dp693
g81
I4
ssg82
g687
sg75
(lp694
S'/home/ian/web2py'
p695
asbasbasbag68
(g84
g70
NtRp696
(dp697
g73
(dp698
sg82
g648
sg75
(lp699
g68
(g89
g70
NtRp700
(dp701
g73
(dp702
g93
g94
ssg82
g696
sg75
(lp703
S'cmd_args'
p704
asbag68
(g89
g70
NtRp705
(dp706
g73
(dp707
g100
g101
ssg82
g696
sg75
(lp708
S':'
asbag68
(g89
g70
NtRp709
(dp710
g73
(dp711
sg82
g696
sg75
(lp712
g68
(g69
g70
NtRp713
(dp714
g73
(dp715
g81
I4
ssg82
g709
sg75
(lp716
g68
(g77
g70
NtRp717
(dp718
g73
(dp719
g81
I3
ssg82
Nsg75
(lp720
sbasbasbasbag68
(g84
g70
NtRp721
(dp722
g73
(dp723
sg82
g648
sg75
(lp724
g68
(g89
g70
NtRp725
(dp726
g73
(dp727
g93
g94
ssg82
g721
sg75
(lp728
S'cmd_options'
p729
asbag68
(g89
g70
NtRp730
(dp731
g73
(dp732
g100
g101
ssg82
g721
sg75
(lp733
S':'
asbag68
(g89
g70
NtRp734
(dp735
g73
(dp736
sg82
g721
sg75
(lp737
g68
(g69
g70
NtRp738
(dp739
g73
(dp740
g81
I4
ssg82
g734
sg75
(lp741
S"<Values at 0x2bb5ea8: {'verbose': False, 'ip': '127.0.0.1', 'shutdown_timeout': 5, 'taskbar': False, 'nocron': False, 'pid_filename': 'httpserver.pid', 'maxthreads': None, 'softcron': False, 'server_name': 'Ariel-ubuntu', 'bpython': False, 'nogui': False, 'port': 8000, 'extcron': False, 'debuglevel': 30, 'test': None, 'folder': '/home/ian/web2py', 'config': '', 'import_models': False, 'winservice': '', 'shell': None, 'run': '', 'log_filename': 'httpserver.log', 'args': [''], 'ssl_ca_certificate': None, 'scheduler': None, 'profiler_filename': None, 'ssl_private_key': '', 'password': 'meteor2003', 'request_queue_size': 5, 'ssl_certificate': '', 'cronjob': False, 'plain': False, 'quiet': False, 'interfaces': None, 'minthreads': None, 'timeout': 10, 'numthreads': None, 'nobanner': False}>"
p742
asbasbasbag68
(g84
g70
NtRp743
(dp744
g73
(dp745
sg82
g648
sg75
(lp746
g68
(g89
g70
NtRp747
(dp748
g73
(dp749
g93
g94
ssg82
g743
sg75
(lp750
S'db_sessions'
p751
asbag68
(g89
g70
NtRp752
(dp753
g73
(dp754
g100
g101
ssg82
g743
sg75
(lp755
S':'
asbag68
(g89
g70
NtRp756
(dp757
g73
(dp758
sg82
g743
sg75
(lp759
g68
(g69
g70
NtRp760
(dp761
g73
(dp762
g81
I4
ssg82
g756
sg75
(lp763
S'set([])'
p764
asbasbasbag68
(g84
g70
NtRp765
(dp766
g73
(dp767
sg82
g648
sg75
(lp768
g68
(g89
g70
NtRp769
(dp770
g73
(dp771
g93
g94
ssg82
g765
sg75
(lp772
S'debugging'
p773
asbag68
(g89
g70
NtRp774
(dp775
g73
(dp776
g100
g101
ssg82
g765
sg75
(lp777
S':'
asbag68
(g89
g70
NtRp778
(dp779
g73
(dp780
sg82
g765
sg75
(lp781
g68
(g69
g70
NtRp782
(dp783
g73
(dp784
g81
I4
ssg82
g778
sg75
(lp785
g111
asbasbasbag68
(g84
g70
NtRp786
(dp787
g73
(dp788
sg82
g648
sg75
(lp789
g68
(g89
g70
NtRp790
(dp791
g73
(dp792
g93
g94
ssg82
g786
sg75
(lp793
S'gluon_parent'
p794
asbag68
(g89
g70
NtRp795
(dp796
g73
(dp797
g100
g101
ssg82
g786
sg75
(lp798
S':'
asbag68
(g89
g70
NtRp799
(dp800
g73
(dp801
sg82
g786
sg75
(lp802
g68
(g69
g70
NtRp803
(dp804
g73
(dp805
g81
I4
ssg82
g799
sg75
(lp806
S'/home/ian/web2py'
p807
asbasbasbag68
(g84
g70
NtRp808
(dp809
g73
(dp810
sg82
g648
sg75
(lp811
g68
(g89
g70
NtRp812
(dp813
g73
(dp814
g93
g94
ssg82
g808
sg75
(lp815
S'http_accept'
p816
asbag68
(g89
g70
NtRp817
(dp818
g73
(dp819
g100
g101
ssg82
g808
sg75
(lp820
S':'
asbag68
(g89
g70
NtRp821
(dp822
g73
(dp823
sg82
g808
sg75
(lp824
g68
(g69
g70
NtRp825
(dp826
g73
(dp827
g81
I4
ssg82
g821
sg75
(lp828
S'text/html,application/xhtml+xml,application/xml;q=0.9,*/*;q=0.8'
p829
asbasbasbag68
(g84
g70
NtRp830
(dp831
g73
(dp832
sg82
g648
sg75
(lp833
g68
(g89
g70
NtRp834
(dp835
g73
(dp836
g93
g94
ssg82
g830
sg75
(lp837
S'http_accept_charset'
p838
asbag68
(g89
g70
NtRp839
(dp840
g73
(dp841
g100
g101
ssg82
g830
sg75
(lp842
S':'
asbag68
(g89
g70
NtRp843
(dp844
g73
(dp845
sg82
g830
sg75
(lp846
g68
(g69
g70
NtRp847
(dp848
g73
(dp849
g81
I4
ssg82
g843
sg75
(lp850
S'ISO-8859-1,utf-8;q=0.7,*;q=0.7'
p851
asbasbasbag68
(g84
g70
NtRp852
(dp853
g73
(dp854
sg82
g648
sg75
(lp855
g68
(g89
g70
NtRp856
(dp857
g73
(dp858
g93
g94
ssg82
g852
sg75
(lp859
S'http_accept_encoding'
p860
asbag68
(g89
g70
NtRp861
(dp862
g73
(dp863
g100
g101
ssg82
g852
sg75
(lp864
S':'
asbag68
(g89
g70
NtRp865
(dp866
g73
(dp867
sg82
g852
sg75
(lp868
g68
(g69
g70
NtRp869
(dp870
g73
(dp871
g81
I4
ssg82
g865
sg75
(lp872
S'gzip, deflate'
p873
asbasbasbag68
(g84
g70
NtRp874
(dp875
g73
(dp876
sg82
g648
sg75
(lp877
g68
(g89
g70
NtRp878
(dp879
g73
(dp880
g93
g94
ssg82
g874
sg75
(lp881
S'http_accept_language'
p882
asbag68
(g89
g70
NtRp883
(dp884
g73
(dp885
g100
g101
ssg82
g874
sg75
(lp886
S':'
asbag68
(g89
g70
NtRp887
(dp888
g73
(dp889
sg82
g874
sg75
(lp890
g68
(g69
g70
NtRp891
(dp892
g73
(dp893
g81
I4
ssg82
g887
sg75
(lp894
S'en-us,en;q=0.5'
p895
asbasbasbag68
(g84
g70
NtRp896
(dp897
g73
(dp898
sg82
g648
sg75
(lp899
g68
(g89
g70
NtRp900
(dp901
g73
(dp902
g93
g94
ssg82
g896
sg75
(lp903
S'http_cache_control'
p904
asbag68
(g89
g70
NtRp905
(dp906
g73
(dp907
g100
g101
ssg82
g896
sg75
(lp908
S':'
asbag68
(g89
g70
NtRp909
(dp910
g73
(dp911
sg82
g896
sg75
(lp912
g68
(g69
g70
NtRp913
(dp914
g73
(dp915
g81
I4
ssg82
g909
sg75
(lp916
S'max-age=0'
p917
asbasbasbag68
(g84
g70
NtRp918
(dp919
g73
(dp920
sg82
g648
sg75
(lp921
g68
(g89
g70
NtRp922
(dp923
g73
(dp924
g93
g94
ssg82
g918
sg75
(lp925
S'http_connection'
p926
asbag68
(g89
g70
NtRp927
(dp928
g73
(dp929
g100
g101
ssg82
g918
sg75
(lp930
S':'
asbag68
(g89
g70
NtRp931
(dp932
g73
(dp933
sg82
g918
sg75
(lp934
g68
(g69
g70
NtRp935
(dp936
g73
(dp937
g81
I4
ssg82
g931
sg75
(lp938
S'keep-alive'
p939
asbasbasbag68
(g84
g70
NtRp940
(dp941
g73
(dp942
sg82
g648
sg75
(lp943
g68
(g89
g70
NtRp944
(dp945
g73
(dp946
g93
g94
ssg82
g940
sg75
(lp947
S'http_cookie'
p948
asbag68
(g89
g70
NtRp949
(dp950
g73
(dp951
g100
g101
ssg82
g940
sg75
(lp952
S':'
asbag68
(g89
g70
NtRp953
(dp954
g73
(dp955
sg82
g940
sg75
(lp956
g68
(g69
g70
NtRp957
(dp958
g73
(dp959
g81
I4
ssg82
g953
sg75
(lp960
S'session_id_admin=127.0.0.1-7a33863f-5fde-46d3-829b-42d86ca979bc; session_id_places=127.0.0.1-827c1359-ea2b-42e3-9459-33c4b0422bd4'
p961
asbasbasbag68
(g84
g70
NtRp962
(dp963
g73
(dp964
sg82
g648
sg75
(lp965
g68
(g89
g70
NtRp966
(dp967
g73
(dp968
g93
g94
ssg82
g962
sg75
(lp969
S'http_host'
p970
asbag68
(g89
g70
NtRp971
(dp972
g73
(dp973
g100
g101
ssg82
g962
sg75
(lp974
S':'
asbag68
(g89
g70
NtRp975
(dp976
g73
(dp977
sg82
g962
sg75
(lp978
g68
(g69
g70
NtRp979
(dp980
g73
(dp981
g81
I4
ssg82
g975
sg75
(lp982
S'127.0.0.1:8000'
p983
asbasbasbag68
(g84
g70
NtRp984
(dp985
g73
(dp986
sg82
g648
sg75
(lp987
g68
(g89
g70
NtRp988
(dp989
g73
(dp990
g93
g94
ssg82
g984
sg75
(lp991
S'http_referer'
p992
asbag68
(g89
g70
NtRp993
(dp994
g73
(dp995
g100
g101
ssg82
g984
sg75
(lp996
S':'
asbag68
(g89
g70
NtRp997
(dp998
g73
(dp999
sg82
g984
sg75
(lp1000
g68
(g69
g70
NtRp1001
(dp1002
g73
(dp1003
g81
I4
ssg82
g997
sg75
(lp1004
S'http://127.0.0.1:8000/admin/default/site'
p1005
asbasbasbag68
(g84
g70
NtRp1006
(dp1007
g73
(dp1008
sg82
g648
sg75
(lp1009
g68
(g89
g70
NtRp1010
(dp1011
g73
(dp1012
g93
g94
ssg82
g1006
sg75
(lp1013
S'http_user_agent'
p1014
asbag68
(g89
g70
NtRp1015
(dp1016
g73
(dp1017
g100
g101
ssg82
g1006
sg75
(lp1018
S':'
asbag68
(g89
g70
NtRp1019
(dp1020
g73
(dp1021
sg82
g1006
sg75
(lp1022
g68
(g69
g70
NtRp1023
(dp1024
g73
(dp1025
g81
I4
ssg82
g1019
sg75
(lp1026
S'Mozilla/5.0 (X11; Linux x86_64; rv:7.0.1) Gecko/20100101 Firefox/7.0.1'
p1027
asbasbasbag68
(g84
g70
NtRp1028
(dp1029
g73
(dp1030
sg82
g648
sg75
(lp1031
g68
(g89
g70
NtRp1032
(dp1033
g73
(dp1034
g93
g94
ssg82
g1028
sg75
(lp1035
S'is_jython'
p1036
asbag68
(g89
g70
NtRp1037
(dp1038
g73
(dp1039
g100
g101
ssg82
g1028
sg75
(lp1040
S':'
asbag68
(g89
g70
NtRp1041
(dp1042
g73
(dp1043
sg82
g1028
sg75
(lp1044
g68
(g69
g70
NtRp1045
(dp1046
g73
(dp1047
g81
I4
ssg82
g1041
sg75
(lp1048
g111
asbasbasbag68
(g84
g70
NtRp1049
(dp1050
g73
(dp1051
sg82
g648
sg75
(lp1052
g68
(g89
g70
NtRp1053
(dp1054
g73
(dp1055
g93
g94
ssg82
g1049
sg75
(lp1056
S'path_info'
p1057
asbag68
(g89
g70
NtRp1058
(dp1059
g73
(dp1060
g100
g101
ssg82
g1049
sg75
(lp1061
S':'
asbag68
(g89
g70
NtRp1062
(dp1063
g73
(dp1064
sg82
g1049
sg75
(lp1065
g68
(g69
g70
NtRp1066
(dp1067
g73
(dp1068
g81
I4
ssg82
g1062
sg75
(lp1069
S'/places/default/index'
p1070
asbasbasbag68
(g84
g70
NtRp1071
(dp1072
g73
(dp1073
sg82
g648
sg75
(lp1074
g68
(g89
g70
NtRp1075
(dp1076
g73
(dp1077
g93
g94
ssg82
g1071
sg75
(lp1078
S'query_string'
p1079
asbag68
(g89
g70
NtRp1080
(dp1081
g73
(dp1082
g100
g101
ssg82
g1071
sg75
(lp1083
S':'
asbag68
(g89
g70
NtRp1084
(dp1085
g73
(dp1086
sg82
g1071
sg75
(lp1087
g68
(g69
g70
NtRp1088
(dp1089
g73
(dp1090
g81
I4
ssg82
g1084
sg75
(lp1091
S''
asbasbasbag68
(g84
g70
NtRp1092
(dp1093
g73
(dp1094
sg82
g648
sg75
(lp1095
g68
(g89
g70
NtRp1096
(dp1097
g73
(dp1098
g93
g94
ssg82
g1092
sg75
(lp1099
S'remote_addr'
p1100
asbag68
(g89
g70
NtRp1101
(dp1102
g73
(dp1103
g100
g101
ssg82
g1092
sg75
(lp1104
S':'
asbag68
(g89
g70
NtRp1105
(dp1106
g73
(dp1107
sg82
g1092
sg75
(lp1108
g68
(g69
g70
NtRp1109
(dp1110
g73
(dp1111
g81
I4
ssg82
g1105
sg75
(lp1112
g201
asbasbasbag68
(g84
g70
NtRp1113
(dp1114
g73
(dp1115
sg82
g648
sg75
(lp1116
g68
(g89
g70
NtRp1117
(dp1118
g73
(dp1119
g93
g94
ssg82
g1113
sg75
(lp1120
S'remote_port'
p1121
asbag68
(g89
g70
NtRp1122
(dp1123
g73
(dp1124
g100
g101
ssg82
g1113
sg75
(lp1125
S':'
asbag68
(g89
g70
NtRp1126
(dp1127
g73
(dp1128
sg82
g1113
sg75
(lp1129
g68
(g69
g70
NtRp1130
(dp1131
g73
(dp1132
g81
I4
ssg82
g1126
sg75
(lp1133
S'46214'
p1134
asbasbasbag68
(g84
g70
NtRp1135
(dp1136
g73
(dp1137
sg82
g648
sg75
(lp1138
g68
(g89
g70
NtRp1139
(dp1140
g73
(dp1141
g93
g94
ssg82
g1135
sg75
(lp1142
S'request_method'
p1143
asbag68
(g89
g70
NtRp1144
(dp1145
g73
(dp1146
g100
g101
ssg82
g1135
sg75
(lp1147
S':'
asbag68
(g89
g70
NtRp1148
(dp1149
g73
(dp1150
sg82
g1135
sg75
(lp1151
g68
(g69
g70
NtRp1152
(dp1153
g73
(dp1154
g81
I4
ssg82
g1148
sg75
(lp1155
S'GET'
p1156
asbasbasbag68
(g84
g70
NtRp1157
(dp1158
g73
(dp1159
sg82
g648
sg75
(lp1160
g68
(g89
g70
NtRp1161
(dp1162
g73
(dp1163
g93
g94
ssg82
g1157
sg75
(lp1164
S'script_name'
p1165
asbag68
(g89
g70
NtRp1166
(dp1167
g73
(dp1168
g100
g101
ssg82
g1157
sg75
(lp1169
S':'
asbag68
(g89
g70
NtRp1170
(dp1171
g73
(dp1172
sg82
g1157
sg75
(lp1173
g68
(g69
g70
NtRp1174
(dp1175
g73
(dp1176
g81
I4
ssg82
g1170
sg75
(lp1177
S''
asbasbasbag68
(g84
g70
NtRp1178
(dp1179
g73
(dp1180
sg82
g648
sg75
(lp1181
g68
(g89
g70
NtRp1182
(dp1183
g73
(dp1184
g93
g94
ssg82
g1178
sg75
(lp1185
S'server_name'
p1186
asbag68
(g89
g70
NtRp1187
(dp1188
g73
(dp1189
g100
g101
ssg82
g1178
sg75
(lp1190
S':'
asbag68
(g89
g70
NtRp1191
(dp1192
g73
(dp1193
sg82
g1178
sg75
(lp1194
g68
(g69
g70
NtRp1195
(dp1196
g73
(dp1197
g81
I4
ssg82
g1191
sg75
(lp1198
S'Ariel-ubuntu'
p1199
asbasbasbag68
(g84
g70
NtRp1200
(dp1201
g73
(dp1202
sg82
g648
sg75
(lp1203
g68
(g89
g70
NtRp1204
(dp1205
g73
(dp1206
g93
g94
ssg82
g1200
sg75
(lp1207
S'server_port'
p1208
asbag68
(g89
g70
NtRp1209
(dp1210
g73
(dp1211
g100
g101
ssg82
g1200
sg75
(lp1212
S':'
asbag68
(g89
g70
NtRp1213
(dp1214
g73
(dp1215
sg82
g1200
sg75
(lp1216
g68
(g69
g70
NtRp1217
(dp1218
g73
(dp1219
g81
I4
ssg82
g1213
sg75
(lp1220
S'8000'
p1221
asbasbasbag68
(g84
g70
NtRp1222
(dp1223
g73
(dp1224
sg82
g648
sg75
(lp1225
g68
(g89
g70
NtRp1226
(dp1227
g73
(dp1228
g93
g94
ssg82
g1222
sg75
(lp1229
S'server_protocol'
p1230
asbag68
(g89
g70
NtRp1231
(dp1232
g73
(dp1233
g100
g101
ssg82
g1222
sg75
(lp1234
S':'
asbag68
(g89
g70
NtRp1235
(dp1236
g73
(dp1237
sg82
g1222
sg75
(lp1238
g68
(g69
g70
NtRp1239
(dp1240
g73
(dp1241
g81
I4
ssg82
g1235
sg75
(lp1242
S'HTTP/1.1'
p1243
asbasbasbag68
(g84
g70
NtRp1244
(dp1245
g73
(dp1246
sg82
g648
sg75
(lp1247
g68
(g89
g70
NtRp1248
(dp1249
g73
(dp1250
g93
g94
ssg82
g1244
sg75
(lp1251
S'server_software'
p1252
asbag68
(g89
g70
NtRp1253
(dp1254
g73
(dp1255
g100
g101
ssg82
g1244
sg75
(lp1256
S':'
asbag68
(g89
g70
NtRp1257
(dp1258
g73
(dp1259
sg82
g1244
sg75
(lp1260
g68
(g69
g70
NtRp1261
(dp1262
g73
(dp1263
g81
I4
ssg82
g1257
sg75
(lp1264
S'Rocket 1.2.4'
p1265
asbasbasbag68
(g84
g70
NtRp1266
(dp1267
g73
(dp1268
sg82
g648
sg75
(lp1269
g68
(g89
g70
NtRp1270
(dp1271
g73
(dp1272
g93
g94
ssg82
g1266
sg75
(lp1273
S'web2py_crontype'
p1274
asbag68
(g89
g70
NtRp1275
(dp1276
g73
(dp1277
g100
g101
ssg82
g1266
sg75
(lp1278
S':'
asbag68
(g89
g70
NtRp1279
(dp1280
g73
(dp1281
sg82
g1266
sg75
(lp1282
g68
(g69
g70
NtRp1283
(dp1284
g73
(dp1285
g81
I4
ssg82
g1279
sg75
(lp1286
S'hard'
p1287
asbasbasbag68
(g84
g70
NtRp1288
(dp1289
g73
(dp1290
sg82
g648
sg75
(lp1291
g68
(g89
g70
NtRp1292
(dp1293
g73
(dp1294
g93
g94
ssg82
g1288
sg75
(lp1295
S'web2py_path'
p1296
asbag68
(g89
g70
NtRp1297
(dp1298
g73
(dp1299
g100
g101
ssg82
g1288
sg75
(lp1300
S':'
asbag68
(g89
g70
NtRp1301
(dp1302
g73
(dp1303
sg82
g1288
sg75
(lp1304
g68
(g69
g70
NtRp1305
(dp1306
g73
(dp1307
g81
I4
ssg82
g1301
sg75
(lp1308
g695
asbasbasbag68
(g84
g70
NtRp1309
(dp1310
g73
(dp1311
sg82
g648
sg75
(lp1312
g68
(g89
g70
NtRp1313
(dp1314
g73
(dp1315
g93
g94
ssg82
g1309
sg75
(lp1316
S'web2py_version'
p1317
asbag68
(g89
g70
NtRp1318
(dp1319
g73
(dp1320
g100
g101
ssg82
g1309
sg75
(lp1321
S':'
asbag68
(g89
g70
NtRp1322
(dp1323
g73
(dp1324
sg82
g1309
sg75
(lp1325
g68
(g69
g70
NtRp1326
(dp1327
g73
(dp1328
g81
I4
ssg82
g1322
sg75
(lp1329
g68
(g77
g70
NtRp1330
(dp1331
g73
(dp1332
g81
I3
ssg82
Nsg75
(lp1333
g68
(g84
g70
NtRp1334
(dp1335
g73
(dp1336
sg82
g1330
sg75
(lp1337
g68
(g89
g70
NtRp1338
(dp1339
g73
(dp1340
sg82
g1334
sg75
(lp1341
g68
(g69
g70
NtRp1342
(dp1343
g73
(dp1344
g81
I3
ssg82
g1338
sg75
(lp1345
S'1'
asbasbasbag68
(g84
g70
NtRp1346
(dp1347
g73
(dp1348
sg82
g1330
sg75
(lp1349
g68
(g89
g70
NtRp1350
(dp1351
g73
(dp1352
sg82
g1346
sg75
(lp1353
g68
(g69
g70
NtRp1354
(dp1355
g73
(dp1356
g81
I3
ssg82
g1350
sg75
(lp1357
S'99'
p1358
asbasbasbag68
(g84
g70
NtRp1359
(dp1360
g73
(dp1361
sg82
g1330
sg75
(lp1362
g68
(g89
g70
NtRp1363
(dp1364
g73
(dp1365
sg82
g1359
sg75
(lp1366
g68
(g69
g70
NtRp1367
(dp1368
g73
(dp1369
g81
I3
ssg82
g1363
sg75
(lp1370
S'2'
asbasbasbag68
(g84
g70
NtRp1371
(dp1372
g73
(dp1373
sg82
g1330
sg75
(lp1374
g68
(g89
g70
NtRp1375
(dp1376
g73
(dp1377
sg82
g1371
sg75
(lp1378
g68
(g69
g70
NtRp1379
(dp1380
g73
(dp1381
g81
I3
ssg82
g1375
sg75
(lp1382
S'datetime.datetime(2011, 9, 26, 6, 55, 33)'
p1383
asbasbasbag68
(g84
g70
NtRp1384
(dp1385
g73
(dp1386
sg82
g1330
sg75
(lp1387
g68
(g89
g70
NtRp1388
(dp1389
g73
(dp1390
sg82
g1384
sg75
(lp1391
g68
(g69
g70
NtRp1392
(dp1393
g73
(dp1394
g81
I3
ssg82
g1388
sg75
(lp1395
S'stable'
p1396
asbasbasbasbasbasbasbag68
(g84
g70
NtRp1397
(dp1398
g73
(dp1399
sg82
g648
sg75
(lp1400
g68
(g89
g70
NtRp1401
(dp1402
g73
(dp1403
g93
g94
ssg82
g1397
sg75
(lp1404
S'wsgi_errors'
p1405
asbag68
(g89
g70
NtRp1406
(dp1407
g73
(dp1408
g100
g101
ssg82
g1397
sg75
(lp1409
S':'
asbag68
(g89
g70
NtRp1410
(dp1411
g73
(dp1412
sg82
g1397
sg75
(lp1413
g68
(g69
g70
NtRp1414
(dp1415
g73
(dp1416
g81
I4
ssg82
g1410
sg75
(lp1417
S"<open file '<stderr>', mode 'w' at 0x7fc667cbe270>"
p1418
asbasbasbag68
(g84
g70
NtRp1419
(dp1420
g73
(dp1421
sg82
g648
sg75
(lp1422
g68
(g89
g70
NtRp1423
(dp1424
g73
(dp1425
g93
g94
ssg82
g1419
sg75
(lp1426
S'wsgi_file_wrapper'
p1427
asbag68
(g89
g70
NtRp1428
(dp1429
g73
(dp1430
g100
g101
ssg82
g1419
sg75
(lp1431
S':'
asbag68
(g89
g70
NtRp1432
(dp1433
g73
(dp1434
sg82
g1419
sg75
(lp1435
g68
(g69
g70
NtRp1436
(dp1437
g73
(dp1438
g81
I4
ssg82
g1432
sg75
(lp1439
S'<class wsgiref.util.FileWrapper at 0x2ad6738>'
p1440
asbasbasbag68
(g84
g70
NtRp1441
(dp1442
g73
(dp1443
sg82
g648
sg75
(lp1444
g68
(g89
g70
NtRp1445
(dp1446
g73
(dp1447
g93
g94
ssg82
g1441
sg75
(lp1448
S'wsgi_input'
p1449
asbag68
(g89
g70
NtRp1450
(dp1451
g73
(dp1452
g100
g101
ssg82
g1441
sg75
(lp1453
S':'
asbag68
(g89
g70
NtRp1454
(dp1455
g73
(dp1456
sg82
g1441
sg75
(lp1457
g68
(g69
g70
NtRp1458
(dp1459
g73
(dp1460
g81
I4
ssg82
g1454
sg75
(lp1461
S'<socket._fileobject object at 0x2e93f50>'
p1462
asbasbasbag68
(g84
g70
NtRp1463
(dp1464
g73
(dp1465
sg82
g648
sg75
(lp1466
g68
(g89
g70
NtRp1467
(dp1468
g73
(dp1469
g93
g94
ssg82
g1463
sg75
(lp1470
S'wsgi_multiprocess'
p1471
asbag68
(g89
g70
NtRp1472
(dp1473
g73
(dp1474
g100
g101
ssg82
g1463
sg75
(lp1475
S':'
asbag68
(g89
g70
NtRp1476
(dp1477
g73
(dp1478
sg82
g1463
sg75
(lp1479
g68
(g69
g70
NtRp1480
(dp1481
g73
(dp1482
g81
I4
ssg82
g1476
sg75
(lp1483
g111
asbasbasbag68
(g84
g70
NtRp1484
(dp1485
g73
(dp1486
sg82
g648
sg75
(lp1487
g68
(g89
g70
NtRp1488
(dp1489
g73
(dp1490
g93
g94
ssg82
g1484
sg75
(lp1491
S'wsgi_multithread'
p1492
asbag68
(g89
g70
NtRp1493
(dp1494
g73
(dp1495
g100
g101
ssg82
g1484
sg75
(lp1496
S':'
asbag68
(g89
g70
NtRp1497
(dp1498
g73
(dp1499
sg82
g1484
sg75
(lp1500
g68
(g69
g70
NtRp1501
(dp1502
g73
(dp1503
g81
I4
ssg82
g1497
sg75
(lp1504
S'True'
p1505
asbasbasbag68
(g84
g70
NtRp1506
(dp1507
g73
(dp1508
sg82
g648
sg75
(lp1509
g68
(g89
g70
NtRp1510
(dp1511
g73
(dp1512
g93
g94
ssg82
g1506
sg75
(lp1513
S'wsgi_run_once'
p1514
asbag68
(g89
g70
NtRp1515
(dp1516
g73
(dp1517
g100
g101
ssg82
g1506
sg75
(lp1518
S':'
asbag68
(g89
g70
NtRp1519
(dp1520
g73
(dp1521
sg82
g1506
sg75
(lp1522
g68
(g69
g70
NtRp1523
(dp1524
g73
(dp1525
g81
I4
ssg82
g1519
sg75
(lp1526
g111
asbasbasbag68
(g84
g70
NtRp1527
(dp1528
g73
(dp1529
sg82
g648
sg75
(lp1530
g68
(g89
g70
NtRp1531
(dp1532
g73
(dp1533
g93
g94
ssg82
g1527
sg75
(lp1534
S'wsgi_url_scheme'
p1535
asbag68
(g89
g70
NtRp1536
(dp1537
g73
(dp1538
g100
g101
ssg82
g1527
sg75
(lp1539
S':'
asbag68
(g89
g70
NtRp1540
(dp1541
g73
(dp1542
sg82
g1527
sg75
(lp1543
g68
(g69
g70
NtRp1544
(dp1545
g73
(dp1546
g81
I4
ssg82
g1540
sg75
(lp1547
S'http'
p1548
asbasbasbag68
(g84
g70
NtRp1549
(dp1550
g73
(dp1551
sg82
g648
sg75
(lp1552
g68
(g89
g70
NtRp1553
(dp1554
g73
(dp1555
g93
g94
ssg82
g1549
sg75
(lp1556
S'wsgi_version'
p1557
asbag68
(g89
g70
NtRp1558
(dp1559
g73
(dp1560
g100
g101
ssg82
g1549
sg75
(lp1561
S':'
asbag68
(g89
g70
NtRp1562
(dp1563
g73
(dp1564
sg82
g1549
sg75
(lp1565
g68
(g69
g70
NtRp1566
(dp1567
g73
(dp1568
g81
I4
ssg82
g1562
sg75
(lp1569
g68
(g77
g70
NtRp1570
(dp1571
g73
(dp1572
g81
I3
ssg82
Nsg75
(lp1573
g68
(g84
g70
NtRp1574
(dp1575
g73
(dp1576
sg82
g1570
sg75
(lp1577
g68
(g89
g70
NtRp1578
(dp1579
g73
(dp1580
sg82
g1574
sg75
(lp1581
g68
(g69
g70
NtRp1582
(dp1583
g73
(dp1584
g81
I3
ssg82
g1578
sg75
(lp1585
S'1'
asbasbasbag68
(g84
g70
NtRp1586
(dp1587
g73
(dp1588
sg82
g1570
sg75
(lp1589
g68
(g89
g70
NtRp1590
(dp1591
g73
(dp1592
sg82
g1586
sg75
(lp1593
g68
(g69
g70
NtRp1594
(dp1595
g73
(dp1596
g81
I3
ssg82
g1590
sg75
(lp1597
S'0'
asbasbasbasbasbasbasbasbasbasbasbag68
(g84
g70
NtRp1598
(dp1599
g73
(dp1600
sg82
g78
sg75
(lp1601
g68
(g89
g70
NtRp1602
(dp1603
g73
(dp1604
g93
g94
ssg82
g1598
sg75
(lp1605
S'extension'
p1606
asbag68
(g89
g70
NtRp1607
(dp1608
g73
(dp1609
g100
g101
ssg82
g1598
sg75
(lp1610
S':'
asbag68
(g89
g70
NtRp1611
(dp1612
g73
(dp1613
sg82
g1598
sg75
(lp1614
g68
(g69
g70
NtRp1615
(dp1616
g73
(dp1617
g81
I5
ssg82
g1611
sg75
(lp1618
S'html'
p1619
asbasbasbag68
(g84
g70
NtRp1620
(dp1621
g73
(dp1622
sg82
g78
sg75
(lp1623
g68
(g89
g70
NtRp1624
(dp1625
g73
(dp1626
g93
g94
ssg82
g1620
sg75
(lp1627
S'folder'
p1628
asbag68
(g89
g70
NtRp1629
(dp1630
g73
(dp1631
g100
g101
ssg82
g1620
sg75
(lp1632
S':'
asbag68
(g89
g70
NtRp1633
(dp1634
g73
(dp1635
sg82
g1620
sg75
(lp1636
g68
(g69
g70
NtRp1637
(dp1638
g73
(dp1639
g81
I5
ssg82
g1633
sg75
(lp1640
S'/home/ian/web2py/applications/places/'
p1641
asbasbasbag68
(g84
g70
NtRp1642
(dp1643
g73
(dp1644
sg82
g78
sg75
(lp1645
g68
(g89
g70
NtRp1646
(dp1647
g73
(dp1648
g93
g94
ssg82
g1642
sg75
(lp1649
S'function'
p1650
asbag68
(g89
g70
NtRp1651
(dp1652
g73
(dp1653
g100
g101
ssg82
g1642
sg75
(lp1654
S':'
asbag68
(g89
g70
NtRp1655
(dp1656
g73
(dp1657
sg82
g1642
sg75
(lp1658
g68
(g69
g70
NtRp1659
(dp1660
g73
(dp1661
g81
I5
ssg82
g1655
sg75
(lp1662
S'index'
p1663
asbasbasbag68
(g84
g70
NtRp1664
(dp1665
g73
(dp1666
sg82
g78
sg75
(lp1667
g68
(g89
g70
NtRp1668
(dp1669
g73
(dp1670
g93
g94
ssg82
g1664
sg75
(lp1671
S'get_vars'
p1672
asbag68
(g89
g70
NtRp1673
(dp1674
g73
(dp1675
g100
g101
ssg82
g1664
sg75
(lp1676
S':'
asbag68
(g89
g70
NtRp1677
(dp1678
g73
(dp1679
sg82
g1664
sg75
(lp1680
g68
(g69
g70
NtRp1681
(dp1682
g73
(dp1683
g81
I5
ssg82
g1677
sg75
(lp1684
g68
(g77
g70
NtRp1685
(dp1686
g73
(dp1687
g81
I4
ssg82
Nsg75
(lp1688
sbasbasbasbag68
(g84
g70
NtRp1689
(dp1690
g73
(dp1691
sg82
g78
sg75
(lp1692
g68
(g89
g70
NtRp1693
(dp1694
g73
(dp1695
g93
g94
ssg82
g1689
sg75
(lp1696
S'global_settings'
p1697
asbag68
(g89
g70
NtRp1698
(dp1699
g73
(dp1700
g100
g101
ssg82
g1689
sg75
(lp1701
S':'
asbag68
(g89
g70
NtRp1702
(dp1703
g73
(dp1704
sg82
g1689
sg75
(lp1705
g68
(g69
g70
NtRp1706
(dp1707
g73
(dp1708
g81
I5
ssg82
g1702
sg75
(lp1709
g68
(g77
g70
NtRp1710
(dp1711
g73
(dp1712
g81
I4
ssg82
Nsg75
(lp1713
g68
(g84
g70
NtRp1714
(dp1715
g73
(dp1716
sg82
g1710
sg75
(lp1717
g68
(g89
g70
NtRp1718
(dp1719
g73
(dp1720
g93
g94
ssg82
g1714
sg75
(lp1721
g660
asbag68
(g89
g70
NtRp1722
(dp1723
g73
(dp1724
g100
g101
ssg82
g1714
sg75
(lp1725
S':'
asbag68
(g89
g70
NtRp1726
(dp1727
g73
(dp1728
sg82
g1714
sg75
(lp1729
g68
(g69
g70
NtRp1730
(dp1731
g73
(dp1732
g81
I4
ssg82
g1726
sg75
(lp1733
S"set(['/home/ian/web2py/applications/places/', '/home/ian/web2py/applications/admin/'])"
p1734
asbasbasbag68
(g84
g70
NtRp1735
(dp1736
g73
(dp1737
sg82
g1710
sg75
(lp1738
g68
(g89
g70
NtRp1739
(dp1740
g73
(dp1741
g93
g94
ssg82
g1735
sg75
(lp1742
g682
asbag68
(g89
g70
NtRp1743
(dp1744
g73
(dp1745
g100
g101
ssg82
g1735
sg75
(lp1746
S':'
asbag68
(g89
g70
NtRp1747
(dp1748
g73
(dp1749
sg82
g1735
sg75
(lp1750
g68
(g69
g70
NtRp1751
(dp1752
g73
(dp1753
g81
I4
ssg82
g1747
sg75
(lp1754
g695
asbasbasbag68
(g84
g70
NtRp1755
(dp1756
g73
(dp1757
sg82
g1710
sg75
(lp1758
g68
(g89
g70
NtRp1759
(dp1760
g73
(dp1761
g93
g94
ssg82
g1755
sg75
(lp1762
g704
asbag68
(g89
g70
NtRp1763
(dp1764
g73
(dp1765
g100
g101
ssg82
g1755
sg75
(lp1766
S':'
asbag68
(g89
g70
NtRp1767
(dp1768
g73
(dp1769
sg82
g1755
sg75
(lp1770
g68
(g69
g70
NtRp1771
(dp1772
g73
(dp1773
g81
I4
ssg82
g1767
sg75
(lp1774
g68
(g77
g70
NtRp1775
(dp1776
g73
(dp1777
g81
I3
ssg82
Nsg75
(lp1778
sbasbasbasbag68
(g84
g70
NtRp1779
(dp1780
g73
(dp1781
sg82
g1710
sg75
(lp1782
g68
(g89
g70
NtRp1783
(dp1784
g73
(dp1785
g93
g94
ssg82
g1779
sg75
(lp1786
g729
asbag68
(g89
g70
NtRp1787
(dp1788
g73
(dp1789
g100
g101
ssg82
g1779
sg75
(lp1790
S':'
asbag68
(g89
g70
NtRp1791
(dp1792
g73
(dp1793
sg82
g1779
sg75
(lp1794
g68
(g69
g70
NtRp1795
(dp1796
g73
(dp1797
g81
I4
ssg82
g1791
sg75
(lp1798
S"<Values at 0x2bb5ea8: {'verbose': False, 'ip': '127.0.0.1', 'shutdown_timeout': 5, 'taskbar': False, 'nocron': False, 'pid_filename': 'httpserver.pid', 'maxthreads': None, 'softcron': False, 'server_name': 'Ariel-ubuntu', 'bpython': False, 'nogui': False, 'port': 8000, 'extcron': False, 'debuglevel': 30, 'test': None, 'folder': '/home/ian/web2py', 'config': '', 'import_models': False, 'winservice': '', 'shell': None, 'run': '', 'log_filename': 'httpserver.log', 'args': [''], 'ssl_ca_certificate': None, 'scheduler': None, 'profiler_filename': None, 'ssl_private_key': '', 'password': 'meteor2003', 'request_queue_size': 5, 'ssl_certificate': '', 'cronjob': False, 'plain': False, 'quiet': False, 'interfaces': None, 'minthreads': None, 'timeout': 10, 'numthreads': None, 'nobanner': False}>"
p1799
asbasbasbag68
(g84
g70
NtRp1800
(dp1801
g73
(dp1802
sg82
g1710
sg75
(lp1803
g68
(g89
g70
NtRp1804
(dp1805
g73
(dp1806
g93
g94
ssg82
g1800
sg75
(lp1807
g751
asbag68
(g89
g70
NtRp1808
(dp1809
g73
(dp1810
g100
g101
ssg82
g1800
sg75
(lp1811
S':'
asbag68
(g89
g70
NtRp1812
(dp1813
g73
(dp1814
sg82
g1800
sg75
(lp1815
g68
(g69
g70
NtRp1816
(dp1817
g73
(dp1818
g81
I4
ssg82
g1812
sg75
(lp1819
S'set([])'
p1820
asbasbasbag68
(g84
g70
NtRp1821
(dp1822
g73
(dp1823
sg82
g1710
sg75
(lp1824
g68
(g89
g70
NtRp1825
(dp1826
g73
(dp1827
g93
g94
ssg82
g1821
sg75
(lp1828
g773
asbag68
(g89
g70
NtRp1829
(dp1830
g73
(dp1831
g100
g101
ssg82
g1821
sg75
(lp1832
S':'
asbag68
(g89
g70
NtRp1833
(dp1834
g73
(dp1835
sg82
g1821
sg75
(lp1836
g68
(g69
g70
NtRp1837
(dp1838
g73
(dp1839
g81
I4
ssg82
g1833
sg75
(lp1840
g111
asbasbasbag68
(g84
g70
NtRp1841
(dp1842
g73
(dp1843
sg82
g1710
sg75
(lp1844
g68
(g89
g70
NtRp1845
(dp1846
g73
(dp1847
g93
g94
ssg82
g1841
sg75
(lp1848
g794
asbag68
(g89
g70
NtRp1849
(dp1850
g73
(dp1851
g100
g101
ssg82
g1841
sg75
(lp1852
S':'
asbag68
(g89
g70
NtRp1853
(dp1854
g73
(dp1855
sg82
g1841
sg75
(lp1856
g68
(g69
g70
NtRp1857
(dp1858
g73
(dp1859
g81
I4
ssg82
g1853
sg75
(lp1860
g807
asbasbasbag68
(g84
g70
NtRp1861
(dp1862
g73
(dp1863
sg82
g1710
sg75
(lp1864
g68
(g89
g70
NtRp1865
(dp1866
g73
(dp1867
g93
g94
ssg82
g1861
sg75
(lp1868
g1036
asbag68
(g89
g70
NtRp1869
(dp1870
g73
(dp1871
g100
g101
ssg82
g1861
sg75
(lp1872
S':'
asbag68
(g89
g70
NtRp1873
(dp1874
g73
(dp1875
sg82
g1861
sg75
(lp1876
g68
(g69
g70
NtRp1877
(dp1878
g73
(dp1879
g81
I4
ssg82
g1873
sg75
(lp1880
g111
asbasbasbag68
(g84
g70
NtRp1881
(dp1882
g73
(dp1883
sg82
g1710
sg75
(lp1884
g68
(g89
g70
NtRp1885
(dp1886
g73
(dp1887
g93
g94
ssg82
g1881
sg75
(lp1888
g1274
asbag68
(g89
g70
NtRp1889
(dp1890
g73
(dp1891
g100
g101
ssg82
g1881
sg75
(lp1892
S':'
asbag68
(g89
g70
NtRp1893
(dp1894
g73
(dp1895
sg82
g1881
sg75
(lp1896
g68
(g69
g70
NtRp1897
(dp1898
g73
(dp1899
g81
I4
ssg82
g1893
sg75
(lp1900
g1287
asbasbasbag68
(g84
g70
NtRp1901
(dp1902
g73
(dp1903
sg82
g1710
sg75
(lp1904
g68
(g89
g70
NtRp1905
(dp1906
g73
(dp1907
g93
g94
ssg82
g1901
sg75
(lp1908
g1317
asbag68
(g89
g70
NtRp1909
(dp1910
g73
(dp1911
g100
g101
ssg82
g1901
sg75
(lp1912
S':'
asbag68
(g89
g70
NtRp1913
(dp1914
g73
(dp1915
sg82
g1901
sg75
(lp1916
g68
(g69
g70
NtRp1917
(dp1918
g73
(dp1919
g81
I4
ssg82
g1913
sg75
(lp1920
g68
(g77
g70
NtRp1921
(dp1922
g73
(dp1923
g81
I3
ssg82
Nsg75
(lp1924
g68
(g84
g70
NtRp1925
(dp1926
g73
(dp1927
sg82
g1921
sg75
(lp1928
g68
(g89
g70
NtRp1929
(dp1930
g73
(dp1931
sg82
g1925
sg75
(lp1932
g68
(g69
g70
NtRp1933
(dp1934
g73
(dp1935
g81
I3
ssg82
g1929
sg75
(lp1936
S'1'
asbasbasbag68
(g84
g70
NtRp1937
(dp1938
g73
(dp1939
sg82
g1921
sg75
(lp1940
g68
(g89
g70
NtRp1941
(dp1942
g73
(dp1943
sg82
g1937
sg75
(lp1944
g68
(g69
g70
NtRp1945
(dp1946
g73
(dp1947
g81
I3
ssg82
g1941
sg75
(lp1948
S'99'
p1949
asbasbasbag68
(g84
g70
NtRp1950
(dp1951
g73
(dp1952
sg82
g1921
sg75
(lp1953
g68
(g89
g70
NtRp1954
(dp1955
g73
(dp1956
sg82
g1950
sg75
(lp1957
g68
(g69
g70
NtRp1958
(dp1959
g73
(dp1960
g81
I3
ssg82
g1954
sg75
(lp1961
S'2'
asbasbasbag68
(g84
g70
NtRp1962
(dp1963
g73
(dp1964
sg82
g1921
sg75
(lp1965
g68
(g89
g70
NtRp1966
(dp1967
g73
(dp1968
sg82
g1962
sg75
(lp1969
g68
(g69
g70
NtRp1970
(dp1971
g73
(dp1972
g81
I3
ssg82
g1966
sg75
(lp1973
S'datetime.datetime(2011, 9, 26, 6, 55, 33)'
p1974
asbasbasbag68
(g84
g70
NtRp1975
(dp1976
g73
(dp1977
sg82
g1921
sg75
(lp1978
g68
(g89
g70
NtRp1979
(dp1980
g73
(dp1981
sg82
g1975
sg75
(lp1982
g68
(g69
g70
NtRp1983
(dp1984
g73
(dp1985
g81
I3
ssg82
g1979
sg75
(lp1986
g1396
asbasbasbasbasbasbasbasbasbasbasbag68
(g84
g70
NtRp1987
(dp1988
g73
(dp1989
sg82
g78
sg75
(lp1990
g68
(g89
g70
NtRp1991
(dp1992
g73
(dp1993
g93
g94
ssg82
g1987
sg75
(lp1994
S'is_https'
p1995
asbag68
(g89
g70
NtRp1996
(dp1997
g73
(dp1998
g100
g101
ssg82
g1987
sg75
(lp1999
S':'
asbag68
(g89
g70
NtRp2000
(dp2001
g73
(dp2002
sg82
g1987
sg75
(lp2003
g68
(g69
g70
NtRp2004
(dp2005
g73
(dp2006
g81
I5
ssg82
g2000
sg75
(lp2007
g111
asbasbasbag68
(g84
g70
NtRp2008
(dp2009
g73
(dp2010
sg82
g78
sg75
(lp2011
g68
(g89
g70
NtRp2012
(dp2013
g73
(dp2014
g93
g94
ssg82
g2008
sg75
(lp2015
S'is_local'
p2016
asbag68
(g89
g70
NtRp2017
(dp2018
g73
(dp2019
g100
g101
ssg82
g2008
sg75
(lp2020
S':'
asbag68
(g89
g70
NtRp2021
(dp2022
g73
(dp2023
sg82
g2008
sg75
(lp2024
g68
(g69
g70
NtRp2025
(dp2026
g73
(dp2027
g81
I5
ssg82
g2021
sg75
(lp2028
g1505
asbasbasbag68
(g84
g70
NtRp2029
(dp2030
g73
(dp2031
sg82
g78
sg75
(lp2032
g68
(g89
g70
NtRp2033
(dp2034
g73
(dp2035
g93
g94
ssg82
g2029
sg75
(lp2036
S'is_restful'
p2037
asbag68
(g89
g70
NtRp2038
(dp2039
g73
(dp2040
g100
g101
ssg82
g2029
sg75
(lp2041
S':'
asbag68
(g89
g70
NtRp2042
(dp2043
g73
(dp2044
sg82
g2029
sg75
(lp2045
g68
(g69
g70
NtRp2046
(dp2047
g73
(dp2048
g81
I5
ssg82
g2042
sg75
(lp2049
g111
asbasbasbag68
(g84
g70
NtRp2050
(dp2051
g73
(dp2052
sg82
g78
sg75
(lp2053
g68
(g89
g70
NtRp2054
(dp2055
g73
(dp2056
g93
g94
ssg82
g2050
sg75
(lp2057
S'now'
p2058
asbag68
(g89
g70
NtRp2059
(dp2060
g73
(dp2061
g100
g101
ssg82
g2050
sg75
(lp2062
S':'
asbag68
(g89
g70
NtRp2063
(dp2064
g73
(dp2065
sg82
g2050
sg75
(lp2066
g68
(g69
g70
NtRp2067
(dp2068
g73
(dp2069
g81
I5
ssg82
g2063
sg75
(lp2070
S'datetime.datetime(2011, 10, 2, 18, 22, 12, 220243)'
p2071
asbasbasbag68
(g84
g70
NtRp2072
(dp2073
g73
(dp2074
sg82
g78
sg75
(lp2075
g68
(g89
g70
NtRp2076
(dp2077
g73
(dp2078
g93
g94
ssg82
g2072
sg75
(lp2079
S'post_vars'
p2080
asbag68
(g89
g70
NtRp2081
(dp2082
g73
(dp2083
g100
g101
ssg82
g2072
sg75
(lp2084
S':'
asbag68
(g89
g70
NtRp2085
(dp2086
g73
(dp2087
sg82
g2072
sg75
(lp2088
g68
(g69
g70
NtRp2089
(dp2090
g73
(dp2091
g81
I5
ssg82
g2085
sg75
(lp2092
g68
(g77
g70
NtRp2093
(dp2094
g73
(dp2095
g81
I4
ssg82
Nsg75
(lp2096
sbasbasbasbag68
(g84
g70
NtRp2097
(dp2098
g73
(dp2099
sg82
g78
sg75
(lp2100
g68
(g89
g70
NtRp2101
(dp2102
g73
(dp2103
g93
g94
ssg82
g2097
sg75
(lp2104
S'url'
p2105
asbag68
(g89
g70
NtRp2106
(dp2107
g73
(dp2108
g100
g101
ssg82
g2097
sg75
(lp2109
S':'
asbag68
(g89
g70
NtRp2110
(dp2111
g73
(dp2112
sg82
g2097
sg75
(lp2113
g68
(g69
g70
NtRp2114
(dp2115
g73
(dp2116
g81
I5
ssg82
g2110
sg75
(lp2117
S'/places/default/index'
p2118
asbasbasbag68
(g84
g70
NtRp2119
(dp2120
g73
(dp2121
sg82
g78
sg75
(lp2122
g68
(g89
g70
NtRp2123
(dp2124
g73
(dp2125
g93
g94
ssg82
g2119
sg75
(lp2126
S'utcnow'
p2127
asbag68
(g89
g70
NtRp2128
(dp2129
g73
(dp2130
g100
g101
ssg82
g2119
sg75
(lp2131
S':'
asbag68
(g89
g70
NtRp2132
(dp2133
g73
(dp2134
sg82
g2119
sg75
(lp2135
g68
(g69
g70
NtRp2136
(dp2137
g73
(dp2138
g81
I5
ssg82
g2132
sg75
(lp2139
S'datetime.datetime(2011, 10, 2, 22, 22, 12, 220294)'
p2140
asbasbasbag68
(g84
g70
NtRp2141
(dp2142
g73
(dp2143
sg82
g78
sg75
(lp2144
g68
(g89
g70
NtRp2145
(dp2146
g73
(dp2147
g93
g94
ssg82
g2141
sg75
(lp2148
S'uuid'
p2149
asbag68
(g89
g70
NtRp2150
(dp2151
g73
(dp2152
g100
g101
ssg82
g2141
sg75
(lp2153
S':'
asbag68
(g89
g70
NtRp2154
(dp2155
g73
(dp2156
sg82
g2141
sg75
(lp2157
g68
(g69
g70
NtRp2158
(dp2159
g73
(dp2160
g81
I5
ssg82
g2154
sg75
(lp2161
S'places/127.0.0.1.2011-10-02.18-22-12.6143f640-23cf-4b1f-a12a-4783311960ab'
p2162
asbasbasbag68
(g84
g70
NtRp2163
(dp2164
g73
(dp2165
sg82
g78
sg75
(lp2166
g68
(g89
g70
NtRp2167
(dp2168
g73
(dp2169
g93
g94
ssg82
g2163
sg75
(lp2170
S'vars'
p2171
asbag68
(g89
g70
NtRp2172
(dp2173
g73
(dp2174
g100
g101
ssg82
g2163
sg75
(lp2175
S':'
asbag68
(g89
g70
NtRp2176
(dp2177
g73
(dp2178
sg82
g2163
sg75
(lp2179
g68
(g69
g70
NtRp2180
(dp2181
g73
(dp2182
g81
I5
ssg82
g2176
sg75
(lp2183
g68
(g77
g70
NtRp2184
(dp2185
g73
(dp2186
g81
I4
ssg82
Nsg75
(lp2187
sbasbasbasbag68
(g84
g70
NtRp2188
(dp2189
g73
(dp2190
sg82
g78
sg75
(lp2191
g68
(g89
g70
NtRp2192
(dp2193
g73
(dp2194
g93
g94
ssg82
g2188
sg75
(lp2195
S'wsgi'
p2196
asbag68
(g89
g70
NtRp2197
(dp2198
g73
(dp2199
g100
g101
ssg82
g2188
sg75
(lp2200
S':'
asbag68
(g89
g70
NtRp2201
(dp2202
g73
(dp2203
sg82
g2188
sg75
(lp2204
g68
(g69
g70
NtRp2205
(dp2206
g73
(dp2207
g81
I5
ssg82
g2201
sg75
(lp2208
g68
(g77
g70
NtRp2209
(dp2210
g73
(dp2211
g81
I4
ssg82
Nsg75
(lp2212
g68
(g84
g70
NtRp2213
(dp2214
g73
(dp2215
sg82
g2209
sg75
(lp2216
g68
(g89
g70
NtRp2217
(dp2218
g73
(dp2219
g93
g94
ssg82
g2213
sg75
(lp2220
S'environ'
p2221
asbag68
(g89
g70
NtRp2222
(dp2223
g73
(dp2224
g100
g101
ssg82
g2213
sg75
(lp2225
S':'
asbag68
(g89
g70
NtRp2226
(dp2227
g73
(dp2228
sg82
g2213
sg75
(lp2229
g68
(g69
g70
NtRp2230
(dp2231
g73
(dp2232
g81
I4
ssg82
g2226
sg75
(lp2233
g68
(g77
g70
NtRp2234
(dp2235
g73
(dp2236
g81
I3
ssg82
Nsg75
(lp2237
g68
(g84
g70
NtRp2238
(dp2239
g73
(dp2240
sg82
g2234
sg75
(lp2241
g68
(g89
g70
NtRp2242
(dp2243
g73
(dp2244
g93
g94
ssg82
g2238
sg75
(lp2245
S'HTTP_ACCEPT'
p2246
asbag68
(g89
g70
NtRp2247
(dp2248
g73
(dp2249
g100
g101
ssg82
g2238
sg75
(lp2250
S':'
asbag68
(g89
g70
NtRp2251
(dp2252
g73
(dp2253
sg82
g2238
sg75
(lp2254
g68
(g69
g70
NtRp2255
(dp2256
g73
(dp2257
g81
I3
ssg82
g2251
sg75
(lp2258
g829
asbasbasbag68
(g84
g70
NtRp2259
(dp2260
g73
(dp2261
sg82
g2234
sg75
(lp2262
g68
(g89
g70
NtRp2263
(dp2264
g73
(dp2265
g93
g94
ssg82
g2259
sg75
(lp2266
S'HTTP_ACCEPT_CHARSET'
p2267
asbag68
(g89
g70
NtRp2268
(dp2269
g73
(dp2270
g100
g101
ssg82
g2259
sg75
(lp2271
S':'
asbag68
(g89
g70
NtRp2272
(dp2273
g73
(dp2274
sg82
g2259
sg75
(lp2275
g68
(g69
g70
NtRp2276
(dp2277
g73
(dp2278
g81
I3
ssg82
g2272
sg75
(lp2279
g851
asbasbasbag68
(g84
g70
NtRp2280
(dp2281
g73
(dp2282
sg82
g2234
sg75
(lp2283
g68
(g89
g70
NtRp2284
(dp2285
g73
(dp2286
g93
g94
ssg82
g2280
sg75
(lp2287
S'HTTP_ACCEPT_ENCODING'
p2288
asbag68
(g89
g70
NtRp2289
(dp2290
g73
(dp2291
g100
g101
ssg82
g2280
sg75
(lp2292
S':'
asbag68
(g89
g70
NtRp2293
(dp2294
g73
(dp2295
sg82
g2280
sg75
(lp2296
g68
(g69
g70
NtRp2297
(dp2298
g73
(dp2299
g81
I3
ssg82
g2293
sg75
(lp2300
g873
asbasbasbag68
(g84
g70
NtRp2301
(dp2302
g73
(dp2303
sg82
g2234
sg75
(lp2304
g68
(g89
g70
NtRp2305
(dp2306
g73
(dp2307
g93
g94
ssg82
g2301
sg75
(lp2308
S'HTTP_ACCEPT_LANGUAGE'
p2309
asbag68
(g89
g70
NtRp2310
(dp2311
g73
(dp2312
g100
g101
ssg82
g2301
sg75
(lp2313
S':'
asbag68
(g89
g70
NtRp2314
(dp2315
g73
(dp2316
sg82
g2301
sg75
(lp2317
g68
(g69
g70
NtRp2318
(dp2319
g73
(dp2320
g81
I3
ssg82
g2314
sg75
(lp2321
g895
asbasbasbag68
(g84
g70
NtRp2322
(dp2323
g73
(dp2324
sg82
g2234
sg75
(lp2325
g68
(g89
g70
NtRp2326
(dp2327
g73
(dp2328
g93
g94
ssg82
g2322
sg75
(lp2329
S'HTTP_CACHE_CONTROL'
p2330
asbag68
(g89
g70
NtRp2331
(dp2332
g73
(dp2333
g100
g101
ssg82
g2322
sg75
(lp2334
S':'
asbag68
(g89
g70
NtRp2335
(dp2336
g73
(dp2337
sg82
g2322
sg75
(lp2338
g68
(g69
g70
NtRp2339
(dp2340
g73
(dp2341
g81
I3
ssg82
g2335
sg75
(lp2342
g917
asbasbasbag68
(g84
g70
NtRp2343
(dp2344
g73
(dp2345
sg82
g2234
sg75
(lp2346
g68
(g89
g70
NtRp2347
(dp2348
g73
(dp2349
g93
g94
ssg82
g2343
sg75
(lp2350
S'HTTP_CONNECTION'
p2351
asbag68
(g89
g70
NtRp2352
(dp2353
g73
(dp2354
g100
g101
ssg82
g2343
sg75
(lp2355
S':'
asbag68
(g89
g70
NtRp2356
(dp2357
g73
(dp2358
sg82
g2343
sg75
(lp2359
g68
(g69
g70
NtRp2360
(dp2361
g73
(dp2362
g81
I3
ssg82
g2356
sg75
(lp2363
g939
asbasbasbag68
(g84
g70
NtRp2364
(dp2365
g73
(dp2366
sg82
g2234
sg75
(lp2367
g68
(g89
g70
NtRp2368
(dp2369
g73
(dp2370
g93
g94
ssg82
g2364
sg75
(lp2371
S'HTTP_COOKIE'
p2372
asbag68
(g89
g70
NtRp2373
(dp2374
g73
(dp2375
g100
g101
ssg82
g2364
sg75
(lp2376
S':'
asbag68
(g89
g70
NtRp2377
(dp2378
g73
(dp2379
sg82
g2364
sg75
(lp2380
g68
(g69
g70
NtRp2381
(dp2382
g73
(dp2383
g81
I3
ssg82
g2377
sg75
(lp2384
g961
asbasbasbag68
(g84
g70
NtRp2385
(dp2386
g73
(dp2387
sg82
g2234
sg75
(lp2388
g68
(g89
g70
NtRp2389
(dp2390
g73
(dp2391
g93
g94
ssg82
g2385
sg75
(lp2392
S'HTTP_HOST'
p2393
asbag68
(g89
g70
NtRp2394
(dp2395
g73
(dp2396
g100
g101
ssg82
g2385
sg75
(lp2397
S':'
asbag68
(g89
g70
NtRp2398
(dp2399
g73
(dp2400
sg82
g2385
sg75
(lp2401
g68
(g69
g70
NtRp2402
(dp2403
g73
(dp2404
g81
I3
ssg82
g2398
sg75
(lp2405
g983
asbasbasbag68
(g84
g70
NtRp2406
(dp2407
g73
(dp2408
sg82
g2234
sg75
(lp2409
g68
(g89
g70
NtRp2410
(dp2411
g73
(dp2412
g93
g94
ssg82
g2406
sg75
(lp2413
S'HTTP_REFERER'
p2414
asbag68
(g89
g70
NtRp2415
(dp2416
g73
(dp2417
g100
g101
ssg82
g2406
sg75
(lp2418
S':'
asbag68
(g89
g70
NtRp2419
(dp2420
g73
(dp2421
sg82
g2406
sg75
(lp2422
g68
(g69
g70
NtRp2423
(dp2424
g73
(dp2425
g81
I3
ssg82
g2419
sg75
(lp2426
g1005
asbasbasbag68
(g84
g70
NtRp2427
(dp2428
g73
(dp2429
sg82
g2234
sg75
(lp2430
g68
(g89
g70
NtRp2431
(dp2432
g73
(dp2433
g93
g94
ssg82
g2427
sg75
(lp2434
S'HTTP_USER_AGENT'
p2435
asbag68
(g89
g70
NtRp2436
(dp2437
g73
(dp2438
g100
g101
ssg82
g2427
sg75
(lp2439
S':'
asbag68
(g89
g70
NtRp2440
(dp2441
g73
(dp2442
sg82
g2427
sg75
(lp2443
g68
(g69
g70
NtRp2444
(dp2445
g73
(dp2446
g81
I3
ssg82
g2440
sg75
(lp2447
g1027
asbasbasbag68
(g84
g70
NtRp2448
(dp2449
g73
(dp2450
sg82
g2234
sg75
(lp2451
g68
(g89
g70
NtRp2452
(dp2453
g73
(dp2454
g93
g94
ssg82
g2448
sg75
(lp2455
S'PATH_INFO'
p2456
asbag68
(g89
g70
NtRp2457
(dp2458
g73
(dp2459
g100
g101
ssg82
g2448
sg75
(lp2460
S':'
asbag68
(g89
g70
NtRp2461
(dp2462
g73
(dp2463
sg82
g2448
sg75
(lp2464
g68
(g69
g70
NtRp2465
(dp2466
g73
(dp2467
g81
I3
ssg82
g2461
sg75
(lp2468
g1070
asbasbasbag68
(g84
g70
NtRp2469
(dp2470
g73
(dp2471
sg82
g2234
sg75
(lp2472
g68
(g89
g70
NtRp2473
(dp2474
g73
(dp2475
g93
g94
ssg82
g2469
sg75
(lp2476
S'QUERY_STRING'
p2477
asbag68
(g89
g70
NtRp2478
(dp2479
g73
(dp2480
g100
g101
ssg82
g2469
sg75
(lp2481
S':'
asbag68
(g89
g70
NtRp2482
(dp2483
g73
(dp2484
sg82
g2469
sg75
(lp2485
g68
(g69
g70
NtRp2486
(dp2487
g73
(dp2488
g81
I3
ssg82
g2482
sg75
(lp2489
S''
asbasbasbag68
(g84
g70
NtRp2490
(dp2491
g73
(dp2492
sg82
g2234
sg75
(lp2493
g68
(g89
g70
NtRp2494
(dp2495
g73
(dp2496
g93
g94
ssg82
g2490
sg75
(lp2497
S'REMOTE_ADDR'
p2498
asbag68
(g89
g70
NtRp2499
(dp2500
g73
(dp2501
g100
g101
ssg82
g2490
sg75
(lp2502
S':'
asbag68
(g89
g70
NtRp2503
(dp2504
g73
(dp2505
sg82
g2490
sg75
(lp2506
g68
(g69
g70
NtRp2507
(dp2508
g73
(dp2509
g81
I3
ssg82
g2503
sg75
(lp2510
g201
asbasbasbag68
(g84
g70
NtRp2511
(dp2512
g73
(dp2513
sg82
g2234
sg75
(lp2514
g68
(g89
g70
NtRp2515
(dp2516
g73
(dp2517
g93
g94
ssg82
g2511
sg75
(lp2518
S'REMOTE_PORT'
p2519
asbag68
(g89
g70
NtRp2520
(dp2521
g73
(dp2522
g100
g101
ssg82
g2511
sg75
(lp2523
S':'
asbag68
(g89
g70
NtRp2524
(dp2525
g73
(dp2526
sg82
g2511
sg75
(lp2527
g68
(g69
g70
NtRp2528
(dp2529
g73
(dp2530
g81
I3
ssg82
g2524
sg75
(lp2531
g1134
asbasbasbag68
(g84
g70
NtRp2532
(dp2533
g73
(dp2534
sg82
g2234
sg75
(lp2535
g68
(g89
g70
NtRp2536
(dp2537
g73
(dp2538
g93
g94
ssg82
g2532
sg75
(lp2539
S'REQUEST_METHOD'
p2540
asbag68
(g89
g70
NtRp2541
(dp2542
g73
(dp2543
g100
g101
ssg82
g2532
sg75
(lp2544
S':'
asbag68
(g89
g70
NtRp2545
(dp2546
g73
(dp2547
sg82
g2532
sg75
(lp2548
g68
(g69
g70
NtRp2549
(dp2550
g73
(dp2551
g81
I3
ssg82
g2545
sg75
(lp2552
g1156
asbasbasbag68
(g84
g70
NtRp2553
(dp2554
g73
(dp2555
sg82
g2234
sg75
(lp2556
g68
(g89
g70
NtRp2557
(dp2558
g73
(dp2559
g93
g94
ssg82
g2553
sg75
(lp2560
S'SCRIPT_NAME'
p2561
asbag68
(g89
g70
NtRp2562
(dp2563
g73
(dp2564
g100
g101
ssg82
g2553
sg75
(lp2565
S':'
asbag68
(g89
g70
NtRp2566
(dp2567
g73
(dp2568
sg82
g2553
sg75
(lp2569
g68
(g69
g70
NtRp2570
(dp2571
g73
(dp2572
g81
I3
ssg82
g2566
sg75
(lp2573
S''
asbasbasbag68
(g84
g70
NtRp2574
(dp2575
g73
(dp2576
sg82
g2234
sg75
(lp2577
g68
(g89
g70
NtRp2578
(dp2579
g73
(dp2580
g93
g94
ssg82
g2574
sg75
(lp2581
S'SERVER_NAME'
p2582
asbag68
(g89
g70
NtRp2583
(dp2584
g73
(dp2585
g100
g101
ssg82
g2574
sg75
(lp2586
S':'
asbag68
(g89
g70
NtRp2587
(dp2588
g73
(dp2589
sg82
g2574
sg75
(lp2590
g68
(g69
g70
NtRp2591
(dp2592
g73
(dp2593
g81
I3
ssg82
g2587
sg75
(lp2594
g1199
asbasbasbag68
(g84
g70
NtRp2595
(dp2596
g73
(dp2597
sg82
g2234
sg75
(lp2598
g68
(g89
g70
NtRp2599
(dp2600
g73
(dp2601
g93
g94
ssg82
g2595
sg75
(lp2602
S'SERVER_PORT'
p2603
asbag68
(g89
g70
NtRp2604
(dp2605
g73
(dp2606
g100
g101
ssg82
g2595
sg75
(lp2607
S':'
asbag68
(g89
g70
NtRp2608
(dp2609
g73
(dp2610
sg82
g2595
sg75
(lp2611
g68
(g69
g70
NtRp2612
(dp2613
g73
(dp2614
g81
I3
ssg82
g2608
sg75
(lp2615
g1221
asbasbasbag68
(g84
g70
NtRp2616
(dp2617
g73
(dp2618
sg82
g2234
sg75
(lp2619
g68
(g89
g70
NtRp2620
(dp2621
g73
(dp2622
g93
g94
ssg82
g2616
sg75
(lp2623
S'SERVER_PROTOCOL'
p2624
asbag68
(g89
g70
NtRp2625
(dp2626
g73
(dp2627
g100
g101
ssg82
g2616
sg75
(lp2628
S':'
asbag68
(g89
g70
NtRp2629
(dp2630
g73
(dp2631
sg82
g2616
sg75
(lp2632
g68
(g69
g70
NtRp2633
(dp2634
g73
(dp2635
g81
I3
ssg82
g2629
sg75
(lp2636
g1243
asbasbasbag68
(g84
g70
NtRp2637
(dp2638
g73
(dp2639
sg82
g2234
sg75
(lp2640
g68
(g89
g70
NtRp2641
(dp2642
g73
(dp2643
g93
g94
ssg82
g2637
sg75
(lp2644
S'SERVER_SOFTWARE'
p2645
asbag68
(g89
g70
NtRp2646
(dp2647
g73
(dp2648
g100
g101
ssg82
g2637
sg75
(lp2649
S':'
asbag68
(g89
g70
NtRp2650
(dp2651
g73
(dp2652
sg82
g2637
sg75
(lp2653
g68
(g69
g70
NtRp2654
(dp2655
g73
(dp2656
g81
I3
ssg82
g2650
sg75
(lp2657
g1265
asbasbasbag68
(g84
g70
NtRp2658
(dp2659
g73
(dp2660
sg82
g2234
sg75
(lp2661
g68
(g89
g70
NtRp2662
(dp2663
g73
(dp2664
g93
g94
ssg82
g2658
sg75
(lp2665
S'wsgi.errors'
p2666
asbag68
(g89
g70
NtRp2667
(dp2668
g73
(dp2669
g100
g101
ssg82
g2658
sg75
(lp2670
S':'
asbag68
(g89
g70
NtRp2671
(dp2672
g73
(dp2673
sg82
g2658
sg75
(lp2674
g68
(g69
g70
NtRp2675
(dp2676
g73
(dp2677
g81
I3
ssg82
g2671
sg75
(lp2678
S"<open file '<stderr>', mode 'w' at 0x7fc667cbe270>"
p2679
asbasbasbag68
(g84
g70
NtRp2680
(dp2681
g73
(dp2682
sg82
g2234
sg75
(lp2683
g68
(g89
g70
NtRp2684
(dp2685
g73
(dp2686
g93
g94
ssg82
g2680
sg75
(lp2687
S'wsgi.file_wrapper'
p2688
asbag68
(g89
g70
NtRp2689
(dp2690
g73
(dp2691
g100
g101
ssg82
g2680
sg75
(lp2692
S':'
asbag68
(g89
g70
NtRp2693
(dp2694
g73
(dp2695
sg82
g2680
sg75
(lp2696
g68
(g69
g70
NtRp2697
(dp2698
g73
(dp2699
g81
I3
ssg82
g2693
sg75
(lp2700
S'<class wsgiref.util.FileWrapper at 0x2ad6738>'
p2701
asbasbasbag68
(g84
g70
NtRp2702
(dp2703
g73
(dp2704
sg82
g2234
sg75
(lp2705
g68
(g89
g70
NtRp2706
(dp2707
g73
(dp2708
g93
g94
ssg82
g2702
sg75
(lp2709
S'wsgi.input'
p2710
asbag68
(g89
g70
NtRp2711
(dp2712
g73
(dp2713
g100
g101
ssg82
g2702
sg75
(lp2714
S':'
asbag68
(g89
g70
NtRp2715
(dp2716
g73
(dp2717
sg82
g2702
sg75
(lp2718
g68
(g69
g70
NtRp2719
(dp2720
g73
(dp2721
g81
I3
ssg82
g2715
sg75
(lp2722
S'<cStringIO.StringO object at 0x367d228>'
p2723
asbasbasbag68
(g84
g70
NtRp2724
(dp2725
g73
(dp2726
sg82
g2234
sg75
(lp2727
g68
(g89
g70
NtRp2728
(dp2729
g73
(dp2730
g93
g94
ssg82
g2724
sg75
(lp2731
S'wsgi.multiprocess'
p2732
asbag68
(g89
g70
NtRp2733
(dp2734
g73
(dp2735
g100
g101
ssg82
g2724
sg75
(lp2736
S':'
asbag68
(g89
g70
NtRp2737
(dp2738
g73
(dp2739
sg82
g2724
sg75
(lp2740
g68
(g69
g70
NtRp2741
(dp2742
g73
(dp2743
g81
I3
ssg82
g2737
sg75
(lp2744
g111
asbasbasbag68
(g84
g70
NtRp2745
(dp2746
g73
(dp2747
sg82
g2234
sg75
(lp2748
g68
(g89
g70
NtRp2749
(dp2750
g73
(dp2751
g93
g94
ssg82
g2745
sg75
(lp2752
S'wsgi.multithread'
p2753
asbag68
(g89
g70
NtRp2754
(dp2755
g73
(dp2756
g100
g101
ssg82
g2745
sg75
(lp2757
S':'
asbag68
(g89
g70
NtRp2758
(dp2759
g73
(dp2760
sg82
g2745
sg75
(lp2761
g68
(g69
g70
NtRp2762
(dp2763
g73
(dp2764
g81
I3
ssg82
g2758
sg75
(lp2765
g1505
asbasbasbag68
(g84
g70
NtRp2766
(dp2767
g73
(dp2768
sg82
g2234
sg75
(lp2769
g68
(g89
g70
NtRp2770
(dp2771
g73
(dp2772
g93
g94
ssg82
g2766
sg75
(lp2773
S'wsgi.run_once'
p2774
asbag68
(g89
g70
NtRp2775
(dp2776
g73
(dp2777
g100
g101
ssg82
g2766
sg75
(lp2778
S':'
asbag68
(g89
g70
NtRp2779
(dp2780
g73
(dp2781
sg82
g2766
sg75
(lp2782
g68
(g69
g70
NtRp2783
(dp2784
g73
(dp2785
g81
I3
ssg82
g2779
sg75
(lp2786
g111
asbasbasbag68
(g84
g70
NtRp2787
(dp2788
g73
(dp2789
sg82
g2234
sg75
(lp2790
g68
(g89
g70
NtRp2791
(dp2792
g73
(dp2793
g93
g94
ssg82
g2787
sg75
(lp2794
S'wsgi.url_scheme'
p2795
asbag68
(g89
g70
NtRp2796
(dp2797
g73
(dp2798
g100
g101
ssg82
g2787
sg75
(lp2799
S':'
asbag68
(g89
g70
NtRp2800
(dp2801
g73
(dp2802
sg82
g2787
sg75
(lp2803
g68
(g69
g70
NtRp2804
(dp2805
g73
(dp2806
g81
I3
ssg82
g2800
sg75
(lp2807
g1548
asbasbasbag68
(g84
g70
NtRp2808
(dp2809
g73
(dp2810
sg82
g2234
sg75
(lp2811
g68
(g89
g70
NtRp2812
(dp2813
g73
(dp2814
g93
g94
ssg82
g2808
sg75
(lp2815
S'wsgi.version'
p2816
asbag68
(g89
g70
NtRp2817
(dp2818
g73
(dp2819
g100
g101
ssg82
g2808
sg75
(lp2820
S':'
asbag68
(g89
g70
NtRp2821
(dp2822
g73
(dp2823
sg82
g2808
sg75
(lp2824
g68
(g69
g70
NtRp2825
(dp2826
g73
(dp2827
g81
I3
ssg82
g2821
sg75
(lp2828
S'1'
asbasbasbasbasbasbasbasbasbasbasbasbasbsS'frames'
p2829
(lp2830
(dp2831
S'file'
p2832
S'/home/ian/web2py/gluon/restricted.py'
p2833
sS'dump'
p2834
(dp2835
S'code'
p2836
S'r"left_sidebar_enabled=right_sidebar_enabled=False...    -->    \\n  </body>\\n</html>\\n\', escape=False)"'
p2837
sS'layer'
p2838
S"'/home/ian/web2py/applications/places/views/default/index.html'"
p2839
sS'global compile2'
p2840
S'<function compile2>'
p2841
sS'ccode'
p2842
S'undefined'
p2843
ssS'lnum'
p2844
I193
sS'lines'
p2845
(dp2846
I192
S'        else:'
p2847
sI193
S'            ccode = compile2(code,layer)'
p2848
sI194
S'        exec ccode in environment'
p2849
sI195
S'    except HTTP:'
p2850
sI196
S'        raise'
p2851
sI197
S'    except Exception, error:'
p2852
sI188
S"    environment['__file__'] = layer"
p2853
sI189
S'    try:'
p2854
sI190
S'        if type(code) == types.CodeType:'
p2855
sI191
S'            ccode = code'
p2856
ssS'call'
p2857
S'(code=r"left_sidebar_enabled=right_sidebar_enabled=False...    -->    \\n  </body>\\n</html>\\n\', escape=False)", environment={\'A\': <class \'gluon.html.A\'>, \'Auth\': <class \'gluon.tools.Auth\'>, \'B\': <class \'gluon.html.B\'>, \'BEAUTIFY\': <class \'gluon.html.BEAUTIFY\'>, \'BODY\': <class \'gluon.html.BODY\'>, \'BR\': <class \'gluon.html.BR\'>, \'BUTTON\': <class \'gluon.html.BUTTON\'>, \'CAT\': <class \'gluon.html.CAT\'>, \'CENTER\': <class \'gluon.html.CENTER\'>, \'CLEANUP\': <class \'gluon.validators.CLEANUP\'>, ...}, layer=\'/home/ian/web2py/applications/places/views/default/index.html\')'
p2858
sS'func'
p2859
S'restricted'
p2860
sa(dp2861
g2832
S'/home/ian/web2py/gluon/restricted.py'
p2862
sg2834
(dp2863
S'builtincompile'
p2864
S'<built-in function compile>'
p2865
sS'code'
p2866
S'r"left_sidebar_enabled=right_sidebar_enabled=False...    -->    \\n  </body>\\n</html>\\n\', escape=False)"'
p2867
sS'code.rstrip'
p2868
S'<built-in method rstrip of str object>'
p2869
sS').replace'
p2870
g2843
sS'layer'
p2871
S"'/home/ian/web2py/applications/places/views/default/index.html'"
p2872
ssg2844
I179
sg2845
(dp2873
I174
S''
sI175
S'def compile2(code,layer):'
p2874
sI176
S'    """'
p2875
sI177
S"    The +'\\n' is necessary else compile fails when code ends in a comment."
p2876
sI178
S'    """'
p2877
sI179
S"    return compile(code.rstrip().replace('\\r\\n','\\n')+'\\n', layer, 'exec')"
p2878
sI180
S''
sI181
S"def restricted(code, environment=None, layer='Unknown'):"
p2879
sI182
S'    """'
p2880
sI183
S'    runs code in environment and returns the output. if an exception occurs'
p2881
ssg2857
S'(code=r"left_sidebar_enabled=right_sidebar_enabled=False...    -->    \\n  </body>\\n</html>\\n\', escape=False)", layer=\'/home/ian/web2py/applications/places/views/default/index.html\')'
p2882
sg2859
S'compile2'
p2883
sasS'pyver'
p2884
S'Python 2.7.1+: /usr/bin/python2.7'
p2885
sS'session'
p2886
g68
(g69
g70
NtRp2887
(dp2888
g73
(dp2889
sg75
(lp2890
g68
(g77
g70
NtRp2891
(dp2892
g73
(dp2893
g81
I5
ssg82
Nsg75
(lp2894
g68
(g84
g70
NtRp2895
(dp2896
g73
(dp2897
sg82
g2891
sg75
(lp2898
g68
(g89
g70
NtRp2899
(dp2900
g73
(dp2901
g93
g94
ssg82
g2895
sg75
(lp2902
S'current'
p2903
asbag68
(g89
g70
NtRp2904
(dp2905
g73
(dp2906
g100
g101
ssg82
g2895
sg75
(lp2907
S':'
asbag68
(g89
g70
NtRp2908
(dp2909
g73
(dp2910
sg82
g2895
sg75
(lp2911
g68
(g69
g70
NtRp2912
(dp2913
g73
(dp2914
g81
I5
ssg82
g2908
sg75
(lp2915
S'kitchen'
p2916
asbasbasbag68
(g84
g70
NtRp2917
(dp2918
g73
(dp2919
sg82
g2891
sg75
(lp2920
g68
(g89
g70
NtRp2921
(dp2922
g73
(dp2923
g93
g94
ssg82
g2917
sg75
(lp2924
S'current_view'
p2925
asbag68
(g89
g70
NtRp2926
(dp2927
g73
(dp2928
g100
g101
ssg82
g2917
sg75
(lp2929
S':'
asbag68
(g89
g70
NtRp2930
(dp2931
g73
(dp2932
sg82
g2917
sg75
(lp2933
g68
(g69
g70
NtRp2934
(dp2935
g73
(dp2936
g81
I5
ssg82
g2930
sg75
(lp2937
S'kitchen'
p2938
asbasbasbasbasbsS'etype'
p2939
S"<type 'exceptions.SyntaxError'>"
p2940
sS'date'
p2941
S'Sun Oct  2 18:22:12 2011'
p2942
sS'response'
p2943
g68
(g69
g70
NtRp2944
(dp2945
g73
(dp2946
sg75
(lp2947
g68
(g77
g70
NtRp2948
(dp2949
g73
(dp2950
g81
I5
ssg82
Nsg75
(lp2951
g68
(g84
g70
NtRp2952
(dp2953
g73
(dp2954
sg82
g2948
sg75
(lp2955
g68
(g89
g70
NtRp2956
(dp2957
g73
(dp2958
g93
g94
ssg82
g2952
sg75
(lp2959
g166
asbag68
(g89
g70
NtRp2960
(dp2961
g73
(dp2962
g100
g101
ssg82
g2952
sg75
(lp2963
S':'
asbag68
(g89
g70
NtRp2964
(dp2965
g73
(dp2966
sg82
g2952
sg75
(lp2967
g68
(g69
g70
NtRp2968
(dp2969
g73
(dp2970
g81
I5
ssg82
g2964
sg75
(lp2971
S'<cStringIO.StringO object at 0x2f97928>'
p2972
asbasbasbag68
(g84
g70
NtRp2973
(dp2974
g73
(dp2975
sg82
g2948
sg75
(lp2976
g68
(g89
g70
NtRp2977
(dp2978
g73
(dp2979
g93
g94
ssg82
g2973
sg75
(lp2980
g232
asbag68
(g89
g70
NtRp2981
(dp2982
g73
(dp2983
g100
g101
ssg82
g2973
sg75
(lp2984
S':'
asbag68
(g89
g70
NtRp2985
(dp2986
g73
(dp2987
sg82
g2973
sg75
(lp2988
g68
(g69
g70
NtRp2989
(dp2990
g73
(dp2991
g81
I5
ssg82
g2985
sg75
(lp2992
g68
(g77
g70
NtRp2993
(dp2994
g73
(dp2995
g81
I4
ssg82
Nsg75
(lp2996
g68
(g84
g70
NtRp2997
(dp2998
g73
(dp2999
sg82
g2993
sg75
(lp3000
g68
(g89
g70
NtRp3001
(dp3002
g73
(dp3003
g93
g94
ssg82
g2997
sg75
(lp3004
S'session_id_places'
p3005
asbag68
(g89
g70
NtRp3006
(dp3007
g73
(dp3008
g100
g101
ssg82
g2997
sg75
(lp3009
S':'
asbag68
(g89
g70
NtRp3010
(dp3011
g73
(dp3012
sg82
g2997
sg75
(lp3013
g68
(g69
g70
NtRp3014
(dp3015
g73
(dp3016
g81
I4
ssg82
g3010
sg75
(lp3017
g68
(g77
g70
NtRp3018
(dp3019
g73
(dp3020
g81
I3
ssg82
Nsg75
(lp3021
g68
(g84
g70
NtRp3022
(dp3023
g73
(dp3024
sg82
g3018
sg75
(lp3025
g68
(g89
g70
NtRp3026
(dp3027
g73
(dp3028
g93
g94
ssg82
g3022
sg75
(lp3029
g282
asbag68
(g89
g70
NtRp3030
(dp3031
g73
(dp3032
g100
g101
ssg82
g3022
sg75
(lp3033
S':'
asbag68
(g89
g70
NtRp3034
(dp3035
g73
(dp3036
sg82
g3022
sg75
(lp3037
g68
(g69
g70
NtRp3038
(dp3039
g73
(dp3040
g81
I3
ssg82
g3034
sg75
(lp3041
S''
asbasbasbag68
(g84
g70
NtRp3042
(dp3043
g73
(dp3044
sg82
g3018
sg75
(lp3045
g68
(g89
g70
NtRp3046
(dp3047
g73
(dp3048
g93
g94
ssg82
g3042
sg75
(lp3049
g303
asbag68
(g89
g70
NtRp3050
(dp3051
g73
(dp3052
g100
g101
ssg82
g3042
sg75
(lp3053
S':'
asbag68
(g89
g70
NtRp3054
(dp3055
g73
(dp3056
sg82
g3042
sg75
(lp3057
g68
(g69
g70
NtRp3058
(dp3059
g73
(dp3060
g81
I3
ssg82
g3054
sg75
(lp3061
S''
asbasbasbag68
(g84
g70
NtRp3062
(dp3063
g73
(dp3064
sg82
g3018
sg75
(lp3065
g68
(g89
g70
NtRp3066
(dp3067
g73
(dp3068
g93
g94
ssg82
g3062
sg75
(lp3069
g324
asbag68
(g89
g70
NtRp3070
(dp3071
g73
(dp3072
g100
g101
ssg82
g3062
sg75
(lp3073
S':'
asbag68
(g89
g70
NtRp3074
(dp3075
g73
(dp3076
sg82
g3062
sg75
(lp3077
g68
(g69
g70
NtRp3078
(dp3079
g73
(dp3080
g81
I3
ssg82
g3074
sg75
(lp3081
S''
asbasbasbag68
(g84
g70
NtRp3082
(dp3083
g73
(dp3084
sg82
g3018
sg75
(lp3085
g68
(g89
g70
NtRp3086
(dp3087
g73
(dp3088
g93
g94
ssg82
g3082
sg75
(lp3089
g345
asbag68
(g89
g70
NtRp3090
(dp3091
g73
(dp3092
g100
g101
ssg82
g3082
sg75
(lp3093
S':'
asbag68
(g89
g70
NtRp3094
(dp3095
g73
(dp3096
sg82
g3082
sg75
(lp3097
g68
(g69
g70
NtRp3098
(dp3099
g73
(dp3100
g81
I3
ssg82
g3094
sg75
(lp3101
S''
asbasbasbag68
(g84
g70
NtRp3102
(dp3103
g73
(dp3104
sg82
g3018
sg75
(lp3105
g68
(g89
g70
NtRp3106
(dp3107
g73
(dp3108
g93
g94
ssg82
g3102
sg75
(lp3109
g366
asbag68
(g89
g70
NtRp3110
(dp3111
g73
(dp3112
g100
g101
ssg82
g3102
sg75
(lp3113
S':'
asbag68
(g89
g70
NtRp3114
(dp3115
g73
(dp3116
sg82
g3102
sg75
(lp3117
g68
(g69
g70
NtRp3118
(dp3119
g73
(dp3120
g81
I3
ssg82
g3114
sg75
(lp3121
S''
asbasbasbag68
(g84
g70
NtRp3122
(dp3123
g73
(dp3124
sg82
g3018
sg75
(lp3125
g68
(g89
g70
NtRp3126
(dp3127
g73
(dp3128
g93
g94
ssg82
g3122
sg75
(lp3129
g387
asbag68
(g89
g70
NtRp3130
(dp3131
g73
(dp3132
g100
g101
ssg82
g3122
sg75
(lp3133
S':'
asbag68
(g89
g70
NtRp3134
(dp3135
g73
(dp3136
sg82
g3122
sg75
(lp3137
g68
(g69
g70
NtRp3138
(dp3139
g73
(dp3140
g81
I3
ssg82
g3134
sg75
(lp3141
S'/'
asbasbasbag68
(g84
g70
NtRp3142
(dp3143
g73
(dp3144
sg82
g3018
sg75
(lp3145
g68
(g89
g70
NtRp3146
(dp3147
g73
(dp3148
g93
g94
ssg82
g3142
sg75
(lp3149
g408
asbag68
(g89
g70
NtRp3150
(dp3151
g73
(dp3152
g100
g101
ssg82
g3142
sg75
(lp3153
S':'
asbag68
(g89
g70
NtRp3154
(dp3155
g73
(dp3156
sg82
g3142
sg75
(lp3157
g68
(g69
g70
NtRp3158
(dp3159
g73
(dp3160
g81
I3
ssg82
g3154
sg75
(lp3161
S''
asbasbasbag68
(g84
g70
NtRp3162
(dp3163
g73
(dp3164
sg82
g3018
sg75
(lp3165
g68
(g89
g70
NtRp3166
(dp3167
g73
(dp3168
g93
g94
ssg82
g3162
sg75
(lp3169
g429
asbag68
(g89
g70
NtRp3170
(dp3171
g73
(dp3172
g100
g101
ssg82
g3162
sg75
(lp3173
S':'
asbag68
(g89
g70
NtRp3174
(dp3175
g73
(dp3176
sg82
g3162
sg75
(lp3177
g68
(g69
g70
NtRp3178
(dp3179
g73
(dp3180
g81
I3
ssg82
g3174
sg75
(lp3181
S''
asbasbasbasbasbasbasbasbasbasbasbag68
(g84
g70
NtRp3182
(dp3183
g73
(dp3184
sg82
g2948
sg75
(lp3185
g68
(g89
g70
NtRp3186
(dp3187
g73
(dp3188
g93
g94
ssg82
g3182
sg75
(lp3189
S'files'
p3190
asbag68
(g89
g70
NtRp3191
(dp3192
g73
(dp3193
g100
g101
ssg82
g3182
sg75
(lp3194
S':'
asbag68
(g89
g70
NtRp3195
(dp3196
g73
(dp3197
sg82
g3182
sg75
(lp3198
g68
(g69
g70
NtRp3199
(dp3200
g73
(dp3201
g81
I5
ssg82
g3195
sg75
(lp3202
g68
(g77
g70
NtRp3203
(dp3204
g73
(dp3205
g81
I4
ssg82
Nsg75
(lp3206
sbasbasbasbag68
(g84
g70
NtRp3207
(dp3208
g73
(dp3209
sg82
g2948
sg75
(lp3210
g68
(g89
g70
NtRp3211
(dp3212
g73
(dp3213
g93
g94
ssg82
g3207
sg75
(lp3214
S'flash'
p3215
asbag68
(g89
g70
NtRp3216
(dp3217
g73
(dp3218
g100
g101
ssg82
g3207
sg75
(lp3219
S':'
asbag68
(g89
g70
NtRp3220
(dp3221
g73
(dp3222
sg82
g3207
sg75
(lp3223
g68
(g69
g70
NtRp3224
(dp3225
g73
(dp3226
g81
I5
ssg82
g3220
sg75
(lp3227
S''
asbasbasbag68
(g84
g70
NtRp3228
(dp3229
g73
(dp3230
sg82
g2948
sg75
(lp3231
g68
(g89
g70
NtRp3232
(dp3233
g73
(dp3234
g93
g94
ssg82
g3228
sg75
(lp3235
S'generic_patterns'
p3236
asbag68
(g89
g70
NtRp3237
(dp3238
g73
(dp3239
g100
g101
ssg82
g3228
sg75
(lp3240
S':'
asbag68
(g89
g70
NtRp3241
(dp3242
g73
(dp3243
sg82
g3228
sg75
(lp3244
g68
(g69
g70
NtRp3245
(dp3246
g73
(dp3247
g81
I5
ssg82
g3241
sg75
(lp3248
g68
(g77
g70
NtRp3249
(dp3250
g73
(dp3251
g81
I4
ssg82
Nsg75
(lp3252
g68
(g84
g70
NtRp3253
(dp3254
g73
(dp3255
sg82
g3249
sg75
(lp3256
g68
(g89
g70
NtRp3257
(dp3258
g73
(dp3259
sg82
g3253
sg75
(lp3260
g68
(g69
g70
NtRp3261
(dp3262
g73
(dp3263
g81
I4
ssg82
g3257
sg75
(lp3264
S'*'
asbasbasbasbasbasbasbag68
(g84
g70
NtRp3265
(dp3266
g73
(dp3267
sg82
g2948
sg75
(lp3268
g68
(g89
g70
NtRp3269
(dp3270
g73
(dp3271
g93
g94
ssg82
g3265
sg75
(lp3272
S'headers'
p3273
asbag68
(g89
g70
NtRp3274
(dp3275
g73
(dp3276
g100
g101
ssg82
g3265
sg75
(lp3277
S':'
asbag68
(g89
g70
NtRp3278
(dp3279
g73
(dp3280
sg82
g3265
sg75
(lp3281
g68
(g69
g70
NtRp3282
(dp3283
g73
(dp3284
g81
I5
ssg82
g3278
sg75
(lp3285
g68
(g77
g70
NtRp3286
(dp3287
g73
(dp3288
g81
I4
ssg82
Nsg75
(lp3289
g68
(g84
g70
NtRp3290
(dp3291
g73
(dp3292
sg82
g3286
sg75
(lp3293
g68
(g89
g70
NtRp3294
(dp3295
g73
(dp3296
g93
g94
ssg82
g3290
sg75
(lp3297
S'Cache-Control'
p3298
asbag68
(g89
g70
NtRp3299
(dp3300
g73
(dp3301
g100
g101
ssg82
g3290
sg75
(lp3302
S':'
asbag68
(g89
g70
NtRp3303
(dp3304
g73
(dp3305
sg82
g3290
sg75
(lp3306
g68
(g69
g70
NtRp3307
(dp3308
g73
(dp3309
g81
I4
ssg82
g3303
sg75
(lp3310
S'no-store, no-cache, must-revalidate, post-check=0, pre-check=0'
p3311
asbasbasbag68
(g84
g70
NtRp3312
(dp3313
g73
(dp3314
sg82
g3286
sg75
(lp3315
g68
(g89
g70
NtRp3316
(dp3317
g73
(dp3318
g93
g94
ssg82
g3312
sg75
(lp3319
S'Content-Type'
p3320
asbag68
(g89
g70
NtRp3321
(dp3322
g73
(dp3323
g100
g101
ssg82
g3312
sg75
(lp3324
S':'
asbag68
(g89
g70
NtRp3325
(dp3326
g73
(dp3327
sg82
g3312
sg75
(lp3328
g68
(g69
g70
NtRp3329
(dp3330
g73
(dp3331
g81
I4
ssg82
g3325
sg75
(lp3332
S'text/html; charset=utf-8'
p3333
asbasbasbag68
(g84
g70
NtRp3334
(dp3335
g73
(dp3336
sg82
g3286
sg75
(lp3337
g68
(g89
g70
NtRp3338
(dp3339
g73
(dp3340
g93
g94
ssg82
g3334
sg75
(lp3341
S'Expires'
p3342
asbag68
(g89
g70
NtRp3343
(dp3344
g73
(dp3345
g100
g101
ssg82
g3334
sg75
(lp3346
S':'
asbag68
(g89
g70
NtRp3347
(dp3348
g73
(dp3349
sg82
g3334
sg75
(lp3350
g68
(g69
g70
NtRp3351
(dp3352
g73
(dp3353
g81
I4
ssg82
g3347
sg75
(lp3354
S'Sun, 02 Oct 2011 22:22:12 GMT'
p3355
asbasbasbag68
(g84
g70
NtRp3356
(dp3357
g73
(dp3358
sg82
g3286
sg75
(lp3359
g68
(g89
g70
NtRp3360
(dp3361
g73
(dp3362
g93
g94
ssg82
g3356
sg75
(lp3363
S'Pragma'
p3364
asbag68
(g89
g70
NtRp3365
(dp3366
g73
(dp3367
g100
g101
ssg82
g3356
sg75
(lp3368
S':'
asbag68
(g89
g70
NtRp3369
(dp3370
g73
(dp3371
sg82
g3356
sg75
(lp3372
g68
(g69
g70
NtRp3373
(dp3374
g73
(dp3375
g81
I4
ssg82
g3369
sg75
(lp3376
S'no-cache'
p3377
asbasbasbag68
(g84
g70
NtRp3378
(dp3379
g73
(dp3380
sg82
g3286
sg75
(lp3381
g68
(g89
g70
NtRp3382
(dp3383
g73
(dp3384
g93
g94
ssg82
g3378
sg75
(lp3385
S'X-Powered-By'
p3386
asbag68
(g89
g70
NtRp3387
(dp3388
g73
(dp3389
g100
g101
ssg82
g3378
sg75
(lp3390
S':'
asbag68
(g89
g70
NtRp3391
(dp3392
g73
(dp3393
sg82
g3378
sg75
(lp3394
g68
(g69
g70
NtRp3395
(dp3396
g73
(dp3397
g81
I4
ssg82
g3391
sg75
(lp3398
S'web2py'
p3399
asbasbasbasbasbasbasbag68
(g84
g70
NtRp3400
(dp3401
g73
(dp3402
sg82
g2948
sg75
(lp3403
g68
(g89
g70
NtRp3404
(dp3405
g73
(dp3406
g93
g94
ssg82
g3400
sg75
(lp3407
S'menu'
p3408
asbag68
(g89
g70
NtRp3409
(dp3410
g73
(dp3411
g100
g101
ssg82
g3400
sg75
(lp3412
S':'
asbag68
(g89
g70
NtRp3413
(dp3414
g73
(dp3415
sg82
g3400
sg75
(lp3416
g68
(g69
g70
NtRp3417
(dp3418
g73
(dp3419
g81
I5
ssg82
g3413
sg75
(lp3420
g68
(g77
g70
NtRp3421
(dp3422
g73
(dp3423
g81
I4
ssg82
Nsg75
(lp3424
g68
(g84
g70
NtRp3425
(dp3426
g73
(dp3427
sg82
g3421
sg75
(lp3428
g68
(g89
g70
NtRp3429
(dp3430
g73
(dp3431
sg82
g3425
sg75
(lp3432
g68
(g69
g70
NtRp3433
(dp3434
g73
(dp3435
g81
I4
ssg82
g3429
sg75
(lp3436
g68
(g77
g70
NtRp3437
(dp3438
g73
(dp3439
g81
I3
ssg82
Nsg75
(lp3440
g68
(g84
g70
NtRp3441
(dp3442
g73
(dp3443
sg82
g3437
sg75
(lp3444
g68
(g89
g70
NtRp3445
(dp3446
g73
(dp3447
sg82
g3441
sg75
(lp3448
g68
(g69
g70
NtRp3449
(dp3450
g73
(dp3451
g81
I3
ssg82
g3445
sg75
(lp3452
cgluon.languages
lazyT_unpickle
p3453
(S't\x04\x00\x00\x00Home'
tRp3454
asbasbasbag68
(g84
g70
NtRp3455
(dp3456
g73
(dp3457
sg82
g3437
sg75
(lp3458
g68
(g89
g70
NtRp3459
(dp3460
g73
(dp3461
sg82
g3455
sg75
(lp3462
g68
(g69
g70
NtRp3463
(dp3464
g73
(dp3465
g81
I3
ssg82
g3459
sg75
(lp3466
g111
asbasbasbag68
(g84
g70
NtRp3467
(dp3468
g73
(dp3469
sg82
g3437
sg75
(lp3470
g68
(g89
g70
NtRp3471
(dp3472
g73
(dp3473
sg82
g3467
sg75
(lp3474
g68
(g69
g70
NtRp3475
(dp3476
g73
(dp3477
g81
I3
ssg82
g3471
sg75
(lp3478
S'/places/default/index'
p3479
asbasbasbag68
(g84
g70
NtRp3480
(dp3481
g73
(dp3482
sg82
g3437
sg75
(lp3483
g68
(g89
g70
NtRp3484
(dp3485
g73
(dp3486
sg82
g3480
sg75
(lp3487
g68
(g69
g70
NtRp3488
(dp3489
g73
(dp3490
g81
I3
ssg82
g3484
sg75
(lp3491
g68
(g77
g70
NtRp3492
(dp3493
g73
(dp3494
g81
I2
ssg82
Nsg75
(lp3495
sbasbasbasbasbasbasbasbag68
(g84
g70
NtRp3496
(dp3497
g73
(dp3498
sg82
g3421
sg75
(lp3499
g68
(g89
g70
NtRp3500
(dp3501
g73
(dp3502
sg82
g3496
sg75
(lp3503
g68
(g69
g70
NtRp3504
(dp3505
g73
(dp3506
g81
I4
ssg82
g3500
sg75
(lp3507
g68
(g77
g70
NtRp3508
(dp3509
g73
(dp3510
g81
I3
ssg82
Nsg75
(lp3511
g68
(g84
g70
NtRp3512
(dp3513
g73
(dp3514
sg82
g3508
sg75
(lp3515
g68
(g89
g70
NtRp3516
(dp3517
g73
(dp3518
sg82
g3512
sg75
(lp3519
g68
(g69
g70
NtRp3520
(dp3521
g73
(dp3522
g81
I3
ssg82
g3516
sg75
(lp3523
g3453
(S's\x08\x00\x00\x00This App'
tRp3524
asbasbasbag68
(g84
g70
NtRp3525
(dp3526
g73
(dp3527
sg82
g3508
sg75
(lp3528
g68
(g89
g70
NtRp3529
(dp3530
g73
(dp3531
sg82
g3525
sg75
(lp3532
g68
(g69
g70
NtRp3533
(dp3534
g73
(dp3535
g81
I3
ssg82
g3529
sg75
(lp3536
g111
asbasbasbag68
(g84
g70
NtRp3537
(dp3538
g73
(dp3539
sg82
g3508
sg75
(lp3540
g68
(g89
g70
NtRp3541
(dp3542
g73
(dp3543
sg82
g3537
sg75
(lp3544
g68
(g69
g70
NtRp3545
(dp3546
g73
(dp3547
g81
I3
ssg82
g3541
sg75
(lp3548
S'/admin/default/design/places'
p3549
asbasbasbag68
(g84
g70
NtRp3550
(dp3551
g73
(dp3552
sg82
g3508
sg75
(lp3553
g68
(g89
g70
NtRp3554
(dp3555
g73
(dp3556
sg82
g3550
sg75
(lp3557
g68
(g69
g70
NtRp3558
(dp3559
g73
(dp3560
g81
I3
ssg82
g3554
sg75
(lp3561
g68
(g77
g70
NtRp3562
(dp3563
g73
(dp3564
g81
I2
ssg82
Nsg75
(lp3565
g68
(g84
g70
NtRp3566
(dp3567
g73
(dp3568
sg82
g3562
sg75
(lp3569
g68
(g89
g70
NtRp3570
(dp3571
g73
(dp3572
sg82
g3566
sg75
(lp3573
g68
(g69
g70
NtRp3574
(dp3575
g73
(dp3576
g81
I2
ssg82
g3570
sg75
(lp3577
g68
(g77
g70
NtRp3578
(dp3579
g73
(dp3580
g81
I1
ssg82
Nsg75
(lp3581
g68
(g84
g70
NtRp3582
(dp3583
g73
(dp3584
sg82
g3578
sg75
(lp3585
g68
(g89
g70
NtRp3586
(dp3587
g73
(dp3588
sg82
g3582
sg75
(lp3589
g68
(g69
g70
NtRp3590
(dp3591
g73
(dp3592
g81
I1
ssg82
g3586
sg75
(lp3593
g3453
(S't\n\x00\x00\x00Controller'
tRp3594
asbasbasbag68
(g84
g70
NtRp3595
(dp3596
g73
(dp3597
sg82
g3578
sg75
(lp3598
g68
(g89
g70
NtRp3599
(dp3600
g73
(dp3601
sg82
g3595
sg75
(lp3602
g68
(g69
g70
NtRp3603
(dp3604
g73
(dp3605
g81
I1
ssg82
g3599
sg75
(lp3606
I00
asbasbasbag68
(g84
g70
NtRp3607
(dp3608
g73
(dp3609
sg82
g3578
sg75
(lp3610
g68
(g89
g70
NtRp3611
(dp3612
g73
(dp3613
sg82
g3607
sg75
(lp3614
g68
(g69
g70
NtRp3615
(dp3616
g73
(dp3617
g81
I1
ssg82
g3611
sg75
(lp3618
S'/admin/default/edit/places/controllers/default.py'
p3619
asbasbasbasbasbasbasbag68
(g84
g70
NtRp3620
(dp3621
g73
(dp3622
sg82
g3562
sg75
(lp3623
g68
(g89
g70
NtRp3624
(dp3625
g73
(dp3626
sg82
g3620
sg75
(lp3627
g68
(g69
g70
NtRp3628
(dp3629
g73
(dp3630
g81
I2
ssg82
g3624
sg75
(lp3631
g68
(g77
g70
NtRp3632
(dp3633
g73
(dp3634
g81
I1
ssg82
Nsg75
(lp3635
g68
(g84
g70
NtRp3636
(dp3637
g73
(dp3638
sg82
g3632
sg75
(lp3639
g68
(g89
g70
NtRp3640
(dp3641
g73
(dp3642
sg82
g3636
sg75
(lp3643
g68
(g69
g70
NtRp3644
(dp3645
g73
(dp3646
g81
I1
ssg82
g3640
sg75
(lp3647
g3453
(S't\x04\x00\x00\x00View'
tRp3648
asbasbasbag68
(g84
g70
NtRp3649
(dp3650
g73
(dp3651
sg82
g3632
sg75
(lp3652
g68
(g89
g70
NtRp3653
(dp3654
g73
(dp3655
sg82
g3649
sg75
(lp3656
g68
(g69
g70
NtRp3657
(dp3658
g73
(dp3659
g81
I1
ssg82
g3653
sg75
(lp3660
I00
asbasbasbag68
(g84
g70
NtRp3661
(dp3662
g73
(dp3663
sg82
g3632
sg75
(lp3664
g68
(g89
g70
NtRp3665
(dp3666
g73
(dp3667
sg82
g3661
sg75
(lp3668
g68
(g69
g70
NtRp3669
(dp3670
g73
(dp3671
g81
I1
ssg82
g3665
sg75
(lp3672
S'/admin/default/edit/places/views/default/index.html'
p3673
asbasbasbasbasbasbasbag68
(g84
g70
NtRp3674
(dp3675
g73
(dp3676
sg82
g3562
sg75
(lp3677
g68
(g89
g70
NtRp3678
(dp3679
g73
(dp3680
sg82
g3674
sg75
(lp3681
g68
(g69
g70
NtRp3682
(dp3683
g73
(dp3684
g81
I2
ssg82
g3678
sg75
(lp3685
g68
(g77
g70
NtRp3686
(dp3687
g73
(dp3688
g81
I1
ssg82
Nsg75
(lp3689
g68
(g84
g70
NtRp3690
(dp3691
g73
(dp3692
sg82
g3686
sg75
(lp3693
g68
(g89
g70
NtRp3694
(dp3695
g73
(dp3696
sg82
g3690
sg75
(lp3697
g68
(g69
g70
NtRp3698
(dp3699
g73
(dp3700
g81
I1
ssg82
g3694
sg75
(lp3701
g3453
(S't\x06\x00\x00\x00Layout'
tRp3702
asbasbasbag68
(g84
g70
NtRp3703
(dp3704
g73
(dp3705
sg82
g3686
sg75
(lp3706
g68
(g89
g70
NtRp3707
(dp3708
g73
(dp3709
sg82
g3703
sg75
(lp3710
g68
(g69
g70
NtRp3711
(dp3712
g73
(dp3713
g81
I1
ssg82
g3707
sg75
(lp3714
I00
asbasbasbag68
(g84
g70
NtRp3715
(dp3716
g73
(dp3717
sg82
g3686
sg75
(lp3718
g68
(g89
g70
NtRp3719
(dp3720
g73
(dp3721
sg82
g3715
sg75
(lp3722
g68
(g69
g70
NtRp3723
(dp3724
g73
(dp3725
g81
I1
ssg82
g3719
sg75
(lp3726
S'/admin/default/edit/places/views/layout.html'
p3727
asbasbasbasbasbasbasbag68
(g84
g70
NtRp3728
(dp3729
g73
(dp3730
sg82
g3562
sg75
(lp3731
g68
(g89
g70
NtRp3732
(dp3733
g73
(dp3734
sg82
g3728
sg75
(lp3735
g68
(g69
g70
NtRp3736
(dp3737
g73
(dp3738
g81
I2
ssg82
g3732
sg75
(lp3739
g68
(g77
g70
NtRp3740
(dp3741
g73
(dp3742
g81
I1
ssg82
Nsg75
(lp3743
g68
(g84
g70
NtRp3744
(dp3745
g73
(dp3746
sg82
g3740
sg75
(lp3747
g68
(g89
g70
NtRp3748
(dp3749
g73
(dp3750
sg82
g3744
sg75
(lp3751
g68
(g69
g70
NtRp3752
(dp3753
g73
(dp3754
g81
I1
ssg82
g3748
sg75
(lp3755
g3453
(S't\n\x00\x00\x00Stylesheet'
tRp3756
asbasbasbag68
(g84
g70
NtRp3757
(dp3758
g73
(dp3759
sg82
g3740
sg75
(lp3760
g68
(g89
g70
NtRp3761
(dp3762
g73
(dp3763
sg82
g3757
sg75
(lp3764
g68
(g69
g70
NtRp3765
(dp3766
g73
(dp3767
g81
I1
ssg82
g3761
sg75
(lp3768
I00
asbasbasbag68
(g84
g70
NtRp3769
(dp3770
g73
(dp3771
sg82
g3740
sg75
(lp3772
g68
(g89
g70
NtRp3773
(dp3774
g73
(dp3775
sg82
g3769
sg75
(lp3776
g68
(g69
g70
NtRp3777
(dp3778
g73
(dp3779
g81
I1
ssg82
g3773
sg75
(lp3780
S'/admin/default/edit/places/static/base.css'
p3781
asbasbasbasbasbasbasbag68
(g84
g70
NtRp3782
(dp3783
g73
(dp3784
sg82
g3562
sg75
(lp3785
g68
(g89
g70
NtRp3786
(dp3787
g73
(dp3788
sg82
g3782
sg75
(lp3789
g68
(g69
g70
NtRp3790
(dp3791
g73
(dp3792
g81
I2
ssg82
g3786
sg75
(lp3793
g68
(g77
g70
NtRp3794
(dp3795
g73
(dp3796
g81
I1
ssg82
Nsg75
(lp3797
g68
(g84
g70
NtRp3798
(dp3799
g73
(dp3800
sg82
g3794
sg75
(lp3801
g68
(g89
g70
NtRp3802
(dp3803
g73
(dp3804
sg82
g3798
sg75
(lp3805
g68
(g69
g70
NtRp3806
(dp3807
g73
(dp3808
g81
I1
ssg82
g3802
sg75
(lp3809
g3453
(S's\x08\x00\x00\x00DB Model'
tRp3810
asbasbasbag68
(g84
g70
NtRp3811
(dp3812
g73
(dp3813
sg82
g3794
sg75
(lp3814
g68
(g89
g70
NtRp3815
(dp3816
g73
(dp3817
sg82
g3811
sg75
(lp3818
g68
(g69
g70
NtRp3819
(dp3820
g73
(dp3821
g81
I1
ssg82
g3815
sg75
(lp3822
I00
asbasbasbag68
(g84
g70
NtRp3823
(dp3824
g73
(dp3825
sg82
g3794
sg75
(lp3826
g68
(g89
g70
NtRp3827
(dp3828
g73
(dp3829
sg82
g3823
sg75
(lp3830
g68
(g69
g70
NtRp3831
(dp3832
g73
(dp3833
g81
I1
ssg82
g3827
sg75
(lp3834
S'/admin/default/edit/places/models/db.py'
p3835
asbasbasbasbasbasbasbag68
(g84
g70
NtRp3836
(dp3837
g73
(dp3838
sg82
g3562
sg75
(lp3839
g68
(g89
g70
NtRp3840
(dp3841
g73
(dp3842
sg82
g3836
sg75
(lp3843
g68
(g69
g70
NtRp3844
(dp3845
g73
(dp3846
g81
I2
ssg82
g3840
sg75
(lp3847
g68
(g77
g70
NtRp3848
(dp3849
g73
(dp3850
g81
I1
ssg82
Nsg75
(lp3851
g68
(g84
g70
NtRp3852
(dp3853
g73
(dp3854
sg82
g3848
sg75
(lp3855
g68
(g89
g70
NtRp3856
(dp3857
g73
(dp3858
sg82
g3852
sg75
(lp3859
g68
(g69
g70
NtRp3860
(dp3861
g73
(dp3862
g81
I1
ssg82
g3856
sg75
(lp3863
g3453
(S's\n\x00\x00\x00Menu Model'
tRp3864
asbasbasbag68
(g84
g70
NtRp3865
(dp3866
g73
(dp3867
sg82
g3848
sg75
(lp3868
g68
(g89
g70
NtRp3869
(dp3870
g73
(dp3871
sg82
g3865
sg75
(lp3872
g68
(g69
g70
NtRp3873
(dp3874
g73
(dp3875
g81
I1
ssg82
g3869
sg75
(lp3876
I00
asbasbasbag68
(g84
g70
NtRp3877
(dp3878
g73
(dp3879
sg82
g3848
sg75
(lp3880
g68
(g89
g70
NtRp3881
(dp3882
g73
(dp3883
sg82
g3877
sg75
(lp3884
g68
(g69
g70
NtRp3885
(dp3886
g73
(dp3887
g81
I1
ssg82
g3881
sg75
(lp3888
S'/admin/default/edit/places/models/menu.py'
p3889
asbasbasbasbasbasbasbag68
(g84
g70
NtRp3890
(dp3891
g73
(dp3892
sg82
g3562
sg75
(lp3893
g68
(g89
g70
NtRp3894
(dp3895
g73
(dp3896
sg82
g3890
sg75
(lp3897
g68
(g69
g70
NtRp3898
(dp3899
g73
(dp3900
g81
I2
ssg82
g3894
sg75
(lp3901
g68
(g77
g70
NtRp3902
(dp3903
g73
(dp3904
g81
I1
ssg82
Nsg75
(lp3905
g68
(g84
g70
NtRp3906
(dp3907
g73
(dp3908
sg82
g3902
sg75
(lp3909
g68
(g89
g70
NtRp3910
(dp3911
g73
(dp3912
sg82
g3906
sg75
(lp3913
g68
(g69
g70
NtRp3914
(dp3915
g73
(dp3916
g81
I1
ssg82
g3910
sg75
(lp3917
g3453
(S't\x08\x00\x00\x00Database'
tRp3918
asbasbasbag68
(g84
g70
NtRp3919
(dp3920
g73
(dp3921
sg82
g3902
sg75
(lp3922
g68
(g89
g70
NtRp3923
(dp3924
g73
(dp3925
sg82
g3919
sg75
(lp3926
g68
(g69
g70
NtRp3927
(dp3928
g73
(dp3929
g81
I1
ssg82
g3923
sg75
(lp3930
I00
asbasbasbag68
(g84
g70
NtRp3931
(dp3932
g73
(dp3933
sg82
g3902
sg75
(lp3934
g68
(g89
g70
NtRp3935
(dp3936
g73
(dp3937
sg82
g3931
sg75
(lp3938
g68
(g69
g70
NtRp3939
(dp3940
g73
(dp3941
g81
I1
ssg82
g3935
sg75
(lp3942
S'/places/appadmin/index'
p3943
asbasbasbasbasbasbasbag68
(g84
g70
NtRp3944
(dp3945
g73
(dp3946
sg82
g3562
sg75
(lp3947
g68
(g89
g70
NtRp3948
(dp3949
g73
(dp3950
sg82
g3944
sg75
(lp3951
g68
(g69
g70
NtRp3952
(dp3953
g73
(dp3954
g81
I2
ssg82
g3948
sg75
(lp3955
g68
(g77
g70
NtRp3956
(dp3957
g73
(dp3958
g81
I1
ssg82
Nsg75
(lp3959
g68
(g84
g70
NtRp3960
(dp3961
g73
(dp3962
sg82
g3956
sg75
(lp3963
g68
(g89
g70
NtRp3964
(dp3965
g73
(dp3966
sg82
g3960
sg75
(lp3967
g68
(g69
g70
NtRp3968
(dp3969
g73
(dp3970
g81
I1
ssg82
g3964
sg75
(lp3971
g3453
(S't\x06\x00\x00\x00Errors'
tRp3972
asbasbasbag68
(g84
g70
NtRp3973
(dp3974
g73
(dp3975
sg82
g3956
sg75
(lp3976
g68
(g89
g70
NtRp3977
(dp3978
g73
(dp3979
sg82
g3973
sg75
(lp3980
g68
(g69
g70
NtRp3981
(dp3982
g73
(dp3983
g81
I1
ssg82
g3977
sg75
(lp3984
I00
asbasbasbag68
(g84
g70
NtRp3985
(dp3986
g73
(dp3987
sg82
g3956
sg75
(lp3988
g68
(g89
g70
NtRp3989
(dp3990
g73
(dp3991
sg82
g3985
sg75
(lp3992
g68
(g69
g70
NtRp3993
(dp3994
g73
(dp3995
g81
I1
ssg82
g3989
sg75
(lp3996
S'/admin/default/errors/places'
p3997
asbasbasbasbasbasbasbag68
(g84
g70
NtRp3998
(dp3999
g73
(dp4000
sg82
g3562
sg75
(lp4001
g68
(g89
g70
NtRp4002
(dp4003
g73
(dp4004
sg82
g3998
sg75
(lp4005
g68
(g69
g70
NtRp4006
(dp4007
g73
(dp4008
g81
I2
ssg82
g4002
sg75
(lp4009
g68
(g77
g70
NtRp4010
(dp4011
g73
(dp4012
g81
I1
ssg82
Nsg75
(lp4013
g68
(g84
g70
NtRp4014
(dp4015
g73
(dp4016
sg82
g4010
sg75
(lp4017
g68
(g89
g70
NtRp4018
(dp4019
g73
(dp4020
sg82
g4014
sg75
(lp4021
g68
(g69
g70
NtRp4022
(dp4023
g73
(dp4024
g81
I1
ssg82
g4018
sg75
(lp4025
g3453
(S't\x05\x00\x00\x00About'
tRp4026
asbasbasbag68
(g84
g70
NtRp4027
(dp4028
g73
(dp4029
sg82
g4010
sg75
(lp4030
g68
(g89
g70
NtRp4031
(dp4032
g73
(dp4033
sg82
g4027
sg75
(lp4034
g68
(g69
g70
NtRp4035
(dp4036
g73
(dp4037
g81
I1
ssg82
g4031
sg75
(lp4038
I00
asbasbasbag68
(g84
g70
NtRp4039
(dp4040
g73
(dp4041
sg82
g4010
sg75
(lp4042
g68
(g89
g70
NtRp4043
(dp4044
g73
(dp4045
sg82
g4039
sg75
(lp4046
g68
(g69
g70
NtRp4047
(dp4048
g73
(dp4049
g81
I1
ssg82
g4043
sg75
(lp4050
S'/admin/default/about/places'
p4051
asbasbasbasbasbasbasbasbasbasbasbasbasbasbasbag68
(g84
g70
NtRp4052
(dp4053
g73
(dp4054
sg82
g3421
sg75
(lp4055
g68
(g89
g70
NtRp4056
(dp4057
g73
(dp4058
sg82
g4052
sg75
(lp4059
g68
(g69
g70
NtRp4060
(dp4061
g73
(dp4062
g81
I4
ssg82
g4056
sg75
(lp4063
g68
(g77
g70
NtRp4064
(dp4065
g73
(dp4066
g81
I3
ssg82
Nsg75
(lp4067
g68
(g84
g70
NtRp4068
(dp4069
g73
(dp4070
sg82
g4064
sg75
(lp4071
g68
(g89
g70
NtRp4072
(dp4073
g73
(dp4074
sg82
g4068
sg75
(lp4075
g68
(g69
g70
NtRp4076
(dp4077
g73
(dp4078
g81
I3
ssg82
g4072
sg75
(lp4079
g3453
(S't\t\x00\x00\x00Resources'
tRp4080
asbasbasbag68
(g84
g70
NtRp4081
(dp4082
g73
(dp4083
sg82
g4064
sg75
(lp4084
g68
(g89
g70
NtRp4085
(dp4086
g73
(dp4087
sg82
g4081
sg75
(lp4088
g68
(g69
g70
NtRp4089
(dp4090
g73
(dp4091
g81
I3
ssg82
g4085
sg75
(lp4092
g111
asbasbasbag68
(g84
g70
NtRp4093
(dp4094
g73
(dp4095
sg82
g4064
sg75
(lp4096
g68
(g89
g70
NtRp4097
(dp4098
g73
(dp4099
sg82
g4093
sg75
(lp4100
g68
(g69
g70
NtRp4101
(dp4102
g73
(dp4103
g81
I3
ssg82
g4097
sg75
(lp4104
S'None'
p4105
asbasbasbag68
(g84
g70
NtRp4106
(dp4107
g73
(dp4108
sg82
g4064
sg75
(lp4109
g68
(g89
g70
NtRp4110
(dp4111
g73
(dp4112
sg82
g4106
sg75
(lp4113
g68
(g69
g70
NtRp4114
(dp4115
g73
(dp4116
g81
I3
ssg82
g4110
sg75
(lp4117
g68
(g77
g70
NtRp4118
(dp4119
g73
(dp4120
g81
I2
ssg82
Nsg75
(lp4121
g68
(g84
g70
NtRp4122
(dp4123
g73
(dp4124
sg82
g4118
sg75
(lp4125
g68
(g89
g70
NtRp4126
(dp4127
g73
(dp4128
sg82
g4122
sg75
(lp4129
g68
(g69
g70
NtRp4130
(dp4131
g73
(dp4132
g81
I2
ssg82
g4126
sg75
(lp4133
g68
(g77
g70
NtRp4134
(dp4135
g73
(dp4136
g81
I1
ssg82
Nsg75
(lp4137
g68
(g84
g70
NtRp4138
(dp4139
g73
(dp4140
sg82
g4134
sg75
(lp4141
g68
(g89
g70
NtRp4142
(dp4143
g73
(dp4144
sg82
g4138
sg75
(lp4145
g68
(g69
g70
NtRp4146
(dp4147
g73
(dp4148
g81
I1
ssg82
g4142
sg75
(lp4149
g3453
(S't\r\x00\x00\x00Documentation'
tRp4150
asbasbasbag68
(g84
g70
NtRp4151
(dp4152
g73
(dp4153
sg82
g4134
sg75
(lp4154
g68
(g89
g70
NtRp4155
(dp4156
g73
(dp4157
sg82
g4151
sg75
(lp4158
g68
(g69
g70
NtRp4159
(dp4160
g73
(dp4161
g81
I1
ssg82
g4155
sg75
(lp4162
I00
asbasbasbag68
(g84
g70
NtRp4163
(dp4164
g73
(dp4165
sg82
g4134
sg75
(lp4166
g68
(g89
g70
NtRp4167
(dp4168
g73
(dp4169
sg82
g4163
sg75
(lp4170
g68
(g69
g70
NtRp4171
(dp4172
g73
(dp4173
g81
I1
ssg82
g4167
sg75
(lp4174
S'http://www.web2py.com/book'
p4175
asbasbasbag68
(g84
g70
NtRp4176
(dp4177
g73
(dp4178
sg82
g4134
sg75
(lp4179
g68
(g89
g70
NtRp4180
(dp4181
g73
(dp4182
sg82
g4176
sg75
(lp4183
g68
(g69
g70
NtRp4184
(dp4185
g73
(dp4186
g81
I1
ssg82
g4180
sg75
(lp4187
(lp4188
(g3453
(S't\x07\x00\x00\x00Preface'
tRp4189
I00
S'http://www.web2py.com/book/default/chapter/00'
p4190
tp4191
a(g3453
(S't\x0c\x00\x00\x00Introduction'
tRp4192
I00
S'http://www.web2py.com/book/default/chapter/01'
p4193
tp4194
a(g3453
(S't\x06\x00\x00\x00Python'
tRp4195
I00
S'http://www.web2py.com/book/default/chapter/02'
p4196
tp4197
a(g3453
(S't\x08\x00\x00\x00Overview'
tRp4198
I00
S'http://www.web2py.com/book/default/chapter/03'
p4199
tp4200
a(g3453
(S's\x08\x00\x00\x00The Core'
tRp4201
I00
S'http://www.web2py.com/book/default/chapter/04'
p4202
tp4203
a(g3453
(S's\t\x00\x00\x00The Views'
tRp4204
I00
S'http://www.web2py.com/book/default/chapter/05'
p4205
tp4206
a(g3453
(S't\x08\x00\x00\x00Database'
tRp4207
I00
S'http://www.web2py.com/book/default/chapter/06'
p4208
tp4209
a(g3453
(S's\x14\x00\x00\x00Forms and Validators'
tRp4210
I00
S'http://www.web2py.com/book/default/chapter/07'
p4211
tp4212
a(g3453
(S's\x0e\x00\x00\x00Access Control'
tRp4213
I00
S'http://www.web2py.com/book/default/chapter/08'
p4214
tp4215
a(g3453
(S't\x08\x00\x00\x00Services'
tRp4216
I00
S'http://www.web2py.com/book/default/chapter/09'
p4217
tp4218
a(g3453
(S's\x0c\x00\x00\x00Ajax Recipes'
tRp4219
I00
S'http://www.web2py.com/book/default/chapter/10'
p4220
tp4221
a(g3453
(S's\x12\x00\x00\x00Deployment Recipes'
tRp4222
I00
S'http://www.web2py.com/book/default/chapter/11'
p4223
tp4224
a(g3453
(S's\r\x00\x00\x00Other Recipes'
tRp4225
I00
S'http://www.web2py.com/book/default/chapter/12'
p4226
tp4227
a(g3453
(S's\r\x00\x00\x00Buy this book'
tRp4228
I00
S'http://stores.lulu.com/web2py'
p4229
tp4230
aasbasbasbasbasbasbasbag68
(g84
g70
NtRp4231
(dp4232
g73
(dp4233
sg82
g4118
sg75
(lp4234
g68
(g89
g70
NtRp4235
(dp4236
g73
(dp4237
sg82
g4231
sg75
(lp4238
g68
(g69
g70
NtRp4239
(dp4240
g73
(dp4241
g81
I2
ssg82
g4235
sg75
(lp4242
g68
(g77
g70
NtRp4243
(dp4244
g73
(dp4245
g81
I1
ssg82
Nsg75
(lp4246
g68
(g84
g70
NtRp4247
(dp4248
g73
(dp4249
sg82
g4243
sg75
(lp4250
g68
(g89
g70
NtRp4251
(dp4252
g73
(dp4253
sg82
g4247
sg75
(lp4254
g68
(g69
g70
NtRp4255
(dp4256
g73
(dp4257
g81
I1
ssg82
g4251
sg75
(lp4258
g3453
(S't\t\x00\x00\x00Community'
tRp4259
asbasbasbag68
(g84
g70
NtRp4260
(dp4261
g73
(dp4262
sg82
g4243
sg75
(lp4263
g68
(g89
g70
NtRp4264
(dp4265
g73
(dp4266
sg82
g4260
sg75
(lp4267
g68
(g69
g70
NtRp4268
(dp4269
g73
(dp4270
g81
I1
ssg82
g4264
sg75
(lp4271
I00
asbasbasbag68
(g84
g70
NtRp4272
(dp4273
g73
(dp4274
sg82
g4243
sg75
(lp4275
g68
(g89
g70
NtRp4276
(dp4277
g73
(dp4278
sg82
g4272
sg75
(lp4279
g68
(g69
g70
NtRp4280
(dp4281
g73
(dp4282
g81
I1
ssg82
g4276
sg75
(lp4283
Nasbasbasbag68
(g84
g70
NtRp4284
(dp4285
g73
(dp4286
sg82
g4243
sg75
(lp4287
g68
(g89
g70
NtRp4288
(dp4289
g73
(dp4290
sg82
g4284
sg75
(lp4291
g68
(g69
g70
NtRp4292
(dp4293
g73
(dp4294
g81
I1
ssg82
g4288
sg75
(lp4295
(lp4296
(g3453
(S't\x06\x00\x00\x00Groups'
tRp4297
I00
S'http://www.web2py.com/examples/default/usergroups'
p4298
tp4299
a(g3453
(S't\x07\x00\x00\x00Twitter'
tRp4300
I00
S'http://twitter.com/web2py'
p4301
tp4302
a(g3453
(S's\t\x00\x00\x00Live chat'
tRp4303
I00
S'http://mibbit.com/?channel=%23web2py&server=irc.mibbit.net'
p4304
tp4305
a(g3453
(S's\n\x00\x00\x00User Voice'
tRp4306
I00
S'http://web2py.uservoice.com/'
p4307
tp4308
aasbasbasbasbasbasbasbag68
(g84
g70
NtRp4309
(dp4310
g73
(dp4311
sg82
g4118
sg75
(lp4312
g68
(g89
g70
NtRp4313
(dp4314
g73
(dp4315
sg82
g4309
sg75
(lp4316
g68
(g69
g70
NtRp4317
(dp4318
g73
(dp4319
g81
I2
ssg82
g4313
sg75
(lp4320
g68
(g77
g70
NtRp4321
(dp4322
g73
(dp4323
g81
I1
ssg82
Nsg75
(lp4324
g68
(g84
g70
NtRp4325
(dp4326
g73
(dp4327
sg82
g4321
sg75
(lp4328
g68
(g89
g70
NtRp4329
(dp4330
g73
(dp4331
sg82
g4325
sg75
(lp4332
g68
(g69
g70
NtRp4333
(dp4334
g73
(dp4335
g81
I1
ssg82
g4329
sg75
(lp4336
g3453
(S't\x06\x00\x00\x00Web2py'
tRp4337
asbasbasbag68
(g84
g70
NtRp4338
(dp4339
g73
(dp4340
sg82
g4321
sg75
(lp4341
g68
(g89
g70
NtRp4342
(dp4343
g73
(dp4344
sg82
g4338
sg75
(lp4345
g68
(g69
g70
NtRp4346
(dp4347
g73
(dp4348
g81
I1
ssg82
g4342
sg75
(lp4349
I00
asbasbasbag68
(g84
g70
NtRp4350
(dp4351
g73
(dp4352
sg82
g4321
sg75
(lp4353
g68
(g89
g70
NtRp4354
(dp4355
g73
(dp4356
sg82
g4350
sg75
(lp4357
g68
(g69
g70
NtRp4358
(dp4359
g73
(dp4360
g81
I1
ssg82
g4354
sg75
(lp4361
S'http://www.web2py.com'
p4362
asbasbasbag68
(g84
g70
NtRp4363
(dp4364
g73
(dp4365
sg82
g4321
sg75
(lp4366
g68
(g89
g70
NtRp4367
(dp4368
g73
(dp4369
sg82
g4363
sg75
(lp4370
g68
(g69
g70
NtRp4371
(dp4372
g73
(dp4373
g81
I1
ssg82
g4367
sg75
(lp4374
(lp4375
(g3453
(S't\x08\x00\x00\x00Download'
tRp4376
I00
S'http://www.web2py.com/examples/default/download'
p4377
tp4378
a(g3453
(S't\x07\x00\x00\x00Support'
tRp4379
I00
S'http://www.web2py.com/examples/default/support'
p4380
tp4381
a(g3453
(S's\x0e\x00\x00\x00Quick Examples'
tRp4382
I00
S'http://web2py.com/examples/default/examples'
p4383
tp4384
a(g3453
(S't\x03\x00\x00\x00FAQ'
tRp4385
I00
S'http://web2py.com/AlterEgo'
p4386
tp4387
a(g3453
(S's\x11\x00\x00\x00Free Applications'
tRp4388
I00
S'http://web2py.com/appliances'
p4389
tp4390
a(g3453
(S't\x07\x00\x00\x00Plugins'
tRp4391
I00
S'http://web2py.com/plugins'
p4392
tp4393
a(g3453
(S't\x07\x00\x00\x00Recipes'
tRp4394
I00
S'http://web2pyslices.com/'
p4395
tp4396
a(g3453
(S't\x04\x00\x00\x00Demo'
tRp4397
I00
S'http://web2py.com/demo_admin'
p4398
tp4399
a(g3453
(S't\x08\x00\x00\x00Semantic'
tRp4400
I00
S'http://web2py.com/semantic'
p4401
tp4402
a(g3453
(S't\x07\x00\x00\x00Layouts'
tRp4403
I00
S'http://web2py.com/layouts'
p4404
tp4405
a(g3453
(S't\x06\x00\x00\x00Videos'
tRp4406
I00
S'http://www.web2py.com/examples/default/videos/'
p4407
tp4408
aasbasbasbasbasbasbasbasbasbasbasbasbasbasbasbasbasbasbasbag68
(g84
g70
NtRp4409
(dp4410
g73
(dp4411
sg82
g2948
sg75
(lp4412
g68
(g89
g70
NtRp4413
(dp4414
g73
(dp4415
g93
g94
ssg82
g4409
sg75
(lp4416
S'meta'
p4417
asbag68
(g89
g70
NtRp4418
(dp4419
g73
(dp4420
g100
g101
ssg82
g4409
sg75
(lp4421
S':'
asbag68
(g89
g70
NtRp4422
(dp4423
g73
(dp4424
sg82
g4409
sg75
(lp4425
g68
(g69
g70
NtRp4426
(dp4427
g73
(dp4428
g81
I5
ssg82
g4422
sg75
(lp4429
g68
(g77
g70
NtRp4430
(dp4431
g73
(dp4432
g81
I4
ssg82
Nsg75
(lp4433
g68
(g84
g70
NtRp4434
(dp4435
g73
(dp4436
sg82
g4430
sg75
(lp4437
g68
(g89
g70
NtRp4438
(dp4439
g73
(dp4440
g93
g94
ssg82
g4434
sg75
(lp4441
S'author'
p4442
asbag68
(g89
g70
NtRp4443
(dp4444
g73
(dp4445
g100
g101
ssg82
g4434
sg75
(lp4446
S':'
asbag68
(g89
g70
NtRp4447
(dp4448
g73
(dp4449
sg82
g4434
sg75
(lp4450
g68
(g69
g70
NtRp4451
(dp4452
g73
(dp4453
g81
I4
ssg82
g4447
sg75
(lp4454
S'Your Name <you@example.com>'
p4455
asbasbasbag68
(g84
g70
NtRp4456
(dp4457
g73
(dp4458
sg82
g4430
sg75
(lp4459
g68
(g89
g70
NtRp4460
(dp4461
g73
(dp4462
g93
g94
ssg82
g4456
sg75
(lp4463
S'copyright'
p4464
asbag68
(g89
g70
NtRp4465
(dp4466
g73
(dp4467
g100
g101
ssg82
g4456
sg75
(lp4468
S':'
asbag68
(g89
g70
NtRp4469
(dp4470
g73
(dp4471
sg82
g4456
sg75
(lp4472
g68
(g69
g70
NtRp4473
(dp4474
g73
(dp4475
g81
I4
ssg82
g4469
sg75
(lp4476
S'Copyright 2011'
p4477
asbasbasbag68
(g84
g70
NtRp4478
(dp4479
g73
(dp4480
sg82
g4430
sg75
(lp4481
g68
(g89
g70
NtRp4482
(dp4483
g73
(dp4484
g93
g94
ssg82
g4478
sg75
(lp4485
S'description'
p4486
asbag68
(g89
g70
NtRp4487
(dp4488
g73
(dp4489
g100
g101
ssg82
g4478
sg75
(lp4490
S':'
asbag68
(g89
g70
NtRp4491
(dp4492
g73
(dp4493
sg82
g4478
sg75
(lp4494
g68
(g69
g70
NtRp4495
(dp4496
g73
(dp4497
g81
I4
ssg82
g4491
sg75
(lp4498
S'a cool new app'
p4499
asbasbasbag68
(g84
g70
NtRp4500
(dp4501
g73
(dp4502
sg82
g4430
sg75
(lp4503
g68
(g89
g70
NtRp4504
(dp4505
g73
(dp4506
g93
g94
ssg82
g4500
sg75
(lp4507
S'generator'
p4508
asbag68
(g89
g70
NtRp4509
(dp4510
g73
(dp4511
g100
g101
ssg82
g4500
sg75
(lp4512
S':'
asbag68
(g89
g70
NtRp4513
(dp4514
g73
(dp4515
sg82
g4500
sg75
(lp4516
g68
(g69
g70
NtRp4517
(dp4518
g73
(dp4519
g81
I4
ssg82
g4513
sg75
(lp4520
S'Web2py Web Framework'
p4521
asbasbasbag68
(g84
g70
NtRp4522
(dp4523
g73
(dp4524
sg82
g4430
sg75
(lp4525
g68
(g89
g70
NtRp4526
(dp4527
g73
(dp4528
g93
g94
ssg82
g4522
sg75
(lp4529
S'keywords'
p4530
asbag68
(g89
g70
NtRp4531
(dp4532
g73
(dp4533
g100
g101
ssg82
g4522
sg75
(lp4534
S':'
asbag68
(g89
g70
NtRp4535
(dp4536
g73
(dp4537
sg82
g4522
sg75
(lp4538
g68
(g69
g70
NtRp4539
(dp4540
g73
(dp4541
g81
I4
ssg82
g4535
sg75
(lp4542
S'web2py, python, framework'
p4543
asbasbasbasbasbasbasbag68
(g84
g70
NtRp4544
(dp4545
g73
(dp4546
sg82
g2948
sg75
(lp4547
g68
(g89
g70
NtRp4548
(dp4549
g73
(dp4550
g93
g94
ssg82
g4544
sg75
(lp4551
S'postprocessing'
p4552
asbag68
(g89
g70
NtRp4553
(dp4554
g73
(dp4555
g100
g101
ssg82
g4544
sg75
(lp4556
S':'
asbag68
(g89
g70
NtRp4557
(dp4558
g73
(dp4559
sg82
g4544
sg75
(lp4560
g68
(g69
g70
NtRp4561
(dp4562
g73
(dp4563
g81
I5
ssg82
g4557
sg75
(lp4564
g68
(g77
g70
NtRp4565
(dp4566
g73
(dp4567
g81
I4
ssg82
Nsg75
(lp4568
sbasbasbasbag68
(g84
g70
NtRp4569
(dp4570
g73
(dp4571
sg82
g2948
sg75
(lp4572
g68
(g89
g70
NtRp4573
(dp4574
g73
(dp4575
g93
g94
ssg82
g4569
sg75
(lp4576
S'session_file'
p4577
asbag68
(g89
g70
NtRp4578
(dp4579
g73
(dp4580
g100
g101
ssg82
g4569
sg75
(lp4581
S':'
asbag68
(g89
g70
NtRp4582
(dp4583
g73
(dp4584
sg82
g4569
sg75
(lp4585
g68
(g69
g70
NtRp4586
(dp4587
g73
(dp4588
g81
I5
ssg82
g4582
sg75
(lp4589
S"<open file '/home/ian/web2py/applications/places/sessions/127.0.0.1-827c1359-ea2b-42e3-9459-33c4b0422bd4', mode 'rb+' at 0x32d3e40>"
p4590
asbasbasbag68
(g84
g70
NtRp4591
(dp4592
g73
(dp4593
sg82
g2948
sg75
(lp4594
g68
(g89
g70
NtRp4595
(dp4596
g73
(dp4597
g93
g94
ssg82
g4591
sg75
(lp4598
S'session_filename'
p4599
asbag68
(g89
g70
NtRp4600
(dp4601
g73
(dp4602
g100
g101
ssg82
g4591
sg75
(lp4603
S':'
asbag68
(g89
g70
NtRp4604
(dp4605
g73
(dp4606
sg82
g4591
sg75
(lp4607
g68
(g69
g70
NtRp4608
(dp4609
g73
(dp4610
g81
I5
ssg82
g4604
sg75
(lp4611
S'/home/ian/web2py/applications/places/sessions/127.0.0.1-827c1359-ea2b-42e3-9459-33c4b0422bd4'
p4612
asbasbasbag68
(g84
g70
NtRp4613
(dp4614
g73
(dp4615
sg82
g2948
sg75
(lp4616
g68
(g89
g70
NtRp4617
(dp4618
g73
(dp4619
g93
g94
ssg82
g4613
sg75
(lp4620
S'session_id'
p4621
asbag68
(g89
g70
NtRp4622
(dp4623
g73
(dp4624
g100
g101
ssg82
g4613
sg75
(lp4625
S':'
asbag68
(g89
g70
NtRp4626
(dp4627
g73
(dp4628
sg82
g4613
sg75
(lp4629
g68
(g69
g70
NtRp4630
(dp4631
g73
(dp4632
g81
I5
ssg82
g4626
sg75
(lp4633
S'127.0.0.1-827c1359-ea2b-42e3-9459-33c4b0422bd4'
p4634
asbasbasbag68
(g84
g70
NtRp4635
(dp4636
g73
(dp4637
sg82
g2948
sg75
(lp4638
g68
(g89
g70
NtRp4639
(dp4640
g73
(dp4641
g93
g94
ssg82
g4635
sg75
(lp4642
S'session_id_name'
p4643
asbag68
(g89
g70
NtRp4644
(dp4645
g73
(dp4646
g100
g101
ssg82
g4635
sg75
(lp4647
S':'
asbag68
(g89
g70
NtRp4648
(dp4649
g73
(dp4650
sg82
g4635
sg75
(lp4651
g68
(g69
g70
NtRp4652
(dp4653
g73
(dp4654
g81
I5
ssg82
g4648
sg75
(lp4655
g3005
asbasbasbag68
(g84
g70
NtRp4656
(dp4657
g73
(dp4658
sg82
g2948
sg75
(lp4659
g68
(g89
g70
NtRp4660
(dp4661
g73
(dp4662
g93
g94
ssg82
g4656
sg75
(lp4663
S'session_locked'
p4664
asbag68
(g89
g70
NtRp4665
(dp4666
g73
(dp4667
g100
g101
ssg82
g4656
sg75
(lp4668
S':'
asbag68
(g89
g70
NtRp4669
(dp4670
g73
(dp4671
sg82
g4656
sg75
(lp4672
g68
(g69
g70
NtRp4673
(dp4674
g73
(dp4675
g81
I5
ssg82
g4669
sg75
(lp4676
g1505
asbasbasbag68
(g84
g70
NtRp4677
(dp4678
g73
(dp4679
sg82
g2948
sg75
(lp4680
g68
(g89
g70
NtRp4681
(dp4682
g73
(dp4683
g93
g94
ssg82
g4677
sg75
(lp4684
S'session_new'
p4685
asbag68
(g89
g70
NtRp4686
(dp4687
g73
(dp4688
g100
g101
ssg82
g4677
sg75
(lp4689
S':'
asbag68
(g89
g70
NtRp4690
(dp4691
g73
(dp4692
sg82
g4677
sg75
(lp4693
g68
(g69
g70
NtRp4694
(dp4695
g73
(dp4696
g81
I5
ssg82
g4690
sg75
(lp4697
g111
asbasbasbag68
(g84
g70
NtRp4698
(dp4699
g73
(dp4700
sg82
g2948
sg75
(lp4701
g68
(g89
g70
NtRp4702
(dp4703
g73
(dp4704
g93
g94
ssg82
g4698
sg75
(lp4705
S'status'
p4706
asbag68
(g89
g70
NtRp4707
(dp4708
g73
(dp4709
g100
g101
ssg82
g4698
sg75
(lp4710
S':'
asbag68
(g89
g70
NtRp4711
(dp4712
g73
(dp4713
sg82
g4698
sg75
(lp4714
g68
(g69
g70
NtRp4715
(dp4716
g73
(dp4717
g81
I5
ssg82
g4711
sg75
(lp4718
S'200'
p4719
asbasbasbag68
(g84
g70
NtRp4720
(dp4721
g73
(dp4722
sg82
g2948
sg75
(lp4723
g68
(g89
g70
NtRp4724
(dp4725
g73
(dp4726
g93
g94
ssg82
g4720
sg75
(lp4727
S'subtitle'
p4728
asbag68
(g89
g70
NtRp4729
(dp4730
g73
(dp4731
g100
g101
ssg82
g4720
sg75
(lp4732
S':'
asbag68
(g89
g70
NtRp4733
(dp4734
g73
(dp4735
sg82
g4720
sg75
(lp4736
g68
(g69
g70
NtRp4737
(dp4738
g73
(dp4739
g81
I5
ssg82
g4733
sg75
(lp4740
g3453
(S's\r\x00\x00\x00customize me!'
tRp4741
asbasbasbag68
(g84
g70
NtRp4742
(dp4743
g73
(dp4744
sg82
g2948
sg75
(lp4745
g68
(g89
g70
NtRp4746
(dp4747
g73
(dp4748
g93
g94
ssg82
g4742
sg75
(lp4749
S'title'
p4750
asbag68
(g89
g70
NtRp4751
(dp4752
g73
(dp4753
g100
g101
ssg82
g4742
sg75
(lp4754
S':'
asbag68
(g89
g70
NtRp4755
(dp4756
g73
(dp4757
sg82
g4742
sg75
(lp4758
g68
(g69
g70
NtRp4759
(dp4760
g73
(dp4761
g81
I5
ssg82
g4755
sg75
(lp4762
g133
asbasbasbag68
(g84
g70
NtRp4763
(dp4764
g73
(dp4765
sg82
g2948
sg75
(lp4766
g68
(g89
g70
NtRp4767
(dp4768
g73
(dp4769
g93
g94
ssg82
g4763
sg75
(lp4770
g2149
asbag68
(g89
g70
NtRp4771
(dp4772
g73
(dp4773
g100
g101
ssg82
g4763
sg75
(lp4774
S':'
asbag68
(g89
g70
NtRp4775
(dp4776
g73
(dp4777
sg82
g4763
sg75
(lp4778
g68
(g69
g70
NtRp4779
(dp4780
g73
(dp4781
g81
I5
ssg82
g4775
sg75
(lp4782
g2162
asbasbasbag68
(g84
g70
NtRp4783
(dp4784
g73
(dp4785
sg82
g2948
sg75
(lp4786
g68
(g89
g70
NtRp4787
(dp4788
g73
(dp4789
g93
g94
ssg82
g4783
sg75
(lp4790
S'view'
p4791
asbag68
(g89
g70
NtRp4792
(dp4793
g73
(dp4794
g100
g101
ssg82
g4783
sg75
(lp4795
S':'
asbag68
(g89
g70
NtRp4796
(dp4797
g73
(dp4798
sg82
g4783
sg75
(lp4799
g68
(g69
g70
NtRp4800
(dp4801
g73
(dp4802
g81
I5
ssg82
g4796
sg75
(lp4803
S'default/index.html'
p4804
asbasbasbasbasbsS'locals'
p4805
(dp4806
g3
S"'/home/ian/web2py/applications/places/views/default/index.html'"
p4807
sg5
S'r"left_sidebar_enabled=right_sidebar_enabled=False...    -->    \\n  </body>\\n</html>\\n\', escape=False)"'
p4808
sssS'traceback'
p4809
S'Traceback (most recent call last):\n  File "/home/ian/web2py/gluon/restricted.py", line 193, in restricted\n    ccode = compile2(code,layer)\n  File "/home/ian/web2py/gluon/restricted.py", line 179, in compile2\n    return compile(code.rstrip().replace(\'\\r\\n\',\'\\n\')+\'\\n\', layer, \'exec\')\n  File "/home/ian/web2py/applications/places/views/default/index.html", line 86\n    response.write(A(\'+\', _href=URL(\'create.load\')")\n                                                   ^\nSyntaxError: EOL while scanning string literal\n'
p4810
s.