(dp1
S'output'
p2
S''
sS'layer'
p3
S'/home/ian/web2py/applications/places/views/default/index.load'
p4
sS'code'
p5
S"for link in links:\n    response.write('\\n<li>\\n', escape=False)\n    response.write(A(IMG(link.link_image), _href=link.link_url, _title=link.link_name, _alt=link.link_name))\n    response.write('\\n', escape=False)\n    response.write(A('edit', _href=URL('edit.load', args=[link.id]), cid='modal_frame', _class='edit_link'))\n    response.write('\\n</li>\\n', escape=False)\n    pass\nresponse.write('\\n\\n', escape=False)\n#=BEAUTIFY(response._vars)\nresponse.write('\\n', escape=False)"
p6
sS'snapshot'
p7
(dp8
S'exception'
p9
(dp10
S'__getslice__'
p11
S"<method-wrapper '__getslice__' of exceptions.SyntaxError object>"
p12
sS'text'
p13
S'None'
p14
sS'__str__'
p15
S"<method-wrapper '__str__' of exceptions.SyntaxError object>"
p16
sS'__reduce__'
p17
S'<built-in method __reduce__ of exceptions.SyntaxError object>'
p18
sS'__dict__'
p19
S'{}'
p20
sS'__sizeof__'
p21
S'<built-in method __sizeof__ of exceptions.SyntaxError object>'
p22
sS'__init__'
p23
S"<method-wrapper '__init__' of exceptions.SyntaxError object>"
p24
sS'__setattr__'
p25
S"<method-wrapper '__setattr__' of exceptions.SyntaxError object>"
p26
sS'__reduce_ex__'
p27
S'<built-in method __reduce_ex__ of exceptions.SyntaxError object>'
p28
sS'__new__'
p29
S'<built-in method __new__ of type object>'
p30
sS'__format__'
p31
S'<built-in method __format__ of exceptions.SyntaxError object>'
p32
sS'__class__'
p33
S"<type 'exceptions.SyntaxError'>"
p34
sS'filename'
p35
S'None'
p36
sS'lineno'
p37
S'None'
p38
sS'msg'
p39
S"'<img/> tags cannot have components'"
p40
sS'__doc__'
p41
S"'Invalid syntax.'"
p42
sS'__getitem__'
p43
S"<method-wrapper '__getitem__' of exceptions.SyntaxError object>"
p44
sS'__setstate__'
p45
S'<built-in method __setstate__ of exceptions.SyntaxError object>'
p46
sS'__getattribute__'
p47
S"<method-wrapper '__getattribute__' of exceptions.SyntaxError object>"
p48
sS'print_file_and_line'
p49
S'None'
p50
sS'args'
p51
S"('<img/> tags cannot have components',)"
p52
sS'__subclasshook__'
p53
S'<built-in method __subclasshook__ of type object>'
p54
sS'offset'
p55
S'None'
p56
sS'__unicode__'
p57
S'<built-in method __unicode__ of exceptions.SyntaxError object>'
p58
sS'__delattr__'
p59
S"<method-wrapper '__delattr__' of exceptions.SyntaxError object>"
p60
sS'__repr__'
p61
S"<method-wrapper '__repr__' of exceptions.SyntaxError object>"
p62
sS'__hash__'
p63
S"<method-wrapper '__hash__' of exceptions.SyntaxError object>"
p64
ssS'evalue'
p65
S'<img/> tags cannot have components'
p66
sS'request'
p67
ccopy_reg
_reconstructor
p68
(cgluon.html
BEAUTIFY
p69
c__builtin__
object
p70
NtRp71
(dp72
S'attributes'
p73
(dp74
sS'components'
p75
(lp76
g68
(cgluon.html
TABLE
p77
g70
NtRp78
(dp79
g73
(dp80
S'level'
p81
I5
ssS'parent'
p82
Nsg75
(lp83
g68
(cgluon.html
TR
p84
g70
NtRp85
(dp86
g73
(dp87
sg82
g78
sg75
(lp88
g68
(cgluon.html
TD
p89
g70
NtRp90
(dp91
g73
(dp92
S'_style'
p93
S'font-weight:bold;'
p94
ssg82
g85
sg75
(lp95
S'ajax'
p96
asbag68
(g89
g70
NtRp97
(dp98
g73
(dp99
S'_valign'
p100
S'top'
p101
ssg82
g85
sg75
(lp102
S':'
asbag68
(g89
g70
NtRp103
(dp104
g73
(dp105
sg82
g85
sg75
(lp106
g68
(g69
g70
NtRp107
(dp108
g73
(dp109
g81
I5
ssg82
g103
sg75
(lp110
S'True'
p111
asbasbasbag68
(g84
g70
NtRp112
(dp113
g73
(dp114
sg82
g78
sg75
(lp115
g68
(g89
g70
NtRp116
(dp117
g73
(dp118
g93
g94
ssg82
g112
sg75
(lp119
S'application'
p120
asbag68
(g89
g70
NtRp121
(dp122
g73
(dp123
g100
g101
ssg82
g112
sg75
(lp124
S':'
asbag68
(g89
g70
NtRp125
(dp126
g73
(dp127
sg82
g112
sg75
(lp128
g68
(g69
g70
NtRp129
(dp130
g73
(dp131
g81
I5
ssg82
g125
sg75
(lp132
S'places'
p133
asbasbasbag68
(g84
g70
NtRp134
(dp135
g73
(dp136
sg82
g78
sg75
(lp137
g68
(g89
g70
NtRp138
(dp139
g73
(dp140
g93
g94
ssg82
g134
sg75
(lp141
g51
asbag68
(g89
g70
NtRp142
(dp143
g73
(dp144
g100
g101
ssg82
g134
sg75
(lp145
S':'
asbag68
(g89
g70
NtRp146
(dp147
g73
(dp148
sg82
g134
sg75
(lp149
g68
(g69
g70
NtRp150
(dp151
g73
(dp152
g81
I5
ssg82
g146
sg75
(lp153
g68
(g77
g70
NtRp154
(dp155
g73
(dp156
g81
I4
ssg82
Nsg75
(lp157
sbasbasbasbag68
(g84
g70
NtRp158
(dp159
g73
(dp160
sg82
g78
sg75
(lp161
g68
(g89
g70
NtRp162
(dp163
g73
(dp164
g93
g94
ssg82
g158
sg75
(lp165
S'body'
p166
asbag68
(g89
g70
NtRp167
(dp168
g73
(dp169
g100
g101
ssg82
g158
sg75
(lp170
S':'
asbag68
(g89
g70
NtRp171
(dp172
g73
(dp173
sg82
g158
sg75
(lp174
g68
(g69
g70
NtRp175
(dp176
g73
(dp177
g81
I5
ssg82
g171
sg75
(lp178
S'<cStringIO.StringO object at 0x2ea06f8>'
p179
asbasbasbag68
(g84
g70
NtRp180
(dp181
g73
(dp182
sg82
g78
sg75
(lp183
g68
(g89
g70
NtRp184
(dp185
g73
(dp186
g93
g94
ssg82
g180
sg75
(lp187
S'cid'
p188
asbag68
(g89
g70
NtRp189
(dp190
g73
(dp191
g100
g101
ssg82
g180
sg75
(lp192
S':'
asbag68
(g89
g70
NtRp193
(dp194
g73
(dp195
sg82
g180
sg75
(lp196
g68
(g69
g70
NtRp197
(dp198
g73
(dp199
g81
I5
ssg82
g193
sg75
(lp200
S'links'
p201
asbasbasbag68
(g84
g70
NtRp202
(dp203
g73
(dp204
sg82
g78
sg75
(lp205
g68
(g89
g70
NtRp206
(dp207
g73
(dp208
g93
g94
ssg82
g202
sg75
(lp209
S'client'
p210
asbag68
(g89
g70
NtRp211
(dp212
g73
(dp213
g100
g101
ssg82
g202
sg75
(lp214
S':'
asbag68
(g89
g70
NtRp215
(dp216
g73
(dp217
sg82
g202
sg75
(lp218
g68
(g69
g70
NtRp219
(dp220
g73
(dp221
g81
I5
ssg82
g215
sg75
(lp222
S'127.0.0.1'
p223
asbasbasbag68
(g84
g70
NtRp224
(dp225
g73
(dp226
sg82
g78
sg75
(lp227
g68
(g89
g70
NtRp228
(dp229
g73
(dp230
g93
g94
ssg82
g224
sg75
(lp231
S'controller'
p232
asbag68
(g89
g70
NtRp233
(dp234
g73
(dp235
g100
g101
ssg82
g224
sg75
(lp236
S':'
asbag68
(g89
g70
NtRp237
(dp238
g73
(dp239
sg82
g224
sg75
(lp240
g68
(g69
g70
NtRp241
(dp242
g73
(dp243
g81
I5
ssg82
g237
sg75
(lp244
S'default'
p245
asbasbasbag68
(g84
g70
NtRp246
(dp247
g73
(dp248
sg82
g78
sg75
(lp249
g68
(g89
g70
NtRp250
(dp251
g73
(dp252
g93
g94
ssg82
g246
sg75
(lp253
S'cookies'
p254
asbag68
(g89
g70
NtRp255
(dp256
g73
(dp257
g100
g101
ssg82
g246
sg75
(lp258
S':'
asbag68
(g89
g70
NtRp259
(dp260
g73
(dp261
sg82
g246
sg75
(lp262
g68
(g69
g70
NtRp263
(dp264
g73
(dp265
g81
I5
ssg82
g259
sg75
(lp266
g68
(g77
g70
NtRp267
(dp268
g73
(dp269
g81
I4
ssg82
Nsg75
(lp270
g68
(g84
g70
NtRp271
(dp272
g73
(dp273
sg82
g267
sg75
(lp274
g68
(g89
g70
NtRp275
(dp276
g73
(dp277
g93
g94
ssg82
g271
sg75
(lp278
S'session_id_admin'
p279
asbag68
(g89
g70
NtRp280
(dp281
g73
(dp282
g100
g101
ssg82
g271
sg75
(lp283
S':'
asbag68
(g89
g70
NtRp284
(dp285
g73
(dp286
sg82
g271
sg75
(lp287
g68
(g69
g70
NtRp288
(dp289
g73
(dp290
g81
I4
ssg82
g284
sg75
(lp291
g68
(g77
g70
NtRp292
(dp293
g73
(dp294
g81
I3
ssg82
Nsg75
(lp295
g68
(g84
g70
NtRp296
(dp297
g73
(dp298
sg82
g292
sg75
(lp299
g68
(g89
g70
NtRp300
(dp301
g73
(dp302
g93
g94
ssg82
g296
sg75
(lp303
S'comment'
p304
asbag68
(g89
g70
NtRp305
(dp306
g73
(dp307
g100
g101
ssg82
g296
sg75
(lp308
S':'
asbag68
(g89
g70
NtRp309
(dp310
g73
(dp311
sg82
g296
sg75
(lp312
g68
(g69
g70
NtRp313
(dp314
g73
(dp315
g81
I3
ssg82
g309
sg75
(lp316
S''
asbasbasbag68
(g84
g70
NtRp317
(dp318
g73
(dp319
sg82
g292
sg75
(lp320
g68
(g89
g70
NtRp321
(dp322
g73
(dp323
g93
g94
ssg82
g317
sg75
(lp324
S'domain'
p325
asbag68
(g89
g70
NtRp326
(dp327
g73
(dp328
g100
g101
ssg82
g317
sg75
(lp329
S':'
asbag68
(g89
g70
NtRp330
(dp331
g73
(dp332
sg82
g317
sg75
(lp333
g68
(g69
g70
NtRp334
(dp335
g73
(dp336
g81
I3
ssg82
g330
sg75
(lp337
S''
asbasbasbag68
(g84
g70
NtRp338
(dp339
g73
(dp340
sg82
g292
sg75
(lp341
g68
(g89
g70
NtRp342
(dp343
g73
(dp344
g93
g94
ssg82
g338
sg75
(lp345
S'expires'
p346
asbag68
(g89
g70
NtRp347
(dp348
g73
(dp349
g100
g101
ssg82
g338
sg75
(lp350
S':'
asbag68
(g89
g70
NtRp351
(dp352
g73
(dp353
sg82
g338
sg75
(lp354
g68
(g69
g70
NtRp355
(dp356
g73
(dp357
g81
I3
ssg82
g351
sg75
(lp358
S''
asbasbasbag68
(g84
g70
NtRp359
(dp360
g73
(dp361
sg82
g292
sg75
(lp362
g68
(g89
g70
NtRp363
(dp364
g73
(dp365
g93
g94
ssg82
g359
sg75
(lp366
S'httponly'
p367
asbag68
(g89
g70
NtRp368
(dp369
g73
(dp370
g100
g101
ssg82
g359
sg75
(lp371
S':'
asbag68
(g89
g70
NtRp372
(dp373
g73
(dp374
sg82
g359
sg75
(lp375
g68
(g69
g70
NtRp376
(dp377
g73
(dp378
g81
I3
ssg82
g372
sg75
(lp379
S''
asbasbasbag68
(g84
g70
NtRp380
(dp381
g73
(dp382
sg82
g292
sg75
(lp383
g68
(g89
g70
NtRp384
(dp385
g73
(dp386
g93
g94
ssg82
g380
sg75
(lp387
S'max-age'
p388
asbag68
(g89
g70
NtRp389
(dp390
g73
(dp391
g100
g101
ssg82
g380
sg75
(lp392
S':'
asbag68
(g89
g70
NtRp393
(dp394
g73
(dp395
sg82
g380
sg75
(lp396
g68
(g69
g70
NtRp397
(dp398
g73
(dp399
g81
I3
ssg82
g393
sg75
(lp400
S''
asbasbasbag68
(g84
g70
NtRp401
(dp402
g73
(dp403
sg82
g292
sg75
(lp404
g68
(g89
g70
NtRp405
(dp406
g73
(dp407
g93
g94
ssg82
g401
sg75
(lp408
S'path'
p409
asbag68
(g89
g70
NtRp410
(dp411
g73
(dp412
g100
g101
ssg82
g401
sg75
(lp413
S':'
asbag68
(g89
g70
NtRp414
(dp415
g73
(dp416
sg82
g401
sg75
(lp417
g68
(g69
g70
NtRp418
(dp419
g73
(dp420
g81
I3
ssg82
g414
sg75
(lp421
S''
asbasbasbag68
(g84
g70
NtRp422
(dp423
g73
(dp424
sg82
g292
sg75
(lp425
g68
(g89
g70
NtRp426
(dp427
g73
(dp428
g93
g94
ssg82
g422
sg75
(lp429
S'secure'
p430
asbag68
(g89
g70
NtRp431
(dp432
g73
(dp433
g100
g101
ssg82
g422
sg75
(lp434
S':'
asbag68
(g89
g70
NtRp435
(dp436
g73
(dp437
sg82
g422
sg75
(lp438
g68
(g69
g70
NtRp439
(dp440
g73
(dp441
g81
I3
ssg82
g435
sg75
(lp442
S''
asbasbasbag68
(g84
g70
NtRp443
(dp444
g73
(dp445
sg82
g292
sg75
(lp446
g68
(g89
g70
NtRp447
(dp448
g73
(dp449
g93
g94
ssg82
g443
sg75
(lp450
S'version'
p451
asbag68
(g89
g70
NtRp452
(dp453
g73
(dp454
g100
g101
ssg82
g443
sg75
(lp455
S':'
asbag68
(g89
g70
NtRp456
(dp457
g73
(dp458
sg82
g443
sg75
(lp459
g68
(g69
g70
NtRp460
(dp461
g73
(dp462
g81
I3
ssg82
g456
sg75
(lp463
S''
asbasbasbasbasbasbasbag68
(g84
g70
NtRp464
(dp465
g73
(dp466
sg82
g267
sg75
(lp467
g68
(g89
g70
NtRp468
(dp469
g73
(dp470
g93
g94
ssg82
g464
sg75
(lp471
S'session_id_places'
p472
asbag68
(g89
g70
NtRp473
(dp474
g73
(dp475
g100
g101
ssg82
g464
sg75
(lp476
S':'
asbag68
(g89
g70
NtRp477
(dp478
g73
(dp479
sg82
g464
sg75
(lp480
g68
(g69
g70
NtRp481
(dp482
g73
(dp483
g81
I4
ssg82
g477
sg75
(lp484
g68
(g77
g70
NtRp485
(dp486
g73
(dp487
g81
I3
ssg82
Nsg75
(lp488
g68
(g84
g70
NtRp489
(dp490
g73
(dp491
sg82
g485
sg75
(lp492
g68
(g89
g70
NtRp493
(dp494
g73
(dp495
g93
g94
ssg82
g489
sg75
(lp496
g304
asbag68
(g89
g70
NtRp497
(dp498
g73
(dp499
g100
g101
ssg82
g489
sg75
(lp500
S':'
asbag68
(g89
g70
NtRp501
(dp502
g73
(dp503
sg82
g489
sg75
(lp504
g68
(g69
g70
NtRp505
(dp506
g73
(dp507
g81
I3
ssg82
g501
sg75
(lp508
S''
asbasbasbag68
(g84
g70
NtRp509
(dp510
g73
(dp511
sg82
g485
sg75
(lp512
g68
(g89
g70
NtRp513
(dp514
g73
(dp515
g93
g94
ssg82
g509
sg75
(lp516
g325
asbag68
(g89
g70
NtRp517
(dp518
g73
(dp519
g100
g101
ssg82
g509
sg75
(lp520
S':'
asbag68
(g89
g70
NtRp521
(dp522
g73
(dp523
sg82
g509
sg75
(lp524
g68
(g69
g70
NtRp525
(dp526
g73
(dp527
g81
I3
ssg82
g521
sg75
(lp528
S''
asbasbasbag68
(g84
g70
NtRp529
(dp530
g73
(dp531
sg82
g485
sg75
(lp532
g68
(g89
g70
NtRp533
(dp534
g73
(dp535
g93
g94
ssg82
g529
sg75
(lp536
g346
asbag68
(g89
g70
NtRp537
(dp538
g73
(dp539
g100
g101
ssg82
g529
sg75
(lp540
S':'
asbag68
(g89
g70
NtRp541
(dp542
g73
(dp543
sg82
g529
sg75
(lp544
g68
(g69
g70
NtRp545
(dp546
g73
(dp547
g81
I3
ssg82
g541
sg75
(lp548
S''
asbasbasbag68
(g84
g70
NtRp549
(dp550
g73
(dp551
sg82
g485
sg75
(lp552
g68
(g89
g70
NtRp553
(dp554
g73
(dp555
g93
g94
ssg82
g549
sg75
(lp556
g367
asbag68
(g89
g70
NtRp557
(dp558
g73
(dp559
g100
g101
ssg82
g549
sg75
(lp560
S':'
asbag68
(g89
g70
NtRp561
(dp562
g73
(dp563
sg82
g549
sg75
(lp564
g68
(g69
g70
NtRp565
(dp566
g73
(dp567
g81
I3
ssg82
g561
sg75
(lp568
S''
asbasbasbag68
(g84
g70
NtRp569
(dp570
g73
(dp571
sg82
g485
sg75
(lp572
g68
(g89
g70
NtRp573
(dp574
g73
(dp575
g93
g94
ssg82
g569
sg75
(lp576
g388
asbag68
(g89
g70
NtRp577
(dp578
g73
(dp579
g100
g101
ssg82
g569
sg75
(lp580
S':'
asbag68
(g89
g70
NtRp581
(dp582
g73
(dp583
sg82
g569
sg75
(lp584
g68
(g69
g70
NtRp585
(dp586
g73
(dp587
g81
I3
ssg82
g581
sg75
(lp588
S''
asbasbasbag68
(g84
g70
NtRp589
(dp590
g73
(dp591
sg82
g485
sg75
(lp592
g68
(g89
g70
NtRp593
(dp594
g73
(dp595
g93
g94
ssg82
g589
sg75
(lp596
g409
asbag68
(g89
g70
NtRp597
(dp598
g73
(dp599
g100
g101
ssg82
g589
sg75
(lp600
S':'
asbag68
(g89
g70
NtRp601
(dp602
g73
(dp603
sg82
g589
sg75
(lp604
g68
(g69
g70
NtRp605
(dp606
g73
(dp607
g81
I3
ssg82
g601
sg75
(lp608
S''
asbasbasbag68
(g84
g70
NtRp609
(dp610
g73
(dp611
sg82
g485
sg75
(lp612
g68
(g89
g70
NtRp613
(dp614
g73
(dp615
g93
g94
ssg82
g609
sg75
(lp616
g430
asbag68
(g89
g70
NtRp617
(dp618
g73
(dp619
g100
g101
ssg82
g609
sg75
(lp620
S':'
asbag68
(g89
g70
NtRp621
(dp622
g73
(dp623
sg82
g609
sg75
(lp624
g68
(g69
g70
NtRp625
(dp626
g73
(dp627
g81
I3
ssg82
g621
sg75
(lp628
S''
asbasbasbag68
(g84
g70
NtRp629
(dp630
g73
(dp631
sg82
g485
sg75
(lp632
g68
(g89
g70
NtRp633
(dp634
g73
(dp635
g93
g94
ssg82
g629
sg75
(lp636
g451
asbag68
(g89
g70
NtRp637
(dp638
g73
(dp639
g100
g101
ssg82
g629
sg75
(lp640
S':'
asbag68
(g89
g70
NtRp641
(dp642
g73
(dp643
sg82
g629
sg75
(lp644
g68
(g69
g70
NtRp645
(dp646
g73
(dp647
g81
I3
ssg82
g641
sg75
(lp648
S''
asbasbasbasbasbasbasbag68
(g84
g70
NtRp649
(dp650
g73
(dp651
sg82
g267
sg75
(lp652
g68
(g89
g70
NtRp653
(dp654
g73
(dp655
g93
g94
ssg82
g649
sg75
(lp656
S'session_id_welcome'
p657
asbag68
(g89
g70
NtRp658
(dp659
g73
(dp660
g100
g101
ssg82
g649
sg75
(lp661
S':'
asbag68
(g89
g70
NtRp662
(dp663
g73
(dp664
sg82
g649
sg75
(lp665
g68
(g69
g70
NtRp666
(dp667
g73
(dp668
g81
I4
ssg82
g662
sg75
(lp669
g68
(g77
g70
NtRp670
(dp671
g73
(dp672
g81
I3
ssg82
Nsg75
(lp673
g68
(g84
g70
NtRp674
(dp675
g73
(dp676
sg82
g670
sg75
(lp677
g68
(g89
g70
NtRp678
(dp679
g73
(dp680
g93
g94
ssg82
g674
sg75
(lp681
g304
asbag68
(g89
g70
NtRp682
(dp683
g73
(dp684
g100
g101
ssg82
g674
sg75
(lp685
S':'
asbag68
(g89
g70
NtRp686
(dp687
g73
(dp688
sg82
g674
sg75
(lp689
g68
(g69
g70
NtRp690
(dp691
g73
(dp692
g81
I3
ssg82
g686
sg75
(lp693
S''
asbasbasbag68
(g84
g70
NtRp694
(dp695
g73
(dp696
sg82
g670
sg75
(lp697
g68
(g89
g70
NtRp698
(dp699
g73
(dp700
g93
g94
ssg82
g694
sg75
(lp701
g325
asbag68
(g89
g70
NtRp702
(dp703
g73
(dp704
g100
g101
ssg82
g694
sg75
(lp705
S':'
asbag68
(g89
g70
NtRp706
(dp707
g73
(dp708
sg82
g694
sg75
(lp709
g68
(g69
g70
NtRp710
(dp711
g73
(dp712
g81
I3
ssg82
g706
sg75
(lp713
S''
asbasbasbag68
(g84
g70
NtRp714
(dp715
g73
(dp716
sg82
g670
sg75
(lp717
g68
(g89
g70
NtRp718
(dp719
g73
(dp720
g93
g94
ssg82
g714
sg75
(lp721
g346
asbag68
(g89
g70
NtRp722
(dp723
g73
(dp724
g100
g101
ssg82
g714
sg75
(lp725
S':'
asbag68
(g89
g70
NtRp726
(dp727
g73
(dp728
sg82
g714
sg75
(lp729
g68
(g69
g70
NtRp730
(dp731
g73
(dp732
g81
I3
ssg82
g726
sg75
(lp733
S''
asbasbasbag68
(g84
g70
NtRp734
(dp735
g73
(dp736
sg82
g670
sg75
(lp737
g68
(g89
g70
NtRp738
(dp739
g73
(dp740
g93
g94
ssg82
g734
sg75
(lp741
g367
asbag68
(g89
g70
NtRp742
(dp743
g73
(dp744
g100
g101
ssg82
g734
sg75
(lp745
S':'
asbag68
(g89
g70
NtRp746
(dp747
g73
(dp748
sg82
g734
sg75
(lp749
g68
(g69
g70
NtRp750
(dp751
g73
(dp752
g81
I3
ssg82
g746
sg75
(lp753
S''
asbasbasbag68
(g84
g70
NtRp754
(dp755
g73
(dp756
sg82
g670
sg75
(lp757
g68
(g89
g70
NtRp758
(dp759
g73
(dp760
g93
g94
ssg82
g754
sg75
(lp761
g388
asbag68
(g89
g70
NtRp762
(dp763
g73
(dp764
g100
g101
ssg82
g754
sg75
(lp765
S':'
asbag68
(g89
g70
NtRp766
(dp767
g73
(dp768
sg82
g754
sg75
(lp769
g68
(g69
g70
NtRp770
(dp771
g73
(dp772
g81
I3
ssg82
g766
sg75
(lp773
S''
asbasbasbag68
(g84
g70
NtRp774
(dp775
g73
(dp776
sg82
g670
sg75
(lp777
g68
(g89
g70
NtRp778
(dp779
g73
(dp780
g93
g94
ssg82
g774
sg75
(lp781
g409
asbag68
(g89
g70
NtRp782
(dp783
g73
(dp784
g100
g101
ssg82
g774
sg75
(lp785
S':'
asbag68
(g89
g70
NtRp786
(dp787
g73
(dp788
sg82
g774
sg75
(lp789
g68
(g69
g70
NtRp790
(dp791
g73
(dp792
g81
I3
ssg82
g786
sg75
(lp793
S''
asbasbasbag68
(g84
g70
NtRp794
(dp795
g73
(dp796
sg82
g670
sg75
(lp797
g68
(g89
g70
NtRp798
(dp799
g73
(dp800
g93
g94
ssg82
g794
sg75
(lp801
g430
asbag68
(g89
g70
NtRp802
(dp803
g73
(dp804
g100
g101
ssg82
g794
sg75
(lp805
S':'
asbag68
(g89
g70
NtRp806
(dp807
g73
(dp808
sg82
g794
sg75
(lp809
g68
(g69
g70
NtRp810
(dp811
g73
(dp812
g81
I3
ssg82
g806
sg75
(lp813
S''
asbasbasbag68
(g84
g70
NtRp814
(dp815
g73
(dp816
sg82
g670
sg75
(lp817
g68
(g89
g70
NtRp818
(dp819
g73
(dp820
g93
g94
ssg82
g814
sg75
(lp821
g451
asbag68
(g89
g70
NtRp822
(dp823
g73
(dp824
g100
g101
ssg82
g814
sg75
(lp825
S':'
asbag68
(g89
g70
NtRp826
(dp827
g73
(dp828
sg82
g814
sg75
(lp829
g68
(g69
g70
NtRp830
(dp831
g73
(dp832
g81
I3
ssg82
g826
sg75
(lp833
S''
asbasbasbasbasbasbasbasbasbasbasbag68
(g84
g70
NtRp834
(dp835
g73
(dp836
sg82
g78
sg75
(lp837
g68
(g89
g70
NtRp838
(dp839
g73
(dp840
g93
g94
ssg82
g834
sg75
(lp841
S'env'
p842
asbag68
(g89
g70
NtRp843
(dp844
g73
(dp845
g100
g101
ssg82
g834
sg75
(lp846
S':'
asbag68
(g89
g70
NtRp847
(dp848
g73
(dp849
sg82
g834
sg75
(lp850
g68
(g69
g70
NtRp851
(dp852
g73
(dp853
g81
I5
ssg82
g847
sg75
(lp854
g68
(g77
g70
NtRp855
(dp856
g73
(dp857
g81
I4
ssg82
Nsg75
(lp858
g68
(g84
g70
NtRp859
(dp860
g73
(dp861
sg82
g855
sg75
(lp862
g68
(g89
g70
NtRp863
(dp864
g73
(dp865
g93
g94
ssg82
g859
sg75
(lp866
S'app_folders'
p867
asbag68
(g89
g70
NtRp868
(dp869
g73
(dp870
g100
g101
ssg82
g859
sg75
(lp871
S':'
asbag68
(g89
g70
NtRp872
(dp873
g73
(dp874
sg82
g859
sg75
(lp875
g68
(g69
g70
NtRp876
(dp877
g73
(dp878
g81
I4
ssg82
g872
sg75
(lp879
S"set(['/home/ian/web2py/applications/welcome/', '/home/ian/web2py/applications/places/', '/home/ian/web2py/applications/admin/'])"
p880
asbasbasbag68
(g84
g70
NtRp881
(dp882
g73
(dp883
sg82
g855
sg75
(lp884
g68
(g89
g70
NtRp885
(dp886
g73
(dp887
g93
g94
ssg82
g881
sg75
(lp888
S'applications_parent'
p889
asbag68
(g89
g70
NtRp890
(dp891
g73
(dp892
g100
g101
ssg82
g881
sg75
(lp893
S':'
asbag68
(g89
g70
NtRp894
(dp895
g73
(dp896
sg82
g881
sg75
(lp897
g68
(g69
g70
NtRp898
(dp899
g73
(dp900
g81
I4
ssg82
g894
sg75
(lp901
S'/home/ian/web2py'
p902
asbasbasbag68
(g84
g70
NtRp903
(dp904
g73
(dp905
sg82
g855
sg75
(lp906
g68
(g89
g70
NtRp907
(dp908
g73
(dp909
g93
g94
ssg82
g903
sg75
(lp910
S'cmd_args'
p911
asbag68
(g89
g70
NtRp912
(dp913
g73
(dp914
g100
g101
ssg82
g903
sg75
(lp915
S':'
asbag68
(g89
g70
NtRp916
(dp917
g73
(dp918
sg82
g903
sg75
(lp919
g68
(g69
g70
NtRp920
(dp921
g73
(dp922
g81
I4
ssg82
g916
sg75
(lp923
g68
(g77
g70
NtRp924
(dp925
g73
(dp926
g81
I3
ssg82
Nsg75
(lp927
sbasbasbasbag68
(g84
g70
NtRp928
(dp929
g73
(dp930
sg82
g855
sg75
(lp931
g68
(g89
g70
NtRp932
(dp933
g73
(dp934
g93
g94
ssg82
g928
sg75
(lp935
S'cmd_options'
p936
asbag68
(g89
g70
NtRp937
(dp938
g73
(dp939
g100
g101
ssg82
g928
sg75
(lp940
S':'
asbag68
(g89
g70
NtRp941
(dp942
g73
(dp943
sg82
g928
sg75
(lp944
g68
(g69
g70
NtRp945
(dp946
g73
(dp947
g81
I4
ssg82
g941
sg75
(lp948
S"<Values at 0x26ccbd8: {'verbose': False, 'ip': '127.0.0.1', 'shutdown_timeout': 5, 'taskbar': False, 'nocron': False, 'pid_filename': 'httpserver.pid', 'maxthreads': None, 'softcron': False, 'server_name': 'Ariel-ubuntu', 'bpython': False, 'nogui': False, 'port': 8000, 'extcron': False, 'debuglevel': 30, 'test': None, 'folder': '/home/ian/web2py', 'config': '', 'import_models': False, 'winservice': '', 'shell': None, 'run': '', 'log_filename': 'httpserver.log', 'args': [''], 'ssl_ca_certificate': None, 'scheduler': None, 'profiler_filename': None, 'ssl_private_key': '', 'password': '<ask>', 'request_queue_size': 5, 'ssl_certificate': '', 'cronjob': False, 'plain': False, 'quiet': False, 'interfaces': None, 'minthreads': None, 'timeout': 10, 'numthreads': None, 'nobanner': False}>"
p949
asbasbasbag68
(g84
g70
NtRp950
(dp951
g73
(dp952
sg82
g855
sg75
(lp953
g68
(g89
g70
NtRp954
(dp955
g73
(dp956
g93
g94
ssg82
g950
sg75
(lp957
S'db_sessions'
p958
asbag68
(g89
g70
NtRp959
(dp960
g73
(dp961
g100
g101
ssg82
g950
sg75
(lp962
S':'
asbag68
(g89
g70
NtRp963
(dp964
g73
(dp965
sg82
g950
sg75
(lp966
g68
(g69
g70
NtRp967
(dp968
g73
(dp969
g81
I4
ssg82
g963
sg75
(lp970
S'set([])'
p971
asbasbasbag68
(g84
g70
NtRp972
(dp973
g73
(dp974
sg82
g855
sg75
(lp975
g68
(g89
g70
NtRp976
(dp977
g73
(dp978
g93
g94
ssg82
g972
sg75
(lp979
S'debugging'
p980
asbag68
(g89
g70
NtRp981
(dp982
g73
(dp983
g100
g101
ssg82
g972
sg75
(lp984
S':'
asbag68
(g89
g70
NtRp985
(dp986
g73
(dp987
sg82
g972
sg75
(lp988
g68
(g69
g70
NtRp989
(dp990
g73
(dp991
g81
I4
ssg82
g985
sg75
(lp992
S'False'
p993
asbasbasbag68
(g84
g70
NtRp994
(dp995
g73
(dp996
sg82
g855
sg75
(lp997
g68
(g89
g70
NtRp998
(dp999
g73
(dp1000
g93
g94
ssg82
g994
sg75
(lp1001
S'gluon_parent'
p1002
asbag68
(g89
g70
NtRp1003
(dp1004
g73
(dp1005
g100
g101
ssg82
g994
sg75
(lp1006
S':'
asbag68
(g89
g70
NtRp1007
(dp1008
g73
(dp1009
sg82
g994
sg75
(lp1010
g68
(g69
g70
NtRp1011
(dp1012
g73
(dp1013
g81
I4
ssg82
g1007
sg75
(lp1014
S'/home/ian/web2py'
p1015
asbasbasbag68
(g84
g70
NtRp1016
(dp1017
g73
(dp1018
sg82
g855
sg75
(lp1019
g68
(g89
g70
NtRp1020
(dp1021
g73
(dp1022
g93
g94
ssg82
g1016
sg75
(lp1023
S'http_accept'
p1024
asbag68
(g89
g70
NtRp1025
(dp1026
g73
(dp1027
g100
g101
ssg82
g1016
sg75
(lp1028
S':'
asbag68
(g89
g70
NtRp1029
(dp1030
g73
(dp1031
sg82
g1016
sg75
(lp1032
g68
(g69
g70
NtRp1033
(dp1034
g73
(dp1035
g81
I4
ssg82
g1029
sg75
(lp1036
S'*/*'
p1037
asbasbasbag68
(g84
g70
NtRp1038
(dp1039
g73
(dp1040
sg82
g855
sg75
(lp1041
g68
(g89
g70
NtRp1042
(dp1043
g73
(dp1044
g93
g94
ssg82
g1038
sg75
(lp1045
S'http_accept_charset'
p1046
asbag68
(g89
g70
NtRp1047
(dp1048
g73
(dp1049
g100
g101
ssg82
g1038
sg75
(lp1050
S':'
asbag68
(g89
g70
NtRp1051
(dp1052
g73
(dp1053
sg82
g1038
sg75
(lp1054
g68
(g69
g70
NtRp1055
(dp1056
g73
(dp1057
g81
I4
ssg82
g1051
sg75
(lp1058
S'ISO-8859-1,utf-8;q=0.7,*;q=0.7'
p1059
asbasbasbag68
(g84
g70
NtRp1060
(dp1061
g73
(dp1062
sg82
g855
sg75
(lp1063
g68
(g89
g70
NtRp1064
(dp1065
g73
(dp1066
g93
g94
ssg82
g1060
sg75
(lp1067
S'http_accept_encoding'
p1068
asbag68
(g89
g70
NtRp1069
(dp1070
g73
(dp1071
g100
g101
ssg82
g1060
sg75
(lp1072
S':'
asbag68
(g89
g70
NtRp1073
(dp1074
g73
(dp1075
sg82
g1060
sg75
(lp1076
g68
(g69
g70
NtRp1077
(dp1078
g73
(dp1079
g81
I4
ssg82
g1073
sg75
(lp1080
S'gzip, deflate'
p1081
asbasbasbag68
(g84
g70
NtRp1082
(dp1083
g73
(dp1084
sg82
g855
sg75
(lp1085
g68
(g89
g70
NtRp1086
(dp1087
g73
(dp1088
g93
g94
ssg82
g1082
sg75
(lp1089
S'http_accept_language'
p1090
asbag68
(g89
g70
NtRp1091
(dp1092
g73
(dp1093
g100
g101
ssg82
g1082
sg75
(lp1094
S':'
asbag68
(g89
g70
NtRp1095
(dp1096
g73
(dp1097
sg82
g1082
sg75
(lp1098
g68
(g69
g70
NtRp1099
(dp1100
g73
(dp1101
g81
I4
ssg82
g1095
sg75
(lp1102
S'en-us,en;q=0.5'
p1103
asbasbasbag68
(g84
g70
NtRp1104
(dp1105
g73
(dp1106
sg82
g855
sg75
(lp1107
g68
(g89
g70
NtRp1108
(dp1109
g73
(dp1110
g93
g94
ssg82
g1104
sg75
(lp1111
S'http_connection'
p1112
asbag68
(g89
g70
NtRp1113
(dp1114
g73
(dp1115
g100
g101
ssg82
g1104
sg75
(lp1116
S':'
asbag68
(g89
g70
NtRp1117
(dp1118
g73
(dp1119
sg82
g1104
sg75
(lp1120
g68
(g69
g70
NtRp1121
(dp1122
g73
(dp1123
g81
I4
ssg82
g1117
sg75
(lp1124
S'keep-alive'
p1125
asbasbasbag68
(g84
g70
NtRp1126
(dp1127
g73
(dp1128
sg82
g855
sg75
(lp1129
g68
(g89
g70
NtRp1130
(dp1131
g73
(dp1132
g93
g94
ssg82
g1126
sg75
(lp1133
S'http_cookie'
p1134
asbag68
(g89
g70
NtRp1135
(dp1136
g73
(dp1137
g100
g101
ssg82
g1126
sg75
(lp1138
S':'
asbag68
(g89
g70
NtRp1139
(dp1140
g73
(dp1141
sg82
g1126
sg75
(lp1142
g68
(g69
g70
NtRp1143
(dp1144
g73
(dp1145
g81
I4
ssg82
g1139
sg75
(lp1146
S'session_id_welcome=127.0.0.1-f0e6d08e-4585-488a-91e0-180c6c7f25a8; session_id_admin=127.0.0.1-dac11dfe-be99-4fb0-a78e-57512c9f5790; session_id_places=127.0.0.1-9bd70a00-d029-4b6e-8bcc-a423c3a61399'
p1147
asbasbasbag68
(g84
g70
NtRp1148
(dp1149
g73
(dp1150
sg82
g855
sg75
(lp1151
g68
(g89
g70
NtRp1152
(dp1153
g73
(dp1154
g93
g94
ssg82
g1148
sg75
(lp1155
S'http_host'
p1156
asbag68
(g89
g70
NtRp1157
(dp1158
g73
(dp1159
g100
g101
ssg82
g1148
sg75
(lp1160
S':'
asbag68
(g89
g70
NtRp1161
(dp1162
g73
(dp1163
sg82
g1148
sg75
(lp1164
g68
(g69
g70
NtRp1165
(dp1166
g73
(dp1167
g81
I4
ssg82
g1161
sg75
(lp1168
S'127.0.0.1:8000'
p1169
asbasbasbag68
(g84
g70
NtRp1170
(dp1171
g73
(dp1172
sg82
g855
sg75
(lp1173
g68
(g89
g70
NtRp1174
(dp1175
g73
(dp1176
g93
g94
ssg82
g1170
sg75
(lp1177
S'http_referer'
p1178
asbag68
(g89
g70
NtRp1179
(dp1180
g73
(dp1181
g100
g101
ssg82
g1170
sg75
(lp1182
S':'
asbag68
(g89
g70
NtRp1183
(dp1184
g73
(dp1185
sg82
g1170
sg75
(lp1186
g68
(g69
g70
NtRp1187
(dp1188
g73
(dp1189
g81
I4
ssg82
g1183
sg75
(lp1190
S'http://127.0.0.1:8000/places/default/index'
p1191
asbasbasbag68
(g84
g70
NtRp1192
(dp1193
g73
(dp1194
sg82
g855
sg75
(lp1195
g68
(g89
g70
NtRp1196
(dp1197
g73
(dp1198
g93
g94
ssg82
g1192
sg75
(lp1199
S'http_user_agent'
p1200
asbag68
(g89
g70
NtRp1201
(dp1202
g73
(dp1203
g100
g101
ssg82
g1192
sg75
(lp1204
S':'
asbag68
(g89
g70
NtRp1205
(dp1206
g73
(dp1207
sg82
g1192
sg75
(lp1208
g68
(g69
g70
NtRp1209
(dp1210
g73
(dp1211
g81
I4
ssg82
g1205
sg75
(lp1212
S'Mozilla/5.0 (X11; Linux x86_64; rv:7.0.1) Gecko/20100101 Firefox/7.0.1'
p1213
asbasbasbag68
(g84
g70
NtRp1214
(dp1215
g73
(dp1216
sg82
g855
sg75
(lp1217
g68
(g89
g70
NtRp1218
(dp1219
g73
(dp1220
g93
g94
ssg82
g1214
sg75
(lp1221
S'http_web2py_component_element'
p1222
asbag68
(g89
g70
NtRp1223
(dp1224
g73
(dp1225
g100
g101
ssg82
g1214
sg75
(lp1226
S':'
asbag68
(g89
g70
NtRp1227
(dp1228
g73
(dp1229
sg82
g1214
sg75
(lp1230
g68
(g69
g70
NtRp1231
(dp1232
g73
(dp1233
g81
I4
ssg82
g1227
sg75
(lp1234
g201
asbasbasbag68
(g84
g70
NtRp1235
(dp1236
g73
(dp1237
sg82
g855
sg75
(lp1238
g68
(g89
g70
NtRp1239
(dp1240
g73
(dp1241
g93
g94
ssg82
g1235
sg75
(lp1242
S'http_web2py_component_location'
p1243
asbag68
(g89
g70
NtRp1244
(dp1245
g73
(dp1246
g100
g101
ssg82
g1235
sg75
(lp1247
S':'
asbag68
(g89
g70
NtRp1248
(dp1249
g73
(dp1250
sg82
g1235
sg75
(lp1251
g68
(g69
g70
NtRp1252
(dp1253
g73
(dp1254
g81
I4
ssg82
g1248
sg75
(lp1255
S'http://127.0.0.1:8000/places/default/index'
p1256
asbasbasbag68
(g84
g70
NtRp1257
(dp1258
g73
(dp1259
sg82
g855
sg75
(lp1260
g68
(g89
g70
NtRp1261
(dp1262
g73
(dp1263
g93
g94
ssg82
g1257
sg75
(lp1264
S'http_x_requested_with'
p1265
asbag68
(g89
g70
NtRp1266
(dp1267
g73
(dp1268
g100
g101
ssg82
g1257
sg75
(lp1269
S':'
asbag68
(g89
g70
NtRp1270
(dp1271
g73
(dp1272
sg82
g1257
sg75
(lp1273
g68
(g69
g70
NtRp1274
(dp1275
g73
(dp1276
g81
I4
ssg82
g1270
sg75
(lp1277
S'XMLHttpRequest'
p1278
asbasbasbag68
(g84
g70
NtRp1279
(dp1280
g73
(dp1281
sg82
g855
sg75
(lp1282
g68
(g89
g70
NtRp1283
(dp1284
g73
(dp1285
g93
g94
ssg82
g1279
sg75
(lp1286
S'is_jython'
p1287
asbag68
(g89
g70
NtRp1288
(dp1289
g73
(dp1290
g100
g101
ssg82
g1279
sg75
(lp1291
S':'
asbag68
(g89
g70
NtRp1292
(dp1293
g73
(dp1294
sg82
g1279
sg75
(lp1295
g68
(g69
g70
NtRp1296
(dp1297
g73
(dp1298
g81
I4
ssg82
g1292
sg75
(lp1299
g993
asbasbasbag68
(g84
g70
NtRp1300
(dp1301
g73
(dp1302
sg82
g855
sg75
(lp1303
g68
(g89
g70
NtRp1304
(dp1305
g73
(dp1306
g93
g94
ssg82
g1300
sg75
(lp1307
S'path_info'
p1308
asbag68
(g89
g70
NtRp1309
(dp1310
g73
(dp1311
g100
g101
ssg82
g1300
sg75
(lp1312
S':'
asbag68
(g89
g70
NtRp1313
(dp1314
g73
(dp1315
sg82
g1300
sg75
(lp1316
g68
(g69
g70
NtRp1317
(dp1318
g73
(dp1319
g81
I4
ssg82
g1313
sg75
(lp1320
S'/places/default/index.load'
p1321
asbasbasbag68
(g84
g70
NtRp1322
(dp1323
g73
(dp1324
sg82
g855
sg75
(lp1325
g68
(g89
g70
NtRp1326
(dp1327
g73
(dp1328
g93
g94
ssg82
g1322
sg75
(lp1329
S'query_string'
p1330
asbag68
(g89
g70
NtRp1331
(dp1332
g73
(dp1333
g100
g101
ssg82
g1322
sg75
(lp1334
S':'
asbag68
(g89
g70
NtRp1335
(dp1336
g73
(dp1337
sg82
g1322
sg75
(lp1338
g68
(g69
g70
NtRp1339
(dp1340
g73
(dp1341
g81
I4
ssg82
g1335
sg75
(lp1342
S'the_view=kitchen'
p1343
asbasbasbag68
(g84
g70
NtRp1344
(dp1345
g73
(dp1346
sg82
g855
sg75
(lp1347
g68
(g89
g70
NtRp1348
(dp1349
g73
(dp1350
g93
g94
ssg82
g1344
sg75
(lp1351
S'remote_addr'
p1352
asbag68
(g89
g70
NtRp1353
(dp1354
g73
(dp1355
g100
g101
ssg82
g1344
sg75
(lp1356
S':'
asbag68
(g89
g70
NtRp1357
(dp1358
g73
(dp1359
sg82
g1344
sg75
(lp1360
g68
(g69
g70
NtRp1361
(dp1362
g73
(dp1363
g81
I4
ssg82
g1357
sg75
(lp1364
g223
asbasbasbag68
(g84
g70
NtRp1365
(dp1366
g73
(dp1367
sg82
g855
sg75
(lp1368
g68
(g89
g70
NtRp1369
(dp1370
g73
(dp1371
g93
g94
ssg82
g1365
sg75
(lp1372
S'remote_port'
p1373
asbag68
(g89
g70
NtRp1374
(dp1375
g73
(dp1376
g100
g101
ssg82
g1365
sg75
(lp1377
S':'
asbag68
(g89
g70
NtRp1378
(dp1379
g73
(dp1380
sg82
g1365
sg75
(lp1381
g68
(g69
g70
NtRp1382
(dp1383
g73
(dp1384
g81
I4
ssg82
g1378
sg75
(lp1385
S'48976'
p1386
asbasbasbag68
(g84
g70
NtRp1387
(dp1388
g73
(dp1389
sg82
g855
sg75
(lp1390
g68
(g89
g70
NtRp1391
(dp1392
g73
(dp1393
g93
g94
ssg82
g1387
sg75
(lp1394
S'request_method'
p1395
asbag68
(g89
g70
NtRp1396
(dp1397
g73
(dp1398
g100
g101
ssg82
g1387
sg75
(lp1399
S':'
asbag68
(g89
g70
NtRp1400
(dp1401
g73
(dp1402
sg82
g1387
sg75
(lp1403
g68
(g69
g70
NtRp1404
(dp1405
g73
(dp1406
g81
I4
ssg82
g1400
sg75
(lp1407
S'GET'
p1408
asbasbasbag68
(g84
g70
NtRp1409
(dp1410
g73
(dp1411
sg82
g855
sg75
(lp1412
g68
(g89
g70
NtRp1413
(dp1414
g73
(dp1415
g93
g94
ssg82
g1409
sg75
(lp1416
S'script_name'
p1417
asbag68
(g89
g70
NtRp1418
(dp1419
g73
(dp1420
g100
g101
ssg82
g1409
sg75
(lp1421
S':'
asbag68
(g89
g70
NtRp1422
(dp1423
g73
(dp1424
sg82
g1409
sg75
(lp1425
g68
(g69
g70
NtRp1426
(dp1427
g73
(dp1428
g81
I4
ssg82
g1422
sg75
(lp1429
S''
asbasbasbag68
(g84
g70
NtRp1430
(dp1431
g73
(dp1432
sg82
g855
sg75
(lp1433
g68
(g89
g70
NtRp1434
(dp1435
g73
(dp1436
g93
g94
ssg82
g1430
sg75
(lp1437
S'server_name'
p1438
asbag68
(g89
g70
NtRp1439
(dp1440
g73
(dp1441
g100
g101
ssg82
g1430
sg75
(lp1442
S':'
asbag68
(g89
g70
NtRp1443
(dp1444
g73
(dp1445
sg82
g1430
sg75
(lp1446
g68
(g69
g70
NtRp1447
(dp1448
g73
(dp1449
g81
I4
ssg82
g1443
sg75
(lp1450
S'Ariel-ubuntu'
p1451
asbasbasbag68
(g84
g70
NtRp1452
(dp1453
g73
(dp1454
sg82
g855
sg75
(lp1455
g68
(g89
g70
NtRp1456
(dp1457
g73
(dp1458
g93
g94
ssg82
g1452
sg75
(lp1459
S'server_port'
p1460
asbag68
(g89
g70
NtRp1461
(dp1462
g73
(dp1463
g100
g101
ssg82
g1452
sg75
(lp1464
S':'
asbag68
(g89
g70
NtRp1465
(dp1466
g73
(dp1467
sg82
g1452
sg75
(lp1468
g68
(g69
g70
NtRp1469
(dp1470
g73
(dp1471
g81
I4
ssg82
g1465
sg75
(lp1472
S'8000'
p1473
asbasbasbag68
(g84
g70
NtRp1474
(dp1475
g73
(dp1476
sg82
g855
sg75
(lp1477
g68
(g89
g70
NtRp1478
(dp1479
g73
(dp1480
g93
g94
ssg82
g1474
sg75
(lp1481
S'server_protocol'
p1482
asbag68
(g89
g70
NtRp1483
(dp1484
g73
(dp1485
g100
g101
ssg82
g1474
sg75
(lp1486
S':'
asbag68
(g89
g70
NtRp1487
(dp1488
g73
(dp1489
sg82
g1474
sg75
(lp1490
g68
(g69
g70
NtRp1491
(dp1492
g73
(dp1493
g81
I4
ssg82
g1487
sg75
(lp1494
S'HTTP/1.1'
p1495
asbasbasbag68
(g84
g70
NtRp1496
(dp1497
g73
(dp1498
sg82
g855
sg75
(lp1499
g68
(g89
g70
NtRp1500
(dp1501
g73
(dp1502
g93
g94
ssg82
g1496
sg75
(lp1503
S'server_software'
p1504
asbag68
(g89
g70
NtRp1505
(dp1506
g73
(dp1507
g100
g101
ssg82
g1496
sg75
(lp1508
S':'
asbag68
(g89
g70
NtRp1509
(dp1510
g73
(dp1511
sg82
g1496
sg75
(lp1512
g68
(g69
g70
NtRp1513
(dp1514
g73
(dp1515
g81
I4
ssg82
g1509
sg75
(lp1516
S'Rocket 1.2.4'
p1517
asbasbasbag68
(g84
g70
NtRp1518
(dp1519
g73
(dp1520
sg82
g855
sg75
(lp1521
g68
(g89
g70
NtRp1522
(dp1523
g73
(dp1524
g93
g94
ssg82
g1518
sg75
(lp1525
S'web2py_crontype'
p1526
asbag68
(g89
g70
NtRp1527
(dp1528
g73
(dp1529
g100
g101
ssg82
g1518
sg75
(lp1530
S':'
asbag68
(g89
g70
NtRp1531
(dp1532
g73
(dp1533
sg82
g1518
sg75
(lp1534
g68
(g69
g70
NtRp1535
(dp1536
g73
(dp1537
g81
I4
ssg82
g1531
sg75
(lp1538
S'hard'
p1539
asbasbasbag68
(g84
g70
NtRp1540
(dp1541
g73
(dp1542
sg82
g855
sg75
(lp1543
g68
(g89
g70
NtRp1544
(dp1545
g73
(dp1546
g93
g94
ssg82
g1540
sg75
(lp1547
S'web2py_path'
p1548
asbag68
(g89
g70
NtRp1549
(dp1550
g73
(dp1551
g100
g101
ssg82
g1540
sg75
(lp1552
S':'
asbag68
(g89
g70
NtRp1553
(dp1554
g73
(dp1555
sg82
g1540
sg75
(lp1556
g68
(g69
g70
NtRp1557
(dp1558
g73
(dp1559
g81
I4
ssg82
g1553
sg75
(lp1560
g902
asbasbasbag68
(g84
g70
NtRp1561
(dp1562
g73
(dp1563
sg82
g855
sg75
(lp1564
g68
(g89
g70
NtRp1565
(dp1566
g73
(dp1567
g93
g94
ssg82
g1561
sg75
(lp1568
S'web2py_version'
p1569
asbag68
(g89
g70
NtRp1570
(dp1571
g73
(dp1572
g100
g101
ssg82
g1561
sg75
(lp1573
S':'
asbag68
(g89
g70
NtRp1574
(dp1575
g73
(dp1576
sg82
g1561
sg75
(lp1577
g68
(g69
g70
NtRp1578
(dp1579
g73
(dp1580
g81
I4
ssg82
g1574
sg75
(lp1581
g68
(g77
g70
NtRp1582
(dp1583
g73
(dp1584
g81
I3
ssg82
Nsg75
(lp1585
g68
(g84
g70
NtRp1586
(dp1587
g73
(dp1588
sg82
g1582
sg75
(lp1589
g68
(g89
g70
NtRp1590
(dp1591
g73
(dp1592
sg82
g1586
sg75
(lp1593
g68
(g69
g70
NtRp1594
(dp1595
g73
(dp1596
g81
I3
ssg82
g1590
sg75
(lp1597
S'1'
asbasbasbag68
(g84
g70
NtRp1598
(dp1599
g73
(dp1600
sg82
g1582
sg75
(lp1601
g68
(g89
g70
NtRp1602
(dp1603
g73
(dp1604
sg82
g1598
sg75
(lp1605
g68
(g69
g70
NtRp1606
(dp1607
g73
(dp1608
g81
I3
ssg82
g1602
sg75
(lp1609
S'99'
p1610
asbasbasbag68
(g84
g70
NtRp1611
(dp1612
g73
(dp1613
sg82
g1582
sg75
(lp1614
g68
(g89
g70
NtRp1615
(dp1616
g73
(dp1617
sg82
g1611
sg75
(lp1618
g68
(g69
g70
NtRp1619
(dp1620
g73
(dp1621
g81
I3
ssg82
g1615
sg75
(lp1622
S'2'
asbasbasbag68
(g84
g70
NtRp1623
(dp1624
g73
(dp1625
sg82
g1582
sg75
(lp1626
g68
(g89
g70
NtRp1627
(dp1628
g73
(dp1629
sg82
g1623
sg75
(lp1630
g68
(g69
g70
NtRp1631
(dp1632
g73
(dp1633
g81
I3
ssg82
g1627
sg75
(lp1634
S'datetime.datetime(2011, 9, 26, 6, 55, 33)'
p1635
asbasbasbag68
(g84
g70
NtRp1636
(dp1637
g73
(dp1638
sg82
g1582
sg75
(lp1639
g68
(g89
g70
NtRp1640
(dp1641
g73
(dp1642
sg82
g1636
sg75
(lp1643
g68
(g69
g70
NtRp1644
(dp1645
g73
(dp1646
g81
I3
ssg82
g1640
sg75
(lp1647
S'stable'
p1648
asbasbasbasbasbasbasbag68
(g84
g70
NtRp1649
(dp1650
g73
(dp1651
sg82
g855
sg75
(lp1652
g68
(g89
g70
NtRp1653
(dp1654
g73
(dp1655
g93
g94
ssg82
g1649
sg75
(lp1656
S'wsgi_errors'
p1657
asbag68
(g89
g70
NtRp1658
(dp1659
g73
(dp1660
g100
g101
ssg82
g1649
sg75
(lp1661
S':'
asbag68
(g89
g70
NtRp1662
(dp1663
g73
(dp1664
sg82
g1649
sg75
(lp1665
g68
(g69
g70
NtRp1666
(dp1667
g73
(dp1668
g81
I4
ssg82
g1662
sg75
(lp1669
S"<open file '<stderr>', mode 'w' at 0x7f6d3a48b270>"
p1670
asbasbasbag68
(g84
g70
NtRp1671
(dp1672
g73
(dp1673
sg82
g855
sg75
(lp1674
g68
(g89
g70
NtRp1675
(dp1676
g73
(dp1677
g93
g94
ssg82
g1671
sg75
(lp1678
S'wsgi_file_wrapper'
p1679
asbag68
(g89
g70
NtRp1680
(dp1681
g73
(dp1682
g100
g101
ssg82
g1671
sg75
(lp1683
S':'
asbag68
(g89
g70
NtRp1684
(dp1685
g73
(dp1686
sg82
g1671
sg75
(lp1687
g68
(g69
g70
NtRp1688
(dp1689
g73
(dp1690
g81
I4
ssg82
g1684
sg75
(lp1691
S'<class wsgiref.util.FileWrapper at 0x25957a0>'
p1692
asbasbasbag68
(g84
g70
NtRp1693
(dp1694
g73
(dp1695
sg82
g855
sg75
(lp1696
g68
(g89
g70
NtRp1697
(dp1698
g73
(dp1699
g93
g94
ssg82
g1693
sg75
(lp1700
S'wsgi_input'
p1701
asbag68
(g89
g70
NtRp1702
(dp1703
g73
(dp1704
g100
g101
ssg82
g1693
sg75
(lp1705
S':'
asbag68
(g89
g70
NtRp1706
(dp1707
g73
(dp1708
sg82
g1693
sg75
(lp1709
g68
(g69
g70
NtRp1710
(dp1711
g73
(dp1712
g81
I4
ssg82
g1706
sg75
(lp1713
S'<socket._fileobject object at 0x3274950>'
p1714
asbasbasbag68
(g84
g70
NtRp1715
(dp1716
g73
(dp1717
sg82
g855
sg75
(lp1718
g68
(g89
g70
NtRp1719
(dp1720
g73
(dp1721
g93
g94
ssg82
g1715
sg75
(lp1722
S'wsgi_multiprocess'
p1723
asbag68
(g89
g70
NtRp1724
(dp1725
g73
(dp1726
g100
g101
ssg82
g1715
sg75
(lp1727
S':'
asbag68
(g89
g70
NtRp1728
(dp1729
g73
(dp1730
sg82
g1715
sg75
(lp1731
g68
(g69
g70
NtRp1732
(dp1733
g73
(dp1734
g81
I4
ssg82
g1728
sg75
(lp1735
g993
asbasbasbag68
(g84
g70
NtRp1736
(dp1737
g73
(dp1738
sg82
g855
sg75
(lp1739
g68
(g89
g70
NtRp1740
(dp1741
g73
(dp1742
g93
g94
ssg82
g1736
sg75
(lp1743
S'wsgi_multithread'
p1744
asbag68
(g89
g70
NtRp1745
(dp1746
g73
(dp1747
g100
g101
ssg82
g1736
sg75
(lp1748
S':'
asbag68
(g89
g70
NtRp1749
(dp1750
g73
(dp1751
sg82
g1736
sg75
(lp1752
g68
(g69
g70
NtRp1753
(dp1754
g73
(dp1755
g81
I4
ssg82
g1749
sg75
(lp1756
g111
asbasbasbag68
(g84
g70
NtRp1757
(dp1758
g73
(dp1759
sg82
g855
sg75
(lp1760
g68
(g89
g70
NtRp1761
(dp1762
g73
(dp1763
g93
g94
ssg82
g1757
sg75
(lp1764
S'wsgi_run_once'
p1765
asbag68
(g89
g70
NtRp1766
(dp1767
g73
(dp1768
g100
g101
ssg82
g1757
sg75
(lp1769
S':'
asbag68
(g89
g70
NtRp1770
(dp1771
g73
(dp1772
sg82
g1757
sg75
(lp1773
g68
(g69
g70
NtRp1774
(dp1775
g73
(dp1776
g81
I4
ssg82
g1770
sg75
(lp1777
g993
asbasbasbag68
(g84
g70
NtRp1778
(dp1779
g73
(dp1780
sg82
g855
sg75
(lp1781
g68
(g89
g70
NtRp1782
(dp1783
g73
(dp1784
g93
g94
ssg82
g1778
sg75
(lp1785
S'wsgi_url_scheme'
p1786
asbag68
(g89
g70
NtRp1787
(dp1788
g73
(dp1789
g100
g101
ssg82
g1778
sg75
(lp1790
S':'
asbag68
(g89
g70
NtRp1791
(dp1792
g73
(dp1793
sg82
g1778
sg75
(lp1794
g68
(g69
g70
NtRp1795
(dp1796
g73
(dp1797
g81
I4
ssg82
g1791
sg75
(lp1798
S'http'
p1799
asbasbasbag68
(g84
g70
NtRp1800
(dp1801
g73
(dp1802
sg82
g855
sg75
(lp1803
g68
(g89
g70
NtRp1804
(dp1805
g73
(dp1806
g93
g94
ssg82
g1800
sg75
(lp1807
S'wsgi_version'
p1808
asbag68
(g89
g70
NtRp1809
(dp1810
g73
(dp1811
g100
g101
ssg82
g1800
sg75
(lp1812
S':'
asbag68
(g89
g70
NtRp1813
(dp1814
g73
(dp1815
sg82
g1800
sg75
(lp1816
g68
(g69
g70
NtRp1817
(dp1818
g73
(dp1819
g81
I4
ssg82
g1813
sg75
(lp1820
g68
(g77
g70
NtRp1821
(dp1822
g73
(dp1823
g81
I3
ssg82
Nsg75
(lp1824
g68
(g84
g70
NtRp1825
(dp1826
g73
(dp1827
sg82
g1821
sg75
(lp1828
g68
(g89
g70
NtRp1829
(dp1830
g73
(dp1831
sg82
g1825
sg75
(lp1832
g68
(g69
g70
NtRp1833
(dp1834
g73
(dp1835
g81
I3
ssg82
g1829
sg75
(lp1836
S'1'
asbasbasbag68
(g84
g70
NtRp1837
(dp1838
g73
(dp1839
sg82
g1821
sg75
(lp1840
g68
(g89
g70
NtRp1841
(dp1842
g73
(dp1843
sg82
g1837
sg75
(lp1844
g68
(g69
g70
NtRp1845
(dp1846
g73
(dp1847
g81
I3
ssg82
g1841
sg75
(lp1848
S'0'
asbasbasbasbasbasbasbasbasbasbasbag68
(g84
g70
NtRp1849
(dp1850
g73
(dp1851
sg82
g78
sg75
(lp1852
g68
(g89
g70
NtRp1853
(dp1854
g73
(dp1855
g93
g94
ssg82
g1849
sg75
(lp1856
S'extension'
p1857
asbag68
(g89
g70
NtRp1858
(dp1859
g73
(dp1860
g100
g101
ssg82
g1849
sg75
(lp1861
S':'
asbag68
(g89
g70
NtRp1862
(dp1863
g73
(dp1864
sg82
g1849
sg75
(lp1865
g68
(g69
g70
NtRp1866
(dp1867
g73
(dp1868
g81
I5
ssg82
g1862
sg75
(lp1869
S'load'
p1870
asbasbasbag68
(g84
g70
NtRp1871
(dp1872
g73
(dp1873
sg82
g78
sg75
(lp1874
g68
(g89
g70
NtRp1875
(dp1876
g73
(dp1877
g93
g94
ssg82
g1871
sg75
(lp1878
S'folder'
p1879
asbag68
(g89
g70
NtRp1880
(dp1881
g73
(dp1882
g100
g101
ssg82
g1871
sg75
(lp1883
S':'
asbag68
(g89
g70
NtRp1884
(dp1885
g73
(dp1886
sg82
g1871
sg75
(lp1887
g68
(g69
g70
NtRp1888
(dp1889
g73
(dp1890
g81
I5
ssg82
g1884
sg75
(lp1891
S'/home/ian/web2py/applications/places/'
p1892
asbasbasbag68
(g84
g70
NtRp1893
(dp1894
g73
(dp1895
sg82
g78
sg75
(lp1896
g68
(g89
g70
NtRp1897
(dp1898
g73
(dp1899
g93
g94
ssg82
g1893
sg75
(lp1900
S'function'
p1901
asbag68
(g89
g70
NtRp1902
(dp1903
g73
(dp1904
g100
g101
ssg82
g1893
sg75
(lp1905
S':'
asbag68
(g89
g70
NtRp1906
(dp1907
g73
(dp1908
sg82
g1893
sg75
(lp1909
g68
(g69
g70
NtRp1910
(dp1911
g73
(dp1912
g81
I5
ssg82
g1906
sg75
(lp1913
S'index'
p1914
asbasbasbag68
(g84
g70
NtRp1915
(dp1916
g73
(dp1917
sg82
g78
sg75
(lp1918
g68
(g89
g70
NtRp1919
(dp1920
g73
(dp1921
g93
g94
ssg82
g1915
sg75
(lp1922
S'get_vars'
p1923
asbag68
(g89
g70
NtRp1924
(dp1925
g73
(dp1926
g100
g101
ssg82
g1915
sg75
(lp1927
S':'
asbag68
(g89
g70
NtRp1928
(dp1929
g73
(dp1930
sg82
g1915
sg75
(lp1931
g68
(g69
g70
NtRp1932
(dp1933
g73
(dp1934
g81
I5
ssg82
g1928
sg75
(lp1935
g68
(g77
g70
NtRp1936
(dp1937
g73
(dp1938
g81
I4
ssg82
Nsg75
(lp1939
g68
(g84
g70
NtRp1940
(dp1941
g73
(dp1942
sg82
g1936
sg75
(lp1943
g68
(g89
g70
NtRp1944
(dp1945
g73
(dp1946
g93
g94
ssg82
g1940
sg75
(lp1947
S'the_view'
p1948
asbag68
(g89
g70
NtRp1949
(dp1950
g73
(dp1951
g100
g101
ssg82
g1940
sg75
(lp1952
S':'
asbag68
(g89
g70
NtRp1953
(dp1954
g73
(dp1955
sg82
g1940
sg75
(lp1956
g68
(g69
g70
NtRp1957
(dp1958
g73
(dp1959
g81
I4
ssg82
g1953
sg75
(lp1960
S'kitchen'
p1961
asbasbasbasbasbasbasbag68
(g84
g70
NtRp1962
(dp1963
g73
(dp1964
sg82
g78
sg75
(lp1965
g68
(g89
g70
NtRp1966
(dp1967
g73
(dp1968
g93
g94
ssg82
g1962
sg75
(lp1969
S'global_settings'
p1970
asbag68
(g89
g70
NtRp1971
(dp1972
g73
(dp1973
g100
g101
ssg82
g1962
sg75
(lp1974
S':'
asbag68
(g89
g70
NtRp1975
(dp1976
g73
(dp1977
sg82
g1962
sg75
(lp1978
g68
(g69
g70
NtRp1979
(dp1980
g73
(dp1981
g81
I5
ssg82
g1975
sg75
(lp1982
g68
(g77
g70
NtRp1983
(dp1984
g73
(dp1985
g81
I4
ssg82
Nsg75
(lp1986
g68
(g84
g70
NtRp1987
(dp1988
g73
(dp1989
sg82
g1983
sg75
(lp1990
g68
(g89
g70
NtRp1991
(dp1992
g73
(dp1993
g93
g94
ssg82
g1987
sg75
(lp1994
g867
asbag68
(g89
g70
NtRp1995
(dp1996
g73
(dp1997
g100
g101
ssg82
g1987
sg75
(lp1998
S':'
asbag68
(g89
g70
NtRp1999
(dp2000
g73
(dp2001
sg82
g1987
sg75
(lp2002
g68
(g69
g70
NtRp2003
(dp2004
g73
(dp2005
g81
I4
ssg82
g1999
sg75
(lp2006
S"set(['/home/ian/web2py/applications/welcome/', '/home/ian/web2py/applications/places/', '/home/ian/web2py/applications/admin/'])"
p2007
asbasbasbag68
(g84
g70
NtRp2008
(dp2009
g73
(dp2010
sg82
g1983
sg75
(lp2011
g68
(g89
g70
NtRp2012
(dp2013
g73
(dp2014
g93
g94
ssg82
g2008
sg75
(lp2015
g889
asbag68
(g89
g70
NtRp2016
(dp2017
g73
(dp2018
g100
g101
ssg82
g2008
sg75
(lp2019
S':'
asbag68
(g89
g70
NtRp2020
(dp2021
g73
(dp2022
sg82
g2008
sg75
(lp2023
g68
(g69
g70
NtRp2024
(dp2025
g73
(dp2026
g81
I4
ssg82
g2020
sg75
(lp2027
g902
asbasbasbag68
(g84
g70
NtRp2028
(dp2029
g73
(dp2030
sg82
g1983
sg75
(lp2031
g68
(g89
g70
NtRp2032
(dp2033
g73
(dp2034
g93
g94
ssg82
g2028
sg75
(lp2035
g911
asbag68
(g89
g70
NtRp2036
(dp2037
g73
(dp2038
g100
g101
ssg82
g2028
sg75
(lp2039
S':'
asbag68
(g89
g70
NtRp2040
(dp2041
g73
(dp2042
sg82
g2028
sg75
(lp2043
g68
(g69
g70
NtRp2044
(dp2045
g73
(dp2046
g81
I4
ssg82
g2040
sg75
(lp2047
g68
(g77
g70
NtRp2048
(dp2049
g73
(dp2050
g81
I3
ssg82
Nsg75
(lp2051
sbasbasbasbag68
(g84
g70
NtRp2052
(dp2053
g73
(dp2054
sg82
g1983
sg75
(lp2055
g68
(g89
g70
NtRp2056
(dp2057
g73
(dp2058
g93
g94
ssg82
g2052
sg75
(lp2059
g936
asbag68
(g89
g70
NtRp2060
(dp2061
g73
(dp2062
g100
g101
ssg82
g2052
sg75
(lp2063
S':'
asbag68
(g89
g70
NtRp2064
(dp2065
g73
(dp2066
sg82
g2052
sg75
(lp2067
g68
(g69
g70
NtRp2068
(dp2069
g73
(dp2070
g81
I4
ssg82
g2064
sg75
(lp2071
S"<Values at 0x26ccbd8: {'verbose': False, 'ip': '127.0.0.1', 'shutdown_timeout': 5, 'taskbar': False, 'nocron': False, 'pid_filename': 'httpserver.pid', 'maxthreads': None, 'softcron': False, 'server_name': 'Ariel-ubuntu', 'bpython': False, 'nogui': False, 'port': 8000, 'extcron': False, 'debuglevel': 30, 'test': None, 'folder': '/home/ian/web2py', 'config': '', 'import_models': False, 'winservice': '', 'shell': None, 'run': '', 'log_filename': 'httpserver.log', 'args': [''], 'ssl_ca_certificate': None, 'scheduler': None, 'profiler_filename': None, 'ssl_private_key': '', 'password': '<ask>', 'request_queue_size': 5, 'ssl_certificate': '', 'cronjob': False, 'plain': False, 'quiet': False, 'interfaces': None, 'minthreads': None, 'timeout': 10, 'numthreads': None, 'nobanner': False}>"
p2072
asbasbasbag68
(g84
g70
NtRp2073
(dp2074
g73
(dp2075
sg82
g1983
sg75
(lp2076
g68
(g89
g70
NtRp2077
(dp2078
g73
(dp2079
g93
g94
ssg82
g2073
sg75
(lp2080
g958
asbag68
(g89
g70
NtRp2081
(dp2082
g73
(dp2083
g100
g101
ssg82
g2073
sg75
(lp2084
S':'
asbag68
(g89
g70
NtRp2085
(dp2086
g73
(dp2087
sg82
g2073
sg75
(lp2088
g68
(g69
g70
NtRp2089
(dp2090
g73
(dp2091
g81
I4
ssg82
g2085
sg75
(lp2092
S'set([])'
p2093
asbasbasbag68
(g84
g70
NtRp2094
(dp2095
g73
(dp2096
sg82
g1983
sg75
(lp2097
g68
(g89
g70
NtRp2098
(dp2099
g73
(dp2100
g93
g94
ssg82
g2094
sg75
(lp2101
g980
asbag68
(g89
g70
NtRp2102
(dp2103
g73
(dp2104
g100
g101
ssg82
g2094
sg75
(lp2105
S':'
asbag68
(g89
g70
NtRp2106
(dp2107
g73
(dp2108
sg82
g2094
sg75
(lp2109
g68
(g69
g70
NtRp2110
(dp2111
g73
(dp2112
g81
I4
ssg82
g2106
sg75
(lp2113
g993
asbasbasbag68
(g84
g70
NtRp2114
(dp2115
g73
(dp2116
sg82
g1983
sg75
(lp2117
g68
(g89
g70
NtRp2118
(dp2119
g73
(dp2120
g93
g94
ssg82
g2114
sg75
(lp2121
g1002
asbag68
(g89
g70
NtRp2122
(dp2123
g73
(dp2124
g100
g101
ssg82
g2114
sg75
(lp2125
S':'
asbag68
(g89
g70
NtRp2126
(dp2127
g73
(dp2128
sg82
g2114
sg75
(lp2129
g68
(g69
g70
NtRp2130
(dp2131
g73
(dp2132
g81
I4
ssg82
g2126
sg75
(lp2133
g1015
asbasbasbag68
(g84
g70
NtRp2134
(dp2135
g73
(dp2136
sg82
g1983
sg75
(lp2137
g68
(g89
g70
NtRp2138
(dp2139
g73
(dp2140
g93
g94
ssg82
g2134
sg75
(lp2141
g1287
asbag68
(g89
g70
NtRp2142
(dp2143
g73
(dp2144
g100
g101
ssg82
g2134
sg75
(lp2145
S':'
asbag68
(g89
g70
NtRp2146
(dp2147
g73
(dp2148
sg82
g2134
sg75
(lp2149
g68
(g69
g70
NtRp2150
(dp2151
g73
(dp2152
g81
I4
ssg82
g2146
sg75
(lp2153
g993
asbasbasbag68
(g84
g70
NtRp2154
(dp2155
g73
(dp2156
sg82
g1983
sg75
(lp2157
g68
(g89
g70
NtRp2158
(dp2159
g73
(dp2160
g93
g94
ssg82
g2154
sg75
(lp2161
g1526
asbag68
(g89
g70
NtRp2162
(dp2163
g73
(dp2164
g100
g101
ssg82
g2154
sg75
(lp2165
S':'
asbag68
(g89
g70
NtRp2166
(dp2167
g73
(dp2168
sg82
g2154
sg75
(lp2169
g68
(g69
g70
NtRp2170
(dp2171
g73
(dp2172
g81
I4
ssg82
g2166
sg75
(lp2173
g1539
asbasbasbag68
(g84
g70
NtRp2174
(dp2175
g73
(dp2176
sg82
g1983
sg75
(lp2177
g68
(g89
g70
NtRp2178
(dp2179
g73
(dp2180
g93
g94
ssg82
g2174
sg75
(lp2181
g1569
asbag68
(g89
g70
NtRp2182
(dp2183
g73
(dp2184
g100
g101
ssg82
g2174
sg75
(lp2185
S':'
asbag68
(g89
g70
NtRp2186
(dp2187
g73
(dp2188
sg82
g2174
sg75
(lp2189
g68
(g69
g70
NtRp2190
(dp2191
g73
(dp2192
g81
I4
ssg82
g2186
sg75
(lp2193
g68
(g77
g70
NtRp2194
(dp2195
g73
(dp2196
g81
I3
ssg82
Nsg75
(lp2197
g68
(g84
g70
NtRp2198
(dp2199
g73
(dp2200
sg82
g2194
sg75
(lp2201
g68
(g89
g70
NtRp2202
(dp2203
g73
(dp2204
sg82
g2198
sg75
(lp2205
g68
(g69
g70
NtRp2206
(dp2207
g73
(dp2208
g81
I3
ssg82
g2202
sg75
(lp2209
S'1'
asbasbasbag68
(g84
g70
NtRp2210
(dp2211
g73
(dp2212
sg82
g2194
sg75
(lp2213
g68
(g89
g70
NtRp2214
(dp2215
g73
(dp2216
sg82
g2210
sg75
(lp2217
g68
(g69
g70
NtRp2218
(dp2219
g73
(dp2220
g81
I3
ssg82
g2214
sg75
(lp2221
S'99'
p2222
asbasbasbag68
(g84
g70
NtRp2223
(dp2224
g73
(dp2225
sg82
g2194
sg75
(lp2226
g68
(g89
g70
NtRp2227
(dp2228
g73
(dp2229
sg82
g2223
sg75
(lp2230
g68
(g69
g70
NtRp2231
(dp2232
g73
(dp2233
g81
I3
ssg82
g2227
sg75
(lp2234
S'2'
asbasbasbag68
(g84
g70
NtRp2235
(dp2236
g73
(dp2237
sg82
g2194
sg75
(lp2238
g68
(g89
g70
NtRp2239
(dp2240
g73
(dp2241
sg82
g2235
sg75
(lp2242
g68
(g69
g70
NtRp2243
(dp2244
g73
(dp2245
g81
I3
ssg82
g2239
sg75
(lp2246
S'datetime.datetime(2011, 9, 26, 6, 55, 33)'
p2247
asbasbasbag68
(g84
g70
NtRp2248
(dp2249
g73
(dp2250
sg82
g2194
sg75
(lp2251
g68
(g89
g70
NtRp2252
(dp2253
g73
(dp2254
sg82
g2248
sg75
(lp2255
g68
(g69
g70
NtRp2256
(dp2257
g73
(dp2258
g81
I3
ssg82
g2252
sg75
(lp2259
g1648
asbasbasbasbasbasbasbasbasbasbasbag68
(g84
g70
NtRp2260
(dp2261
g73
(dp2262
sg82
g78
sg75
(lp2263
g68
(g89
g70
NtRp2264
(dp2265
g73
(dp2266
g93
g94
ssg82
g2260
sg75
(lp2267
S'is_https'
p2268
asbag68
(g89
g70
NtRp2269
(dp2270
g73
(dp2271
g100
g101
ssg82
g2260
sg75
(lp2272
S':'
asbag68
(g89
g70
NtRp2273
(dp2274
g73
(dp2275
sg82
g2260
sg75
(lp2276
g68
(g69
g70
NtRp2277
(dp2278
g73
(dp2279
g81
I5
ssg82
g2273
sg75
(lp2280
g993
asbasbasbag68
(g84
g70
NtRp2281
(dp2282
g73
(dp2283
sg82
g78
sg75
(lp2284
g68
(g89
g70
NtRp2285
(dp2286
g73
(dp2287
g93
g94
ssg82
g2281
sg75
(lp2288
S'is_local'
p2289
asbag68
(g89
g70
NtRp2290
(dp2291
g73
(dp2292
g100
g101
ssg82
g2281
sg75
(lp2293
S':'
asbag68
(g89
g70
NtRp2294
(dp2295
g73
(dp2296
sg82
g2281
sg75
(lp2297
g68
(g69
g70
NtRp2298
(dp2299
g73
(dp2300
g81
I5
ssg82
g2294
sg75
(lp2301
g111
asbasbasbag68
(g84
g70
NtRp2302
(dp2303
g73
(dp2304
sg82
g78
sg75
(lp2305
g68
(g89
g70
NtRp2306
(dp2307
g73
(dp2308
g93
g94
ssg82
g2302
sg75
(lp2309
S'is_restful'
p2310
asbag68
(g89
g70
NtRp2311
(dp2312
g73
(dp2313
g100
g101
ssg82
g2302
sg75
(lp2314
S':'
asbag68
(g89
g70
NtRp2315
(dp2316
g73
(dp2317
sg82
g2302
sg75
(lp2318
g68
(g69
g70
NtRp2319
(dp2320
g73
(dp2321
g81
I5
ssg82
g2315
sg75
(lp2322
g993
asbasbasbag68
(g84
g70
NtRp2323
(dp2324
g73
(dp2325
sg82
g78
sg75
(lp2326
g68
(g89
g70
NtRp2327
(dp2328
g73
(dp2329
g93
g94
ssg82
g2323
sg75
(lp2330
S'now'
p2331
asbag68
(g89
g70
NtRp2332
(dp2333
g73
(dp2334
g100
g101
ssg82
g2323
sg75
(lp2335
S':'
asbag68
(g89
g70
NtRp2336
(dp2337
g73
(dp2338
sg82
g2323
sg75
(lp2339
g68
(g69
g70
NtRp2340
(dp2341
g73
(dp2342
g81
I5
ssg82
g2336
sg75
(lp2343
S'datetime.datetime(2011, 10, 2, 21, 8, 54, 65559)'
p2344
asbasbasbag68
(g84
g70
NtRp2345
(dp2346
g73
(dp2347
sg82
g78
sg75
(lp2348
g68
(g89
g70
NtRp2349
(dp2350
g73
(dp2351
g93
g94
ssg82
g2345
sg75
(lp2352
S'post_vars'
p2353
asbag68
(g89
g70
NtRp2354
(dp2355
g73
(dp2356
g100
g101
ssg82
g2345
sg75
(lp2357
S':'
asbag68
(g89
g70
NtRp2358
(dp2359
g73
(dp2360
sg82
g2345
sg75
(lp2361
g68
(g69
g70
NtRp2362
(dp2363
g73
(dp2364
g81
I5
ssg82
g2358
sg75
(lp2365
g68
(g77
g70
NtRp2366
(dp2367
g73
(dp2368
g81
I4
ssg82
Nsg75
(lp2369
sbasbasbasbag68
(g84
g70
NtRp2370
(dp2371
g73
(dp2372
sg82
g78
sg75
(lp2373
g68
(g89
g70
NtRp2374
(dp2375
g73
(dp2376
g93
g94
ssg82
g2370
sg75
(lp2377
S'raw_extension'
p2378
asbag68
(g89
g70
NtRp2379
(dp2380
g73
(dp2381
g100
g101
ssg82
g2370
sg75
(lp2382
S':'
asbag68
(g89
g70
NtRp2383
(dp2384
g73
(dp2385
sg82
g2370
sg75
(lp2386
g68
(g69
g70
NtRp2387
(dp2388
g73
(dp2389
g81
I5
ssg82
g2383
sg75
(lp2390
g1870
asbasbasbag68
(g84
g70
NtRp2391
(dp2392
g73
(dp2393
sg82
g78
sg75
(lp2394
g68
(g89
g70
NtRp2395
(dp2396
g73
(dp2397
g93
g94
ssg82
g2391
sg75
(lp2398
S'url'
p2399
asbag68
(g89
g70
NtRp2400
(dp2401
g73
(dp2402
g100
g101
ssg82
g2391
sg75
(lp2403
S':'
asbag68
(g89
g70
NtRp2404
(dp2405
g73
(dp2406
sg82
g2391
sg75
(lp2407
g68
(g69
g70
NtRp2408
(dp2409
g73
(dp2410
g81
I5
ssg82
g2404
sg75
(lp2411
S'/places/default/index.load'
p2412
asbasbasbag68
(g84
g70
NtRp2413
(dp2414
g73
(dp2415
sg82
g78
sg75
(lp2416
g68
(g89
g70
NtRp2417
(dp2418
g73
(dp2419
g93
g94
ssg82
g2413
sg75
(lp2420
S'utcnow'
p2421
asbag68
(g89
g70
NtRp2422
(dp2423
g73
(dp2424
g100
g101
ssg82
g2413
sg75
(lp2425
S':'
asbag68
(g89
g70
NtRp2426
(dp2427
g73
(dp2428
sg82
g2413
sg75
(lp2429
g68
(g69
g70
NtRp2430
(dp2431
g73
(dp2432
g81
I5
ssg82
g2426
sg75
(lp2433
S'datetime.datetime(2011, 10, 3, 1, 8, 54, 65607)'
p2434
asbasbasbag68
(g84
g70
NtRp2435
(dp2436
g73
(dp2437
sg82
g78
sg75
(lp2438
g68
(g89
g70
NtRp2439
(dp2440
g73
(dp2441
g93
g94
ssg82
g2435
sg75
(lp2442
S'uuid'
p2443
asbag68
(g89
g70
NtRp2444
(dp2445
g73
(dp2446
g100
g101
ssg82
g2435
sg75
(lp2447
S':'
asbag68
(g89
g70
NtRp2448
(dp2449
g73
(dp2450
sg82
g2435
sg75
(lp2451
g68
(g69
g70
NtRp2452
(dp2453
g73
(dp2454
g81
I5
ssg82
g2448
sg75
(lp2455
S'places/127.0.0.1.2011-10-02.21-08-54.8626396f-1215-45f8-af31-dafd605e7f39'
p2456
asbasbasbag68
(g84
g70
NtRp2457
(dp2458
g73
(dp2459
sg82
g78
sg75
(lp2460
g68
(g89
g70
NtRp2461
(dp2462
g73
(dp2463
g93
g94
ssg82
g2457
sg75
(lp2464
S'vars'
p2465
asbag68
(g89
g70
NtRp2466
(dp2467
g73
(dp2468
g100
g101
ssg82
g2457
sg75
(lp2469
S':'
asbag68
(g89
g70
NtRp2470
(dp2471
g73
(dp2472
sg82
g2457
sg75
(lp2473
g68
(g69
g70
NtRp2474
(dp2475
g73
(dp2476
g81
I5
ssg82
g2470
sg75
(lp2477
g68
(g77
g70
NtRp2478
(dp2479
g73
(dp2480
g81
I4
ssg82
Nsg75
(lp2481
g68
(g84
g70
NtRp2482
(dp2483
g73
(dp2484
sg82
g2478
sg75
(lp2485
g68
(g89
g70
NtRp2486
(dp2487
g73
(dp2488
g93
g94
ssg82
g2482
sg75
(lp2489
g1948
asbag68
(g89
g70
NtRp2490
(dp2491
g73
(dp2492
g100
g101
ssg82
g2482
sg75
(lp2493
S':'
asbag68
(g89
g70
NtRp2494
(dp2495
g73
(dp2496
sg82
g2482
sg75
(lp2497
g68
(g69
g70
NtRp2498
(dp2499
g73
(dp2500
g81
I4
ssg82
g2494
sg75
(lp2501
g1961
asbasbasbasbasbasbasbag68
(g84
g70
NtRp2502
(dp2503
g73
(dp2504
sg82
g78
sg75
(lp2505
g68
(g89
g70
NtRp2506
(dp2507
g73
(dp2508
g93
g94
ssg82
g2502
sg75
(lp2509
S'wsgi'
p2510
asbag68
(g89
g70
NtRp2511
(dp2512
g73
(dp2513
g100
g101
ssg82
g2502
sg75
(lp2514
S':'
asbag68
(g89
g70
NtRp2515
(dp2516
g73
(dp2517
sg82
g2502
sg75
(lp2518
g68
(g69
g70
NtRp2519
(dp2520
g73
(dp2521
g81
I5
ssg82
g2515
sg75
(lp2522
g68
(g77
g70
NtRp2523
(dp2524
g73
(dp2525
g81
I4
ssg82
Nsg75
(lp2526
g68
(g84
g70
NtRp2527
(dp2528
g73
(dp2529
sg82
g2523
sg75
(lp2530
g68
(g89
g70
NtRp2531
(dp2532
g73
(dp2533
g93
g94
ssg82
g2527
sg75
(lp2534
S'environ'
p2535
asbag68
(g89
g70
NtRp2536
(dp2537
g73
(dp2538
g100
g101
ssg82
g2527
sg75
(lp2539
S':'
asbag68
(g89
g70
NtRp2540
(dp2541
g73
(dp2542
sg82
g2527
sg75
(lp2543
g68
(g69
g70
NtRp2544
(dp2545
g73
(dp2546
g81
I4
ssg82
g2540
sg75
(lp2547
g68
(g77
g70
NtRp2548
(dp2549
g73
(dp2550
g81
I3
ssg82
Nsg75
(lp2551
g68
(g84
g70
NtRp2552
(dp2553
g73
(dp2554
sg82
g2548
sg75
(lp2555
g68
(g89
g70
NtRp2556
(dp2557
g73
(dp2558
g93
g94
ssg82
g2552
sg75
(lp2559
S'HTTP_ACCEPT'
p2560
asbag68
(g89
g70
NtRp2561
(dp2562
g73
(dp2563
g100
g101
ssg82
g2552
sg75
(lp2564
S':'
asbag68
(g89
g70
NtRp2565
(dp2566
g73
(dp2567
sg82
g2552
sg75
(lp2568
g68
(g69
g70
NtRp2569
(dp2570
g73
(dp2571
g81
I3
ssg82
g2565
sg75
(lp2572
g1037
asbasbasbag68
(g84
g70
NtRp2573
(dp2574
g73
(dp2575
sg82
g2548
sg75
(lp2576
g68
(g89
g70
NtRp2577
(dp2578
g73
(dp2579
g93
g94
ssg82
g2573
sg75
(lp2580
S'HTTP_ACCEPT_CHARSET'
p2581
asbag68
(g89
g70
NtRp2582
(dp2583
g73
(dp2584
g100
g101
ssg82
g2573
sg75
(lp2585
S':'
asbag68
(g89
g70
NtRp2586
(dp2587
g73
(dp2588
sg82
g2573
sg75
(lp2589
g68
(g69
g70
NtRp2590
(dp2591
g73
(dp2592
g81
I3
ssg82
g2586
sg75
(lp2593
g1059
asbasbasbag68
(g84
g70
NtRp2594
(dp2595
g73
(dp2596
sg82
g2548
sg75
(lp2597
g68
(g89
g70
NtRp2598
(dp2599
g73
(dp2600
g93
g94
ssg82
g2594
sg75
(lp2601
S'HTTP_ACCEPT_ENCODING'
p2602
asbag68
(g89
g70
NtRp2603
(dp2604
g73
(dp2605
g100
g101
ssg82
g2594
sg75
(lp2606
S':'
asbag68
(g89
g70
NtRp2607
(dp2608
g73
(dp2609
sg82
g2594
sg75
(lp2610
g68
(g69
g70
NtRp2611
(dp2612
g73
(dp2613
g81
I3
ssg82
g2607
sg75
(lp2614
g1081
asbasbasbag68
(g84
g70
NtRp2615
(dp2616
g73
(dp2617
sg82
g2548
sg75
(lp2618
g68
(g89
g70
NtRp2619
(dp2620
g73
(dp2621
g93
g94
ssg82
g2615
sg75
(lp2622
S'HTTP_ACCEPT_LANGUAGE'
p2623
asbag68
(g89
g70
NtRp2624
(dp2625
g73
(dp2626
g100
g101
ssg82
g2615
sg75
(lp2627
S':'
asbag68
(g89
g70
NtRp2628
(dp2629
g73
(dp2630
sg82
g2615
sg75
(lp2631
g68
(g69
g70
NtRp2632
(dp2633
g73
(dp2634
g81
I3
ssg82
g2628
sg75
(lp2635
g1103
asbasbasbag68
(g84
g70
NtRp2636
(dp2637
g73
(dp2638
sg82
g2548
sg75
(lp2639
g68
(g89
g70
NtRp2640
(dp2641
g73
(dp2642
g93
g94
ssg82
g2636
sg75
(lp2643
S'HTTP_CONNECTION'
p2644
asbag68
(g89
g70
NtRp2645
(dp2646
g73
(dp2647
g100
g101
ssg82
g2636
sg75
(lp2648
S':'
asbag68
(g89
g70
NtRp2649
(dp2650
g73
(dp2651
sg82
g2636
sg75
(lp2652
g68
(g69
g70
NtRp2653
(dp2654
g73
(dp2655
g81
I3
ssg82
g2649
sg75
(lp2656
g1125
asbasbasbag68
(g84
g70
NtRp2657
(dp2658
g73
(dp2659
sg82
g2548
sg75
(lp2660
g68
(g89
g70
NtRp2661
(dp2662
g73
(dp2663
g93
g94
ssg82
g2657
sg75
(lp2664
S'HTTP_COOKIE'
p2665
asbag68
(g89
g70
NtRp2666
(dp2667
g73
(dp2668
g100
g101
ssg82
g2657
sg75
(lp2669
S':'
asbag68
(g89
g70
NtRp2670
(dp2671
g73
(dp2672
sg82
g2657
sg75
(lp2673
g68
(g69
g70
NtRp2674
(dp2675
g73
(dp2676
g81
I3
ssg82
g2670
sg75
(lp2677
g1147
asbasbasbag68
(g84
g70
NtRp2678
(dp2679
g73
(dp2680
sg82
g2548
sg75
(lp2681
g68
(g89
g70
NtRp2682
(dp2683
g73
(dp2684
g93
g94
ssg82
g2678
sg75
(lp2685
S'HTTP_HOST'
p2686
asbag68
(g89
g70
NtRp2687
(dp2688
g73
(dp2689
g100
g101
ssg82
g2678
sg75
(lp2690
S':'
asbag68
(g89
g70
NtRp2691
(dp2692
g73
(dp2693
sg82
g2678
sg75
(lp2694
g68
(g69
g70
NtRp2695
(dp2696
g73
(dp2697
g81
I3
ssg82
g2691
sg75
(lp2698
g1169
asbasbasbag68
(g84
g70
NtRp2699
(dp2700
g73
(dp2701
sg82
g2548
sg75
(lp2702
g68
(g89
g70
NtRp2703
(dp2704
g73
(dp2705
g93
g94
ssg82
g2699
sg75
(lp2706
S'HTTP_REFERER'
p2707
asbag68
(g89
g70
NtRp2708
(dp2709
g73
(dp2710
g100
g101
ssg82
g2699
sg75
(lp2711
S':'
asbag68
(g89
g70
NtRp2712
(dp2713
g73
(dp2714
sg82
g2699
sg75
(lp2715
g68
(g69
g70
NtRp2716
(dp2717
g73
(dp2718
g81
I3
ssg82
g2712
sg75
(lp2719
g1191
asbasbasbag68
(g84
g70
NtRp2720
(dp2721
g73
(dp2722
sg82
g2548
sg75
(lp2723
g68
(g89
g70
NtRp2724
(dp2725
g73
(dp2726
g93
g94
ssg82
g2720
sg75
(lp2727
S'HTTP_USER_AGENT'
p2728
asbag68
(g89
g70
NtRp2729
(dp2730
g73
(dp2731
g100
g101
ssg82
g2720
sg75
(lp2732
S':'
asbag68
(g89
g70
NtRp2733
(dp2734
g73
(dp2735
sg82
g2720
sg75
(lp2736
g68
(g69
g70
NtRp2737
(dp2738
g73
(dp2739
g81
I3
ssg82
g2733
sg75
(lp2740
g1213
asbasbasbag68
(g84
g70
NtRp2741
(dp2742
g73
(dp2743
sg82
g2548
sg75
(lp2744
g68
(g89
g70
NtRp2745
(dp2746
g73
(dp2747
g93
g94
ssg82
g2741
sg75
(lp2748
S'HTTP_WEB2PY_COMPONENT_ELEMENT'
p2749
asbag68
(g89
g70
NtRp2750
(dp2751
g73
(dp2752
g100
g101
ssg82
g2741
sg75
(lp2753
S':'
asbag68
(g89
g70
NtRp2754
(dp2755
g73
(dp2756
sg82
g2741
sg75
(lp2757
g68
(g69
g70
NtRp2758
(dp2759
g73
(dp2760
g81
I3
ssg82
g2754
sg75
(lp2761
g201
asbasbasbag68
(g84
g70
NtRp2762
(dp2763
g73
(dp2764
sg82
g2548
sg75
(lp2765
g68
(g89
g70
NtRp2766
(dp2767
g73
(dp2768
g93
g94
ssg82
g2762
sg75
(lp2769
S'HTTP_WEB2PY_COMPONENT_LOCATION'
p2770
asbag68
(g89
g70
NtRp2771
(dp2772
g73
(dp2773
g100
g101
ssg82
g2762
sg75
(lp2774
S':'
asbag68
(g89
g70
NtRp2775
(dp2776
g73
(dp2777
sg82
g2762
sg75
(lp2778
g68
(g69
g70
NtRp2779
(dp2780
g73
(dp2781
g81
I3
ssg82
g2775
sg75
(lp2782
g1256
asbasbasbag68
(g84
g70
NtRp2783
(dp2784
g73
(dp2785
sg82
g2548
sg75
(lp2786
g68
(g89
g70
NtRp2787
(dp2788
g73
(dp2789
g93
g94
ssg82
g2783
sg75
(lp2790
S'HTTP_X_REQUESTED_WITH'
p2791
asbag68
(g89
g70
NtRp2792
(dp2793
g73
(dp2794
g100
g101
ssg82
g2783
sg75
(lp2795
S':'
asbag68
(g89
g70
NtRp2796
(dp2797
g73
(dp2798
sg82
g2783
sg75
(lp2799
g68
(g69
g70
NtRp2800
(dp2801
g73
(dp2802
g81
I3
ssg82
g2796
sg75
(lp2803
g1278
asbasbasbag68
(g84
g70
NtRp2804
(dp2805
g73
(dp2806
sg82
g2548
sg75
(lp2807
g68
(g89
g70
NtRp2808
(dp2809
g73
(dp2810
g93
g94
ssg82
g2804
sg75
(lp2811
S'PATH_INFO'
p2812
asbag68
(g89
g70
NtRp2813
(dp2814
g73
(dp2815
g100
g101
ssg82
g2804
sg75
(lp2816
S':'
asbag68
(g89
g70
NtRp2817
(dp2818
g73
(dp2819
sg82
g2804
sg75
(lp2820
g68
(g69
g70
NtRp2821
(dp2822
g73
(dp2823
g81
I3
ssg82
g2817
sg75
(lp2824
g1321
asbasbasbag68
(g84
g70
NtRp2825
(dp2826
g73
(dp2827
sg82
g2548
sg75
(lp2828
g68
(g89
g70
NtRp2829
(dp2830
g73
(dp2831
g93
g94
ssg82
g2825
sg75
(lp2832
S'QUERY_STRING'
p2833
asbag68
(g89
g70
NtRp2834
(dp2835
g73
(dp2836
g100
g101
ssg82
g2825
sg75
(lp2837
S':'
asbag68
(g89
g70
NtRp2838
(dp2839
g73
(dp2840
sg82
g2825
sg75
(lp2841
g68
(g69
g70
NtRp2842
(dp2843
g73
(dp2844
g81
I3
ssg82
g2838
sg75
(lp2845
g1343
asbasbasbag68
(g84
g70
NtRp2846
(dp2847
g73
(dp2848
sg82
g2548
sg75
(lp2849
g68
(g89
g70
NtRp2850
(dp2851
g73
(dp2852
g93
g94
ssg82
g2846
sg75
(lp2853
S'REMOTE_ADDR'
p2854
asbag68
(g89
g70
NtRp2855
(dp2856
g73
(dp2857
g100
g101
ssg82
g2846
sg75
(lp2858
S':'
asbag68
(g89
g70
NtRp2859
(dp2860
g73
(dp2861
sg82
g2846
sg75
(lp2862
g68
(g69
g70
NtRp2863
(dp2864
g73
(dp2865
g81
I3
ssg82
g2859
sg75
(lp2866
g223
asbasbasbag68
(g84
g70
NtRp2867
(dp2868
g73
(dp2869
sg82
g2548
sg75
(lp2870
g68
(g89
g70
NtRp2871
(dp2872
g73
(dp2873
g93
g94
ssg82
g2867
sg75
(lp2874
S'REMOTE_PORT'
p2875
asbag68
(g89
g70
NtRp2876
(dp2877
g73
(dp2878
g100
g101
ssg82
g2867
sg75
(lp2879
S':'
asbag68
(g89
g70
NtRp2880
(dp2881
g73
(dp2882
sg82
g2867
sg75
(lp2883
g68
(g69
g70
NtRp2884
(dp2885
g73
(dp2886
g81
I3
ssg82
g2880
sg75
(lp2887
g1386
asbasbasbag68
(g84
g70
NtRp2888
(dp2889
g73
(dp2890
sg82
g2548
sg75
(lp2891
g68
(g89
g70
NtRp2892
(dp2893
g73
(dp2894
g93
g94
ssg82
g2888
sg75
(lp2895
S'REQUEST_METHOD'
p2896
asbag68
(g89
g70
NtRp2897
(dp2898
g73
(dp2899
g100
g101
ssg82
g2888
sg75
(lp2900
S':'
asbag68
(g89
g70
NtRp2901
(dp2902
g73
(dp2903
sg82
g2888
sg75
(lp2904
g68
(g69
g70
NtRp2905
(dp2906
g73
(dp2907
g81
I3
ssg82
g2901
sg75
(lp2908
g1408
asbasbasbag68
(g84
g70
NtRp2909
(dp2910
g73
(dp2911
sg82
g2548
sg75
(lp2912
g68
(g89
g70
NtRp2913
(dp2914
g73
(dp2915
g93
g94
ssg82
g2909
sg75
(lp2916
S'SCRIPT_NAME'
p2917
asbag68
(g89
g70
NtRp2918
(dp2919
g73
(dp2920
g100
g101
ssg82
g2909
sg75
(lp2921
S':'
asbag68
(g89
g70
NtRp2922
(dp2923
g73
(dp2924
sg82
g2909
sg75
(lp2925
g68
(g69
g70
NtRp2926
(dp2927
g73
(dp2928
g81
I3
ssg82
g2922
sg75
(lp2929
S''
asbasbasbag68
(g84
g70
NtRp2930
(dp2931
g73
(dp2932
sg82
g2548
sg75
(lp2933
g68
(g89
g70
NtRp2934
(dp2935
g73
(dp2936
g93
g94
ssg82
g2930
sg75
(lp2937
S'SERVER_NAME'
p2938
asbag68
(g89
g70
NtRp2939
(dp2940
g73
(dp2941
g100
g101
ssg82
g2930
sg75
(lp2942
S':'
asbag68
(g89
g70
NtRp2943
(dp2944
g73
(dp2945
sg82
g2930
sg75
(lp2946
g68
(g69
g70
NtRp2947
(dp2948
g73
(dp2949
g81
I3
ssg82
g2943
sg75
(lp2950
g1451
asbasbasbag68
(g84
g70
NtRp2951
(dp2952
g73
(dp2953
sg82
g2548
sg75
(lp2954
g68
(g89
g70
NtRp2955
(dp2956
g73
(dp2957
g93
g94
ssg82
g2951
sg75
(lp2958
S'SERVER_PORT'
p2959
asbag68
(g89
g70
NtRp2960
(dp2961
g73
(dp2962
g100
g101
ssg82
g2951
sg75
(lp2963
S':'
asbag68
(g89
g70
NtRp2964
(dp2965
g73
(dp2966
sg82
g2951
sg75
(lp2967
g68
(g69
g70
NtRp2968
(dp2969
g73
(dp2970
g81
I3
ssg82
g2964
sg75
(lp2971
g1473
asbasbasbag68
(g84
g70
NtRp2972
(dp2973
g73
(dp2974
sg82
g2548
sg75
(lp2975
g68
(g89
g70
NtRp2976
(dp2977
g73
(dp2978
g93
g94
ssg82
g2972
sg75
(lp2979
S'SERVER_PROTOCOL'
p2980
asbag68
(g89
g70
NtRp2981
(dp2982
g73
(dp2983
g100
g101
ssg82
g2972
sg75
(lp2984
S':'
asbag68
(g89
g70
NtRp2985
(dp2986
g73
(dp2987
sg82
g2972
sg75
(lp2988
g68
(g69
g70
NtRp2989
(dp2990
g73
(dp2991
g81
I3
ssg82
g2985
sg75
(lp2992
g1495
asbasbasbag68
(g84
g70
NtRp2993
(dp2994
g73
(dp2995
sg82
g2548
sg75
(lp2996
g68
(g89
g70
NtRp2997
(dp2998
g73
(dp2999
g93
g94
ssg82
g2993
sg75
(lp3000
S'SERVER_SOFTWARE'
p3001
asbag68
(g89
g70
NtRp3002
(dp3003
g73
(dp3004
g100
g101
ssg82
g2993
sg75
(lp3005
S':'
asbag68
(g89
g70
NtRp3006
(dp3007
g73
(dp3008
sg82
g2993
sg75
(lp3009
g68
(g69
g70
NtRp3010
(dp3011
g73
(dp3012
g81
I3
ssg82
g3006
sg75
(lp3013
g1517
asbasbasbag68
(g84
g70
NtRp3014
(dp3015
g73
(dp3016
sg82
g2548
sg75
(lp3017
g68
(g89
g70
NtRp3018
(dp3019
g73
(dp3020
g93
g94
ssg82
g3014
sg75
(lp3021
S'wsgi.errors'
p3022
asbag68
(g89
g70
NtRp3023
(dp3024
g73
(dp3025
g100
g101
ssg82
g3014
sg75
(lp3026
S':'
asbag68
(g89
g70
NtRp3027
(dp3028
g73
(dp3029
sg82
g3014
sg75
(lp3030
g68
(g69
g70
NtRp3031
(dp3032
g73
(dp3033
g81
I3
ssg82
g3027
sg75
(lp3034
S"<open file '<stderr>', mode 'w' at 0x7f6d3a48b270>"
p3035
asbasbasbag68
(g84
g70
NtRp3036
(dp3037
g73
(dp3038
sg82
g2548
sg75
(lp3039
g68
(g89
g70
NtRp3040
(dp3041
g73
(dp3042
g93
g94
ssg82
g3036
sg75
(lp3043
S'wsgi.file_wrapper'
p3044
asbag68
(g89
g70
NtRp3045
(dp3046
g73
(dp3047
g100
g101
ssg82
g3036
sg75
(lp3048
S':'
asbag68
(g89
g70
NtRp3049
(dp3050
g73
(dp3051
sg82
g3036
sg75
(lp3052
g68
(g69
g70
NtRp3053
(dp3054
g73
(dp3055
g81
I3
ssg82
g3049
sg75
(lp3056
S'<class wsgiref.util.FileWrapper at 0x25957a0>'
p3057
asbasbasbag68
(g84
g70
NtRp3058
(dp3059
g73
(dp3060
sg82
g2548
sg75
(lp3061
g68
(g89
g70
NtRp3062
(dp3063
g73
(dp3064
g93
g94
ssg82
g3058
sg75
(lp3065
S'wsgi.input'
p3066
asbag68
(g89
g70
NtRp3067
(dp3068
g73
(dp3069
g100
g101
ssg82
g3058
sg75
(lp3070
S':'
asbag68
(g89
g70
NtRp3071
(dp3072
g73
(dp3073
sg82
g3058
sg75
(lp3074
g68
(g69
g70
NtRp3075
(dp3076
g73
(dp3077
g81
I3
ssg82
g3071
sg75
(lp3078
S'<cStringIO.StringO object at 0x2ea06f8>'
p3079
asbasbasbag68
(g84
g70
NtRp3080
(dp3081
g73
(dp3082
sg82
g2548
sg75
(lp3083
g68
(g89
g70
NtRp3084
(dp3085
g73
(dp3086
g93
g94
ssg82
g3080
sg75
(lp3087
S'wsgi.multiprocess'
p3088
asbag68
(g89
g70
NtRp3089
(dp3090
g73
(dp3091
g100
g101
ssg82
g3080
sg75
(lp3092
S':'
asbag68
(g89
g70
NtRp3093
(dp3094
g73
(dp3095
sg82
g3080
sg75
(lp3096
g68
(g69
g70
NtRp3097
(dp3098
g73
(dp3099
g81
I3
ssg82
g3093
sg75
(lp3100
g993
asbasbasbag68
(g84
g70
NtRp3101
(dp3102
g73
(dp3103
sg82
g2548
sg75
(lp3104
g68
(g89
g70
NtRp3105
(dp3106
g73
(dp3107
g93
g94
ssg82
g3101
sg75
(lp3108
S'wsgi.multithread'
p3109
asbag68
(g89
g70
NtRp3110
(dp3111
g73
(dp3112
g100
g101
ssg82
g3101
sg75
(lp3113
S':'
asbag68
(g89
g70
NtRp3114
(dp3115
g73
(dp3116
sg82
g3101
sg75
(lp3117
g68
(g69
g70
NtRp3118
(dp3119
g73
(dp3120
g81
I3
ssg82
g3114
sg75
(lp3121
g111
asbasbasbag68
(g84
g70
NtRp3122
(dp3123
g73
(dp3124
sg82
g2548
sg75
(lp3125
g68
(g89
g70
NtRp3126
(dp3127
g73
(dp3128
g93
g94
ssg82
g3122
sg75
(lp3129
S'wsgi.run_once'
p3130
asbag68
(g89
g70
NtRp3131
(dp3132
g73
(dp3133
g100
g101
ssg82
g3122
sg75
(lp3134
S':'
asbag68
(g89
g70
NtRp3135
(dp3136
g73
(dp3137
sg82
g3122
sg75
(lp3138
g68
(g69
g70
NtRp3139
(dp3140
g73
(dp3141
g81
I3
ssg82
g3135
sg75
(lp3142
g993
asbasbasbag68
(g84
g70
NtRp3143
(dp3144
g73
(dp3145
sg82
g2548
sg75
(lp3146
g68
(g89
g70
NtRp3147
(dp3148
g73
(dp3149
g93
g94
ssg82
g3143
sg75
(lp3150
S'wsgi.url_scheme'
p3151
asbag68
(g89
g70
NtRp3152
(dp3153
g73
(dp3154
g100
g101
ssg82
g3143
sg75
(lp3155
S':'
asbag68
(g89
g70
NtRp3156
(dp3157
g73
(dp3158
sg82
g3143
sg75
(lp3159
g68
(g69
g70
NtRp3160
(dp3161
g73
(dp3162
g81
I3
ssg82
g3156
sg75
(lp3163
g1799
asbasbasbag68
(g84
g70
NtRp3164
(dp3165
g73
(dp3166
sg82
g2548
sg75
(lp3167
g68
(g89
g70
NtRp3168
(dp3169
g73
(dp3170
g93
g94
ssg82
g3164
sg75
(lp3171
S'wsgi.version'
p3172
asbag68
(g89
g70
NtRp3173
(dp3174
g73
(dp3175
g100
g101
ssg82
g3164
sg75
(lp3176
S':'
asbag68
(g89
g70
NtRp3177
(dp3178
g73
(dp3179
sg82
g3164
sg75
(lp3180
g68
(g69
g70
NtRp3181
(dp3182
g73
(dp3183
g81
I3
ssg82
g3177
sg75
(lp3184
S'1'
asbasbasbasbasbasbasbasbasbasbasbasbasbsS'frames'
p3185
(lp3186
(dp3187
S'file'
p3188
S'/home/ian/web2py/gluon/restricted.py'
p3189
sS'dump'
p3190
(dp3191
S'environment'
p3192
S"{'A': <class 'gluon.html.A'>, 'Auth': <class 'gluon.tools.Auth'>, 'B': <class 'gluon.html.B'>, 'BEAUTIFY': <class 'gluon.html.BEAUTIFY'>, 'BODY': <class 'gluon.html.BODY'>, 'BR': <class 'gluon.html.BR'>, 'BUTTON': <class 'gluon.html.BUTTON'>, 'CAT': <class 'gluon.html.CAT'>, 'CENTER': <class 'gluon.html.CENTER'>, 'CLEANUP': <class 'gluon.validators.CLEANUP'>, ...}"
p3193
sS'ccode'
p3194
S'<code object <module> at 0x4188ab0, file "/home/...cations/places/views/default/index.load", line 1>'
p3195
ssS'lnum'
p3196
I194
sS'lines'
p3197
(dp3198
I192
S'        else:'
p3199
sI193
S'            ccode = compile2(code,layer)'
p3200
sI194
S'        exec ccode in environment'
p3201
sI195
S'    except HTTP:'
p3202
sI196
S'        raise'
p3203
sI197
S'    except Exception, error:'
p3204
sI198
S'        # XXX Show exception in Wing IDE if running in debugger'
p3205
sI189
S'    try:'
p3206
sI190
S'        if type(code) == types.CodeType:'
p3207
sI191
S'            ccode = code'
p3208
ssS'call'
p3209
S'(code="for link in links:\\n    response.write(\'\\\\n<li>\\\\n\'...esponse._vars)\\nresponse.write(\'\\\\n\', escape=False)", environment={\'A\': <class \'gluon.html.A\'>, \'Auth\': <class \'gluon.tools.Auth\'>, \'B\': <class \'gluon.html.B\'>, \'BEAUTIFY\': <class \'gluon.html.BEAUTIFY\'>, \'BODY\': <class \'gluon.html.BODY\'>, \'BR\': <class \'gluon.html.BR\'>, \'BUTTON\': <class \'gluon.html.BUTTON\'>, \'CAT\': <class \'gluon.html.CAT\'>, \'CENTER\': <class \'gluon.html.CENTER\'>, \'CLEANUP\': <class \'gluon.validators.CLEANUP\'>, ...}, layer=\'/home/ian/web2py/applications/places/views/default/index.load\')'
p3210
sS'func'
p3211
S'restricted'
p3212
sa(dp3213
g3188
S'/home/ian/web2py/applications/places/views/default/index.load'
p3214
sg3190
(dp3215
S'A'
S"<class 'gluon.html.A'>"
p3216
sS'link.link_name'
p3217
S"'GMail'"
p3218
sS'_href'
p3219
S'undefined'
p3220
sS'IMG'
p3221
S"<class 'gluon.html.IMG'>"
p3222
sS'link.link_url'
p3223
S"'http://mail.google.com'"
p3224
sS'link'
p3225
S"<Row {'tags': [1], 'update_record': <function <l...elete_record': <function <lambda> at 0x2ea3578>}>"
p3226
sS'_alt'
p3227
g3220
sS'link.link_image'
p3228
S'None'
p3229
sS'_title'
p3230
g3220
ssg3196
I3
sg3197
(dp3231
I1
S'{{for link in links:}}'
p3232
sI2
S'<li>'
p3233
sI3
S'{{=A(IMG(link.link_image), _href=link.link_url, _title=link.link_name, _alt=link.link_name)}}'
p3234
sI4
S"{{=A('edit', _href=URL('edit.load', args=[link.id]), cid='modal_frame', _class='edit_link')}}"
p3235
sI5
S'</li>'
p3236
sI6
S'{{pass}}'
p3237
sI7
S''
sI8
S'{{#=BEAUTIFY(response._vars)}}'
p3238
ssg3209
S'()'
p3239
sg3211
S'<module>'
p3240
sa(dp3241
g3188
S'/home/ian/web2py/gluon/html.py'
p3242
sg3190
(dp3243
S'self'
p3244
S'<gluon.html.IMG object>'
p3245
sS'self.tag'
p3246
S"'img/'"
p3247
ssg3196
I579
sg3197
(dp3248
I576
S''
sI577
S"        if self.tag[-1:] == '/' and components:"
p3249
sI578
S"            raise SyntaxError, '<%s> tags cannot have components'\\"
p3250
sI579
S'                 % self.tag'
p3251
sI580
S'        if len(components) == 1 and isinstance(components[0], (list,tuple)):'
p3252
sI581
S'            self.components = list(components[0])'
p3253
sI582
S'        else:'
p3254
sI583
S'            self.components = list(components)'
p3255
sI574
S'        :raises SyntaxError: when a stand alone tag receives components'
p3256
sI575
S'        """'
p3257
ssg3209
S'(self=<gluon.html.IMG object>, *components=(None,), **attributes={})'
p3258
sg3211
g23
sasS'pyver'
p3259
S'Python 2.7.1+: /usr/bin/python2.7'
p3260
sS'session'
p3261
g68
(g69
g70
NtRp3262
(dp3263
g73
(dp3264
sg75
(lp3265
g68
(g77
g70
NtRp3266
(dp3267
g73
(dp3268
g81
I5
ssg82
Nsg75
(lp3269
g68
(g84
g70
NtRp3270
(dp3271
g73
(dp3272
sg82
g3266
sg75
(lp3273
g68
(g89
g70
NtRp3274
(dp3275
g73
(dp3276
g93
g94
ssg82
g3270
sg75
(lp3277
S'auth'
p3278
asbag68
(g89
g70
NtRp3279
(dp3280
g73
(dp3281
g100
g101
ssg82
g3270
sg75
(lp3282
S':'
asbag68
(g89
g70
NtRp3283
(dp3284
g73
(dp3285
sg82
g3270
sg75
(lp3286
g68
(g69
g70
NtRp3287
(dp3288
g73
(dp3289
g81
I5
ssg82
g3283
sg75
(lp3290
g68
(g77
g70
NtRp3291
(dp3292
g73
(dp3293
g81
I4
ssg82
Nsg75
(lp3294
g68
(g84
g70
NtRp3295
(dp3296
g73
(dp3297
sg82
g3291
sg75
(lp3298
g68
(g89
g70
NtRp3299
(dp3300
g73
(dp3301
g93
g94
ssg82
g3295
sg75
(lp3302
S'expiration'
p3303
asbag68
(g89
g70
NtRp3304
(dp3305
g73
(dp3306
g100
g101
ssg82
g3295
sg75
(lp3307
S':'
asbag68
(g89
g70
NtRp3308
(dp3309
g73
(dp3310
sg82
g3295
sg75
(lp3311
g68
(g69
g70
NtRp3312
(dp3313
g73
(dp3314
g81
I4
ssg82
g3308
sg75
(lp3315
S'3600'
p3316
asbasbasbag68
(g84
g70
NtRp3317
(dp3318
g73
(dp3319
sg82
g3291
sg75
(lp3320
g68
(g89
g70
NtRp3321
(dp3322
g73
(dp3323
g93
g94
ssg82
g3317
sg75
(lp3324
S'hmac_key'
p3325
asbag68
(g89
g70
NtRp3326
(dp3327
g73
(dp3328
g100
g101
ssg82
g3317
sg75
(lp3329
S':'
asbag68
(g89
g70
NtRp3330
(dp3331
g73
(dp3332
sg82
g3317
sg75
(lp3333
g68
(g69
g70
NtRp3334
(dp3335
g73
(dp3336
g81
I4
ssg82
g3330
sg75
(lp3337
S'a79b254e-91c1-46e1-8d2c-9794b856cc93'
p3338
asbasbasbag68
(g84
g70
NtRp3339
(dp3340
g73
(dp3341
sg82
g3291
sg75
(lp3342
g68
(g89
g70
NtRp3343
(dp3344
g73
(dp3345
g93
g94
ssg82
g3339
sg75
(lp3346
S'last_visit'
p3347
asbag68
(g89
g70
NtRp3348
(dp3349
g73
(dp3350
g100
g101
ssg82
g3339
sg75
(lp3351
S':'
asbag68
(g89
g70
NtRp3352
(dp3353
g73
(dp3354
sg82
g3339
sg75
(lp3355
g68
(g69
g70
NtRp3356
(dp3357
g73
(dp3358
g81
I4
ssg82
g3352
sg75
(lp3359
S'datetime.datetime(2011, 10, 2, 21, 4, 48, 165807)'
p3360
asbasbasbag68
(g84
g70
NtRp3361
(dp3362
g73
(dp3363
sg82
g3291
sg75
(lp3364
g68
(g89
g70
NtRp3365
(dp3366
g73
(dp3367
g93
g94
ssg82
g3361
sg75
(lp3368
S'user'
p3369
asbag68
(g89
g70
NtRp3370
(dp3371
g73
(dp3372
g100
g101
ssg82
g3361
sg75
(lp3373
S':'
asbag68
(g89
g70
NtRp3374
(dp3375
g73
(dp3376
sg82
g3361
sg75
(lp3377
g68
(g69
g70
NtRp3378
(dp3379
g73
(dp3380
g81
I4
ssg82
g3374
sg75
(lp3381
g68
(g77
g70
NtRp3382
(dp3383
g73
(dp3384
g81
I3
ssg82
Nsg75
(lp3385
g68
(g84
g70
NtRp3386
(dp3387
g73
(dp3388
sg82
g3382
sg75
(lp3389
g68
(g89
g70
NtRp3390
(dp3391
g73
(dp3392
g93
g94
ssg82
g3386
sg75
(lp3393
S'email'
p3394
asbag68
(g89
g70
NtRp3395
(dp3396
g73
(dp3397
g100
g101
ssg82
g3386
sg75
(lp3398
S':'
asbag68
(g89
g70
NtRp3399
(dp3400
g73
(dp3401
sg82
g3386
sg75
(lp3402
g68
(g69
g70
NtRp3403
(dp3404
g73
(dp3405
g81
I3
ssg82
g3399
sg75
(lp3406
S'scottianw@gmail.com'
p3407
asbasbasbag68
(g84
g70
NtRp3408
(dp3409
g73
(dp3410
sg82
g3382
sg75
(lp3411
g68
(g89
g70
NtRp3412
(dp3413
g73
(dp3414
g93
g94
ssg82
g3408
sg75
(lp3415
S'first_name'
p3416
asbag68
(g89
g70
NtRp3417
(dp3418
g73
(dp3419
g100
g101
ssg82
g3408
sg75
(lp3420
S':'
asbag68
(g89
g70
NtRp3421
(dp3422
g73
(dp3423
sg82
g3408
sg75
(lp3424
g68
(g69
g70
NtRp3425
(dp3426
g73
(dp3427
g81
I3
ssg82
g3421
sg75
(lp3428
S'Ian'
p3429
asbasbasbag68
(g84
g70
NtRp3430
(dp3431
g73
(dp3432
sg82
g3382
sg75
(lp3433
g68
(g89
g70
NtRp3434
(dp3435
g73
(dp3436
g93
g94
ssg82
g3430
sg75
(lp3437
S'id'
p3438
asbag68
(g89
g70
NtRp3439
(dp3440
g73
(dp3441
g100
g101
ssg82
g3430
sg75
(lp3442
S':'
asbag68
(g89
g70
NtRp3443
(dp3444
g73
(dp3445
sg82
g3430
sg75
(lp3446
g68
(g69
g70
NtRp3447
(dp3448
g73
(dp3449
g81
I3
ssg82
g3443
sg75
(lp3450
S'1'
asbasbasbag68
(g84
g70
NtRp3451
(dp3452
g73
(dp3453
sg82
g3382
sg75
(lp3454
g68
(g89
g70
NtRp3455
(dp3456
g73
(dp3457
g93
g94
ssg82
g3451
sg75
(lp3458
S'last_name'
p3459
asbag68
(g89
g70
NtRp3460
(dp3461
g73
(dp3462
g100
g101
ssg82
g3451
sg75
(lp3463
S':'
asbag68
(g89
g70
NtRp3464
(dp3465
g73
(dp3466
sg82
g3451
sg75
(lp3467
g68
(g69
g70
NtRp3468
(dp3469
g73
(dp3470
g81
I3
ssg82
g3464
sg75
(lp3471
S'Scott'
p3472
asbasbasbag68
(g84
g70
NtRp3473
(dp3474
g73
(dp3475
sg82
g3382
sg75
(lp3476
g68
(g89
g70
NtRp3477
(dp3478
g73
(dp3479
g93
g94
ssg82
g3473
sg75
(lp3480
S'password'
p3481
asbag68
(g89
g70
NtRp3482
(dp3483
g73
(dp3484
g100
g101
ssg82
g3473
sg75
(lp3485
S':'
asbag68
(g89
g70
NtRp3486
(dp3487
g73
(dp3488
sg82
g3473
sg75
(lp3489
g68
(g69
g70
NtRp3490
(dp3491
g73
(dp3492
g81
I3
ssg82
g3486
sg75
(lp3493
S'351bc855a8ae4839e89ee60d2f279ed9'
p3494
asbasbasbag68
(g84
g70
NtRp3495
(dp3496
g73
(dp3497
sg82
g3382
sg75
(lp3498
g68
(g89
g70
NtRp3499
(dp3500
g73
(dp3501
g93
g94
ssg82
g3495
sg75
(lp3502
S'registration_key'
p3503
asbag68
(g89
g70
NtRp3504
(dp3505
g73
(dp3506
g100
g101
ssg82
g3495
sg75
(lp3507
S':'
asbag68
(g89
g70
NtRp3508
(dp3509
g73
(dp3510
sg82
g3495
sg75
(lp3511
g68
(g69
g70
NtRp3512
(dp3513
g73
(dp3514
g81
I3
ssg82
g3508
sg75
(lp3515
S''
asbasbasbag68
(g84
g70
NtRp3516
(dp3517
g73
(dp3518
sg82
g3382
sg75
(lp3519
g68
(g89
g70
NtRp3520
(dp3521
g73
(dp3522
g93
g94
ssg82
g3516
sg75
(lp3523
S'reset_password_key'
p3524
asbag68
(g89
g70
NtRp3525
(dp3526
g73
(dp3527
g100
g101
ssg82
g3516
sg75
(lp3528
S':'
asbag68
(g89
g70
NtRp3529
(dp3530
g73
(dp3531
sg82
g3516
sg75
(lp3532
g68
(g69
g70
NtRp3533
(dp3534
g73
(dp3535
g81
I3
ssg82
g3529
sg75
(lp3536
S''
asbasbasbasbasbasbasbasbasbasbasbag68
(g84
g70
NtRp3537
(dp3538
g73
(dp3539
sg82
g3266
sg75
(lp3540
g68
(g89
g70
NtRp3541
(dp3542
g73
(dp3543
g93
g94
ssg82
g3537
sg75
(lp3544
S'current'
p3545
asbag68
(g89
g70
NtRp3546
(dp3547
g73
(dp3548
g100
g101
ssg82
g3537
sg75
(lp3549
S':'
asbag68
(g89
g70
NtRp3550
(dp3551
g73
(dp3552
sg82
g3537
sg75
(lp3553
g68
(g69
g70
NtRp3554
(dp3555
g73
(dp3556
g81
I5
ssg82
g3550
sg75
(lp3557
S'kitchen'
p3558
asbasbasbag68
(g84
g70
NtRp3559
(dp3560
g73
(dp3561
sg82
g3266
sg75
(lp3562
g68
(g89
g70
NtRp3563
(dp3564
g73
(dp3565
g93
g94
ssg82
g3559
sg75
(lp3566
S'current_view'
p3567
asbag68
(g89
g70
NtRp3568
(dp3569
g73
(dp3570
g100
g101
ssg82
g3559
sg75
(lp3571
S':'
asbag68
(g89
g70
NtRp3572
(dp3573
g73
(dp3574
sg82
g3559
sg75
(lp3575
g68
(g69
g70
NtRp3576
(dp3577
g73
(dp3578
g81
I5
ssg82
g3572
sg75
(lp3579
S'kitchen'
p3580
asbasbasbag68
(g84
g70
NtRp3581
(dp3582
g73
(dp3583
sg82
g3266
sg75
(lp3584
g68
(g89
g70
NtRp3585
(dp3586
g73
(dp3587
g93
g94
ssg82
g3581
sg75
(lp3588
S'the_view'
p3589
asbag68
(g89
g70
NtRp3590
(dp3591
g73
(dp3592
g100
g101
ssg82
g3581
sg75
(lp3593
S':'
asbag68
(g89
g70
NtRp3594
(dp3595
g73
(dp3596
sg82
g3581
sg75
(lp3597
g68
(g69
g70
NtRp3598
(dp3599
g73
(dp3600
g81
I5
ssg82
g3594
sg75
(lp3601
S'kitchen'
p3602
asbasbasbasbasbsS'etype'
p3603
S"<type 'exceptions.SyntaxError'>"
p3604
sS'date'
p3605
S'Sun Oct  2 21:08:54 2011'
p3606
sS'response'
p3607
g68
(g69
g70
NtRp3608
(dp3609
g73
(dp3610
sg75
(lp3611
g68
(g77
g70
NtRp3612
(dp3613
g73
(dp3614
g81
I5
ssg82
Nsg75
(lp3615
g68
(g84
g70
NtRp3616
(dp3617
g73
(dp3618
sg82
g3612
sg75
(lp3619
g68
(g89
g70
NtRp3620
(dp3621
g73
(dp3622
g93
g94
ssg82
g3616
sg75
(lp3623
g166
asbag68
(g89
g70
NtRp3624
(dp3625
g73
(dp3626
g100
g101
ssg82
g3616
sg75
(lp3627
S':'
asbag68
(g89
g70
NtRp3628
(dp3629
g73
(dp3630
sg82
g3616
sg75
(lp3631
g68
(g69
g70
NtRp3632
(dp3633
g73
(dp3634
g81
I5
ssg82
g3628
sg75
(lp3635
S'<cStringIO.StringO object at 0x3aa4d50>'
p3636
asbasbasbag68
(g84
g70
NtRp3637
(dp3638
g73
(dp3639
sg82
g3612
sg75
(lp3640
g68
(g89
g70
NtRp3641
(dp3642
g73
(dp3643
g93
g94
ssg82
g3637
sg75
(lp3644
g254
asbag68
(g89
g70
NtRp3645
(dp3646
g73
(dp3647
g100
g101
ssg82
g3637
sg75
(lp3648
S':'
asbag68
(g89
g70
NtRp3649
(dp3650
g73
(dp3651
sg82
g3637
sg75
(lp3652
g68
(g69
g70
NtRp3653
(dp3654
g73
(dp3655
g81
I5
ssg82
g3649
sg75
(lp3656
g68
(g77
g70
NtRp3657
(dp3658
g73
(dp3659
g81
I4
ssg82
Nsg75
(lp3660
g68
(g84
g70
NtRp3661
(dp3662
g73
(dp3663
sg82
g3657
sg75
(lp3664
g68
(g89
g70
NtRp3665
(dp3666
g73
(dp3667
g93
g94
ssg82
g3661
sg75
(lp3668
S'session_id_places'
p3669
asbag68
(g89
g70
NtRp3670
(dp3671
g73
(dp3672
g100
g101
ssg82
g3661
sg75
(lp3673
S':'
asbag68
(g89
g70
NtRp3674
(dp3675
g73
(dp3676
sg82
g3661
sg75
(lp3677
g68
(g69
g70
NtRp3678
(dp3679
g73
(dp3680
g81
I4
ssg82
g3674
sg75
(lp3681
g68
(g77
g70
NtRp3682
(dp3683
g73
(dp3684
g81
I3
ssg82
Nsg75
(lp3685
g68
(g84
g70
NtRp3686
(dp3687
g73
(dp3688
sg82
g3682
sg75
(lp3689
g68
(g89
g70
NtRp3690
(dp3691
g73
(dp3692
g93
g94
ssg82
g3686
sg75
(lp3693
g304
asbag68
(g89
g70
NtRp3694
(dp3695
g73
(dp3696
g100
g101
ssg82
g3686
sg75
(lp3697
S':'
asbag68
(g89
g70
NtRp3698
(dp3699
g73
(dp3700
sg82
g3686
sg75
(lp3701
g68
(g69
g70
NtRp3702
(dp3703
g73
(dp3704
g81
I3
ssg82
g3698
sg75
(lp3705
S''
asbasbasbag68
(g84
g70
NtRp3706
(dp3707
g73
(dp3708
sg82
g3682
sg75
(lp3709
g68
(g89
g70
NtRp3710
(dp3711
g73
(dp3712
g93
g94
ssg82
g3706
sg75
(lp3713
g325
asbag68
(g89
g70
NtRp3714
(dp3715
g73
(dp3716
g100
g101
ssg82
g3706
sg75
(lp3717
S':'
asbag68
(g89
g70
NtRp3718
(dp3719
g73
(dp3720
sg82
g3706
sg75
(lp3721
g68
(g69
g70
NtRp3722
(dp3723
g73
(dp3724
g81
I3
ssg82
g3718
sg75
(lp3725
S''
asbasbasbag68
(g84
g70
NtRp3726
(dp3727
g73
(dp3728
sg82
g3682
sg75
(lp3729
g68
(g89
g70
NtRp3730
(dp3731
g73
(dp3732
g93
g94
ssg82
g3726
sg75
(lp3733
g346
asbag68
(g89
g70
NtRp3734
(dp3735
g73
(dp3736
g100
g101
ssg82
g3726
sg75
(lp3737
S':'
asbag68
(g89
g70
NtRp3738
(dp3739
g73
(dp3740
sg82
g3726
sg75
(lp3741
g68
(g69
g70
NtRp3742
(dp3743
g73
(dp3744
g81
I3
ssg82
g3738
sg75
(lp3745
S''
asbasbasbag68
(g84
g70
NtRp3746
(dp3747
g73
(dp3748
sg82
g3682
sg75
(lp3749
g68
(g89
g70
NtRp3750
(dp3751
g73
(dp3752
g93
g94
ssg82
g3746
sg75
(lp3753
g367
asbag68
(g89
g70
NtRp3754
(dp3755
g73
(dp3756
g100
g101
ssg82
g3746
sg75
(lp3757
S':'
asbag68
(g89
g70
NtRp3758
(dp3759
g73
(dp3760
sg82
g3746
sg75
(lp3761
g68
(g69
g70
NtRp3762
(dp3763
g73
(dp3764
g81
I3
ssg82
g3758
sg75
(lp3765
S''
asbasbasbag68
(g84
g70
NtRp3766
(dp3767
g73
(dp3768
sg82
g3682
sg75
(lp3769
g68
(g89
g70
NtRp3770
(dp3771
g73
(dp3772
g93
g94
ssg82
g3766
sg75
(lp3773
g388
asbag68
(g89
g70
NtRp3774
(dp3775
g73
(dp3776
g100
g101
ssg82
g3766
sg75
(lp3777
S':'
asbag68
(g89
g70
NtRp3778
(dp3779
g73
(dp3780
sg82
g3766
sg75
(lp3781
g68
(g69
g70
NtRp3782
(dp3783
g73
(dp3784
g81
I3
ssg82
g3778
sg75
(lp3785
S''
asbasbasbag68
(g84
g70
NtRp3786
(dp3787
g73
(dp3788
sg82
g3682
sg75
(lp3789
g68
(g89
g70
NtRp3790
(dp3791
g73
(dp3792
g93
g94
ssg82
g3786
sg75
(lp3793
g409
asbag68
(g89
g70
NtRp3794
(dp3795
g73
(dp3796
g100
g101
ssg82
g3786
sg75
(lp3797
S':'
asbag68
(g89
g70
NtRp3798
(dp3799
g73
(dp3800
sg82
g3786
sg75
(lp3801
g68
(g69
g70
NtRp3802
(dp3803
g73
(dp3804
g81
I3
ssg82
g3798
sg75
(lp3805
S'/'
asbasbasbag68
(g84
g70
NtRp3806
(dp3807
g73
(dp3808
sg82
g3682
sg75
(lp3809
g68
(g89
g70
NtRp3810
(dp3811
g73
(dp3812
g93
g94
ssg82
g3806
sg75
(lp3813
g430
asbag68
(g89
g70
NtRp3814
(dp3815
g73
(dp3816
g100
g101
ssg82
g3806
sg75
(lp3817
S':'
asbag68
(g89
g70
NtRp3818
(dp3819
g73
(dp3820
sg82
g3806
sg75
(lp3821
g68
(g69
g70
NtRp3822
(dp3823
g73
(dp3824
g81
I3
ssg82
g3818
sg75
(lp3825
S''
asbasbasbag68
(g84
g70
NtRp3826
(dp3827
g73
(dp3828
sg82
g3682
sg75
(lp3829
g68
(g89
g70
NtRp3830
(dp3831
g73
(dp3832
g93
g94
ssg82
g3826
sg75
(lp3833
g451
asbag68
(g89
g70
NtRp3834
(dp3835
g73
(dp3836
g100
g101
ssg82
g3826
sg75
(lp3837
S':'
asbag68
(g89
g70
NtRp3838
(dp3839
g73
(dp3840
sg82
g3826
sg75
(lp3841
g68
(g69
g70
NtRp3842
(dp3843
g73
(dp3844
g81
I3
ssg82
g3838
sg75
(lp3845
S''
asbasbasbasbasbasbasbasbasbasbasbag68
(g84
g70
NtRp3846
(dp3847
g73
(dp3848
sg82
g3612
sg75
(lp3849
g68
(g89
g70
NtRp3850
(dp3851
g73
(dp3852
g93
g94
ssg82
g3846
sg75
(lp3853
S'files'
p3854
asbag68
(g89
g70
NtRp3855
(dp3856
g73
(dp3857
g100
g101
ssg82
g3846
sg75
(lp3858
S':'
asbag68
(g89
g70
NtRp3859
(dp3860
g73
(dp3861
sg82
g3846
sg75
(lp3862
g68
(g69
g70
NtRp3863
(dp3864
g73
(dp3865
g81
I5
ssg82
g3859
sg75
(lp3866
g68
(g77
g70
NtRp3867
(dp3868
g73
(dp3869
g81
I4
ssg82
Nsg75
(lp3870
sbasbasbasbag68
(g84
g70
NtRp3871
(dp3872
g73
(dp3873
sg82
g3612
sg75
(lp3874
g68
(g89
g70
NtRp3875
(dp3876
g73
(dp3877
g93
g94
ssg82
g3871
sg75
(lp3878
S'flash'
p3879
asbag68
(g89
g70
NtRp3880
(dp3881
g73
(dp3882
g100
g101
ssg82
g3871
sg75
(lp3883
S':'
asbag68
(g89
g70
NtRp3884
(dp3885
g73
(dp3886
sg82
g3871
sg75
(lp3887
g68
(g69
g70
NtRp3888
(dp3889
g73
(dp3890
g81
I5
ssg82
g3884
sg75
(lp3891
S''
asbasbasbag68
(g84
g70
NtRp3892
(dp3893
g73
(dp3894
sg82
g3612
sg75
(lp3895
g68
(g89
g70
NtRp3896
(dp3897
g73
(dp3898
g93
g94
ssg82
g3892
sg75
(lp3899
S'generic_patterns'
p3900
asbag68
(g89
g70
NtRp3901
(dp3902
g73
(dp3903
g100
g101
ssg82
g3892
sg75
(lp3904
S':'
asbag68
(g89
g70
NtRp3905
(dp3906
g73
(dp3907
sg82
g3892
sg75
(lp3908
g68
(g69
g70
NtRp3909
(dp3910
g73
(dp3911
g81
I5
ssg82
g3905
sg75
(lp3912
g68
(g77
g70
NtRp3913
(dp3914
g73
(dp3915
g81
I4
ssg82
Nsg75
(lp3916
g68
(g84
g70
NtRp3917
(dp3918
g73
(dp3919
sg82
g3913
sg75
(lp3920
g68
(g89
g70
NtRp3921
(dp3922
g73
(dp3923
sg82
g3917
sg75
(lp3924
g68
(g69
g70
NtRp3925
(dp3926
g73
(dp3927
g81
I4
ssg82
g3921
sg75
(lp3928
S'*'
asbasbasbasbasbasbasbag68
(g84
g70
NtRp3929
(dp3930
g73
(dp3931
sg82
g3612
sg75
(lp3932
g68
(g89
g70
NtRp3933
(dp3934
g73
(dp3935
g93
g94
ssg82
g3929
sg75
(lp3936
S'headers'
p3937
asbag68
(g89
g70
NtRp3938
(dp3939
g73
(dp3940
g100
g101
ssg82
g3929
sg75
(lp3941
S':'
asbag68
(g89
g70
NtRp3942
(dp3943
g73
(dp3944
sg82
g3929
sg75
(lp3945
g68
(g69
g70
NtRp3946
(dp3947
g73
(dp3948
g81
I5
ssg82
g3942
sg75
(lp3949
g68
(g77
g70
NtRp3950
(dp3951
g73
(dp3952
g81
I4
ssg82
Nsg75
(lp3953
g68
(g84
g70
NtRp3954
(dp3955
g73
(dp3956
sg82
g3950
sg75
(lp3957
g68
(g89
g70
NtRp3958
(dp3959
g73
(dp3960
g93
g94
ssg82
g3954
sg75
(lp3961
S'Cache-Control'
p3962
asbag68
(g89
g70
NtRp3963
(dp3964
g73
(dp3965
g100
g101
ssg82
g3954
sg75
(lp3966
S':'
asbag68
(g89
g70
NtRp3967
(dp3968
g73
(dp3969
sg82
g3954
sg75
(lp3970
g68
(g69
g70
NtRp3971
(dp3972
g73
(dp3973
g81
I4
ssg82
g3967
sg75
(lp3974
S'no-store, no-cache, must-revalidate, post-check=0, pre-check=0'
p3975
asbasbasbag68
(g84
g70
NtRp3976
(dp3977
g73
(dp3978
sg82
g3950
sg75
(lp3979
g68
(g89
g70
NtRp3980
(dp3981
g73
(dp3982
g93
g94
ssg82
g3976
sg75
(lp3983
S'Content-Type'
p3984
asbag68
(g89
g70
NtRp3985
(dp3986
g73
(dp3987
g100
g101
ssg82
g3976
sg75
(lp3988
S':'
asbag68
(g89
g70
NtRp3989
(dp3990
g73
(dp3991
sg82
g3976
sg75
(lp3992
g68
(g69
g70
NtRp3993
(dp3994
g73
(dp3995
g81
I4
ssg82
g3989
sg75
(lp3996
S'text/html; charset=utf-8'
p3997
asbasbasbag68
(g84
g70
NtRp3998
(dp3999
g73
(dp4000
sg82
g3950
sg75
(lp4001
g68
(g89
g70
NtRp4002
(dp4003
g73
(dp4004
g93
g94
ssg82
g3998
sg75
(lp4005
S'Expires'
p4006
asbag68
(g89
g70
NtRp4007
(dp4008
g73
(dp4009
g100
g101
ssg82
g3998
sg75
(lp4010
S':'
asbag68
(g89
g70
NtRp4011
(dp4012
g73
(dp4013
sg82
g3998
sg75
(lp4014
g68
(g69
g70
NtRp4015
(dp4016
g73
(dp4017
g81
I4
ssg82
g4011
sg75
(lp4018
S'Mon, 03 Oct 2011 01:08:54 GMT'
p4019
asbasbasbag68
(g84
g70
NtRp4020
(dp4021
g73
(dp4022
sg82
g3950
sg75
(lp4023
g68
(g89
g70
NtRp4024
(dp4025
g73
(dp4026
g93
g94
ssg82
g4020
sg75
(lp4027
S'Pragma'
p4028
asbag68
(g89
g70
NtRp4029
(dp4030
g73
(dp4031
g100
g101
ssg82
g4020
sg75
(lp4032
S':'
asbag68
(g89
g70
NtRp4033
(dp4034
g73
(dp4035
sg82
g4020
sg75
(lp4036
g68
(g69
g70
NtRp4037
(dp4038
g73
(dp4039
g81
I4
ssg82
g4033
sg75
(lp4040
S'no-cache'
p4041
asbasbasbag68
(g84
g70
NtRp4042
(dp4043
g73
(dp4044
sg82
g3950
sg75
(lp4045
g68
(g89
g70
NtRp4046
(dp4047
g73
(dp4048
g93
g94
ssg82
g4042
sg75
(lp4049
S'X-Powered-By'
p4050
asbag68
(g89
g70
NtRp4051
(dp4052
g73
(dp4053
g100
g101
ssg82
g4042
sg75
(lp4054
S':'
asbag68
(g89
g70
NtRp4055
(dp4056
g73
(dp4057
sg82
g4042
sg75
(lp4058
g68
(g69
g70
NtRp4059
(dp4060
g73
(dp4061
g81
I4
ssg82
g4055
sg75
(lp4062
S'web2py'
p4063
asbasbasbasbasbasbasbag68
(g84
g70
NtRp4064
(dp4065
g73
(dp4066
sg82
g3612
sg75
(lp4067
g68
(g89
g70
NtRp4068
(dp4069
g73
(dp4070
g93
g94
ssg82
g4064
sg75
(lp4071
S'menu'
p4072
asbag68
(g89
g70
NtRp4073
(dp4074
g73
(dp4075
g100
g101
ssg82
g4064
sg75
(lp4076
S':'
asbag68
(g89
g70
NtRp4077
(dp4078
g73
(dp4079
sg82
g4064
sg75
(lp4080
g68
(g69
g70
NtRp4081
(dp4082
g73
(dp4083
g81
I5
ssg82
g4077
sg75
(lp4084
g68
(g77
g70
NtRp4085
(dp4086
g73
(dp4087
g81
I4
ssg82
Nsg75
(lp4088
g68
(g84
g70
NtRp4089
(dp4090
g73
(dp4091
sg82
g4085
sg75
(lp4092
g68
(g89
g70
NtRp4093
(dp4094
g73
(dp4095
sg82
g4089
sg75
(lp4096
g68
(g69
g70
NtRp4097
(dp4098
g73
(dp4099
g81
I4
ssg82
g4093
sg75
(lp4100
g68
(g77
g70
NtRp4101
(dp4102
g73
(dp4103
g81
I3
ssg82
Nsg75
(lp4104
g68
(g84
g70
NtRp4105
(dp4106
g73
(dp4107
sg82
g4101
sg75
(lp4108
g68
(g89
g70
NtRp4109
(dp4110
g73
(dp4111
sg82
g4105
sg75
(lp4112
g68
(g69
g70
NtRp4113
(dp4114
g73
(dp4115
g81
I3
ssg82
g4109
sg75
(lp4116
cgluon.languages
lazyT_unpickle
p4117
(S't\x04\x00\x00\x00Home'
tRp4118
asbasbasbag68
(g84
g70
NtRp4119
(dp4120
g73
(dp4121
sg82
g4101
sg75
(lp4122
g68
(g89
g70
NtRp4123
(dp4124
g73
(dp4125
sg82
g4119
sg75
(lp4126
g68
(g69
g70
NtRp4127
(dp4128
g73
(dp4129
g81
I3
ssg82
g4123
sg75
(lp4130
g993
asbasbasbag68
(g84
g70
NtRp4131
(dp4132
g73
(dp4133
sg82
g4101
sg75
(lp4134
g68
(g89
g70
NtRp4135
(dp4136
g73
(dp4137
sg82
g4131
sg75
(lp4138
g68
(g69
g70
NtRp4139
(dp4140
g73
(dp4141
g81
I3
ssg82
g4135
sg75
(lp4142
S'/places/default/index.load'
p4143
asbasbasbag68
(g84
g70
NtRp4144
(dp4145
g73
(dp4146
sg82
g4101
sg75
(lp4147
g68
(g89
g70
NtRp4148
(dp4149
g73
(dp4150
sg82
g4144
sg75
(lp4151
g68
(g69
g70
NtRp4152
(dp4153
g73
(dp4154
g81
I3
ssg82
g4148
sg75
(lp4155
g68
(g77
g70
NtRp4156
(dp4157
g73
(dp4158
g81
I2
ssg82
Nsg75
(lp4159
sbasbasbasbasbasbasbasbag68
(g84
g70
NtRp4160
(dp4161
g73
(dp4162
sg82
g4085
sg75
(lp4163
g68
(g89
g70
NtRp4164
(dp4165
g73
(dp4166
sg82
g4160
sg75
(lp4167
g68
(g69
g70
NtRp4168
(dp4169
g73
(dp4170
g81
I4
ssg82
g4164
sg75
(lp4171
g68
(g77
g70
NtRp4172
(dp4173
g73
(dp4174
g81
I3
ssg82
Nsg75
(lp4175
g68
(g84
g70
NtRp4176
(dp4177
g73
(dp4178
sg82
g4172
sg75
(lp4179
g68
(g89
g70
NtRp4180
(dp4181
g73
(dp4182
sg82
g4176
sg75
(lp4183
g68
(g69
g70
NtRp4184
(dp4185
g73
(dp4186
g81
I3
ssg82
g4180
sg75
(lp4187
g4117
(S's\x08\x00\x00\x00This App'
tRp4188
asbasbasbag68
(g84
g70
NtRp4189
(dp4190
g73
(dp4191
sg82
g4172
sg75
(lp4192
g68
(g89
g70
NtRp4193
(dp4194
g73
(dp4195
sg82
g4189
sg75
(lp4196
g68
(g69
g70
NtRp4197
(dp4198
g73
(dp4199
g81
I3
ssg82
g4193
sg75
(lp4200
g993
asbasbasbag68
(g84
g70
NtRp4201
(dp4202
g73
(dp4203
sg82
g4172
sg75
(lp4204
g68
(g89
g70
NtRp4205
(dp4206
g73
(dp4207
sg82
g4201
sg75
(lp4208
g68
(g69
g70
NtRp4209
(dp4210
g73
(dp4211
g81
I3
ssg82
g4205
sg75
(lp4212
S'/admin/default/design/places.load'
p4213
asbasbasbag68
(g84
g70
NtRp4214
(dp4215
g73
(dp4216
sg82
g4172
sg75
(lp4217
g68
(g89
g70
NtRp4218
(dp4219
g73
(dp4220
sg82
g4214
sg75
(lp4221
g68
(g69
g70
NtRp4222
(dp4223
g73
(dp4224
g81
I3
ssg82
g4218
sg75
(lp4225
g68
(g77
g70
NtRp4226
(dp4227
g73
(dp4228
g81
I2
ssg82
Nsg75
(lp4229
g68
(g84
g70
NtRp4230
(dp4231
g73
(dp4232
sg82
g4226
sg75
(lp4233
g68
(g89
g70
NtRp4234
(dp4235
g73
(dp4236
sg82
g4230
sg75
(lp4237
g68
(g69
g70
NtRp4238
(dp4239
g73
(dp4240
g81
I2
ssg82
g4234
sg75
(lp4241
g68
(g77
g70
NtRp4242
(dp4243
g73
(dp4244
g81
I1
ssg82
Nsg75
(lp4245
g68
(g84
g70
NtRp4246
(dp4247
g73
(dp4248
sg82
g4242
sg75
(lp4249
g68
(g89
g70
NtRp4250
(dp4251
g73
(dp4252
sg82
g4246
sg75
(lp4253
g68
(g69
g70
NtRp4254
(dp4255
g73
(dp4256
g81
I1
ssg82
g4250
sg75
(lp4257
g4117
(S't\n\x00\x00\x00Controller'
tRp4258
asbasbasbag68
(g84
g70
NtRp4259
(dp4260
g73
(dp4261
sg82
g4242
sg75
(lp4262
g68
(g89
g70
NtRp4263
(dp4264
g73
(dp4265
sg82
g4259
sg75
(lp4266
g68
(g69
g70
NtRp4267
(dp4268
g73
(dp4269
g81
I1
ssg82
g4263
sg75
(lp4270
I00
asbasbasbag68
(g84
g70
NtRp4271
(dp4272
g73
(dp4273
sg82
g4242
sg75
(lp4274
g68
(g89
g70
NtRp4275
(dp4276
g73
(dp4277
sg82
g4271
sg75
(lp4278
g68
(g69
g70
NtRp4279
(dp4280
g73
(dp4281
g81
I1
ssg82
g4275
sg75
(lp4282
S'/admin/default/edit/places/controllers/default.py'
p4283
asbasbasbasbasbasbasbag68
(g84
g70
NtRp4284
(dp4285
g73
(dp4286
sg82
g4226
sg75
(lp4287
g68
(g89
g70
NtRp4288
(dp4289
g73
(dp4290
sg82
g4284
sg75
(lp4291
g68
(g69
g70
NtRp4292
(dp4293
g73
(dp4294
g81
I2
ssg82
g4288
sg75
(lp4295
g68
(g77
g70
NtRp4296
(dp4297
g73
(dp4298
g81
I1
ssg82
Nsg75
(lp4299
g68
(g84
g70
NtRp4300
(dp4301
g73
(dp4302
sg82
g4296
sg75
(lp4303
g68
(g89
g70
NtRp4304
(dp4305
g73
(dp4306
sg82
g4300
sg75
(lp4307
g68
(g69
g70
NtRp4308
(dp4309
g73
(dp4310
g81
I1
ssg82
g4304
sg75
(lp4311
g4117
(S't\x04\x00\x00\x00View'
tRp4312
asbasbasbag68
(g84
g70
NtRp4313
(dp4314
g73
(dp4315
sg82
g4296
sg75
(lp4316
g68
(g89
g70
NtRp4317
(dp4318
g73
(dp4319
sg82
g4313
sg75
(lp4320
g68
(g69
g70
NtRp4321
(dp4322
g73
(dp4323
g81
I1
ssg82
g4317
sg75
(lp4324
I00
asbasbasbag68
(g84
g70
NtRp4325
(dp4326
g73
(dp4327
sg82
g4296
sg75
(lp4328
g68
(g89
g70
NtRp4329
(dp4330
g73
(dp4331
sg82
g4325
sg75
(lp4332
g68
(g69
g70
NtRp4333
(dp4334
g73
(dp4335
g81
I1
ssg82
g4329
sg75
(lp4336
S'/admin/default/edit/places/views/default/index.load'
p4337
asbasbasbasbasbasbasbag68
(g84
g70
NtRp4338
(dp4339
g73
(dp4340
sg82
g4226
sg75
(lp4341
g68
(g89
g70
NtRp4342
(dp4343
g73
(dp4344
sg82
g4338
sg75
(lp4345
g68
(g69
g70
NtRp4346
(dp4347
g73
(dp4348
g81
I2
ssg82
g4342
sg75
(lp4349
g68
(g77
g70
NtRp4350
(dp4351
g73
(dp4352
g81
I1
ssg82
Nsg75
(lp4353
g68
(g84
g70
NtRp4354
(dp4355
g73
(dp4356
sg82
g4350
sg75
(lp4357
g68
(g89
g70
NtRp4358
(dp4359
g73
(dp4360
sg82
g4354
sg75
(lp4361
g68
(g69
g70
NtRp4362
(dp4363
g73
(dp4364
g81
I1
ssg82
g4358
sg75
(lp4365
g4117
(S't\x06\x00\x00\x00Layout'
tRp4366
asbasbasbag68
(g84
g70
NtRp4367
(dp4368
g73
(dp4369
sg82
g4350
sg75
(lp4370
g68
(g89
g70
NtRp4371
(dp4372
g73
(dp4373
sg82
g4367
sg75
(lp4374
g68
(g69
g70
NtRp4375
(dp4376
g73
(dp4377
g81
I1
ssg82
g4371
sg75
(lp4378
I00
asbasbasbag68
(g84
g70
NtRp4379
(dp4380
g73
(dp4381
sg82
g4350
sg75
(lp4382
g68
(g89
g70
NtRp4383
(dp4384
g73
(dp4385
sg82
g4379
sg75
(lp4386
g68
(g69
g70
NtRp4387
(dp4388
g73
(dp4389
g81
I1
ssg82
g4383
sg75
(lp4390
S'/admin/default/edit/places/views/layout.html'
p4391
asbasbasbasbasbasbasbag68
(g84
g70
NtRp4392
(dp4393
g73
(dp4394
sg82
g4226
sg75
(lp4395
g68
(g89
g70
NtRp4396
(dp4397
g73
(dp4398
sg82
g4392
sg75
(lp4399
g68
(g69
g70
NtRp4400
(dp4401
g73
(dp4402
g81
I2
ssg82
g4396
sg75
(lp4403
g68
(g77
g70
NtRp4404
(dp4405
g73
(dp4406
g81
I1
ssg82
Nsg75
(lp4407
g68
(g84
g70
NtRp4408
(dp4409
g73
(dp4410
sg82
g4404
sg75
(lp4411
g68
(g89
g70
NtRp4412
(dp4413
g73
(dp4414
sg82
g4408
sg75
(lp4415
g68
(g69
g70
NtRp4416
(dp4417
g73
(dp4418
g81
I1
ssg82
g4412
sg75
(lp4419
g4117
(S't\n\x00\x00\x00Stylesheet'
tRp4420
asbasbasbag68
(g84
g70
NtRp4421
(dp4422
g73
(dp4423
sg82
g4404
sg75
(lp4424
g68
(g89
g70
NtRp4425
(dp4426
g73
(dp4427
sg82
g4421
sg75
(lp4428
g68
(g69
g70
NtRp4429
(dp4430
g73
(dp4431
g81
I1
ssg82
g4425
sg75
(lp4432
I00
asbasbasbag68
(g84
g70
NtRp4433
(dp4434
g73
(dp4435
sg82
g4404
sg75
(lp4436
g68
(g89
g70
NtRp4437
(dp4438
g73
(dp4439
sg82
g4433
sg75
(lp4440
g68
(g69
g70
NtRp4441
(dp4442
g73
(dp4443
g81
I1
ssg82
g4437
sg75
(lp4444
S'/admin/default/edit/places/static/base.css'
p4445
asbasbasbasbasbasbasbag68
(g84
g70
NtRp4446
(dp4447
g73
(dp4448
sg82
g4226
sg75
(lp4449
g68
(g89
g70
NtRp4450
(dp4451
g73
(dp4452
sg82
g4446
sg75
(lp4453
g68
(g69
g70
NtRp4454
(dp4455
g73
(dp4456
g81
I2
ssg82
g4450
sg75
(lp4457
g68
(g77
g70
NtRp4458
(dp4459
g73
(dp4460
g81
I1
ssg82
Nsg75
(lp4461
g68
(g84
g70
NtRp4462
(dp4463
g73
(dp4464
sg82
g4458
sg75
(lp4465
g68
(g89
g70
NtRp4466
(dp4467
g73
(dp4468
sg82
g4462
sg75
(lp4469
g68
(g69
g70
NtRp4470
(dp4471
g73
(dp4472
g81
I1
ssg82
g4466
sg75
(lp4473
g4117
(S's\x08\x00\x00\x00DB Model'
tRp4474
asbasbasbag68
(g84
g70
NtRp4475
(dp4476
g73
(dp4477
sg82
g4458
sg75
(lp4478
g68
(g89
g70
NtRp4479
(dp4480
g73
(dp4481
sg82
g4475
sg75
(lp4482
g68
(g69
g70
NtRp4483
(dp4484
g73
(dp4485
g81
I1
ssg82
g4479
sg75
(lp4486
I00
asbasbasbag68
(g84
g70
NtRp4487
(dp4488
g73
(dp4489
sg82
g4458
sg75
(lp4490
g68
(g89
g70
NtRp4491
(dp4492
g73
(dp4493
sg82
g4487
sg75
(lp4494
g68
(g69
g70
NtRp4495
(dp4496
g73
(dp4497
g81
I1
ssg82
g4491
sg75
(lp4498
S'/admin/default/edit/places/models/db.py'
p4499
asbasbasbasbasbasbasbag68
(g84
g70
NtRp4500
(dp4501
g73
(dp4502
sg82
g4226
sg75
(lp4503
g68
(g89
g70
NtRp4504
(dp4505
g73
(dp4506
sg82
g4500
sg75
(lp4507
g68
(g69
g70
NtRp4508
(dp4509
g73
(dp4510
g81
I2
ssg82
g4504
sg75
(lp4511
g68
(g77
g70
NtRp4512
(dp4513
g73
(dp4514
g81
I1
ssg82
Nsg75
(lp4515
g68
(g84
g70
NtRp4516
(dp4517
g73
(dp4518
sg82
g4512
sg75
(lp4519
g68
(g89
g70
NtRp4520
(dp4521
g73
(dp4522
sg82
g4516
sg75
(lp4523
g68
(g69
g70
NtRp4524
(dp4525
g73
(dp4526
g81
I1
ssg82
g4520
sg75
(lp4527
g4117
(S's\n\x00\x00\x00Menu Model'
tRp4528
asbasbasbag68
(g84
g70
NtRp4529
(dp4530
g73
(dp4531
sg82
g4512
sg75
(lp4532
g68
(g89
g70
NtRp4533
(dp4534
g73
(dp4535
sg82
g4529
sg75
(lp4536
g68
(g69
g70
NtRp4537
(dp4538
g73
(dp4539
g81
I1
ssg82
g4533
sg75
(lp4540
I00
asbasbasbag68
(g84
g70
NtRp4541
(dp4542
g73
(dp4543
sg82
g4512
sg75
(lp4544
g68
(g89
g70
NtRp4545
(dp4546
g73
(dp4547
sg82
g4541
sg75
(lp4548
g68
(g69
g70
NtRp4549
(dp4550
g73
(dp4551
g81
I1
ssg82
g4545
sg75
(lp4552
S'/admin/default/edit/places/models/menu.py'
p4553
asbasbasbasbasbasbasbag68
(g84
g70
NtRp4554
(dp4555
g73
(dp4556
sg82
g4226
sg75
(lp4557
g68
(g89
g70
NtRp4558
(dp4559
g73
(dp4560
sg82
g4554
sg75
(lp4561
g68
(g69
g70
NtRp4562
(dp4563
g73
(dp4564
g81
I2
ssg82
g4558
sg75
(lp4565
g68
(g77
g70
NtRp4566
(dp4567
g73
(dp4568
g81
I1
ssg82
Nsg75
(lp4569
g68
(g84
g70
NtRp4570
(dp4571
g73
(dp4572
sg82
g4566
sg75
(lp4573
g68
(g89
g70
NtRp4574
(dp4575
g73
(dp4576
sg82
g4570
sg75
(lp4577
g68
(g69
g70
NtRp4578
(dp4579
g73
(dp4580
g81
I1
ssg82
g4574
sg75
(lp4581
g4117
(S't\x08\x00\x00\x00Database'
tRp4582
asbasbasbag68
(g84
g70
NtRp4583
(dp4584
g73
(dp4585
sg82
g4566
sg75
(lp4586
g68
(g89
g70
NtRp4587
(dp4588
g73
(dp4589
sg82
g4583
sg75
(lp4590
g68
(g69
g70
NtRp4591
(dp4592
g73
(dp4593
g81
I1
ssg82
g4587
sg75
(lp4594
I00
asbasbasbag68
(g84
g70
NtRp4595
(dp4596
g73
(dp4597
sg82
g4566
sg75
(lp4598
g68
(g89
g70
NtRp4599
(dp4600
g73
(dp4601
sg82
g4595
sg75
(lp4602
g68
(g69
g70
NtRp4603
(dp4604
g73
(dp4605
g81
I1
ssg82
g4599
sg75
(lp4606
S'/places/appadmin/index.load'
p4607
asbasbasbasbasbasbasbag68
(g84
g70
NtRp4608
(dp4609
g73
(dp4610
sg82
g4226
sg75
(lp4611
g68
(g89
g70
NtRp4612
(dp4613
g73
(dp4614
sg82
g4608
sg75
(lp4615
g68
(g69
g70
NtRp4616
(dp4617
g73
(dp4618
g81
I2
ssg82
g4612
sg75
(lp4619
g68
(g77
g70
NtRp4620
(dp4621
g73
(dp4622
g81
I1
ssg82
Nsg75
(lp4623
g68
(g84
g70
NtRp4624
(dp4625
g73
(dp4626
sg82
g4620
sg75
(lp4627
g68
(g89
g70
NtRp4628
(dp4629
g73
(dp4630
sg82
g4624
sg75
(lp4631
g68
(g69
g70
NtRp4632
(dp4633
g73
(dp4634
g81
I1
ssg82
g4628
sg75
(lp4635
g4117
(S't\x06\x00\x00\x00Errors'
tRp4636
asbasbasbag68
(g84
g70
NtRp4637
(dp4638
g73
(dp4639
sg82
g4620
sg75
(lp4640
g68
(g89
g70
NtRp4641
(dp4642
g73
(dp4643
sg82
g4637
sg75
(lp4644
g68
(g69
g70
NtRp4645
(dp4646
g73
(dp4647
g81
I1
ssg82
g4641
sg75
(lp4648
I00
asbasbasbag68
(g84
g70
NtRp4649
(dp4650
g73
(dp4651
sg82
g4620
sg75
(lp4652
g68
(g89
g70
NtRp4653
(dp4654
g73
(dp4655
sg82
g4649
sg75
(lp4656
g68
(g69
g70
NtRp4657
(dp4658
g73
(dp4659
g81
I1
ssg82
g4653
sg75
(lp4660
S'/admin/default/errors/places.load'
p4661
asbasbasbasbasbasbasbag68
(g84
g70
NtRp4662
(dp4663
g73
(dp4664
sg82
g4226
sg75
(lp4665
g68
(g89
g70
NtRp4666
(dp4667
g73
(dp4668
sg82
g4662
sg75
(lp4669
g68
(g69
g70
NtRp4670
(dp4671
g73
(dp4672
g81
I2
ssg82
g4666
sg75
(lp4673
g68
(g77
g70
NtRp4674
(dp4675
g73
(dp4676
g81
I1
ssg82
Nsg75
(lp4677
g68
(g84
g70
NtRp4678
(dp4679
g73
(dp4680
sg82
g4674
sg75
(lp4681
g68
(g89
g70
NtRp4682
(dp4683
g73
(dp4684
sg82
g4678
sg75
(lp4685
g68
(g69
g70
NtRp4686
(dp4687
g73
(dp4688
g81
I1
ssg82
g4682
sg75
(lp4689
g4117
(S't\x05\x00\x00\x00About'
tRp4690
asbasbasbag68
(g84
g70
NtRp4691
(dp4692
g73
(dp4693
sg82
g4674
sg75
(lp4694
g68
(g89
g70
NtRp4695
(dp4696
g73
(dp4697
sg82
g4691
sg75
(lp4698
g68
(g69
g70
NtRp4699
(dp4700
g73
(dp4701
g81
I1
ssg82
g4695
sg75
(lp4702
I00
asbasbasbag68
(g84
g70
NtRp4703
(dp4704
g73
(dp4705
sg82
g4674
sg75
(lp4706
g68
(g89
g70
NtRp4707
(dp4708
g73
(dp4709
sg82
g4703
sg75
(lp4710
g68
(g69
g70
NtRp4711
(dp4712
g73
(dp4713
g81
I1
ssg82
g4707
sg75
(lp4714
S'/admin/default/about/places.load'
p4715
asbasbasbasbasbasbasbasbasbasbasbasbasbasbasbag68
(g84
g70
NtRp4716
(dp4717
g73
(dp4718
sg82
g4085
sg75
(lp4719
g68
(g89
g70
NtRp4720
(dp4721
g73
(dp4722
sg82
g4716
sg75
(lp4723
g68
(g69
g70
NtRp4724
(dp4725
g73
(dp4726
g81
I4
ssg82
g4720
sg75
(lp4727
g68
(g77
g70
NtRp4728
(dp4729
g73
(dp4730
g81
I3
ssg82
Nsg75
(lp4731
g68
(g84
g70
NtRp4732
(dp4733
g73
(dp4734
sg82
g4728
sg75
(lp4735
g68
(g89
g70
NtRp4736
(dp4737
g73
(dp4738
sg82
g4732
sg75
(lp4739
g68
(g69
g70
NtRp4740
(dp4741
g73
(dp4742
g81
I3
ssg82
g4736
sg75
(lp4743
g4117
(S't\t\x00\x00\x00Resources'
tRp4744
asbasbasbag68
(g84
g70
NtRp4745
(dp4746
g73
(dp4747
sg82
g4728
sg75
(lp4748
g68
(g89
g70
NtRp4749
(dp4750
g73
(dp4751
sg82
g4745
sg75
(lp4752
g68
(g69
g70
NtRp4753
(dp4754
g73
(dp4755
g81
I3
ssg82
g4749
sg75
(lp4756
g993
asbasbasbag68
(g84
g70
NtRp4757
(dp4758
g73
(dp4759
sg82
g4728
sg75
(lp4760
g68
(g89
g70
NtRp4761
(dp4762
g73
(dp4763
sg82
g4757
sg75
(lp4764
g68
(g69
g70
NtRp4765
(dp4766
g73
(dp4767
g81
I3
ssg82
g4761
sg75
(lp4768
S'None'
p4769
asbasbasbag68
(g84
g70
NtRp4770
(dp4771
g73
(dp4772
sg82
g4728
sg75
(lp4773
g68
(g89
g70
NtRp4774
(dp4775
g73
(dp4776
sg82
g4770
sg75
(lp4777
g68
(g69
g70
NtRp4778
(dp4779
g73
(dp4780
g81
I3
ssg82
g4774
sg75
(lp4781
g68
(g77
g70
NtRp4782
(dp4783
g73
(dp4784
g81
I2
ssg82
Nsg75
(lp4785
g68
(g84
g70
NtRp4786
(dp4787
g73
(dp4788
sg82
g4782
sg75
(lp4789
g68
(g89
g70
NtRp4790
(dp4791
g73
(dp4792
sg82
g4786
sg75
(lp4793
g68
(g69
g70
NtRp4794
(dp4795
g73
(dp4796
g81
I2
ssg82
g4790
sg75
(lp4797
g68
(g77
g70
NtRp4798
(dp4799
g73
(dp4800
g81
I1
ssg82
Nsg75
(lp4801
g68
(g84
g70
NtRp4802
(dp4803
g73
(dp4804
sg82
g4798
sg75
(lp4805
g68
(g89
g70
NtRp4806
(dp4807
g73
(dp4808
sg82
g4802
sg75
(lp4809
g68
(g69
g70
NtRp4810
(dp4811
g73
(dp4812
g81
I1
ssg82
g4806
sg75
(lp4813
g4117
(S't\r\x00\x00\x00Documentation'
tRp4814
asbasbasbag68
(g84
g70
NtRp4815
(dp4816
g73
(dp4817
sg82
g4798
sg75
(lp4818
g68
(g89
g70
NtRp4819
(dp4820
g73
(dp4821
sg82
g4815
sg75
(lp4822
g68
(g69
g70
NtRp4823
(dp4824
g73
(dp4825
g81
I1
ssg82
g4819
sg75
(lp4826
I00
asbasbasbag68
(g84
g70
NtRp4827
(dp4828
g73
(dp4829
sg82
g4798
sg75
(lp4830
g68
(g89
g70
NtRp4831
(dp4832
g73
(dp4833
sg82
g4827
sg75
(lp4834
g68
(g69
g70
NtRp4835
(dp4836
g73
(dp4837
g81
I1
ssg82
g4831
sg75
(lp4838
S'http://www.web2py.com/book'
p4839
asbasbasbag68
(g84
g70
NtRp4840
(dp4841
g73
(dp4842
sg82
g4798
sg75
(lp4843
g68
(g89
g70
NtRp4844
(dp4845
g73
(dp4846
sg82
g4840
sg75
(lp4847
g68
(g69
g70
NtRp4848
(dp4849
g73
(dp4850
g81
I1
ssg82
g4844
sg75
(lp4851
(lp4852
(g4117
(S't\x07\x00\x00\x00Preface'
tRp4853
I00
S'http://www.web2py.com/book/default/chapter/00'
p4854
tp4855
a(g4117
(S't\x0c\x00\x00\x00Introduction'
tRp4856
I00
S'http://www.web2py.com/book/default/chapter/01'
p4857
tp4858
a(g4117
(S't\x06\x00\x00\x00Python'
tRp4859
I00
S'http://www.web2py.com/book/default/chapter/02'
p4860
tp4861
a(g4117
(S't\x08\x00\x00\x00Overview'
tRp4862
I00
S'http://www.web2py.com/book/default/chapter/03'
p4863
tp4864
a(g4117
(S's\x08\x00\x00\x00The Core'
tRp4865
I00
S'http://www.web2py.com/book/default/chapter/04'
p4866
tp4867
a(g4117
(S's\t\x00\x00\x00The Views'
tRp4868
I00
S'http://www.web2py.com/book/default/chapter/05'
p4869
tp4870
a(g4117
(S't\x08\x00\x00\x00Database'
tRp4871
I00
S'http://www.web2py.com/book/default/chapter/06'
p4872
tp4873
a(g4117
(S's\x14\x00\x00\x00Forms and Validators'
tRp4874
I00
S'http://www.web2py.com/book/default/chapter/07'
p4875
tp4876
a(g4117
(S's\x0e\x00\x00\x00Access Control'
tRp4877
I00
S'http://www.web2py.com/book/default/chapter/08'
p4878
tp4879
a(g4117
(S't\x08\x00\x00\x00Services'
tRp4880
I00
S'http://www.web2py.com/book/default/chapter/09'
p4881
tp4882
a(g4117
(S's\x0c\x00\x00\x00Ajax Recipes'
tRp4883
I00
S'http://www.web2py.com/book/default/chapter/10'
p4884
tp4885
a(g4117
(S's\x12\x00\x00\x00Deployment Recipes'
tRp4886
I00
S'http://www.web2py.com/book/default/chapter/11'
p4887
tp4888
a(g4117
(S's\r\x00\x00\x00Other Recipes'
tRp4889
I00
S'http://www.web2py.com/book/default/chapter/12'
p4890
tp4891
a(g4117
(S's\r\x00\x00\x00Buy this book'
tRp4892
I00
S'http://stores.lulu.com/web2py'
p4893
tp4894
aasbasbasbasbasbasbasbag68
(g84
g70
NtRp4895
(dp4896
g73
(dp4897
sg82
g4782
sg75
(lp4898
g68
(g89
g70
NtRp4899
(dp4900
g73
(dp4901
sg82
g4895
sg75
(lp4902
g68
(g69
g70
NtRp4903
(dp4904
g73
(dp4905
g81
I2
ssg82
g4899
sg75
(lp4906
g68
(g77
g70
NtRp4907
(dp4908
g73
(dp4909
g81
I1
ssg82
Nsg75
(lp4910
g68
(g84
g70
NtRp4911
(dp4912
g73
(dp4913
sg82
g4907
sg75
(lp4914
g68
(g89
g70
NtRp4915
(dp4916
g73
(dp4917
sg82
g4911
sg75
(lp4918
g68
(g69
g70
NtRp4919
(dp4920
g73
(dp4921
g81
I1
ssg82
g4915
sg75
(lp4922
g4117
(S't\t\x00\x00\x00Community'
tRp4923
asbasbasbag68
(g84
g70
NtRp4924
(dp4925
g73
(dp4926
sg82
g4907
sg75
(lp4927
g68
(g89
g70
NtRp4928
(dp4929
g73
(dp4930
sg82
g4924
sg75
(lp4931
g68
(g69
g70
NtRp4932
(dp4933
g73
(dp4934
g81
I1
ssg82
g4928
sg75
(lp4935
I00
asbasbasbag68
(g84
g70
NtRp4936
(dp4937
g73
(dp4938
sg82
g4907
sg75
(lp4939
g68
(g89
g70
NtRp4940
(dp4941
g73
(dp4942
sg82
g4936
sg75
(lp4943
g68
(g69
g70
NtRp4944
(dp4945
g73
(dp4946
g81
I1
ssg82
g4940
sg75
(lp4947
Nasbasbasbag68
(g84
g70
NtRp4948
(dp4949
g73
(dp4950
sg82
g4907
sg75
(lp4951
g68
(g89
g70
NtRp4952
(dp4953
g73
(dp4954
sg82
g4948
sg75
(lp4955
g68
(g69
g70
NtRp4956
(dp4957
g73
(dp4958
g81
I1
ssg82
g4952
sg75
(lp4959
(lp4960
(g4117
(S't\x06\x00\x00\x00Groups'
tRp4961
I00
S'http://www.web2py.com/examples/default/usergroups'
p4962
tp4963
a(g4117
(S't\x07\x00\x00\x00Twitter'
tRp4964
I00
S'http://twitter.com/web2py'
p4965
tp4966
a(g4117
(S's\t\x00\x00\x00Live chat'
tRp4967
I00
S'http://mibbit.com/?channel=%23web2py&server=irc.mibbit.net'
p4968
tp4969
a(g4117
(S's\n\x00\x00\x00User Voice'
tRp4970
I00
S'http://web2py.uservoice.com/'
p4971
tp4972
aasbasbasbasbasbasbasbag68
(g84
g70
NtRp4973
(dp4974
g73
(dp4975
sg82
g4782
sg75
(lp4976
g68
(g89
g70
NtRp4977
(dp4978
g73
(dp4979
sg82
g4973
sg75
(lp4980
g68
(g69
g70
NtRp4981
(dp4982
g73
(dp4983
g81
I2
ssg82
g4977
sg75
(lp4984
g68
(g77
g70
NtRp4985
(dp4986
g73
(dp4987
g81
I1
ssg82
Nsg75
(lp4988
g68
(g84
g70
NtRp4989
(dp4990
g73
(dp4991
sg82
g4985
sg75
(lp4992
g68
(g89
g70
NtRp4993
(dp4994
g73
(dp4995
sg82
g4989
sg75
(lp4996
g68
(g69
g70
NtRp4997
(dp4998
g73
(dp4999
g81
I1
ssg82
g4993
sg75
(lp5000
g4117
(S't\x06\x00\x00\x00Web2py'
tRp5001
asbasbasbag68
(g84
g70
NtRp5002
(dp5003
g73
(dp5004
sg82
g4985
sg75
(lp5005
g68
(g89
g70
NtRp5006
(dp5007
g73
(dp5008
sg82
g5002
sg75
(lp5009
g68
(g69
g70
NtRp5010
(dp5011
g73
(dp5012
g81
I1
ssg82
g5006
sg75
(lp5013
I00
asbasbasbag68
(g84
g70
NtRp5014
(dp5015
g73
(dp5016
sg82
g4985
sg75
(lp5017
g68
(g89
g70
NtRp5018
(dp5019
g73
(dp5020
sg82
g5014
sg75
(lp5021
g68
(g69
g70
NtRp5022
(dp5023
g73
(dp5024
g81
I1
ssg82
g5018
sg75
(lp5025
S'http://www.web2py.com'
p5026
asbasbasbag68
(g84
g70
NtRp5027
(dp5028
g73
(dp5029
sg82
g4985
sg75
(lp5030
g68
(g89
g70
NtRp5031
(dp5032
g73
(dp5033
sg82
g5027
sg75
(lp5034
g68
(g69
g70
NtRp5035
(dp5036
g73
(dp5037
g81
I1
ssg82
g5031
sg75
(lp5038
(lp5039
(g4117
(S't\x08\x00\x00\x00Download'
tRp5040
I00
S'http://www.web2py.com/examples/default/download'
p5041
tp5042
a(g4117
(S't\x07\x00\x00\x00Support'
tRp5043
I00
S'http://www.web2py.com/examples/default/support'
p5044
tp5045
a(g4117
(S's\x0e\x00\x00\x00Quick Examples'
tRp5046
I00
S'http://web2py.com/examples/default/examples'
p5047
tp5048
a(g4117
(S't\x03\x00\x00\x00FAQ'
tRp5049
I00
S'http://web2py.com/AlterEgo'
p5050
tp5051
a(g4117
(S's\x11\x00\x00\x00Free Applications'
tRp5052
I00
S'http://web2py.com/appliances'
p5053
tp5054
a(g4117
(S't\x07\x00\x00\x00Plugins'
tRp5055
I00
S'http://web2py.com/plugins'
p5056
tp5057
a(g4117
(S't\x07\x00\x00\x00Recipes'
tRp5058
I00
S'http://web2pyslices.com/'
p5059
tp5060
a(g4117
(S't\x04\x00\x00\x00Demo'
tRp5061
I00
S'http://web2py.com/demo_admin'
p5062
tp5063
a(g4117
(S't\x08\x00\x00\x00Semantic'
tRp5064
I00
S'http://web2py.com/semantic'
p5065
tp5066
a(g4117
(S't\x07\x00\x00\x00Layouts'
tRp5067
I00
S'http://web2py.com/layouts'
p5068
tp5069
a(g4117
(S't\x06\x00\x00\x00Videos'
tRp5070
I00
S'http://www.web2py.com/examples/default/videos/'
p5071
tp5072
aasbasbasbasbasbasbasbasbasbasbasbasbasbasbasbasbasbasbasbag68
(g84
g70
NtRp5073
(dp5074
g73
(dp5075
sg82
g3612
sg75
(lp5076
g68
(g89
g70
NtRp5077
(dp5078
g73
(dp5079
g93
g94
ssg82
g5073
sg75
(lp5080
S'meta'
p5081
asbag68
(g89
g70
NtRp5082
(dp5083
g73
(dp5084
g100
g101
ssg82
g5073
sg75
(lp5085
S':'
asbag68
(g89
g70
NtRp5086
(dp5087
g73
(dp5088
sg82
g5073
sg75
(lp5089
g68
(g69
g70
NtRp5090
(dp5091
g73
(dp5092
g81
I5
ssg82
g5086
sg75
(lp5093
g68
(g77
g70
NtRp5094
(dp5095
g73
(dp5096
g81
I4
ssg82
Nsg75
(lp5097
g68
(g84
g70
NtRp5098
(dp5099
g73
(dp5100
sg82
g5094
sg75
(lp5101
g68
(g89
g70
NtRp5102
(dp5103
g73
(dp5104
g93
g94
ssg82
g5098
sg75
(lp5105
S'author'
p5106
asbag68
(g89
g70
NtRp5107
(dp5108
g73
(dp5109
g100
g101
ssg82
g5098
sg75
(lp5110
S':'
asbag68
(g89
g70
NtRp5111
(dp5112
g73
(dp5113
sg82
g5098
sg75
(lp5114
g68
(g69
g70
NtRp5115
(dp5116
g73
(dp5117
g81
I4
ssg82
g5111
sg75
(lp5118
S'Your Name <you@example.com>'
p5119
asbasbasbag68
(g84
g70
NtRp5120
(dp5121
g73
(dp5122
sg82
g5094
sg75
(lp5123
g68
(g89
g70
NtRp5124
(dp5125
g73
(dp5126
g93
g94
ssg82
g5120
sg75
(lp5127
S'copyright'
p5128
asbag68
(g89
g70
NtRp5129
(dp5130
g73
(dp5131
g100
g101
ssg82
g5120
sg75
(lp5132
S':'
asbag68
(g89
g70
NtRp5133
(dp5134
g73
(dp5135
sg82
g5120
sg75
(lp5136
g68
(g69
g70
NtRp5137
(dp5138
g73
(dp5139
g81
I4
ssg82
g5133
sg75
(lp5140
S'Copyright 2011'
p5141
asbasbasbag68
(g84
g70
NtRp5142
(dp5143
g73
(dp5144
sg82
g5094
sg75
(lp5145
g68
(g89
g70
NtRp5146
(dp5147
g73
(dp5148
g93
g94
ssg82
g5142
sg75
(lp5149
S'description'
p5150
asbag68
(g89
g70
NtRp5151
(dp5152
g73
(dp5153
g100
g101
ssg82
g5142
sg75
(lp5154
S':'
asbag68
(g89
g70
NtRp5155
(dp5156
g73
(dp5157
sg82
g5142
sg75
(lp5158
g68
(g69
g70
NtRp5159
(dp5160
g73
(dp5161
g81
I4
ssg82
g5155
sg75
(lp5162
S'a cool new app'
p5163
asbasbasbag68
(g84
g70
NtRp5164
(dp5165
g73
(dp5166
sg82
g5094
sg75
(lp5167
g68
(g89
g70
NtRp5168
(dp5169
g73
(dp5170
g93
g94
ssg82
g5164
sg75
(lp5171
S'generator'
p5172
asbag68
(g89
g70
NtRp5173
(dp5174
g73
(dp5175
g100
g101
ssg82
g5164
sg75
(lp5176
S':'
asbag68
(g89
g70
NtRp5177
(dp5178
g73
(dp5179
sg82
g5164
sg75
(lp5180
g68
(g69
g70
NtRp5181
(dp5182
g73
(dp5183
g81
I4
ssg82
g5177
sg75
(lp5184
S'Web2py Web Framework'
p5185
asbasbasbag68
(g84
g70
NtRp5186
(dp5187
g73
(dp5188
sg82
g5094
sg75
(lp5189
g68
(g89
g70
NtRp5190
(dp5191
g73
(dp5192
g93
g94
ssg82
g5186
sg75
(lp5193
S'keywords'
p5194
asbag68
(g89
g70
NtRp5195
(dp5196
g73
(dp5197
g100
g101
ssg82
g5186
sg75
(lp5198
S':'
asbag68
(g89
g70
NtRp5199
(dp5200
g73
(dp5201
sg82
g5186
sg75
(lp5202
g68
(g69
g70
NtRp5203
(dp5204
g73
(dp5205
g81
I4
ssg82
g5199
sg75
(lp5206
S'web2py, python, framework'
p5207
asbasbasbasbasbasbasbag68
(g84
g70
NtRp5208
(dp5209
g73
(dp5210
sg82
g3612
sg75
(lp5211
g68
(g89
g70
NtRp5212
(dp5213
g73
(dp5214
g93
g94
ssg82
g5208
sg75
(lp5215
S'postprocessing'
p5216
asbag68
(g89
g70
NtRp5217
(dp5218
g73
(dp5219
g100
g101
ssg82
g5208
sg75
(lp5220
S':'
asbag68
(g89
g70
NtRp5221
(dp5222
g73
(dp5223
sg82
g5208
sg75
(lp5224
g68
(g69
g70
NtRp5225
(dp5226
g73
(dp5227
g81
I5
ssg82
g5221
sg75
(lp5228
g68
(g77
g70
NtRp5229
(dp5230
g73
(dp5231
g81
I4
ssg82
Nsg75
(lp5232
sbasbasbasbag68
(g84
g70
NtRp5233
(dp5234
g73
(dp5235
sg82
g3612
sg75
(lp5236
g68
(g89
g70
NtRp5237
(dp5238
g73
(dp5239
g93
g94
ssg82
g5233
sg75
(lp5240
S'session_file'
p5241
asbag68
(g89
g70
NtRp5242
(dp5243
g73
(dp5244
g100
g101
ssg82
g5233
sg75
(lp5245
S':'
asbag68
(g89
g70
NtRp5246
(dp5247
g73
(dp5248
sg82
g5233
sg75
(lp5249
g68
(g69
g70
NtRp5250
(dp5251
g73
(dp5252
g81
I5
ssg82
g5246
sg75
(lp5253
S"<open file '/home/ian/web2py/applications/places/sessions/127.0.0.1-9bd70a00-d029-4b6e-8bcc-a423c3a61399', mode 'rb+' at 0x2bdbdb0>"
p5254
asbasbasbag68
(g84
g70
NtRp5255
(dp5256
g73
(dp5257
sg82
g3612
sg75
(lp5258
g68
(g89
g70
NtRp5259
(dp5260
g73
(dp5261
g93
g94
ssg82
g5255
sg75
(lp5262
S'session_filename'
p5263
asbag68
(g89
g70
NtRp5264
(dp5265
g73
(dp5266
g100
g101
ssg82
g5255
sg75
(lp5267
S':'
asbag68
(g89
g70
NtRp5268
(dp5269
g73
(dp5270
sg82
g5255
sg75
(lp5271
g68
(g69
g70
NtRp5272
(dp5273
g73
(dp5274
g81
I5
ssg82
g5268
sg75
(lp5275
S'/home/ian/web2py/applications/places/sessions/127.0.0.1-9bd70a00-d029-4b6e-8bcc-a423c3a61399'
p5276
asbasbasbag68
(g84
g70
NtRp5277
(dp5278
g73
(dp5279
sg82
g3612
sg75
(lp5280
g68
(g89
g70
NtRp5281
(dp5282
g73
(dp5283
g93
g94
ssg82
g5277
sg75
(lp5284
S'session_id'
p5285
asbag68
(g89
g70
NtRp5286
(dp5287
g73
(dp5288
g100
g101
ssg82
g5277
sg75
(lp5289
S':'
asbag68
(g89
g70
NtRp5290
(dp5291
g73
(dp5292
sg82
g5277
sg75
(lp5293
g68
(g69
g70
NtRp5294
(dp5295
g73
(dp5296
g81
I5
ssg82
g5290
sg75
(lp5297
S'127.0.0.1-9bd70a00-d029-4b6e-8bcc-a423c3a61399'
p5298
asbasbasbag68
(g84
g70
NtRp5299
(dp5300
g73
(dp5301
sg82
g3612
sg75
(lp5302
g68
(g89
g70
NtRp5303
(dp5304
g73
(dp5305
g93
g94
ssg82
g5299
sg75
(lp5306
S'session_id_name'
p5307
asbag68
(g89
g70
NtRp5308
(dp5309
g73
(dp5310
g100
g101
ssg82
g5299
sg75
(lp5311
S':'
asbag68
(g89
g70
NtRp5312
(dp5313
g73
(dp5314
sg82
g5299
sg75
(lp5315
g68
(g69
g70
NtRp5316
(dp5317
g73
(dp5318
g81
I5
ssg82
g5312
sg75
(lp5319
g3669
asbasbasbag68
(g84
g70
NtRp5320
(dp5321
g73
(dp5322
sg82
g3612
sg75
(lp5323
g68
(g89
g70
NtRp5324
(dp5325
g73
(dp5326
g93
g94
ssg82
g5320
sg75
(lp5327
S'session_locked'
p5328
asbag68
(g89
g70
NtRp5329
(dp5330
g73
(dp5331
g100
g101
ssg82
g5320
sg75
(lp5332
S':'
asbag68
(g89
g70
NtRp5333
(dp5334
g73
(dp5335
sg82
g5320
sg75
(lp5336
g68
(g69
g70
NtRp5337
(dp5338
g73
(dp5339
g81
I5
ssg82
g5333
sg75
(lp5340
g111
asbasbasbag68
(g84
g70
NtRp5341
(dp5342
g73
(dp5343
sg82
g3612
sg75
(lp5344
g68
(g89
g70
NtRp5345
(dp5346
g73
(dp5347
g93
g94
ssg82
g5341
sg75
(lp5348
S'session_new'
p5349
asbag68
(g89
g70
NtRp5350
(dp5351
g73
(dp5352
g100
g101
ssg82
g5341
sg75
(lp5353
S':'
asbag68
(g89
g70
NtRp5354
(dp5355
g73
(dp5356
sg82
g5341
sg75
(lp5357
g68
(g69
g70
NtRp5358
(dp5359
g73
(dp5360
g81
I5
ssg82
g5354
sg75
(lp5361
g993
asbasbasbag68
(g84
g70
NtRp5362
(dp5363
g73
(dp5364
sg82
g3612
sg75
(lp5365
g68
(g89
g70
NtRp5366
(dp5367
g73
(dp5368
g93
g94
ssg82
g5362
sg75
(lp5369
S'status'
p5370
asbag68
(g89
g70
NtRp5371
(dp5372
g73
(dp5373
g100
g101
ssg82
g5362
sg75
(lp5374
S':'
asbag68
(g89
g70
NtRp5375
(dp5376
g73
(dp5377
sg82
g5362
sg75
(lp5378
g68
(g69
g70
NtRp5379
(dp5380
g73
(dp5381
g81
I5
ssg82
g5375
sg75
(lp5382
S'200'
p5383
asbasbasbag68
(g84
g70
NtRp5384
(dp5385
g73
(dp5386
sg82
g3612
sg75
(lp5387
g68
(g89
g70
NtRp5388
(dp5389
g73
(dp5390
g93
g94
ssg82
g5384
sg75
(lp5391
S'subtitle'
p5392
asbag68
(g89
g70
NtRp5393
(dp5394
g73
(dp5395
g100
g101
ssg82
g5384
sg75
(lp5396
S':'
asbag68
(g89
g70
NtRp5397
(dp5398
g73
(dp5399
sg82
g5384
sg75
(lp5400
g68
(g69
g70
NtRp5401
(dp5402
g73
(dp5403
g81
I5
ssg82
g5397
sg75
(lp5404
g4117
(S's\r\x00\x00\x00customize me!'
tRp5405
asbasbasbag68
(g84
g70
NtRp5406
(dp5407
g73
(dp5408
sg82
g3612
sg75
(lp5409
g68
(g89
g70
NtRp5410
(dp5411
g73
(dp5412
g93
g94
ssg82
g5406
sg75
(lp5413
S'title'
p5414
asbag68
(g89
g70
NtRp5415
(dp5416
g73
(dp5417
g100
g101
ssg82
g5406
sg75
(lp5418
S':'
asbag68
(g89
g70
NtRp5419
(dp5420
g73
(dp5421
sg82
g5406
sg75
(lp5422
g68
(g69
g70
NtRp5423
(dp5424
g73
(dp5425
g81
I5
ssg82
g5419
sg75
(lp5426
g133
asbasbasbag68
(g84
g70
NtRp5427
(dp5428
g73
(dp5429
sg82
g3612
sg75
(lp5430
g68
(g89
g70
NtRp5431
(dp5432
g73
(dp5433
g93
g94
ssg82
g5427
sg75
(lp5434
g2443
asbag68
(g89
g70
NtRp5435
(dp5436
g73
(dp5437
g100
g101
ssg82
g5427
sg75
(lp5438
S':'
asbag68
(g89
g70
NtRp5439
(dp5440
g73
(dp5441
sg82
g5427
sg75
(lp5442
g68
(g69
g70
NtRp5443
(dp5444
g73
(dp5445
g81
I5
ssg82
g5439
sg75
(lp5446
g2456
asbasbasbag68
(g84
g70
NtRp5447
(dp5448
g73
(dp5449
sg82
g3612
sg75
(lp5450
g68
(g89
g70
NtRp5451
(dp5452
g73
(dp5453
g93
g94
ssg82
g5447
sg75
(lp5454
S'view'
p5455
asbag68
(g89
g70
NtRp5456
(dp5457
g73
(dp5458
g100
g101
ssg82
g5447
sg75
(lp5459
S':'
asbag68
(g89
g70
NtRp5460
(dp5461
g73
(dp5462
sg82
g5447
sg75
(lp5463
g68
(g69
g70
NtRp5464
(dp5465
g73
(dp5466
g81
I5
ssg82
g5460
sg75
(lp5467
S'default/index.load'
p5468
asbasbasbasbasbsS'locals'
p5469
(dp5470
g73
g20
sS'self'
p5471
S'<gluon.html.IMG object>'
p5472
sg75
S'(None,)'
p5473
sssS'traceback'
p5474
S'Traceback (most recent call last):\n  File "/home/ian/web2py/gluon/restricted.py", line 194, in restricted\n    exec ccode in environment\n  File "/home/ian/web2py/applications/places/views/default/index.load", line 3, in <module>\n    {{=A(IMG(link.link_image), _href=link.link_url, _title=link.link_name, _alt=link.link_name)}}\n  File "/home/ian/web2py/gluon/html.py", line 579, in __init__\n    % self.tag\nSyntaxError: <img/> tags cannot have components\n'
p5475
s.