(dp1
S'output'
p2
S''
sS'layer'
p3
S'/home/ian/web2py/applications/places/controllers/default.py'
p4
sS'code'
p5
S'# -*- coding: utf-8 -*-\n# this file is released under public domain and you can use without limitations\n\n#########################################################################\n## This is a samples controller\n## - index is the default action of any application\n## - user is required for authentication and authorization\n## - download is for downloading files uploaded in the db (does streaming)\n## - call exposes all registered services (none by default)\n#########################################################################\n\ndef index():\n    """\n    example action using the internationalization operator T and flash\n    rendered by views/default/index.html or views/generic.html\n    """   \n        \n    if request.vars.the_view:\n\t\tcurrent_view = request.vars.the_view\n        session.the_view = current_view\n    elif session.the_view:\n        current_view = session.the_view    \n    else:\n        current_view = "kitchen"\n    \n    current_row = db(db.tags.tag == current_view).select()    \n    current_tag = current_row[0].id\n            \n    links = db(db.links.tags.contains(current_tag)).select()\n    \n    return dict(links = links)\n\ndef user():\n    """\n    exposes:\n    http://..../[app]/default/user/login\n    http://..../[app]/default/user/logout\n    http://..../[app]/default/user/register\n    http://..../[app]/default/user/profile\n    http://..../[app]/default/user/retrieve_password\n    http://..../[app]/default/user/change_password\n    use @auth.requires_login()\n        @auth.requires_membership(\'group name\')\n        @auth.requires_permission(\'read\',\'table name\',record_id)\n    to decorate functions that need access control\n    """\n    return dict(form=auth())\n\n\ndef download():\n    """\n    allows downloading of uploaded files\n    http://..../[app]/default/download/[filename]\n    """\n    return response.download(request,db)\n\n\ndef call():\n    """\n    exposes services. for example:\n    http://..../[app]/default/call/jsonrpc\n    decorate with @services.jsonrpc the functions to expose\n    supports xml, json, xmlrpc, jsonrpc, amfrpc, rss, csv\n    """\n    return service()\n\n\n@auth.requires_signature()\ndef data():\n    """\n    http://..../[app]/default/data/tables\n    http://..../[app]/default/data/create/[table]\n    http://..../[app]/default/data/read/[table]/[id]\n    http://..../[app]/default/data/update/[table]/[id]\n    http://..../[app]/default/data/delete/[table]/[id]\n    http://..../[app]/default/data/select/[table]\n    http://..../[app]/default/data/search/[table]\n    but URLs bust be signed, i.e. linked with\n      A(\'table\',_href=URL(\'data/tables\',user_signature=True))\n    or with the signed load operator\n      LOAD(\'default\',\'data.load\',args=\'tables\',ajax=True,user_signature=True)\n    """\n    return dict(form=crud())\n\n@auth.requires_membership(\'administrators\')\ndef edit():\n    edit_form = crud.update(db.links, request.args[0])\n    closer = A(\'close\', _href=URL(\'#\'), _class=\'close_link\')\n    the_title = H3(\'Edit this Place\')\n    \n    return dict(form = edit_form, closer=closer, the_title=the_title)\n\t\n@auth.requires_membership(\'administrators\')\ndef create():\n\tform = crud.create(db.links)\n\tcloser = A(\'close\', _href=URL(\'#\'), _class=\'close_link\')\n\tthe_title = H3(\'Link to a New Place\')\n\t\t\n\treturn dict(form = form, closer=closer, the_title=the_title)\n\nresponse._vars=response._caller(index)\n'
p6
sS'snapshot'
p7
(dp8
S'exception'
p9
(dp10
S'__getslice__'
p11
S"<method-wrapper '__getslice__' of exceptions.IndentationError object>"
p12
sS'text'
p13
S"'        session.the_view = current_view\\n'"
p14
sS'__str__'
p15
S"<method-wrapper '__str__' of exceptions.IndentationError object>"
p16
sS'__reduce__'
p17
S'<built-in method __reduce__ of exceptions.IndentationError object>'
p18
sS'__dict__'
p19
S'{}'
p20
sS'__sizeof__'
p21
S'<built-in method __sizeof__ of exceptions.IndentationError object>'
p22
sS'__init__'
p23
S"<method-wrapper '__init__' of exceptions.IndentationError object>"
p24
sS'__setattr__'
p25
S"<method-wrapper '__setattr__' of exceptions.IndentationError object>"
p26
sS'__reduce_ex__'
p27
S'<built-in method __reduce_ex__ of exceptions.IndentationError object>'
p28
sS'__new__'
p29
S'<built-in method __new__ of type object>'
p30
sS'__format__'
p31
S'<built-in method __format__ of exceptions.IndentationError object>'
p32
sS'__class__'
p33
S"<type 'exceptions.IndentationError'>"
p34
sS'filename'
p35
S"'/home/ian/web2py/applications/places/controllers/default.py'"
p36
sS'lineno'
p37
S'20'
p38
sS'msg'
p39
S"'unindent does not match any outer indentation level'"
p40
sS'__doc__'
p41
S"'Improper indentation.'"
p42
sS'__getitem__'
p43
S"<method-wrapper '__getitem__' of exceptions.IndentationError object>"
p44
sS'__setstate__'
p45
S'<built-in method __setstate__ of exceptions.IndentationError object>'
p46
sS'__getattribute__'
p47
S"<method-wrapper '__getattribute__' of exceptions.IndentationError object>"
p48
sS'print_file_and_line'
p49
S'None'
p50
sS'args'
p51
S"('unindent does not match any outer indentation level', ('/home/ian/web2py/applications/places/controllers/default.py', 20, 40, '        session.the_view = current_view\\n'))"
p52
sS'__subclasshook__'
p53
S'<built-in method __subclasshook__ of type object>'
p54
sS'offset'
p55
S'40'
p56
sS'__unicode__'
p57
S'<built-in method __unicode__ of exceptions.IndentationError object>'
p58
sS'__delattr__'
p59
S"<method-wrapper '__delattr__' of exceptions.IndentationError object>"
p60
sS'__repr__'
p61
S"<method-wrapper '__repr__' of exceptions.IndentationError object>"
p62
sS'__hash__'
p63
S"<method-wrapper '__hash__' of exceptions.IndentationError object>"
p64
ssS'evalue'
p65
S'unindent does not match any outer indentation level (default.py, line 20)'
p66
sS'request'
p67
ccopy_reg
_reconstructor
p68
(cgluon.html
BEAUTIFY
p69
c__builtin__
object
p70
NtRp71
(dp72
S'attributes'
p73
(dp74
sS'components'
p75
(lp76
g68
(cgluon.html
TABLE
p77
g70
NtRp78
(dp79
g73
(dp80
S'level'
p81
I5
ssS'parent'
p82
Nsg75
(lp83
g68
(cgluon.html
TR
p84
g70
NtRp85
(dp86
g73
(dp87
sg82
g78
sg75
(lp88
g68
(cgluon.html
TD
p89
g70
NtRp90
(dp91
g73
(dp92
S'_style'
p93
S'font-weight:bold;'
p94
ssg82
g85
sg75
(lp95
S'ajax'
p96
asbag68
(g89
g70
NtRp97
(dp98
g73
(dp99
S'_valign'
p100
S'top'
p101
ssg82
g85
sg75
(lp102
S':'
asbag68
(g89
g70
NtRp103
(dp104
g73
(dp105
sg82
g85
sg75
(lp106
g68
(g69
g70
NtRp107
(dp108
g73
(dp109
g81
I5
ssg82
g103
sg75
(lp110
S'False'
p111
asbasbasbag68
(g84
g70
NtRp112
(dp113
g73
(dp114
sg82
g78
sg75
(lp115
g68
(g89
g70
NtRp116
(dp117
g73
(dp118
g93
g94
ssg82
g112
sg75
(lp119
S'application'
p120
asbag68
(g89
g70
NtRp121
(dp122
g73
(dp123
g100
g101
ssg82
g112
sg75
(lp124
S':'
asbag68
(g89
g70
NtRp125
(dp126
g73
(dp127
sg82
g112
sg75
(lp128
g68
(g69
g70
NtRp129
(dp130
g73
(dp131
g81
I5
ssg82
g125
sg75
(lp132
S'places'
p133
asbasbasbag68
(g84
g70
NtRp134
(dp135
g73
(dp136
sg82
g78
sg75
(lp137
g68
(g89
g70
NtRp138
(dp139
g73
(dp140
g93
g94
ssg82
g134
sg75
(lp141
g51
asbag68
(g89
g70
NtRp142
(dp143
g73
(dp144
g100
g101
ssg82
g134
sg75
(lp145
S':'
asbag68
(g89
g70
NtRp146
(dp147
g73
(dp148
sg82
g134
sg75
(lp149
g68
(g69
g70
NtRp150
(dp151
g73
(dp152
g81
I5
ssg82
g146
sg75
(lp153
g68
(g77
g70
NtRp154
(dp155
g73
(dp156
g81
I4
ssg82
Nsg75
(lp157
sbasbasbasbag68
(g84
g70
NtRp158
(dp159
g73
(dp160
sg82
g78
sg75
(lp161
g68
(g89
g70
NtRp162
(dp163
g73
(dp164
g93
g94
ssg82
g158
sg75
(lp165
S'body'
p166
asbag68
(g89
g70
NtRp167
(dp168
g73
(dp169
g100
g101
ssg82
g158
sg75
(lp170
S':'
asbag68
(g89
g70
NtRp171
(dp172
g73
(dp173
sg82
g158
sg75
(lp174
g68
(g69
g70
NtRp175
(dp176
g73
(dp177
g81
I5
ssg82
g171
sg75
(lp178
S'<cStringIO.StringO object at 0x3597298>'
p179
asbasbasbag68
(g84
g70
NtRp180
(dp181
g73
(dp182
sg82
g78
sg75
(lp183
g68
(g89
g70
NtRp184
(dp185
g73
(dp186
g93
g94
ssg82
g180
sg75
(lp187
S'client'
p188
asbag68
(g89
g70
NtRp189
(dp190
g73
(dp191
g100
g101
ssg82
g180
sg75
(lp192
S':'
asbag68
(g89
g70
NtRp193
(dp194
g73
(dp195
sg82
g180
sg75
(lp196
g68
(g69
g70
NtRp197
(dp198
g73
(dp199
g81
I5
ssg82
g193
sg75
(lp200
S'127.0.0.1'
p201
asbasbasbag68
(g84
g70
NtRp202
(dp203
g73
(dp204
sg82
g78
sg75
(lp205
g68
(g89
g70
NtRp206
(dp207
g73
(dp208
g93
g94
ssg82
g202
sg75
(lp209
S'controller'
p210
asbag68
(g89
g70
NtRp211
(dp212
g73
(dp213
g100
g101
ssg82
g202
sg75
(lp214
S':'
asbag68
(g89
g70
NtRp215
(dp216
g73
(dp217
sg82
g202
sg75
(lp218
g68
(g69
g70
NtRp219
(dp220
g73
(dp221
g81
I5
ssg82
g215
sg75
(lp222
S'default'
p223
asbasbasbag68
(g84
g70
NtRp224
(dp225
g73
(dp226
sg82
g78
sg75
(lp227
g68
(g89
g70
NtRp228
(dp229
g73
(dp230
g93
g94
ssg82
g224
sg75
(lp231
S'cookies'
p232
asbag68
(g89
g70
NtRp233
(dp234
g73
(dp235
g100
g101
ssg82
g224
sg75
(lp236
S':'
asbag68
(g89
g70
NtRp237
(dp238
g73
(dp239
sg82
g224
sg75
(lp240
g68
(g69
g70
NtRp241
(dp242
g73
(dp243
g81
I5
ssg82
g237
sg75
(lp244
g68
(g77
g70
NtRp245
(dp246
g73
(dp247
g81
I4
ssg82
Nsg75
(lp248
g68
(g84
g70
NtRp249
(dp250
g73
(dp251
sg82
g245
sg75
(lp252
g68
(g89
g70
NtRp253
(dp254
g73
(dp255
g93
g94
ssg82
g249
sg75
(lp256
S'session_id_places'
p257
asbag68
(g89
g70
NtRp258
(dp259
g73
(dp260
g100
g101
ssg82
g249
sg75
(lp261
S':'
asbag68
(g89
g70
NtRp262
(dp263
g73
(dp264
sg82
g249
sg75
(lp265
g68
(g69
g70
NtRp266
(dp267
g73
(dp268
g81
I4
ssg82
g262
sg75
(lp269
g68
(g77
g70
NtRp270
(dp271
g73
(dp272
g81
I3
ssg82
Nsg75
(lp273
g68
(g84
g70
NtRp274
(dp275
g73
(dp276
sg82
g270
sg75
(lp277
g68
(g89
g70
NtRp278
(dp279
g73
(dp280
g93
g94
ssg82
g274
sg75
(lp281
S'comment'
p282
asbag68
(g89
g70
NtRp283
(dp284
g73
(dp285
g100
g101
ssg82
g274
sg75
(lp286
S':'
asbag68
(g89
g70
NtRp287
(dp288
g73
(dp289
sg82
g274
sg75
(lp290
g68
(g69
g70
NtRp291
(dp292
g73
(dp293
g81
I3
ssg82
g287
sg75
(lp294
S''
asbasbasbag68
(g84
g70
NtRp295
(dp296
g73
(dp297
sg82
g270
sg75
(lp298
g68
(g89
g70
NtRp299
(dp300
g73
(dp301
g93
g94
ssg82
g295
sg75
(lp302
S'domain'
p303
asbag68
(g89
g70
NtRp304
(dp305
g73
(dp306
g100
g101
ssg82
g295
sg75
(lp307
S':'
asbag68
(g89
g70
NtRp308
(dp309
g73
(dp310
sg82
g295
sg75
(lp311
g68
(g69
g70
NtRp312
(dp313
g73
(dp314
g81
I3
ssg82
g308
sg75
(lp315
S''
asbasbasbag68
(g84
g70
NtRp316
(dp317
g73
(dp318
sg82
g270
sg75
(lp319
g68
(g89
g70
NtRp320
(dp321
g73
(dp322
g93
g94
ssg82
g316
sg75
(lp323
S'expires'
p324
asbag68
(g89
g70
NtRp325
(dp326
g73
(dp327
g100
g101
ssg82
g316
sg75
(lp328
S':'
asbag68
(g89
g70
NtRp329
(dp330
g73
(dp331
sg82
g316
sg75
(lp332
g68
(g69
g70
NtRp333
(dp334
g73
(dp335
g81
I3
ssg82
g329
sg75
(lp336
S''
asbasbasbag68
(g84
g70
NtRp337
(dp338
g73
(dp339
sg82
g270
sg75
(lp340
g68
(g89
g70
NtRp341
(dp342
g73
(dp343
g93
g94
ssg82
g337
sg75
(lp344
S'httponly'
p345
asbag68
(g89
g70
NtRp346
(dp347
g73
(dp348
g100
g101
ssg82
g337
sg75
(lp349
S':'
asbag68
(g89
g70
NtRp350
(dp351
g73
(dp352
sg82
g337
sg75
(lp353
g68
(g69
g70
NtRp354
(dp355
g73
(dp356
g81
I3
ssg82
g350
sg75
(lp357
S''
asbasbasbag68
(g84
g70
NtRp358
(dp359
g73
(dp360
sg82
g270
sg75
(lp361
g68
(g89
g70
NtRp362
(dp363
g73
(dp364
g93
g94
ssg82
g358
sg75
(lp365
S'max-age'
p366
asbag68
(g89
g70
NtRp367
(dp368
g73
(dp369
g100
g101
ssg82
g358
sg75
(lp370
S':'
asbag68
(g89
g70
NtRp371
(dp372
g73
(dp373
sg82
g358
sg75
(lp374
g68
(g69
g70
NtRp375
(dp376
g73
(dp377
g81
I3
ssg82
g371
sg75
(lp378
S''
asbasbasbag68
(g84
g70
NtRp379
(dp380
g73
(dp381
sg82
g270
sg75
(lp382
g68
(g89
g70
NtRp383
(dp384
g73
(dp385
g93
g94
ssg82
g379
sg75
(lp386
S'path'
p387
asbag68
(g89
g70
NtRp388
(dp389
g73
(dp390
g100
g101
ssg82
g379
sg75
(lp391
S':'
asbag68
(g89
g70
NtRp392
(dp393
g73
(dp394
sg82
g379
sg75
(lp395
g68
(g69
g70
NtRp396
(dp397
g73
(dp398
g81
I3
ssg82
g392
sg75
(lp399
S''
asbasbasbag68
(g84
g70
NtRp400
(dp401
g73
(dp402
sg82
g270
sg75
(lp403
g68
(g89
g70
NtRp404
(dp405
g73
(dp406
g93
g94
ssg82
g400
sg75
(lp407
S'secure'
p408
asbag68
(g89
g70
NtRp409
(dp410
g73
(dp411
g100
g101
ssg82
g400
sg75
(lp412
S':'
asbag68
(g89
g70
NtRp413
(dp414
g73
(dp415
sg82
g400
sg75
(lp416
g68
(g69
g70
NtRp417
(dp418
g73
(dp419
g81
I3
ssg82
g413
sg75
(lp420
S''
asbasbasbag68
(g84
g70
NtRp421
(dp422
g73
(dp423
sg82
g270
sg75
(lp424
g68
(g89
g70
NtRp425
(dp426
g73
(dp427
g93
g94
ssg82
g421
sg75
(lp428
S'version'
p429
asbag68
(g89
g70
NtRp430
(dp431
g73
(dp432
g100
g101
ssg82
g421
sg75
(lp433
S':'
asbag68
(g89
g70
NtRp434
(dp435
g73
(dp436
sg82
g421
sg75
(lp437
g68
(g69
g70
NtRp438
(dp439
g73
(dp440
g81
I3
ssg82
g434
sg75
(lp441
S''
asbasbasbasbasbasbasbag68
(g84
g70
NtRp442
(dp443
g73
(dp444
sg82
g245
sg75
(lp445
g68
(g89
g70
NtRp446
(dp447
g73
(dp448
g93
g94
ssg82
g442
sg75
(lp449
S'session_id_welcome'
p450
asbag68
(g89
g70
NtRp451
(dp452
g73
(dp453
g100
g101
ssg82
g442
sg75
(lp454
S':'
asbag68
(g89
g70
NtRp455
(dp456
g73
(dp457
sg82
g442
sg75
(lp458
g68
(g69
g70
NtRp459
(dp460
g73
(dp461
g81
I4
ssg82
g455
sg75
(lp462
g68
(g77
g70
NtRp463
(dp464
g73
(dp465
g81
I3
ssg82
Nsg75
(lp466
g68
(g84
g70
NtRp467
(dp468
g73
(dp469
sg82
g463
sg75
(lp470
g68
(g89
g70
NtRp471
(dp472
g73
(dp473
g93
g94
ssg82
g467
sg75
(lp474
g282
asbag68
(g89
g70
NtRp475
(dp476
g73
(dp477
g100
g101
ssg82
g467
sg75
(lp478
S':'
asbag68
(g89
g70
NtRp479
(dp480
g73
(dp481
sg82
g467
sg75
(lp482
g68
(g69
g70
NtRp483
(dp484
g73
(dp485
g81
I3
ssg82
g479
sg75
(lp486
S''
asbasbasbag68
(g84
g70
NtRp487
(dp488
g73
(dp489
sg82
g463
sg75
(lp490
g68
(g89
g70
NtRp491
(dp492
g73
(dp493
g93
g94
ssg82
g487
sg75
(lp494
g303
asbag68
(g89
g70
NtRp495
(dp496
g73
(dp497
g100
g101
ssg82
g487
sg75
(lp498
S':'
asbag68
(g89
g70
NtRp499
(dp500
g73
(dp501
sg82
g487
sg75
(lp502
g68
(g69
g70
NtRp503
(dp504
g73
(dp505
g81
I3
ssg82
g499
sg75
(lp506
S''
asbasbasbag68
(g84
g70
NtRp507
(dp508
g73
(dp509
sg82
g463
sg75
(lp510
g68
(g89
g70
NtRp511
(dp512
g73
(dp513
g93
g94
ssg82
g507
sg75
(lp514
g324
asbag68
(g89
g70
NtRp515
(dp516
g73
(dp517
g100
g101
ssg82
g507
sg75
(lp518
S':'
asbag68
(g89
g70
NtRp519
(dp520
g73
(dp521
sg82
g507
sg75
(lp522
g68
(g69
g70
NtRp523
(dp524
g73
(dp525
g81
I3
ssg82
g519
sg75
(lp526
S''
asbasbasbag68
(g84
g70
NtRp527
(dp528
g73
(dp529
sg82
g463
sg75
(lp530
g68
(g89
g70
NtRp531
(dp532
g73
(dp533
g93
g94
ssg82
g527
sg75
(lp534
g345
asbag68
(g89
g70
NtRp535
(dp536
g73
(dp537
g100
g101
ssg82
g527
sg75
(lp538
S':'
asbag68
(g89
g70
NtRp539
(dp540
g73
(dp541
sg82
g527
sg75
(lp542
g68
(g69
g70
NtRp543
(dp544
g73
(dp545
g81
I3
ssg82
g539
sg75
(lp546
S''
asbasbasbag68
(g84
g70
NtRp547
(dp548
g73
(dp549
sg82
g463
sg75
(lp550
g68
(g89
g70
NtRp551
(dp552
g73
(dp553
g93
g94
ssg82
g547
sg75
(lp554
g366
asbag68
(g89
g70
NtRp555
(dp556
g73
(dp557
g100
g101
ssg82
g547
sg75
(lp558
S':'
asbag68
(g89
g70
NtRp559
(dp560
g73
(dp561
sg82
g547
sg75
(lp562
g68
(g69
g70
NtRp563
(dp564
g73
(dp565
g81
I3
ssg82
g559
sg75
(lp566
S''
asbasbasbag68
(g84
g70
NtRp567
(dp568
g73
(dp569
sg82
g463
sg75
(lp570
g68
(g89
g70
NtRp571
(dp572
g73
(dp573
g93
g94
ssg82
g567
sg75
(lp574
g387
asbag68
(g89
g70
NtRp575
(dp576
g73
(dp577
g100
g101
ssg82
g567
sg75
(lp578
S':'
asbag68
(g89
g70
NtRp579
(dp580
g73
(dp581
sg82
g567
sg75
(lp582
g68
(g69
g70
NtRp583
(dp584
g73
(dp585
g81
I3
ssg82
g579
sg75
(lp586
S''
asbasbasbag68
(g84
g70
NtRp587
(dp588
g73
(dp589
sg82
g463
sg75
(lp590
g68
(g89
g70
NtRp591
(dp592
g73
(dp593
g93
g94
ssg82
g587
sg75
(lp594
g408
asbag68
(g89
g70
NtRp595
(dp596
g73
(dp597
g100
g101
ssg82
g587
sg75
(lp598
S':'
asbag68
(g89
g70
NtRp599
(dp600
g73
(dp601
sg82
g587
sg75
(lp602
g68
(g69
g70
NtRp603
(dp604
g73
(dp605
g81
I3
ssg82
g599
sg75
(lp606
S''
asbasbasbag68
(g84
g70
NtRp607
(dp608
g73
(dp609
sg82
g463
sg75
(lp610
g68
(g89
g70
NtRp611
(dp612
g73
(dp613
g93
g94
ssg82
g607
sg75
(lp614
g429
asbag68
(g89
g70
NtRp615
(dp616
g73
(dp617
g100
g101
ssg82
g607
sg75
(lp618
S':'
asbag68
(g89
g70
NtRp619
(dp620
g73
(dp621
sg82
g607
sg75
(lp622
g68
(g69
g70
NtRp623
(dp624
g73
(dp625
g81
I3
ssg82
g619
sg75
(lp626
S''
asbasbasbasbasbasbasbasbasbasbasbag68
(g84
g70
NtRp627
(dp628
g73
(dp629
sg82
g78
sg75
(lp630
g68
(g89
g70
NtRp631
(dp632
g73
(dp633
g93
g94
ssg82
g627
sg75
(lp634
S'env'
p635
asbag68
(g89
g70
NtRp636
(dp637
g73
(dp638
g100
g101
ssg82
g627
sg75
(lp639
S':'
asbag68
(g89
g70
NtRp640
(dp641
g73
(dp642
sg82
g627
sg75
(lp643
g68
(g69
g70
NtRp644
(dp645
g73
(dp646
g81
I5
ssg82
g640
sg75
(lp647
g68
(g77
g70
NtRp648
(dp649
g73
(dp650
g81
I4
ssg82
Nsg75
(lp651
g68
(g84
g70
NtRp652
(dp653
g73
(dp654
sg82
g648
sg75
(lp655
g68
(g89
g70
NtRp656
(dp657
g73
(dp658
g93
g94
ssg82
g652
sg75
(lp659
S'app_folders'
p660
asbag68
(g89
g70
NtRp661
(dp662
g73
(dp663
g100
g101
ssg82
g652
sg75
(lp664
S':'
asbag68
(g89
g70
NtRp665
(dp666
g73
(dp667
sg82
g652
sg75
(lp668
g68
(g69
g70
NtRp669
(dp670
g73
(dp671
g81
I4
ssg82
g665
sg75
(lp672
S"set(['/home/ian/web2py/applications/welcome/', '/home/ian/web2py/applications/places/'])"
p673
asbasbasbag68
(g84
g70
NtRp674
(dp675
g73
(dp676
sg82
g648
sg75
(lp677
g68
(g89
g70
NtRp678
(dp679
g73
(dp680
g93
g94
ssg82
g674
sg75
(lp681
S'applications_parent'
p682
asbag68
(g89
g70
NtRp683
(dp684
g73
(dp685
g100
g101
ssg82
g674
sg75
(lp686
S':'
asbag68
(g89
g70
NtRp687
(dp688
g73
(dp689
sg82
g674
sg75
(lp690
g68
(g69
g70
NtRp691
(dp692
g73
(dp693
g81
I4
ssg82
g687
sg75
(lp694
S'/home/ian/web2py'
p695
asbasbasbag68
(g84
g70
NtRp696
(dp697
g73
(dp698
sg82
g648
sg75
(lp699
g68
(g89
g70
NtRp700
(dp701
g73
(dp702
g93
g94
ssg82
g696
sg75
(lp703
S'cmd_args'
p704
asbag68
(g89
g70
NtRp705
(dp706
g73
(dp707
g100
g101
ssg82
g696
sg75
(lp708
S':'
asbag68
(g89
g70
NtRp709
(dp710
g73
(dp711
sg82
g696
sg75
(lp712
g68
(g69
g70
NtRp713
(dp714
g73
(dp715
g81
I4
ssg82
g709
sg75
(lp716
g68
(g77
g70
NtRp717
(dp718
g73
(dp719
g81
I3
ssg82
Nsg75
(lp720
sbasbasbasbag68
(g84
g70
NtRp721
(dp722
g73
(dp723
sg82
g648
sg75
(lp724
g68
(g89
g70
NtRp725
(dp726
g73
(dp727
g93
g94
ssg82
g721
sg75
(lp728
S'cmd_options'
p729
asbag68
(g89
g70
NtRp730
(dp731
g73
(dp732
g100
g101
ssg82
g721
sg75
(lp733
S':'
asbag68
(g89
g70
NtRp734
(dp735
g73
(dp736
sg82
g721
sg75
(lp737
g68
(g69
g70
NtRp738
(dp739
g73
(dp740
g81
I4
ssg82
g734
sg75
(lp741
S"<Values at 0x2be17e8: {'verbose': False, 'ip': '127.0.0.1', 'shutdown_timeout': 5, 'taskbar': False, 'nocron': False, 'pid_filename': 'httpserver.pid', 'maxthreads': None, 'softcron': False, 'server_name': 'Ariel-ubuntu', 'bpython': False, 'nogui': False, 'port': 8000, 'extcron': False, 'debuglevel': 30, 'test': None, 'folder': '/home/ian/web2py', 'config': '', 'import_models': False, 'winservice': '', 'shell': None, 'run': '', 'log_filename': 'httpserver.log', 'args': [''], 'ssl_ca_certificate': None, 'scheduler': None, 'profiler_filename': None, 'ssl_private_key': '', 'password': '<ask>', 'request_queue_size': 5, 'ssl_certificate': '', 'cronjob': False, 'plain': False, 'quiet': False, 'interfaces': None, 'minthreads': None, 'timeout': 10, 'numthreads': None, 'nobanner': False}>"
p742
asbasbasbag68
(g84
g70
NtRp743
(dp744
g73
(dp745
sg82
g648
sg75
(lp746
g68
(g89
g70
NtRp747
(dp748
g73
(dp749
g93
g94
ssg82
g743
sg75
(lp750
S'db_sessions'
p751
asbag68
(g89
g70
NtRp752
(dp753
g73
(dp754
g100
g101
ssg82
g743
sg75
(lp755
S':'
asbag68
(g89
g70
NtRp756
(dp757
g73
(dp758
sg82
g743
sg75
(lp759
g68
(g69
g70
NtRp760
(dp761
g73
(dp762
g81
I4
ssg82
g756
sg75
(lp763
S'set([])'
p764
asbasbasbag68
(g84
g70
NtRp765
(dp766
g73
(dp767
sg82
g648
sg75
(lp768
g68
(g89
g70
NtRp769
(dp770
g73
(dp771
g93
g94
ssg82
g765
sg75
(lp772
S'debugging'
p773
asbag68
(g89
g70
NtRp774
(dp775
g73
(dp776
g100
g101
ssg82
g765
sg75
(lp777
S':'
asbag68
(g89
g70
NtRp778
(dp779
g73
(dp780
sg82
g765
sg75
(lp781
g68
(g69
g70
NtRp782
(dp783
g73
(dp784
g81
I4
ssg82
g778
sg75
(lp785
g111
asbasbasbag68
(g84
g70
NtRp786
(dp787
g73
(dp788
sg82
g648
sg75
(lp789
g68
(g89
g70
NtRp790
(dp791
g73
(dp792
g93
g94
ssg82
g786
sg75
(lp793
S'gluon_parent'
p794
asbag68
(g89
g70
NtRp795
(dp796
g73
(dp797
g100
g101
ssg82
g786
sg75
(lp798
S':'
asbag68
(g89
g70
NtRp799
(dp800
g73
(dp801
sg82
g786
sg75
(lp802
g68
(g69
g70
NtRp803
(dp804
g73
(dp805
g81
I4
ssg82
g799
sg75
(lp806
S'/home/ian/web2py'
p807
asbasbasbag68
(g84
g70
NtRp808
(dp809
g73
(dp810
sg82
g648
sg75
(lp811
g68
(g89
g70
NtRp812
(dp813
g73
(dp814
g93
g94
ssg82
g808
sg75
(lp815
S'http_accept'
p816
asbag68
(g89
g70
NtRp817
(dp818
g73
(dp819
g100
g101
ssg82
g808
sg75
(lp820
S':'
asbag68
(g89
g70
NtRp821
(dp822
g73
(dp823
sg82
g808
sg75
(lp824
g68
(g69
g70
NtRp825
(dp826
g73
(dp827
g81
I4
ssg82
g821
sg75
(lp828
S'text/html,application/xhtml+xml,application/xml;q=0.9,*/*;q=0.8'
p829
asbasbasbag68
(g84
g70
NtRp830
(dp831
g73
(dp832
sg82
g648
sg75
(lp833
g68
(g89
g70
NtRp834
(dp835
g73
(dp836
g93
g94
ssg82
g830
sg75
(lp837
S'http_accept_encoding'
p838
asbag68
(g89
g70
NtRp839
(dp840
g73
(dp841
g100
g101
ssg82
g830
sg75
(lp842
S':'
asbag68
(g89
g70
NtRp843
(dp844
g73
(dp845
sg82
g830
sg75
(lp846
g68
(g69
g70
NtRp847
(dp848
g73
(dp849
g81
I4
ssg82
g843
sg75
(lp850
S'gzip, deflate'
p851
asbasbasbag68
(g84
g70
NtRp852
(dp853
g73
(dp854
sg82
g648
sg75
(lp855
g68
(g89
g70
NtRp856
(dp857
g73
(dp858
g93
g94
ssg82
g852
sg75
(lp859
S'http_accept_language'
p860
asbag68
(g89
g70
NtRp861
(dp862
g73
(dp863
g100
g101
ssg82
g852
sg75
(lp864
S':'
asbag68
(g89
g70
NtRp865
(dp866
g73
(dp867
sg82
g852
sg75
(lp868
g68
(g69
g70
NtRp869
(dp870
g73
(dp871
g81
I4
ssg82
g865
sg75
(lp872
S'en-us,en;q=0.5'
p873
asbasbasbag68
(g84
g70
NtRp874
(dp875
g73
(dp876
sg82
g648
sg75
(lp877
g68
(g89
g70
NtRp878
(dp879
g73
(dp880
g93
g94
ssg82
g874
sg75
(lp881
S'http_cache_control'
p882
asbag68
(g89
g70
NtRp883
(dp884
g73
(dp885
g100
g101
ssg82
g874
sg75
(lp886
S':'
asbag68
(g89
g70
NtRp887
(dp888
g73
(dp889
sg82
g874
sg75
(lp890
g68
(g69
g70
NtRp891
(dp892
g73
(dp893
g81
I4
ssg82
g887
sg75
(lp894
S'max-age=0'
p895
asbasbasbag68
(g84
g70
NtRp896
(dp897
g73
(dp898
sg82
g648
sg75
(lp899
g68
(g89
g70
NtRp900
(dp901
g73
(dp902
g93
g94
ssg82
g896
sg75
(lp903
S'http_connection'
p904
asbag68
(g89
g70
NtRp905
(dp906
g73
(dp907
g100
g101
ssg82
g896
sg75
(lp908
S':'
asbag68
(g89
g70
NtRp909
(dp910
g73
(dp911
sg82
g896
sg75
(lp912
g68
(g69
g70
NtRp913
(dp914
g73
(dp915
g81
I4
ssg82
g909
sg75
(lp916
S'keep-alive'
p917
asbasbasbag68
(g84
g70
NtRp918
(dp919
g73
(dp920
sg82
g648
sg75
(lp921
g68
(g89
g70
NtRp922
(dp923
g73
(dp924
g93
g94
ssg82
g918
sg75
(lp925
S'http_cookie'
p926
asbag68
(g89
g70
NtRp927
(dp928
g73
(dp929
g100
g101
ssg82
g918
sg75
(lp930
S':'
asbag68
(g89
g70
NtRp931
(dp932
g73
(dp933
sg82
g918
sg75
(lp934
g68
(g69
g70
NtRp935
(dp936
g73
(dp937
g81
I4
ssg82
g931
sg75
(lp938
S'session_id_welcome=127.0.0.1-c02ee8c7-9f26-40ac-aa17-f92feead91ee; session_id_places=127.0.0.1-2ef81ebd-a463-477a-899c-f99f9f905f36'
p939
asbasbasbag68
(g84
g70
NtRp940
(dp941
g73
(dp942
sg82
g648
sg75
(lp943
g68
(g89
g70
NtRp944
(dp945
g73
(dp946
g93
g94
ssg82
g940
sg75
(lp947
S'http_host'
p948
asbag68
(g89
g70
NtRp949
(dp950
g73
(dp951
g100
g101
ssg82
g940
sg75
(lp952
S':'
asbag68
(g89
g70
NtRp953
(dp954
g73
(dp955
sg82
g940
sg75
(lp956
g68
(g69
g70
NtRp957
(dp958
g73
(dp959
g81
I4
ssg82
g953
sg75
(lp960
S'127.0.0.1:8000'
p961
asbasbasbag68
(g84
g70
NtRp962
(dp963
g73
(dp964
sg82
g648
sg75
(lp965
g68
(g89
g70
NtRp966
(dp967
g73
(dp968
g93
g94
ssg82
g962
sg75
(lp969
S'http_user_agent'
p970
asbag68
(g89
g70
NtRp971
(dp972
g73
(dp973
g100
g101
ssg82
g962
sg75
(lp974
S':'
asbag68
(g89
g70
NtRp975
(dp976
g73
(dp977
sg82
g962
sg75
(lp978
g68
(g69
g70
NtRp979
(dp980
g73
(dp981
g81
I4
ssg82
g975
sg75
(lp982
S'Mozilla/5.0 (Ubuntu; X11; Linux x86_64; rv:9.0a2) Gecko/20111020 Firefox/9.0a2'
p983
asbasbasbag68
(g84
g70
NtRp984
(dp985
g73
(dp986
sg82
g648
sg75
(lp987
g68
(g89
g70
NtRp988
(dp989
g73
(dp990
g93
g94
ssg82
g984
sg75
(lp991
S'is_jython'
p992
asbag68
(g89
g70
NtRp993
(dp994
g73
(dp995
g100
g101
ssg82
g984
sg75
(lp996
S':'
asbag68
(g89
g70
NtRp997
(dp998
g73
(dp999
sg82
g984
sg75
(lp1000
g68
(g69
g70
NtRp1001
(dp1002
g73
(dp1003
g81
I4
ssg82
g997
sg75
(lp1004
g111
asbasbasbag68
(g84
g70
NtRp1005
(dp1006
g73
(dp1007
sg82
g648
sg75
(lp1008
g68
(g89
g70
NtRp1009
(dp1010
g73
(dp1011
g93
g94
ssg82
g1005
sg75
(lp1012
S'path_info'
p1013
asbag68
(g89
g70
NtRp1014
(dp1015
g73
(dp1016
g100
g101
ssg82
g1005
sg75
(lp1017
S':'
asbag68
(g89
g70
NtRp1018
(dp1019
g73
(dp1020
sg82
g1005
sg75
(lp1021
g68
(g69
g70
NtRp1022
(dp1023
g73
(dp1024
g81
I4
ssg82
g1018
sg75
(lp1025
S'/places'
p1026
asbasbasbag68
(g84
g70
NtRp1027
(dp1028
g73
(dp1029
sg82
g648
sg75
(lp1030
g68
(g89
g70
NtRp1031
(dp1032
g73
(dp1033
g93
g94
ssg82
g1027
sg75
(lp1034
S'query_string'
p1035
asbag68
(g89
g70
NtRp1036
(dp1037
g73
(dp1038
g100
g101
ssg82
g1027
sg75
(lp1039
S':'
asbag68
(g89
g70
NtRp1040
(dp1041
g73
(dp1042
sg82
g1027
sg75
(lp1043
g68
(g69
g70
NtRp1044
(dp1045
g73
(dp1046
g81
I4
ssg82
g1040
sg75
(lp1047
S''
asbasbasbag68
(g84
g70
NtRp1048
(dp1049
g73
(dp1050
sg82
g648
sg75
(lp1051
g68
(g89
g70
NtRp1052
(dp1053
g73
(dp1054
g93
g94
ssg82
g1048
sg75
(lp1055
S'remote_addr'
p1056
asbag68
(g89
g70
NtRp1057
(dp1058
g73
(dp1059
g100
g101
ssg82
g1048
sg75
(lp1060
S':'
asbag68
(g89
g70
NtRp1061
(dp1062
g73
(dp1063
sg82
g1048
sg75
(lp1064
g68
(g69
g70
NtRp1065
(dp1066
g73
(dp1067
g81
I4
ssg82
g1061
sg75
(lp1068
g201
asbasbasbag68
(g84
g70
NtRp1069
(dp1070
g73
(dp1071
sg82
g648
sg75
(lp1072
g68
(g89
g70
NtRp1073
(dp1074
g73
(dp1075
g93
g94
ssg82
g1069
sg75
(lp1076
S'remote_port'
p1077
asbag68
(g89
g70
NtRp1078
(dp1079
g73
(dp1080
g100
g101
ssg82
g1069
sg75
(lp1081
S':'
asbag68
(g89
g70
NtRp1082
(dp1083
g73
(dp1084
sg82
g1069
sg75
(lp1085
g68
(g69
g70
NtRp1086
(dp1087
g73
(dp1088
g81
I4
ssg82
g1082
sg75
(lp1089
S'44256'
p1090
asbasbasbag68
(g84
g70
NtRp1091
(dp1092
g73
(dp1093
sg82
g648
sg75
(lp1094
g68
(g89
g70
NtRp1095
(dp1096
g73
(dp1097
g93
g94
ssg82
g1091
sg75
(lp1098
S'request_method'
p1099
asbag68
(g89
g70
NtRp1100
(dp1101
g73
(dp1102
g100
g101
ssg82
g1091
sg75
(lp1103
S':'
asbag68
(g89
g70
NtRp1104
(dp1105
g73
(dp1106
sg82
g1091
sg75
(lp1107
g68
(g69
g70
NtRp1108
(dp1109
g73
(dp1110
g81
I4
ssg82
g1104
sg75
(lp1111
S'GET'
p1112
asbasbasbag68
(g84
g70
NtRp1113
(dp1114
g73
(dp1115
sg82
g648
sg75
(lp1116
g68
(g89
g70
NtRp1117
(dp1118
g73
(dp1119
g93
g94
ssg82
g1113
sg75
(lp1120
S'script_name'
p1121
asbag68
(g89
g70
NtRp1122
(dp1123
g73
(dp1124
g100
g101
ssg82
g1113
sg75
(lp1125
S':'
asbag68
(g89
g70
NtRp1126
(dp1127
g73
(dp1128
sg82
g1113
sg75
(lp1129
g68
(g69
g70
NtRp1130
(dp1131
g73
(dp1132
g81
I4
ssg82
g1126
sg75
(lp1133
S''
asbasbasbag68
(g84
g70
NtRp1134
(dp1135
g73
(dp1136
sg82
g648
sg75
(lp1137
g68
(g89
g70
NtRp1138
(dp1139
g73
(dp1140
g93
g94
ssg82
g1134
sg75
(lp1141
S'server_name'
p1142
asbag68
(g89
g70
NtRp1143
(dp1144
g73
(dp1145
g100
g101
ssg82
g1134
sg75
(lp1146
S':'
asbag68
(g89
g70
NtRp1147
(dp1148
g73
(dp1149
sg82
g1134
sg75
(lp1150
g68
(g69
g70
NtRp1151
(dp1152
g73
(dp1153
g81
I4
ssg82
g1147
sg75
(lp1154
S'Ariel-ubuntu'
p1155
asbasbasbag68
(g84
g70
NtRp1156
(dp1157
g73
(dp1158
sg82
g648
sg75
(lp1159
g68
(g89
g70
NtRp1160
(dp1161
g73
(dp1162
g93
g94
ssg82
g1156
sg75
(lp1163
S'server_port'
p1164
asbag68
(g89
g70
NtRp1165
(dp1166
g73
(dp1167
g100
g101
ssg82
g1156
sg75
(lp1168
S':'
asbag68
(g89
g70
NtRp1169
(dp1170
g73
(dp1171
sg82
g1156
sg75
(lp1172
g68
(g69
g70
NtRp1173
(dp1174
g73
(dp1175
g81
I4
ssg82
g1169
sg75
(lp1176
S'8000'
p1177
asbasbasbag68
(g84
g70
NtRp1178
(dp1179
g73
(dp1180
sg82
g648
sg75
(lp1181
g68
(g89
g70
NtRp1182
(dp1183
g73
(dp1184
g93
g94
ssg82
g1178
sg75
(lp1185
S'server_protocol'
p1186
asbag68
(g89
g70
NtRp1187
(dp1188
g73
(dp1189
g100
g101
ssg82
g1178
sg75
(lp1190
S':'
asbag68
(g89
g70
NtRp1191
(dp1192
g73
(dp1193
sg82
g1178
sg75
(lp1194
g68
(g69
g70
NtRp1195
(dp1196
g73
(dp1197
g81
I4
ssg82
g1191
sg75
(lp1198
S'HTTP/1.1'
p1199
asbasbasbag68
(g84
g70
NtRp1200
(dp1201
g73
(dp1202
sg82
g648
sg75
(lp1203
g68
(g89
g70
NtRp1204
(dp1205
g73
(dp1206
g93
g94
ssg82
g1200
sg75
(lp1207
S'server_software'
p1208
asbag68
(g89
g70
NtRp1209
(dp1210
g73
(dp1211
g100
g101
ssg82
g1200
sg75
(lp1212
S':'
asbag68
(g89
g70
NtRp1213
(dp1214
g73
(dp1215
sg82
g1200
sg75
(lp1216
g68
(g69
g70
NtRp1217
(dp1218
g73
(dp1219
g81
I4
ssg82
g1213
sg75
(lp1220
S'Rocket 1.2.4'
p1221
asbasbasbag68
(g84
g70
NtRp1222
(dp1223
g73
(dp1224
sg82
g648
sg75
(lp1225
g68
(g89
g70
NtRp1226
(dp1227
g73
(dp1228
g93
g94
ssg82
g1222
sg75
(lp1229
S'web2py_crontype'
p1230
asbag68
(g89
g70
NtRp1231
(dp1232
g73
(dp1233
g100
g101
ssg82
g1222
sg75
(lp1234
S':'
asbag68
(g89
g70
NtRp1235
(dp1236
g73
(dp1237
sg82
g1222
sg75
(lp1238
g68
(g69
g70
NtRp1239
(dp1240
g73
(dp1241
g81
I4
ssg82
g1235
sg75
(lp1242
S'hard'
p1243
asbasbasbag68
(g84
g70
NtRp1244
(dp1245
g73
(dp1246
sg82
g648
sg75
(lp1247
g68
(g89
g70
NtRp1248
(dp1249
g73
(dp1250
g93
g94
ssg82
g1244
sg75
(lp1251
S'web2py_path'
p1252
asbag68
(g89
g70
NtRp1253
(dp1254
g73
(dp1255
g100
g101
ssg82
g1244
sg75
(lp1256
S':'
asbag68
(g89
g70
NtRp1257
(dp1258
g73
(dp1259
sg82
g1244
sg75
(lp1260
g68
(g69
g70
NtRp1261
(dp1262
g73
(dp1263
g81
I4
ssg82
g1257
sg75
(lp1264
g695
asbasbasbag68
(g84
g70
NtRp1265
(dp1266
g73
(dp1267
sg82
g648
sg75
(lp1268
g68
(g89
g70
NtRp1269
(dp1270
g73
(dp1271
g93
g94
ssg82
g1265
sg75
(lp1272
S'web2py_version'
p1273
asbag68
(g89
g70
NtRp1274
(dp1275
g73
(dp1276
g100
g101
ssg82
g1265
sg75
(lp1277
S':'
asbag68
(g89
g70
NtRp1278
(dp1279
g73
(dp1280
sg82
g1265
sg75
(lp1281
g68
(g69
g70
NtRp1282
(dp1283
g73
(dp1284
g81
I4
ssg82
g1278
sg75
(lp1285
g68
(g77
g70
NtRp1286
(dp1287
g73
(dp1288
g81
I3
ssg82
Nsg75
(lp1289
g68
(g84
g70
NtRp1290
(dp1291
g73
(dp1292
sg82
g1286
sg75
(lp1293
g68
(g89
g70
NtRp1294
(dp1295
g73
(dp1296
sg82
g1290
sg75
(lp1297
g68
(g69
g70
NtRp1298
(dp1299
g73
(dp1300
g81
I3
ssg82
g1294
sg75
(lp1301
S'1'
asbasbasbag68
(g84
g70
NtRp1302
(dp1303
g73
(dp1304
sg82
g1286
sg75
(lp1305
g68
(g89
g70
NtRp1306
(dp1307
g73
(dp1308
sg82
g1302
sg75
(lp1309
g68
(g69
g70
NtRp1310
(dp1311
g73
(dp1312
g81
I3
ssg82
g1306
sg75
(lp1313
S'99'
p1314
asbasbasbag68
(g84
g70
NtRp1315
(dp1316
g73
(dp1317
sg82
g1286
sg75
(lp1318
g68
(g89
g70
NtRp1319
(dp1320
g73
(dp1321
sg82
g1315
sg75
(lp1322
g68
(g69
g70
NtRp1323
(dp1324
g73
(dp1325
g81
I3
ssg82
g1319
sg75
(lp1326
S'2'
asbasbasbag68
(g84
g70
NtRp1327
(dp1328
g73
(dp1329
sg82
g1286
sg75
(lp1330
g68
(g89
g70
NtRp1331
(dp1332
g73
(dp1333
sg82
g1327
sg75
(lp1334
g68
(g69
g70
NtRp1335
(dp1336
g73
(dp1337
g81
I3
ssg82
g1331
sg75
(lp1338
S'datetime.datetime(2011, 9, 26, 6, 55, 33)'
p1339
asbasbasbag68
(g84
g70
NtRp1340
(dp1341
g73
(dp1342
sg82
g1286
sg75
(lp1343
g68
(g89
g70
NtRp1344
(dp1345
g73
(dp1346
sg82
g1340
sg75
(lp1347
g68
(g69
g70
NtRp1348
(dp1349
g73
(dp1350
g81
I3
ssg82
g1344
sg75
(lp1351
S'stable'
p1352
asbasbasbasbasbasbasbag68
(g84
g70
NtRp1353
(dp1354
g73
(dp1355
sg82
g648
sg75
(lp1356
g68
(g89
g70
NtRp1357
(dp1358
g73
(dp1359
g93
g94
ssg82
g1353
sg75
(lp1360
S'wsgi_errors'
p1361
asbag68
(g89
g70
NtRp1362
(dp1363
g73
(dp1364
g100
g101
ssg82
g1353
sg75
(lp1365
S':'
asbag68
(g89
g70
NtRp1366
(dp1367
g73
(dp1368
sg82
g1353
sg75
(lp1369
g68
(g69
g70
NtRp1370
(dp1371
g73
(dp1372
g81
I4
ssg82
g1366
sg75
(lp1373
S"<open file '<stderr>', mode 'w' at 0x7f7d1bc23270>"
p1374
asbasbasbag68
(g84
g70
NtRp1375
(dp1376
g73
(dp1377
sg82
g648
sg75
(lp1378
g68
(g89
g70
NtRp1379
(dp1380
g73
(dp1381
g93
g94
ssg82
g1375
sg75
(lp1382
S'wsgi_file_wrapper'
p1383
asbag68
(g89
g70
NtRp1384
(dp1385
g73
(dp1386
g100
g101
ssg82
g1375
sg75
(lp1387
S':'
asbag68
(g89
g70
NtRp1388
(dp1389
g73
(dp1390
sg82
g1375
sg75
(lp1391
g68
(g69
g70
NtRp1392
(dp1393
g73
(dp1394
g81
I4
ssg82
g1388
sg75
(lp1395
S'<class wsgiref.util.FileWrapper at 0x2aaa808>'
p1396
asbasbasbag68
(g84
g70
NtRp1397
(dp1398
g73
(dp1399
sg82
g648
sg75
(lp1400
g68
(g89
g70
NtRp1401
(dp1402
g73
(dp1403
g93
g94
ssg82
g1397
sg75
(lp1404
S'wsgi_input'
p1405
asbag68
(g89
g70
NtRp1406
(dp1407
g73
(dp1408
g100
g101
ssg82
g1397
sg75
(lp1409
S':'
asbag68
(g89
g70
NtRp1410
(dp1411
g73
(dp1412
sg82
g1397
sg75
(lp1413
g68
(g69
g70
NtRp1414
(dp1415
g73
(dp1416
g81
I4
ssg82
g1410
sg75
(lp1417
S'<socket._fileobject object at 0x34813d0>'
p1418
asbasbasbag68
(g84
g70
NtRp1419
(dp1420
g73
(dp1421
sg82
g648
sg75
(lp1422
g68
(g89
g70
NtRp1423
(dp1424
g73
(dp1425
g93
g94
ssg82
g1419
sg75
(lp1426
S'wsgi_multiprocess'
p1427
asbag68
(g89
g70
NtRp1428
(dp1429
g73
(dp1430
g100
g101
ssg82
g1419
sg75
(lp1431
S':'
asbag68
(g89
g70
NtRp1432
(dp1433
g73
(dp1434
sg82
g1419
sg75
(lp1435
g68
(g69
g70
NtRp1436
(dp1437
g73
(dp1438
g81
I4
ssg82
g1432
sg75
(lp1439
g111
asbasbasbag68
(g84
g70
NtRp1440
(dp1441
g73
(dp1442
sg82
g648
sg75
(lp1443
g68
(g89
g70
NtRp1444
(dp1445
g73
(dp1446
g93
g94
ssg82
g1440
sg75
(lp1447
S'wsgi_multithread'
p1448
asbag68
(g89
g70
NtRp1449
(dp1450
g73
(dp1451
g100
g101
ssg82
g1440
sg75
(lp1452
S':'
asbag68
(g89
g70
NtRp1453
(dp1454
g73
(dp1455
sg82
g1440
sg75
(lp1456
g68
(g69
g70
NtRp1457
(dp1458
g73
(dp1459
g81
I4
ssg82
g1453
sg75
(lp1460
S'True'
p1461
asbasbasbag68
(g84
g70
NtRp1462
(dp1463
g73
(dp1464
sg82
g648
sg75
(lp1465
g68
(g89
g70
NtRp1466
(dp1467
g73
(dp1468
g93
g94
ssg82
g1462
sg75
(lp1469
S'wsgi_run_once'
p1470
asbag68
(g89
g70
NtRp1471
(dp1472
g73
(dp1473
g100
g101
ssg82
g1462
sg75
(lp1474
S':'
asbag68
(g89
g70
NtRp1475
(dp1476
g73
(dp1477
sg82
g1462
sg75
(lp1478
g68
(g69
g70
NtRp1479
(dp1480
g73
(dp1481
g81
I4
ssg82
g1475
sg75
(lp1482
g111
asbasbasbag68
(g84
g70
NtRp1483
(dp1484
g73
(dp1485
sg82
g648
sg75
(lp1486
g68
(g89
g70
NtRp1487
(dp1488
g73
(dp1489
g93
g94
ssg82
g1483
sg75
(lp1490
S'wsgi_url_scheme'
p1491
asbag68
(g89
g70
NtRp1492
(dp1493
g73
(dp1494
g100
g101
ssg82
g1483
sg75
(lp1495
S':'
asbag68
(g89
g70
NtRp1496
(dp1497
g73
(dp1498
sg82
g1483
sg75
(lp1499
g68
(g69
g70
NtRp1500
(dp1501
g73
(dp1502
g81
I4
ssg82
g1496
sg75
(lp1503
S'http'
p1504
asbasbasbag68
(g84
g70
NtRp1505
(dp1506
g73
(dp1507
sg82
g648
sg75
(lp1508
g68
(g89
g70
NtRp1509
(dp1510
g73
(dp1511
g93
g94
ssg82
g1505
sg75
(lp1512
S'wsgi_version'
p1513
asbag68
(g89
g70
NtRp1514
(dp1515
g73
(dp1516
g100
g101
ssg82
g1505
sg75
(lp1517
S':'
asbag68
(g89
g70
NtRp1518
(dp1519
g73
(dp1520
sg82
g1505
sg75
(lp1521
g68
(g69
g70
NtRp1522
(dp1523
g73
(dp1524
g81
I4
ssg82
g1518
sg75
(lp1525
g68
(g77
g70
NtRp1526
(dp1527
g73
(dp1528
g81
I3
ssg82
Nsg75
(lp1529
g68
(g84
g70
NtRp1530
(dp1531
g73
(dp1532
sg82
g1526
sg75
(lp1533
g68
(g89
g70
NtRp1534
(dp1535
g73
(dp1536
sg82
g1530
sg75
(lp1537
g68
(g69
g70
NtRp1538
(dp1539
g73
(dp1540
g81
I3
ssg82
g1534
sg75
(lp1541
S'1'
asbasbasbag68
(g84
g70
NtRp1542
(dp1543
g73
(dp1544
sg82
g1526
sg75
(lp1545
g68
(g89
g70
NtRp1546
(dp1547
g73
(dp1548
sg82
g1542
sg75
(lp1549
g68
(g69
g70
NtRp1550
(dp1551
g73
(dp1552
g81
I3
ssg82
g1546
sg75
(lp1553
S'0'
asbasbasbasbasbasbasbasbasbasbasbag68
(g84
g70
NtRp1554
(dp1555
g73
(dp1556
sg82
g78
sg75
(lp1557
g68
(g89
g70
NtRp1558
(dp1559
g73
(dp1560
g93
g94
ssg82
g1554
sg75
(lp1561
S'extension'
p1562
asbag68
(g89
g70
NtRp1563
(dp1564
g73
(dp1565
g100
g101
ssg82
g1554
sg75
(lp1566
S':'
asbag68
(g89
g70
NtRp1567
(dp1568
g73
(dp1569
sg82
g1554
sg75
(lp1570
g68
(g69
g70
NtRp1571
(dp1572
g73
(dp1573
g81
I5
ssg82
g1567
sg75
(lp1574
S'html'
p1575
asbasbasbag68
(g84
g70
NtRp1576
(dp1577
g73
(dp1578
sg82
g78
sg75
(lp1579
g68
(g89
g70
NtRp1580
(dp1581
g73
(dp1582
g93
g94
ssg82
g1576
sg75
(lp1583
S'folder'
p1584
asbag68
(g89
g70
NtRp1585
(dp1586
g73
(dp1587
g100
g101
ssg82
g1576
sg75
(lp1588
S':'
asbag68
(g89
g70
NtRp1589
(dp1590
g73
(dp1591
sg82
g1576
sg75
(lp1592
g68
(g69
g70
NtRp1593
(dp1594
g73
(dp1595
g81
I5
ssg82
g1589
sg75
(lp1596
S'/home/ian/web2py/applications/places/'
p1597
asbasbasbag68
(g84
g70
NtRp1598
(dp1599
g73
(dp1600
sg82
g78
sg75
(lp1601
g68
(g89
g70
NtRp1602
(dp1603
g73
(dp1604
g93
g94
ssg82
g1598
sg75
(lp1605
S'function'
p1606
asbag68
(g89
g70
NtRp1607
(dp1608
g73
(dp1609
g100
g101
ssg82
g1598
sg75
(lp1610
S':'
asbag68
(g89
g70
NtRp1611
(dp1612
g73
(dp1613
sg82
g1598
sg75
(lp1614
g68
(g69
g70
NtRp1615
(dp1616
g73
(dp1617
g81
I5
ssg82
g1611
sg75
(lp1618
S'index'
p1619
asbasbasbag68
(g84
g70
NtRp1620
(dp1621
g73
(dp1622
sg82
g78
sg75
(lp1623
g68
(g89
g70
NtRp1624
(dp1625
g73
(dp1626
g93
g94
ssg82
g1620
sg75
(lp1627
S'get_vars'
p1628
asbag68
(g89
g70
NtRp1629
(dp1630
g73
(dp1631
g100
g101
ssg82
g1620
sg75
(lp1632
S':'
asbag68
(g89
g70
NtRp1633
(dp1634
g73
(dp1635
sg82
g1620
sg75
(lp1636
g68
(g69
g70
NtRp1637
(dp1638
g73
(dp1639
g81
I5
ssg82
g1633
sg75
(lp1640
g68
(g77
g70
NtRp1641
(dp1642
g73
(dp1643
g81
I4
ssg82
Nsg75
(lp1644
sbasbasbasbag68
(g84
g70
NtRp1645
(dp1646
g73
(dp1647
sg82
g78
sg75
(lp1648
g68
(g89
g70
NtRp1649
(dp1650
g73
(dp1651
g93
g94
ssg82
g1645
sg75
(lp1652
S'global_settings'
p1653
asbag68
(g89
g70
NtRp1654
(dp1655
g73
(dp1656
g100
g101
ssg82
g1645
sg75
(lp1657
S':'
asbag68
(g89
g70
NtRp1658
(dp1659
g73
(dp1660
sg82
g1645
sg75
(lp1661
g68
(g69
g70
NtRp1662
(dp1663
g73
(dp1664
g81
I5
ssg82
g1658
sg75
(lp1665
g68
(g77
g70
NtRp1666
(dp1667
g73
(dp1668
g81
I4
ssg82
Nsg75
(lp1669
g68
(g84
g70
NtRp1670
(dp1671
g73
(dp1672
sg82
g1666
sg75
(lp1673
g68
(g89
g70
NtRp1674
(dp1675
g73
(dp1676
g93
g94
ssg82
g1670
sg75
(lp1677
g660
asbag68
(g89
g70
NtRp1678
(dp1679
g73
(dp1680
g100
g101
ssg82
g1670
sg75
(lp1681
S':'
asbag68
(g89
g70
NtRp1682
(dp1683
g73
(dp1684
sg82
g1670
sg75
(lp1685
g68
(g69
g70
NtRp1686
(dp1687
g73
(dp1688
g81
I4
ssg82
g1682
sg75
(lp1689
S"set(['/home/ian/web2py/applications/welcome/', '/home/ian/web2py/applications/places/'])"
p1690
asbasbasbag68
(g84
g70
NtRp1691
(dp1692
g73
(dp1693
sg82
g1666
sg75
(lp1694
g68
(g89
g70
NtRp1695
(dp1696
g73
(dp1697
g93
g94
ssg82
g1691
sg75
(lp1698
g682
asbag68
(g89
g70
NtRp1699
(dp1700
g73
(dp1701
g100
g101
ssg82
g1691
sg75
(lp1702
S':'
asbag68
(g89
g70
NtRp1703
(dp1704
g73
(dp1705
sg82
g1691
sg75
(lp1706
g68
(g69
g70
NtRp1707
(dp1708
g73
(dp1709
g81
I4
ssg82
g1703
sg75
(lp1710
g695
asbasbasbag68
(g84
g70
NtRp1711
(dp1712
g73
(dp1713
sg82
g1666
sg75
(lp1714
g68
(g89
g70
NtRp1715
(dp1716
g73
(dp1717
g93
g94
ssg82
g1711
sg75
(lp1718
g704
asbag68
(g89
g70
NtRp1719
(dp1720
g73
(dp1721
g100
g101
ssg82
g1711
sg75
(lp1722
S':'
asbag68
(g89
g70
NtRp1723
(dp1724
g73
(dp1725
sg82
g1711
sg75
(lp1726
g68
(g69
g70
NtRp1727
(dp1728
g73
(dp1729
g81
I4
ssg82
g1723
sg75
(lp1730
g68
(g77
g70
NtRp1731
(dp1732
g73
(dp1733
g81
I3
ssg82
Nsg75
(lp1734
sbasbasbasbag68
(g84
g70
NtRp1735
(dp1736
g73
(dp1737
sg82
g1666
sg75
(lp1738
g68
(g89
g70
NtRp1739
(dp1740
g73
(dp1741
g93
g94
ssg82
g1735
sg75
(lp1742
g729
asbag68
(g89
g70
NtRp1743
(dp1744
g73
(dp1745
g100
g101
ssg82
g1735
sg75
(lp1746
S':'
asbag68
(g89
g70
NtRp1747
(dp1748
g73
(dp1749
sg82
g1735
sg75
(lp1750
g68
(g69
g70
NtRp1751
(dp1752
g73
(dp1753
g81
I4
ssg82
g1747
sg75
(lp1754
S"<Values at 0x2be17e8: {'verbose': False, 'ip': '127.0.0.1', 'shutdown_timeout': 5, 'taskbar': False, 'nocron': False, 'pid_filename': 'httpserver.pid', 'maxthreads': None, 'softcron': False, 'server_name': 'Ariel-ubuntu', 'bpython': False, 'nogui': False, 'port': 8000, 'extcron': False, 'debuglevel': 30, 'test': None, 'folder': '/home/ian/web2py', 'config': '', 'import_models': False, 'winservice': '', 'shell': None, 'run': '', 'log_filename': 'httpserver.log', 'args': [''], 'ssl_ca_certificate': None, 'scheduler': None, 'profiler_filename': None, 'ssl_private_key': '', 'password': '<ask>', 'request_queue_size': 5, 'ssl_certificate': '', 'cronjob': False, 'plain': False, 'quiet': False, 'interfaces': None, 'minthreads': None, 'timeout': 10, 'numthreads': None, 'nobanner': False}>"
p1755
asbasbasbag68
(g84
g70
NtRp1756
(dp1757
g73
(dp1758
sg82
g1666
sg75
(lp1759
g68
(g89
g70
NtRp1760
(dp1761
g73
(dp1762
g93
g94
ssg82
g1756
sg75
(lp1763
g751
asbag68
(g89
g70
NtRp1764
(dp1765
g73
(dp1766
g100
g101
ssg82
g1756
sg75
(lp1767
S':'
asbag68
(g89
g70
NtRp1768
(dp1769
g73
(dp1770
sg82
g1756
sg75
(lp1771
g68
(g69
g70
NtRp1772
(dp1773
g73
(dp1774
g81
I4
ssg82
g1768
sg75
(lp1775
S'set([])'
p1776
asbasbasbag68
(g84
g70
NtRp1777
(dp1778
g73
(dp1779
sg82
g1666
sg75
(lp1780
g68
(g89
g70
NtRp1781
(dp1782
g73
(dp1783
g93
g94
ssg82
g1777
sg75
(lp1784
g773
asbag68
(g89
g70
NtRp1785
(dp1786
g73
(dp1787
g100
g101
ssg82
g1777
sg75
(lp1788
S':'
asbag68
(g89
g70
NtRp1789
(dp1790
g73
(dp1791
sg82
g1777
sg75
(lp1792
g68
(g69
g70
NtRp1793
(dp1794
g73
(dp1795
g81
I4
ssg82
g1789
sg75
(lp1796
g111
asbasbasbag68
(g84
g70
NtRp1797
(dp1798
g73
(dp1799
sg82
g1666
sg75
(lp1800
g68
(g89
g70
NtRp1801
(dp1802
g73
(dp1803
g93
g94
ssg82
g1797
sg75
(lp1804
g794
asbag68
(g89
g70
NtRp1805
(dp1806
g73
(dp1807
g100
g101
ssg82
g1797
sg75
(lp1808
S':'
asbag68
(g89
g70
NtRp1809
(dp1810
g73
(dp1811
sg82
g1797
sg75
(lp1812
g68
(g69
g70
NtRp1813
(dp1814
g73
(dp1815
g81
I4
ssg82
g1809
sg75
(lp1816
g807
asbasbasbag68
(g84
g70
NtRp1817
(dp1818
g73
(dp1819
sg82
g1666
sg75
(lp1820
g68
(g89
g70
NtRp1821
(dp1822
g73
(dp1823
g93
g94
ssg82
g1817
sg75
(lp1824
g992
asbag68
(g89
g70
NtRp1825
(dp1826
g73
(dp1827
g100
g101
ssg82
g1817
sg75
(lp1828
S':'
asbag68
(g89
g70
NtRp1829
(dp1830
g73
(dp1831
sg82
g1817
sg75
(lp1832
g68
(g69
g70
NtRp1833
(dp1834
g73
(dp1835
g81
I4
ssg82
g1829
sg75
(lp1836
g111
asbasbasbag68
(g84
g70
NtRp1837
(dp1838
g73
(dp1839
sg82
g1666
sg75
(lp1840
g68
(g89
g70
NtRp1841
(dp1842
g73
(dp1843
g93
g94
ssg82
g1837
sg75
(lp1844
g1230
asbag68
(g89
g70
NtRp1845
(dp1846
g73
(dp1847
g100
g101
ssg82
g1837
sg75
(lp1848
S':'
asbag68
(g89
g70
NtRp1849
(dp1850
g73
(dp1851
sg82
g1837
sg75
(lp1852
g68
(g69
g70
NtRp1853
(dp1854
g73
(dp1855
g81
I4
ssg82
g1849
sg75
(lp1856
g1243
asbasbasbag68
(g84
g70
NtRp1857
(dp1858
g73
(dp1859
sg82
g1666
sg75
(lp1860
g68
(g89
g70
NtRp1861
(dp1862
g73
(dp1863
g93
g94
ssg82
g1857
sg75
(lp1864
g1273
asbag68
(g89
g70
NtRp1865
(dp1866
g73
(dp1867
g100
g101
ssg82
g1857
sg75
(lp1868
S':'
asbag68
(g89
g70
NtRp1869
(dp1870
g73
(dp1871
sg82
g1857
sg75
(lp1872
g68
(g69
g70
NtRp1873
(dp1874
g73
(dp1875
g81
I4
ssg82
g1869
sg75
(lp1876
g68
(g77
g70
NtRp1877
(dp1878
g73
(dp1879
g81
I3
ssg82
Nsg75
(lp1880
g68
(g84
g70
NtRp1881
(dp1882
g73
(dp1883
sg82
g1877
sg75
(lp1884
g68
(g89
g70
NtRp1885
(dp1886
g73
(dp1887
sg82
g1881
sg75
(lp1888
g68
(g69
g70
NtRp1889
(dp1890
g73
(dp1891
g81
I3
ssg82
g1885
sg75
(lp1892
S'1'
asbasbasbag68
(g84
g70
NtRp1893
(dp1894
g73
(dp1895
sg82
g1877
sg75
(lp1896
g68
(g89
g70
NtRp1897
(dp1898
g73
(dp1899
sg82
g1893
sg75
(lp1900
g68
(g69
g70
NtRp1901
(dp1902
g73
(dp1903
g81
I3
ssg82
g1897
sg75
(lp1904
S'99'
p1905
asbasbasbag68
(g84
g70
NtRp1906
(dp1907
g73
(dp1908
sg82
g1877
sg75
(lp1909
g68
(g89
g70
NtRp1910
(dp1911
g73
(dp1912
sg82
g1906
sg75
(lp1913
g68
(g69
g70
NtRp1914
(dp1915
g73
(dp1916
g81
I3
ssg82
g1910
sg75
(lp1917
S'2'
asbasbasbag68
(g84
g70
NtRp1918
(dp1919
g73
(dp1920
sg82
g1877
sg75
(lp1921
g68
(g89
g70
NtRp1922
(dp1923
g73
(dp1924
sg82
g1918
sg75
(lp1925
g68
(g69
g70
NtRp1926
(dp1927
g73
(dp1928
g81
I3
ssg82
g1922
sg75
(lp1929
S'datetime.datetime(2011, 9, 26, 6, 55, 33)'
p1930
asbasbasbag68
(g84
g70
NtRp1931
(dp1932
g73
(dp1933
sg82
g1877
sg75
(lp1934
g68
(g89
g70
NtRp1935
(dp1936
g73
(dp1937
sg82
g1931
sg75
(lp1938
g68
(g69
g70
NtRp1939
(dp1940
g73
(dp1941
g81
I3
ssg82
g1935
sg75
(lp1942
g1352
asbasbasbasbasbasbasbasbasbasbasbag68
(g84
g70
NtRp1943
(dp1944
g73
(dp1945
sg82
g78
sg75
(lp1946
g68
(g89
g70
NtRp1947
(dp1948
g73
(dp1949
g93
g94
ssg82
g1943
sg75
(lp1950
S'is_https'
p1951
asbag68
(g89
g70
NtRp1952
(dp1953
g73
(dp1954
g100
g101
ssg82
g1943
sg75
(lp1955
S':'
asbag68
(g89
g70
NtRp1956
(dp1957
g73
(dp1958
sg82
g1943
sg75
(lp1959
g68
(g69
g70
NtRp1960
(dp1961
g73
(dp1962
g81
I5
ssg82
g1956
sg75
(lp1963
g111
asbasbasbag68
(g84
g70
NtRp1964
(dp1965
g73
(dp1966
sg82
g78
sg75
(lp1967
g68
(g89
g70
NtRp1968
(dp1969
g73
(dp1970
g93
g94
ssg82
g1964
sg75
(lp1971
S'is_local'
p1972
asbag68
(g89
g70
NtRp1973
(dp1974
g73
(dp1975
g100
g101
ssg82
g1964
sg75
(lp1976
S':'
asbag68
(g89
g70
NtRp1977
(dp1978
g73
(dp1979
sg82
g1964
sg75
(lp1980
g68
(g69
g70
NtRp1981
(dp1982
g73
(dp1983
g81
I5
ssg82
g1977
sg75
(lp1984
g1461
asbasbasbag68
(g84
g70
NtRp1985
(dp1986
g73
(dp1987
sg82
g78
sg75
(lp1988
g68
(g89
g70
NtRp1989
(dp1990
g73
(dp1991
g93
g94
ssg82
g1985
sg75
(lp1992
S'is_restful'
p1993
asbag68
(g89
g70
NtRp1994
(dp1995
g73
(dp1996
g100
g101
ssg82
g1985
sg75
(lp1997
S':'
asbag68
(g89
g70
NtRp1998
(dp1999
g73
(dp2000
sg82
g1985
sg75
(lp2001
g68
(g69
g70
NtRp2002
(dp2003
g73
(dp2004
g81
I5
ssg82
g1998
sg75
(lp2005
g111
asbasbasbag68
(g84
g70
NtRp2006
(dp2007
g73
(dp2008
sg82
g78
sg75
(lp2009
g68
(g89
g70
NtRp2010
(dp2011
g73
(dp2012
g93
g94
ssg82
g2006
sg75
(lp2013
S'now'
p2014
asbag68
(g89
g70
NtRp2015
(dp2016
g73
(dp2017
g100
g101
ssg82
g2006
sg75
(lp2018
S':'
asbag68
(g89
g70
NtRp2019
(dp2020
g73
(dp2021
sg82
g2006
sg75
(lp2022
g68
(g69
g70
NtRp2023
(dp2024
g73
(dp2025
g81
I5
ssg82
g2019
sg75
(lp2026
S'datetime.datetime(2011, 10, 20, 17, 51, 50, 639827)'
p2027
asbasbasbag68
(g84
g70
NtRp2028
(dp2029
g73
(dp2030
sg82
g78
sg75
(lp2031
g68
(g89
g70
NtRp2032
(dp2033
g73
(dp2034
g93
g94
ssg82
g2028
sg75
(lp2035
S'post_vars'
p2036
asbag68
(g89
g70
NtRp2037
(dp2038
g73
(dp2039
g100
g101
ssg82
g2028
sg75
(lp2040
S':'
asbag68
(g89
g70
NtRp2041
(dp2042
g73
(dp2043
sg82
g2028
sg75
(lp2044
g68
(g69
g70
NtRp2045
(dp2046
g73
(dp2047
g81
I5
ssg82
g2041
sg75
(lp2048
g68
(g77
g70
NtRp2049
(dp2050
g73
(dp2051
g81
I4
ssg82
Nsg75
(lp2052
sbasbasbasbag68
(g84
g70
NtRp2053
(dp2054
g73
(dp2055
sg82
g78
sg75
(lp2056
g68
(g89
g70
NtRp2057
(dp2058
g73
(dp2059
g93
g94
ssg82
g2053
sg75
(lp2060
S'url'
p2061
asbag68
(g89
g70
NtRp2062
(dp2063
g73
(dp2064
g100
g101
ssg82
g2053
sg75
(lp2065
S':'
asbag68
(g89
g70
NtRp2066
(dp2067
g73
(dp2068
sg82
g2053
sg75
(lp2069
g68
(g69
g70
NtRp2070
(dp2071
g73
(dp2072
g81
I5
ssg82
g2066
sg75
(lp2073
S'/places/default/index'
p2074
asbasbasbag68
(g84
g70
NtRp2075
(dp2076
g73
(dp2077
sg82
g78
sg75
(lp2078
g68
(g89
g70
NtRp2079
(dp2080
g73
(dp2081
g93
g94
ssg82
g2075
sg75
(lp2082
S'utcnow'
p2083
asbag68
(g89
g70
NtRp2084
(dp2085
g73
(dp2086
g100
g101
ssg82
g2075
sg75
(lp2087
S':'
asbag68
(g89
g70
NtRp2088
(dp2089
g73
(dp2090
sg82
g2075
sg75
(lp2091
g68
(g69
g70
NtRp2092
(dp2093
g73
(dp2094
g81
I5
ssg82
g2088
sg75
(lp2095
S'datetime.datetime(2011, 10, 20, 21, 51, 50, 639868)'
p2096
asbasbasbag68
(g84
g70
NtRp2097
(dp2098
g73
(dp2099
sg82
g78
sg75
(lp2100
g68
(g89
g70
NtRp2101
(dp2102
g73
(dp2103
g93
g94
ssg82
g2097
sg75
(lp2104
S'uuid'
p2105
asbag68
(g89
g70
NtRp2106
(dp2107
g73
(dp2108
g100
g101
ssg82
g2097
sg75
(lp2109
S':'
asbag68
(g89
g70
NtRp2110
(dp2111
g73
(dp2112
sg82
g2097
sg75
(lp2113
g68
(g69
g70
NtRp2114
(dp2115
g73
(dp2116
g81
I5
ssg82
g2110
sg75
(lp2117
S'places/127.0.0.1.2011-10-20.17-51-50.e30ce322-669c-4d0d-804e-231e3188ed96'
p2118
asbasbasbag68
(g84
g70
NtRp2119
(dp2120
g73
(dp2121
sg82
g78
sg75
(lp2122
g68
(g89
g70
NtRp2123
(dp2124
g73
(dp2125
g93
g94
ssg82
g2119
sg75
(lp2126
S'vars'
p2127
asbag68
(g89
g70
NtRp2128
(dp2129
g73
(dp2130
g100
g101
ssg82
g2119
sg75
(lp2131
S':'
asbag68
(g89
g70
NtRp2132
(dp2133
g73
(dp2134
sg82
g2119
sg75
(lp2135
g68
(g69
g70
NtRp2136
(dp2137
g73
(dp2138
g81
I5
ssg82
g2132
sg75
(lp2139
g68
(g77
g70
NtRp2140
(dp2141
g73
(dp2142
g81
I4
ssg82
Nsg75
(lp2143
sbasbasbasbag68
(g84
g70
NtRp2144
(dp2145
g73
(dp2146
sg82
g78
sg75
(lp2147
g68
(g89
g70
NtRp2148
(dp2149
g73
(dp2150
g93
g94
ssg82
g2144
sg75
(lp2151
S'wsgi'
p2152
asbag68
(g89
g70
NtRp2153
(dp2154
g73
(dp2155
g100
g101
ssg82
g2144
sg75
(lp2156
S':'
asbag68
(g89
g70
NtRp2157
(dp2158
g73
(dp2159
sg82
g2144
sg75
(lp2160
g68
(g69
g70
NtRp2161
(dp2162
g73
(dp2163
g81
I5
ssg82
g2157
sg75
(lp2164
g68
(g77
g70
NtRp2165
(dp2166
g73
(dp2167
g81
I4
ssg82
Nsg75
(lp2168
g68
(g84
g70
NtRp2169
(dp2170
g73
(dp2171
sg82
g2165
sg75
(lp2172
g68
(g89
g70
NtRp2173
(dp2174
g73
(dp2175
g93
g94
ssg82
g2169
sg75
(lp2176
S'environ'
p2177
asbag68
(g89
g70
NtRp2178
(dp2179
g73
(dp2180
g100
g101
ssg82
g2169
sg75
(lp2181
S':'
asbag68
(g89
g70
NtRp2182
(dp2183
g73
(dp2184
sg82
g2169
sg75
(lp2185
g68
(g69
g70
NtRp2186
(dp2187
g73
(dp2188
g81
I4
ssg82
g2182
sg75
(lp2189
g68
(g77
g70
NtRp2190
(dp2191
g73
(dp2192
g81
I3
ssg82
Nsg75
(lp2193
g68
(g84
g70
NtRp2194
(dp2195
g73
(dp2196
sg82
g2190
sg75
(lp2197
g68
(g89
g70
NtRp2198
(dp2199
g73
(dp2200
g93
g94
ssg82
g2194
sg75
(lp2201
S'HTTP_ACCEPT'
p2202
asbag68
(g89
g70
NtRp2203
(dp2204
g73
(dp2205
g100
g101
ssg82
g2194
sg75
(lp2206
S':'
asbag68
(g89
g70
NtRp2207
(dp2208
g73
(dp2209
sg82
g2194
sg75
(lp2210
g68
(g69
g70
NtRp2211
(dp2212
g73
(dp2213
g81
I3
ssg82
g2207
sg75
(lp2214
g829
asbasbasbag68
(g84
g70
NtRp2215
(dp2216
g73
(dp2217
sg82
g2190
sg75
(lp2218
g68
(g89
g70
NtRp2219
(dp2220
g73
(dp2221
g93
g94
ssg82
g2215
sg75
(lp2222
S'HTTP_ACCEPT_ENCODING'
p2223
asbag68
(g89
g70
NtRp2224
(dp2225
g73
(dp2226
g100
g101
ssg82
g2215
sg75
(lp2227
S':'
asbag68
(g89
g70
NtRp2228
(dp2229
g73
(dp2230
sg82
g2215
sg75
(lp2231
g68
(g69
g70
NtRp2232
(dp2233
g73
(dp2234
g81
I3
ssg82
g2228
sg75
(lp2235
g851
asbasbasbag68
(g84
g70
NtRp2236
(dp2237
g73
(dp2238
sg82
g2190
sg75
(lp2239
g68
(g89
g70
NtRp2240
(dp2241
g73
(dp2242
g93
g94
ssg82
g2236
sg75
(lp2243
S'HTTP_ACCEPT_LANGUAGE'
p2244
asbag68
(g89
g70
NtRp2245
(dp2246
g73
(dp2247
g100
g101
ssg82
g2236
sg75
(lp2248
S':'
asbag68
(g89
g70
NtRp2249
(dp2250
g73
(dp2251
sg82
g2236
sg75
(lp2252
g68
(g69
g70
NtRp2253
(dp2254
g73
(dp2255
g81
I3
ssg82
g2249
sg75
(lp2256
g873
asbasbasbag68
(g84
g70
NtRp2257
(dp2258
g73
(dp2259
sg82
g2190
sg75
(lp2260
g68
(g89
g70
NtRp2261
(dp2262
g73
(dp2263
g93
g94
ssg82
g2257
sg75
(lp2264
S'HTTP_CACHE_CONTROL'
p2265
asbag68
(g89
g70
NtRp2266
(dp2267
g73
(dp2268
g100
g101
ssg82
g2257
sg75
(lp2269
S':'
asbag68
(g89
g70
NtRp2270
(dp2271
g73
(dp2272
sg82
g2257
sg75
(lp2273
g68
(g69
g70
NtRp2274
(dp2275
g73
(dp2276
g81
I3
ssg82
g2270
sg75
(lp2277
g895
asbasbasbag68
(g84
g70
NtRp2278
(dp2279
g73
(dp2280
sg82
g2190
sg75
(lp2281
g68
(g89
g70
NtRp2282
(dp2283
g73
(dp2284
g93
g94
ssg82
g2278
sg75
(lp2285
S'HTTP_CONNECTION'
p2286
asbag68
(g89
g70
NtRp2287
(dp2288
g73
(dp2289
g100
g101
ssg82
g2278
sg75
(lp2290
S':'
asbag68
(g89
g70
NtRp2291
(dp2292
g73
(dp2293
sg82
g2278
sg75
(lp2294
g68
(g69
g70
NtRp2295
(dp2296
g73
(dp2297
g81
I3
ssg82
g2291
sg75
(lp2298
g917
asbasbasbag68
(g84
g70
NtRp2299
(dp2300
g73
(dp2301
sg82
g2190
sg75
(lp2302
g68
(g89
g70
NtRp2303
(dp2304
g73
(dp2305
g93
g94
ssg82
g2299
sg75
(lp2306
S'HTTP_COOKIE'
p2307
asbag68
(g89
g70
NtRp2308
(dp2309
g73
(dp2310
g100
g101
ssg82
g2299
sg75
(lp2311
S':'
asbag68
(g89
g70
NtRp2312
(dp2313
g73
(dp2314
sg82
g2299
sg75
(lp2315
g68
(g69
g70
NtRp2316
(dp2317
g73
(dp2318
g81
I3
ssg82
g2312
sg75
(lp2319
g939
asbasbasbag68
(g84
g70
NtRp2320
(dp2321
g73
(dp2322
sg82
g2190
sg75
(lp2323
g68
(g89
g70
NtRp2324
(dp2325
g73
(dp2326
g93
g94
ssg82
g2320
sg75
(lp2327
S'HTTP_HOST'
p2328
asbag68
(g89
g70
NtRp2329
(dp2330
g73
(dp2331
g100
g101
ssg82
g2320
sg75
(lp2332
S':'
asbag68
(g89
g70
NtRp2333
(dp2334
g73
(dp2335
sg82
g2320
sg75
(lp2336
g68
(g69
g70
NtRp2337
(dp2338
g73
(dp2339
g81
I3
ssg82
g2333
sg75
(lp2340
g961
asbasbasbag68
(g84
g70
NtRp2341
(dp2342
g73
(dp2343
sg82
g2190
sg75
(lp2344
g68
(g89
g70
NtRp2345
(dp2346
g73
(dp2347
g93
g94
ssg82
g2341
sg75
(lp2348
S'HTTP_USER_AGENT'
p2349
asbag68
(g89
g70
NtRp2350
(dp2351
g73
(dp2352
g100
g101
ssg82
g2341
sg75
(lp2353
S':'
asbag68
(g89
g70
NtRp2354
(dp2355
g73
(dp2356
sg82
g2341
sg75
(lp2357
g68
(g69
g70
NtRp2358
(dp2359
g73
(dp2360
g81
I3
ssg82
g2354
sg75
(lp2361
g983
asbasbasbag68
(g84
g70
NtRp2362
(dp2363
g73
(dp2364
sg82
g2190
sg75
(lp2365
g68
(g89
g70
NtRp2366
(dp2367
g73
(dp2368
g93
g94
ssg82
g2362
sg75
(lp2369
S'PATH_INFO'
p2370
asbag68
(g89
g70
NtRp2371
(dp2372
g73
(dp2373
g100
g101
ssg82
g2362
sg75
(lp2374
S':'
asbag68
(g89
g70
NtRp2375
(dp2376
g73
(dp2377
sg82
g2362
sg75
(lp2378
g68
(g69
g70
NtRp2379
(dp2380
g73
(dp2381
g81
I3
ssg82
g2375
sg75
(lp2382
g1026
asbasbasbag68
(g84
g70
NtRp2383
(dp2384
g73
(dp2385
sg82
g2190
sg75
(lp2386
g68
(g89
g70
NtRp2387
(dp2388
g73
(dp2389
g93
g94
ssg82
g2383
sg75
(lp2390
S'QUERY_STRING'
p2391
asbag68
(g89
g70
NtRp2392
(dp2393
g73
(dp2394
g100
g101
ssg82
g2383
sg75
(lp2395
S':'
asbag68
(g89
g70
NtRp2396
(dp2397
g73
(dp2398
sg82
g2383
sg75
(lp2399
g68
(g69
g70
NtRp2400
(dp2401
g73
(dp2402
g81
I3
ssg82
g2396
sg75
(lp2403
S''
asbasbasbag68
(g84
g70
NtRp2404
(dp2405
g73
(dp2406
sg82
g2190
sg75
(lp2407
g68
(g89
g70
NtRp2408
(dp2409
g73
(dp2410
g93
g94
ssg82
g2404
sg75
(lp2411
S'REMOTE_ADDR'
p2412
asbag68
(g89
g70
NtRp2413
(dp2414
g73
(dp2415
g100
g101
ssg82
g2404
sg75
(lp2416
S':'
asbag68
(g89
g70
NtRp2417
(dp2418
g73
(dp2419
sg82
g2404
sg75
(lp2420
g68
(g69
g70
NtRp2421
(dp2422
g73
(dp2423
g81
I3
ssg82
g2417
sg75
(lp2424
g201
asbasbasbag68
(g84
g70
NtRp2425
(dp2426
g73
(dp2427
sg82
g2190
sg75
(lp2428
g68
(g89
g70
NtRp2429
(dp2430
g73
(dp2431
g93
g94
ssg82
g2425
sg75
(lp2432
S'REMOTE_PORT'
p2433
asbag68
(g89
g70
NtRp2434
(dp2435
g73
(dp2436
g100
g101
ssg82
g2425
sg75
(lp2437
S':'
asbag68
(g89
g70
NtRp2438
(dp2439
g73
(dp2440
sg82
g2425
sg75
(lp2441
g68
(g69
g70
NtRp2442
(dp2443
g73
(dp2444
g81
I3
ssg82
g2438
sg75
(lp2445
g1090
asbasbasbag68
(g84
g70
NtRp2446
(dp2447
g73
(dp2448
sg82
g2190
sg75
(lp2449
g68
(g89
g70
NtRp2450
(dp2451
g73
(dp2452
g93
g94
ssg82
g2446
sg75
(lp2453
S'REQUEST_METHOD'
p2454
asbag68
(g89
g70
NtRp2455
(dp2456
g73
(dp2457
g100
g101
ssg82
g2446
sg75
(lp2458
S':'
asbag68
(g89
g70
NtRp2459
(dp2460
g73
(dp2461
sg82
g2446
sg75
(lp2462
g68
(g69
g70
NtRp2463
(dp2464
g73
(dp2465
g81
I3
ssg82
g2459
sg75
(lp2466
g1112
asbasbasbag68
(g84
g70
NtRp2467
(dp2468
g73
(dp2469
sg82
g2190
sg75
(lp2470
g68
(g89
g70
NtRp2471
(dp2472
g73
(dp2473
g93
g94
ssg82
g2467
sg75
(lp2474
S'SCRIPT_NAME'
p2475
asbag68
(g89
g70
NtRp2476
(dp2477
g73
(dp2478
g100
g101
ssg82
g2467
sg75
(lp2479
S':'
asbag68
(g89
g70
NtRp2480
(dp2481
g73
(dp2482
sg82
g2467
sg75
(lp2483
g68
(g69
g70
NtRp2484
(dp2485
g73
(dp2486
g81
I3
ssg82
g2480
sg75
(lp2487
S''
asbasbasbag68
(g84
g70
NtRp2488
(dp2489
g73
(dp2490
sg82
g2190
sg75
(lp2491
g68
(g89
g70
NtRp2492
(dp2493
g73
(dp2494
g93
g94
ssg82
g2488
sg75
(lp2495
S'SERVER_NAME'
p2496
asbag68
(g89
g70
NtRp2497
(dp2498
g73
(dp2499
g100
g101
ssg82
g2488
sg75
(lp2500
S':'
asbag68
(g89
g70
NtRp2501
(dp2502
g73
(dp2503
sg82
g2488
sg75
(lp2504
g68
(g69
g70
NtRp2505
(dp2506
g73
(dp2507
g81
I3
ssg82
g2501
sg75
(lp2508
g1155
asbasbasbag68
(g84
g70
NtRp2509
(dp2510
g73
(dp2511
sg82
g2190
sg75
(lp2512
g68
(g89
g70
NtRp2513
(dp2514
g73
(dp2515
g93
g94
ssg82
g2509
sg75
(lp2516
S'SERVER_PORT'
p2517
asbag68
(g89
g70
NtRp2518
(dp2519
g73
(dp2520
g100
g101
ssg82
g2509
sg75
(lp2521
S':'
asbag68
(g89
g70
NtRp2522
(dp2523
g73
(dp2524
sg82
g2509
sg75
(lp2525
g68
(g69
g70
NtRp2526
(dp2527
g73
(dp2528
g81
I3
ssg82
g2522
sg75
(lp2529
g1177
asbasbasbag68
(g84
g70
NtRp2530
(dp2531
g73
(dp2532
sg82
g2190
sg75
(lp2533
g68
(g89
g70
NtRp2534
(dp2535
g73
(dp2536
g93
g94
ssg82
g2530
sg75
(lp2537
S'SERVER_PROTOCOL'
p2538
asbag68
(g89
g70
NtRp2539
(dp2540
g73
(dp2541
g100
g101
ssg82
g2530
sg75
(lp2542
S':'
asbag68
(g89
g70
NtRp2543
(dp2544
g73
(dp2545
sg82
g2530
sg75
(lp2546
g68
(g69
g70
NtRp2547
(dp2548
g73
(dp2549
g81
I3
ssg82
g2543
sg75
(lp2550
g1199
asbasbasbag68
(g84
g70
NtRp2551
(dp2552
g73
(dp2553
sg82
g2190
sg75
(lp2554
g68
(g89
g70
NtRp2555
(dp2556
g73
(dp2557
g93
g94
ssg82
g2551
sg75
(lp2558
S'SERVER_SOFTWARE'
p2559
asbag68
(g89
g70
NtRp2560
(dp2561
g73
(dp2562
g100
g101
ssg82
g2551
sg75
(lp2563
S':'
asbag68
(g89
g70
NtRp2564
(dp2565
g73
(dp2566
sg82
g2551
sg75
(lp2567
g68
(g69
g70
NtRp2568
(dp2569
g73
(dp2570
g81
I3
ssg82
g2564
sg75
(lp2571
g1221
asbasbasbag68
(g84
g70
NtRp2572
(dp2573
g73
(dp2574
sg82
g2190
sg75
(lp2575
g68
(g89
g70
NtRp2576
(dp2577
g73
(dp2578
g93
g94
ssg82
g2572
sg75
(lp2579
S'wsgi.errors'
p2580
asbag68
(g89
g70
NtRp2581
(dp2582
g73
(dp2583
g100
g101
ssg82
g2572
sg75
(lp2584
S':'
asbag68
(g89
g70
NtRp2585
(dp2586
g73
(dp2587
sg82
g2572
sg75
(lp2588
g68
(g69
g70
NtRp2589
(dp2590
g73
(dp2591
g81
I3
ssg82
g2585
sg75
(lp2592
S"<open file '<stderr>', mode 'w' at 0x7f7d1bc23270>"
p2593
asbasbasbag68
(g84
g70
NtRp2594
(dp2595
g73
(dp2596
sg82
g2190
sg75
(lp2597
g68
(g89
g70
NtRp2598
(dp2599
g73
(dp2600
g93
g94
ssg82
g2594
sg75
(lp2601
S'wsgi.file_wrapper'
p2602
asbag68
(g89
g70
NtRp2603
(dp2604
g73
(dp2605
g100
g101
ssg82
g2594
sg75
(lp2606
S':'
asbag68
(g89
g70
NtRp2607
(dp2608
g73
(dp2609
sg82
g2594
sg75
(lp2610
g68
(g69
g70
NtRp2611
(dp2612
g73
(dp2613
g81
I3
ssg82
g2607
sg75
(lp2614
S'<class wsgiref.util.FileWrapper at 0x2aaa808>'
p2615
asbasbasbag68
(g84
g70
NtRp2616
(dp2617
g73
(dp2618
sg82
g2190
sg75
(lp2619
g68
(g89
g70
NtRp2620
(dp2621
g73
(dp2622
g93
g94
ssg82
g2616
sg75
(lp2623
S'wsgi.input'
p2624
asbag68
(g89
g70
NtRp2625
(dp2626
g73
(dp2627
g100
g101
ssg82
g2616
sg75
(lp2628
S':'
asbag68
(g89
g70
NtRp2629
(dp2630
g73
(dp2631
sg82
g2616
sg75
(lp2632
g68
(g69
g70
NtRp2633
(dp2634
g73
(dp2635
g81
I3
ssg82
g2629
sg75
(lp2636
S'<cStringIO.StringO object at 0x3597298>'
p2637
asbasbasbag68
(g84
g70
NtRp2638
(dp2639
g73
(dp2640
sg82
g2190
sg75
(lp2641
g68
(g89
g70
NtRp2642
(dp2643
g73
(dp2644
g93
g94
ssg82
g2638
sg75
(lp2645
S'wsgi.multiprocess'
p2646
asbag68
(g89
g70
NtRp2647
(dp2648
g73
(dp2649
g100
g101
ssg82
g2638
sg75
(lp2650
S':'
asbag68
(g89
g70
NtRp2651
(dp2652
g73
(dp2653
sg82
g2638
sg75
(lp2654
g68
(g69
g70
NtRp2655
(dp2656
g73
(dp2657
g81
I3
ssg82
g2651
sg75
(lp2658
g111
asbasbasbag68
(g84
g70
NtRp2659
(dp2660
g73
(dp2661
sg82
g2190
sg75
(lp2662
g68
(g89
g70
NtRp2663
(dp2664
g73
(dp2665
g93
g94
ssg82
g2659
sg75
(lp2666
S'wsgi.multithread'
p2667
asbag68
(g89
g70
NtRp2668
(dp2669
g73
(dp2670
g100
g101
ssg82
g2659
sg75
(lp2671
S':'
asbag68
(g89
g70
NtRp2672
(dp2673
g73
(dp2674
sg82
g2659
sg75
(lp2675
g68
(g69
g70
NtRp2676
(dp2677
g73
(dp2678
g81
I3
ssg82
g2672
sg75
(lp2679
g1461
asbasbasbag68
(g84
g70
NtRp2680
(dp2681
g73
(dp2682
sg82
g2190
sg75
(lp2683
g68
(g89
g70
NtRp2684
(dp2685
g73
(dp2686
g93
g94
ssg82
g2680
sg75
(lp2687
S'wsgi.run_once'
p2688
asbag68
(g89
g70
NtRp2689
(dp2690
g73
(dp2691
g100
g101
ssg82
g2680
sg75
(lp2692
S':'
asbag68
(g89
g70
NtRp2693
(dp2694
g73
(dp2695
sg82
g2680
sg75
(lp2696
g68
(g69
g70
NtRp2697
(dp2698
g73
(dp2699
g81
I3
ssg82
g2693
sg75
(lp2700
g111
asbasbasbag68
(g84
g70
NtRp2701
(dp2702
g73
(dp2703
sg82
g2190
sg75
(lp2704
g68
(g89
g70
NtRp2705
(dp2706
g73
(dp2707
g93
g94
ssg82
g2701
sg75
(lp2708
S'wsgi.url_scheme'
p2709
asbag68
(g89
g70
NtRp2710
(dp2711
g73
(dp2712
g100
g101
ssg82
g2701
sg75
(lp2713
S':'
asbag68
(g89
g70
NtRp2714
(dp2715
g73
(dp2716
sg82
g2701
sg75
(lp2717
g68
(g69
g70
NtRp2718
(dp2719
g73
(dp2720
g81
I3
ssg82
g2714
sg75
(lp2721
g1504
asbasbasbag68
(g84
g70
NtRp2722
(dp2723
g73
(dp2724
sg82
g2190
sg75
(lp2725
g68
(g89
g70
NtRp2726
(dp2727
g73
(dp2728
g93
g94
ssg82
g2722
sg75
(lp2729
S'wsgi.version'
p2730
asbag68
(g89
g70
NtRp2731
(dp2732
g73
(dp2733
g100
g101
ssg82
g2722
sg75
(lp2734
S':'
asbag68
(g89
g70
NtRp2735
(dp2736
g73
(dp2737
sg82
g2722
sg75
(lp2738
g68
(g69
g70
NtRp2739
(dp2740
g73
(dp2741
g81
I3
ssg82
g2735
sg75
(lp2742
S'1'
asbasbasbasbasbasbasbasbasbasbasbasbasbsS'frames'
p2743
(lp2744
(dp2745
S'file'
p2746
S'/home/ian/web2py/gluon/restricted.py'
p2747
sS'dump'
p2748
(dp2749
S'code'
p2750
S"'# -*- coding: utf-8 -*-\\n# this file is released ...e_title)\\n\\nresponse._vars=response._caller(index)\\n'"
p2751
sS'layer'
p2752
S"'/home/ian/web2py/applications/places/controllers/default.py'"
p2753
sS'global compile2'
p2754
S'<function compile2>'
p2755
sS'ccode'
p2756
S'undefined'
p2757
ssS'lnum'
p2758
I193
sS'lines'
p2759
(dp2760
I192
S'        else:'
p2761
sI193
S'            ccode = compile2(code,layer)'
p2762
sI194
S'        exec ccode in environment'
p2763
sI195
S'    except HTTP:'
p2764
sI196
S'        raise'
p2765
sI197
S'    except Exception, error:'
p2766
sI188
S"    environment['__file__'] = layer"
p2767
sI189
S'    try:'
p2768
sI190
S'        if type(code) == types.CodeType:'
p2769
sI191
S'            ccode = code'
p2770
ssS'call'
p2771
S"(code='# -*- coding: utf-8 -*-\\n# this file is released ...e_title)\\n\\nresponse._vars=response._caller(index)\\n', environment={'A': <class 'gluon.html.A'>, 'Auth': <class 'gluon.tools.Auth'>, 'B': <class 'gluon.html.B'>, 'BEAUTIFY': <class 'gluon.html.BEAUTIFY'>, 'BODY': <class 'gluon.html.BODY'>, 'BR': <class 'gluon.html.BR'>, 'BUTTON': <class 'gluon.html.BUTTON'>, 'CAT': <class 'gluon.html.CAT'>, 'CENTER': <class 'gluon.html.CENTER'>, 'CLEANUP': <class 'gluon.validators.CLEANUP'>, ...}, layer='/home/ian/web2py/applications/places/controllers/default.py')"
p2772
sS'func'
p2773
S'restricted'
p2774
sa(dp2775
g2746
S'/home/ian/web2py/gluon/restricted.py'
p2776
sg2748
(dp2777
S'builtincompile'
p2778
S'<built-in function compile>'
p2779
sS'code'
p2780
S"'# -*- coding: utf-8 -*-\\n# this file is released ...e_title)\\n\\nresponse._vars=response._caller(index)\\n'"
p2781
sS'code.rstrip'
p2782
S'<built-in method rstrip of str object>'
p2783
sS').replace'
p2784
g2757
sS'layer'
p2785
S"'/home/ian/web2py/applications/places/controllers/default.py'"
p2786
ssg2758
I179
sg2759
(dp2787
I174
S''
sI175
S'def compile2(code,layer):'
p2788
sI176
S'    """'
p2789
sI177
S"    The +'\\n' is necessary else compile fails when code ends in a comment."
p2790
sI178
S'    """'
p2791
sI179
S"    return compile(code.rstrip().replace('\\r\\n','\\n')+'\\n', layer, 'exec')"
p2792
sI180
S''
sI181
S"def restricted(code, environment=None, layer='Unknown'):"
p2793
sI182
S'    """'
p2794
sI183
S'    runs code in environment and returns the output. if an exception occurs'
p2795
ssg2771
S"(code='# -*- coding: utf-8 -*-\\n# this file is released ...e_title)\\n\\nresponse._vars=response._caller(index)\\n', layer='/home/ian/web2py/applications/places/controllers/default.py')"
p2796
sg2773
S'compile2'
p2797
sasS'pyver'
p2798
S'Python 2.7.2+: /usr/bin/python2.7'
p2799
sS'session'
p2800
g68
(g69
g70
NtRp2801
(dp2802
g73
(dp2803
sg75
(lp2804
g68
(g77
g70
NtRp2805
(dp2806
g73
(dp2807
g81
I5
ssg82
Nsg75
(lp2808
sbasbsS'etype'
p2809
S"<type 'exceptions.IndentationError'>"
p2810
sS'date'
p2811
S'Thu Oct 20 17:51:50 2011'
p2812
sS'response'
p2813
g68
(g69
g70
NtRp2814
(dp2815
g73
(dp2816
sg75
(lp2817
g68
(g77
g70
NtRp2818
(dp2819
g73
(dp2820
g81
I5
ssg82
Nsg75
(lp2821
g68
(g84
g70
NtRp2822
(dp2823
g73
(dp2824
sg82
g2818
sg75
(lp2825
g68
(g89
g70
NtRp2826
(dp2827
g73
(dp2828
g93
g94
ssg82
g2822
sg75
(lp2829
g166
asbag68
(g89
g70
NtRp2830
(dp2831
g73
(dp2832
g100
g101
ssg82
g2822
sg75
(lp2833
S':'
asbag68
(g89
g70
NtRp2834
(dp2835
g73
(dp2836
sg82
g2822
sg75
(lp2837
g68
(g69
g70
NtRp2838
(dp2839
g73
(dp2840
g81
I5
ssg82
g2834
sg75
(lp2841
S'<cStringIO.StringO object at 0x35973e8>'
p2842
asbasbasbag68
(g84
g70
NtRp2843
(dp2844
g73
(dp2845
sg82
g2818
sg75
(lp2846
g68
(g89
g70
NtRp2847
(dp2848
g73
(dp2849
g93
g94
ssg82
g2843
sg75
(lp2850
g232
asbag68
(g89
g70
NtRp2851
(dp2852
g73
(dp2853
g100
g101
ssg82
g2843
sg75
(lp2854
S':'
asbag68
(g89
g70
NtRp2855
(dp2856
g73
(dp2857
sg82
g2843
sg75
(lp2858
g68
(g69
g70
NtRp2859
(dp2860
g73
(dp2861
g81
I5
ssg82
g2855
sg75
(lp2862
g68
(g77
g70
NtRp2863
(dp2864
g73
(dp2865
g81
I4
ssg82
Nsg75
(lp2866
g68
(g84
g70
NtRp2867
(dp2868
g73
(dp2869
sg82
g2863
sg75
(lp2870
g68
(g89
g70
NtRp2871
(dp2872
g73
(dp2873
g93
g94
ssg82
g2867
sg75
(lp2874
S'session_id_places'
p2875
asbag68
(g89
g70
NtRp2876
(dp2877
g73
(dp2878
g100
g101
ssg82
g2867
sg75
(lp2879
S':'
asbag68
(g89
g70
NtRp2880
(dp2881
g73
(dp2882
sg82
g2867
sg75
(lp2883
g68
(g69
g70
NtRp2884
(dp2885
g73
(dp2886
g81
I4
ssg82
g2880
sg75
(lp2887
g68
(g77
g70
NtRp2888
(dp2889
g73
(dp2890
g81
I3
ssg82
Nsg75
(lp2891
g68
(g84
g70
NtRp2892
(dp2893
g73
(dp2894
sg82
g2888
sg75
(lp2895
g68
(g89
g70
NtRp2896
(dp2897
g73
(dp2898
g93
g94
ssg82
g2892
sg75
(lp2899
g282
asbag68
(g89
g70
NtRp2900
(dp2901
g73
(dp2902
g100
g101
ssg82
g2892
sg75
(lp2903
S':'
asbag68
(g89
g70
NtRp2904
(dp2905
g73
(dp2906
sg82
g2892
sg75
(lp2907
g68
(g69
g70
NtRp2908
(dp2909
g73
(dp2910
g81
I3
ssg82
g2904
sg75
(lp2911
S''
asbasbasbag68
(g84
g70
NtRp2912
(dp2913
g73
(dp2914
sg82
g2888
sg75
(lp2915
g68
(g89
g70
NtRp2916
(dp2917
g73
(dp2918
g93
g94
ssg82
g2912
sg75
(lp2919
g303
asbag68
(g89
g70
NtRp2920
(dp2921
g73
(dp2922
g100
g101
ssg82
g2912
sg75
(lp2923
S':'
asbag68
(g89
g70
NtRp2924
(dp2925
g73
(dp2926
sg82
g2912
sg75
(lp2927
g68
(g69
g70
NtRp2928
(dp2929
g73
(dp2930
g81
I3
ssg82
g2924
sg75
(lp2931
S''
asbasbasbag68
(g84
g70
NtRp2932
(dp2933
g73
(dp2934
sg82
g2888
sg75
(lp2935
g68
(g89
g70
NtRp2936
(dp2937
g73
(dp2938
g93
g94
ssg82
g2932
sg75
(lp2939
g324
asbag68
(g89
g70
NtRp2940
(dp2941
g73
(dp2942
g100
g101
ssg82
g2932
sg75
(lp2943
S':'
asbag68
(g89
g70
NtRp2944
(dp2945
g73
(dp2946
sg82
g2932
sg75
(lp2947
g68
(g69
g70
NtRp2948
(dp2949
g73
(dp2950
g81
I3
ssg82
g2944
sg75
(lp2951
S''
asbasbasbag68
(g84
g70
NtRp2952
(dp2953
g73
(dp2954
sg82
g2888
sg75
(lp2955
g68
(g89
g70
NtRp2956
(dp2957
g73
(dp2958
g93
g94
ssg82
g2952
sg75
(lp2959
g345
asbag68
(g89
g70
NtRp2960
(dp2961
g73
(dp2962
g100
g101
ssg82
g2952
sg75
(lp2963
S':'
asbag68
(g89
g70
NtRp2964
(dp2965
g73
(dp2966
sg82
g2952
sg75
(lp2967
g68
(g69
g70
NtRp2968
(dp2969
g73
(dp2970
g81
I3
ssg82
g2964
sg75
(lp2971
S''
asbasbasbag68
(g84
g70
NtRp2972
(dp2973
g73
(dp2974
sg82
g2888
sg75
(lp2975
g68
(g89
g70
NtRp2976
(dp2977
g73
(dp2978
g93
g94
ssg82
g2972
sg75
(lp2979
g366
asbag68
(g89
g70
NtRp2980
(dp2981
g73
(dp2982
g100
g101
ssg82
g2972
sg75
(lp2983
S':'
asbag68
(g89
g70
NtRp2984
(dp2985
g73
(dp2986
sg82
g2972
sg75
(lp2987
g68
(g69
g70
NtRp2988
(dp2989
g73
(dp2990
g81
I3
ssg82
g2984
sg75
(lp2991
S''
asbasbasbag68
(g84
g70
NtRp2992
(dp2993
g73
(dp2994
sg82
g2888
sg75
(lp2995
g68
(g89
g70
NtRp2996
(dp2997
g73
(dp2998
g93
g94
ssg82
g2992
sg75
(lp2999
g387
asbag68
(g89
g70
NtRp3000
(dp3001
g73
(dp3002
g100
g101
ssg82
g2992
sg75
(lp3003
S':'
asbag68
(g89
g70
NtRp3004
(dp3005
g73
(dp3006
sg82
g2992
sg75
(lp3007
g68
(g69
g70
NtRp3008
(dp3009
g73
(dp3010
g81
I3
ssg82
g3004
sg75
(lp3011
S'/'
asbasbasbag68
(g84
g70
NtRp3012
(dp3013
g73
(dp3014
sg82
g2888
sg75
(lp3015
g68
(g89
g70
NtRp3016
(dp3017
g73
(dp3018
g93
g94
ssg82
g3012
sg75
(lp3019
g408
asbag68
(g89
g70
NtRp3020
(dp3021
g73
(dp3022
g100
g101
ssg82
g3012
sg75
(lp3023
S':'
asbag68
(g89
g70
NtRp3024
(dp3025
g73
(dp3026
sg82
g3012
sg75
(lp3027
g68
(g69
g70
NtRp3028
(dp3029
g73
(dp3030
g81
I3
ssg82
g3024
sg75
(lp3031
S''
asbasbasbag68
(g84
g70
NtRp3032
(dp3033
g73
(dp3034
sg82
g2888
sg75
(lp3035
g68
(g89
g70
NtRp3036
(dp3037
g73
(dp3038
g93
g94
ssg82
g3032
sg75
(lp3039
g429
asbag68
(g89
g70
NtRp3040
(dp3041
g73
(dp3042
g100
g101
ssg82
g3032
sg75
(lp3043
S':'
asbag68
(g89
g70
NtRp3044
(dp3045
g73
(dp3046
sg82
g3032
sg75
(lp3047
g68
(g69
g70
NtRp3048
(dp3049
g73
(dp3050
g81
I3
ssg82
g3044
sg75
(lp3051
S''
asbasbasbasbasbasbasbasbasbasbasbag68
(g84
g70
NtRp3052
(dp3053
g73
(dp3054
sg82
g2818
sg75
(lp3055
g68
(g89
g70
NtRp3056
(dp3057
g73
(dp3058
g93
g94
ssg82
g3052
sg75
(lp3059
S'files'
p3060
asbag68
(g89
g70
NtRp3061
(dp3062
g73
(dp3063
g100
g101
ssg82
g3052
sg75
(lp3064
S':'
asbag68
(g89
g70
NtRp3065
(dp3066
g73
(dp3067
sg82
g3052
sg75
(lp3068
g68
(g69
g70
NtRp3069
(dp3070
g73
(dp3071
g81
I5
ssg82
g3065
sg75
(lp3072
g68
(g77
g70
NtRp3073
(dp3074
g73
(dp3075
g81
I4
ssg82
Nsg75
(lp3076
sbasbasbasbag68
(g84
g70
NtRp3077
(dp3078
g73
(dp3079
sg82
g2818
sg75
(lp3080
g68
(g89
g70
NtRp3081
(dp3082
g73
(dp3083
g93
g94
ssg82
g3077
sg75
(lp3084
S'flash'
p3085
asbag68
(g89
g70
NtRp3086
(dp3087
g73
(dp3088
g100
g101
ssg82
g3077
sg75
(lp3089
S':'
asbag68
(g89
g70
NtRp3090
(dp3091
g73
(dp3092
sg82
g3077
sg75
(lp3093
g68
(g69
g70
NtRp3094
(dp3095
g73
(dp3096
g81
I5
ssg82
g3090
sg75
(lp3097
S''
asbasbasbag68
(g84
g70
NtRp3098
(dp3099
g73
(dp3100
sg82
g2818
sg75
(lp3101
g68
(g89
g70
NtRp3102
(dp3103
g73
(dp3104
g93
g94
ssg82
g3098
sg75
(lp3105
S'generic_patterns'
p3106
asbag68
(g89
g70
NtRp3107
(dp3108
g73
(dp3109
g100
g101
ssg82
g3098
sg75
(lp3110
S':'
asbag68
(g89
g70
NtRp3111
(dp3112
g73
(dp3113
sg82
g3098
sg75
(lp3114
g68
(g69
g70
NtRp3115
(dp3116
g73
(dp3117
g81
I5
ssg82
g3111
sg75
(lp3118
g68
(g77
g70
NtRp3119
(dp3120
g73
(dp3121
g81
I4
ssg82
Nsg75
(lp3122
g68
(g84
g70
NtRp3123
(dp3124
g73
(dp3125
sg82
g3119
sg75
(lp3126
g68
(g89
g70
NtRp3127
(dp3128
g73
(dp3129
sg82
g3123
sg75
(lp3130
g68
(g69
g70
NtRp3131
(dp3132
g73
(dp3133
g81
I4
ssg82
g3127
sg75
(lp3134
S'*'
asbasbasbasbasbasbasbag68
(g84
g70
NtRp3135
(dp3136
g73
(dp3137
sg82
g2818
sg75
(lp3138
g68
(g89
g70
NtRp3139
(dp3140
g73
(dp3141
g93
g94
ssg82
g3135
sg75
(lp3142
S'headers'
p3143
asbag68
(g89
g70
NtRp3144
(dp3145
g73
(dp3146
g100
g101
ssg82
g3135
sg75
(lp3147
S':'
asbag68
(g89
g70
NtRp3148
(dp3149
g73
(dp3150
sg82
g3135
sg75
(lp3151
g68
(g69
g70
NtRp3152
(dp3153
g73
(dp3154
g81
I5
ssg82
g3148
sg75
(lp3155
g68
(g77
g70
NtRp3156
(dp3157
g73
(dp3158
g81
I4
ssg82
Nsg75
(lp3159
g68
(g84
g70
NtRp3160
(dp3161
g73
(dp3162
sg82
g3156
sg75
(lp3163
g68
(g89
g70
NtRp3164
(dp3165
g73
(dp3166
g93
g94
ssg82
g3160
sg75
(lp3167
S'Cache-Control'
p3168
asbag68
(g89
g70
NtRp3169
(dp3170
g73
(dp3171
g100
g101
ssg82
g3160
sg75
(lp3172
S':'
asbag68
(g89
g70
NtRp3173
(dp3174
g73
(dp3175
sg82
g3160
sg75
(lp3176
g68
(g69
g70
NtRp3177
(dp3178
g73
(dp3179
g81
I4
ssg82
g3173
sg75
(lp3180
S'no-store, no-cache, must-revalidate, post-check=0, pre-check=0'
p3181
asbasbasbag68
(g84
g70
NtRp3182
(dp3183
g73
(dp3184
sg82
g3156
sg75
(lp3185
g68
(g89
g70
NtRp3186
(dp3187
g73
(dp3188
g93
g94
ssg82
g3182
sg75
(lp3189
S'Content-Type'
p3190
asbag68
(g89
g70
NtRp3191
(dp3192
g73
(dp3193
g100
g101
ssg82
g3182
sg75
(lp3194
S':'
asbag68
(g89
g70
NtRp3195
(dp3196
g73
(dp3197
sg82
g3182
sg75
(lp3198
g68
(g69
g70
NtRp3199
(dp3200
g73
(dp3201
g81
I4
ssg82
g3195
sg75
(lp3202
S'text/html; charset=utf-8'
p3203
asbasbasbag68
(g84
g70
NtRp3204
(dp3205
g73
(dp3206
sg82
g3156
sg75
(lp3207
g68
(g89
g70
NtRp3208
(dp3209
g73
(dp3210
g93
g94
ssg82
g3204
sg75
(lp3211
S'Expires'
p3212
asbag68
(g89
g70
NtRp3213
(dp3214
g73
(dp3215
g100
g101
ssg82
g3204
sg75
(lp3216
S':'
asbag68
(g89
g70
NtRp3217
(dp3218
g73
(dp3219
sg82
g3204
sg75
(lp3220
g68
(g69
g70
NtRp3221
(dp3222
g73
(dp3223
g81
I4
ssg82
g3217
sg75
(lp3224
S'Thu, 20 Oct 2011 21:51:50 GMT'
p3225
asbasbasbag68
(g84
g70
NtRp3226
(dp3227
g73
(dp3228
sg82
g3156
sg75
(lp3229
g68
(g89
g70
NtRp3230
(dp3231
g73
(dp3232
g93
g94
ssg82
g3226
sg75
(lp3233
S'Pragma'
p3234
asbag68
(g89
g70
NtRp3235
(dp3236
g73
(dp3237
g100
g101
ssg82
g3226
sg75
(lp3238
S':'
asbag68
(g89
g70
NtRp3239
(dp3240
g73
(dp3241
sg82
g3226
sg75
(lp3242
g68
(g69
g70
NtRp3243
(dp3244
g73
(dp3245
g81
I4
ssg82
g3239
sg75
(lp3246
S'no-cache'
p3247
asbasbasbag68
(g84
g70
NtRp3248
(dp3249
g73
(dp3250
sg82
g3156
sg75
(lp3251
g68
(g89
g70
NtRp3252
(dp3253
g73
(dp3254
g93
g94
ssg82
g3248
sg75
(lp3255
S'X-Powered-By'
p3256
asbag68
(g89
g70
NtRp3257
(dp3258
g73
(dp3259
g100
g101
ssg82
g3248
sg75
(lp3260
S':'
asbag68
(g89
g70
NtRp3261
(dp3262
g73
(dp3263
sg82
g3248
sg75
(lp3264
g68
(g69
g70
NtRp3265
(dp3266
g73
(dp3267
g81
I4
ssg82
g3261
sg75
(lp3268
S'web2py'
p3269
asbasbasbasbasbasbasbag68
(g84
g70
NtRp3270
(dp3271
g73
(dp3272
sg82
g2818
sg75
(lp3273
g68
(g89
g70
NtRp3274
(dp3275
g73
(dp3276
g93
g94
ssg82
g3270
sg75
(lp3277
S'menu'
p3278
asbag68
(g89
g70
NtRp3279
(dp3280
g73
(dp3281
g100
g101
ssg82
g3270
sg75
(lp3282
S':'
asbag68
(g89
g70
NtRp3283
(dp3284
g73
(dp3285
sg82
g3270
sg75
(lp3286
g68
(g69
g70
NtRp3287
(dp3288
g73
(dp3289
g81
I5
ssg82
g3283
sg75
(lp3290
g68
(g77
g70
NtRp3291
(dp3292
g73
(dp3293
g81
I4
ssg82
Nsg75
(lp3294
g68
(g84
g70
NtRp3295
(dp3296
g73
(dp3297
sg82
g3291
sg75
(lp3298
g68
(g89
g70
NtRp3299
(dp3300
g73
(dp3301
sg82
g3295
sg75
(lp3302
g68
(g69
g70
NtRp3303
(dp3304
g73
(dp3305
g81
I4
ssg82
g3299
sg75
(lp3306
g68
(g77
g70
NtRp3307
(dp3308
g73
(dp3309
g81
I3
ssg82
Nsg75
(lp3310
g68
(g84
g70
NtRp3311
(dp3312
g73
(dp3313
sg82
g3307
sg75
(lp3314
g68
(g89
g70
NtRp3315
(dp3316
g73
(dp3317
sg82
g3311
sg75
(lp3318
g68
(g69
g70
NtRp3319
(dp3320
g73
(dp3321
g81
I3
ssg82
g3315
sg75
(lp3322
cgluon.languages
lazyT_unpickle
p3323
(S't\x04\x00\x00\x00Home'
tRp3324
asbasbasbag68
(g84
g70
NtRp3325
(dp3326
g73
(dp3327
sg82
g3307
sg75
(lp3328
g68
(g89
g70
NtRp3329
(dp3330
g73
(dp3331
sg82
g3325
sg75
(lp3332
g68
(g69
g70
NtRp3333
(dp3334
g73
(dp3335
g81
I3
ssg82
g3329
sg75
(lp3336
g111
asbasbasbag68
(g84
g70
NtRp3337
(dp3338
g73
(dp3339
sg82
g3307
sg75
(lp3340
g68
(g89
g70
NtRp3341
(dp3342
g73
(dp3343
sg82
g3337
sg75
(lp3344
g68
(g69
g70
NtRp3345
(dp3346
g73
(dp3347
g81
I3
ssg82
g3341
sg75
(lp3348
S'/places/default/index'
p3349
asbasbasbag68
(g84
g70
NtRp3350
(dp3351
g73
(dp3352
sg82
g3307
sg75
(lp3353
g68
(g89
g70
NtRp3354
(dp3355
g73
(dp3356
sg82
g3350
sg75
(lp3357
g68
(g69
g70
NtRp3358
(dp3359
g73
(dp3360
g81
I3
ssg82
g3354
sg75
(lp3361
g68
(g77
g70
NtRp3362
(dp3363
g73
(dp3364
g81
I2
ssg82
Nsg75
(lp3365
sbasbasbasbasbasbasbasbag68
(g84
g70
NtRp3366
(dp3367
g73
(dp3368
sg82
g3291
sg75
(lp3369
g68
(g89
g70
NtRp3370
(dp3371
g73
(dp3372
sg82
g3366
sg75
(lp3373
g68
(g69
g70
NtRp3374
(dp3375
g73
(dp3376
g81
I4
ssg82
g3370
sg75
(lp3377
g68
(g77
g70
NtRp3378
(dp3379
g73
(dp3380
g81
I3
ssg82
Nsg75
(lp3381
g68
(g84
g70
NtRp3382
(dp3383
g73
(dp3384
sg82
g3378
sg75
(lp3385
g68
(g89
g70
NtRp3386
(dp3387
g73
(dp3388
sg82
g3382
sg75
(lp3389
g68
(g69
g70
NtRp3390
(dp3391
g73
(dp3392
g81
I3
ssg82
g3386
sg75
(lp3393
g3323
(S's\x08\x00\x00\x00This App'
tRp3394
asbasbasbag68
(g84
g70
NtRp3395
(dp3396
g73
(dp3397
sg82
g3378
sg75
(lp3398
g68
(g89
g70
NtRp3399
(dp3400
g73
(dp3401
sg82
g3395
sg75
(lp3402
g68
(g69
g70
NtRp3403
(dp3404
g73
(dp3405
g81
I3
ssg82
g3399
sg75
(lp3406
g111
asbasbasbag68
(g84
g70
NtRp3407
(dp3408
g73
(dp3409
sg82
g3378
sg75
(lp3410
g68
(g89
g70
NtRp3411
(dp3412
g73
(dp3413
sg82
g3407
sg75
(lp3414
g68
(g69
g70
NtRp3415
(dp3416
g73
(dp3417
g81
I3
ssg82
g3411
sg75
(lp3418
S'/admin/default/design/places'
p3419
asbasbasbag68
(g84
g70
NtRp3420
(dp3421
g73
(dp3422
sg82
g3378
sg75
(lp3423
g68
(g89
g70
NtRp3424
(dp3425
g73
(dp3426
sg82
g3420
sg75
(lp3427
g68
(g69
g70
NtRp3428
(dp3429
g73
(dp3430
g81
I3
ssg82
g3424
sg75
(lp3431
g68
(g77
g70
NtRp3432
(dp3433
g73
(dp3434
g81
I2
ssg82
Nsg75
(lp3435
g68
(g84
g70
NtRp3436
(dp3437
g73
(dp3438
sg82
g3432
sg75
(lp3439
g68
(g89
g70
NtRp3440
(dp3441
g73
(dp3442
sg82
g3436
sg75
(lp3443
g68
(g69
g70
NtRp3444
(dp3445
g73
(dp3446
g81
I2
ssg82
g3440
sg75
(lp3447
g68
(g77
g70
NtRp3448
(dp3449
g73
(dp3450
g81
I1
ssg82
Nsg75
(lp3451
g68
(g84
g70
NtRp3452
(dp3453
g73
(dp3454
sg82
g3448
sg75
(lp3455
g68
(g89
g70
NtRp3456
(dp3457
g73
(dp3458
sg82
g3452
sg75
(lp3459
g68
(g69
g70
NtRp3460
(dp3461
g73
(dp3462
g81
I1
ssg82
g3456
sg75
(lp3463
g3323
(S't\n\x00\x00\x00Controller'
tRp3464
asbasbasbag68
(g84
g70
NtRp3465
(dp3466
g73
(dp3467
sg82
g3448
sg75
(lp3468
g68
(g89
g70
NtRp3469
(dp3470
g73
(dp3471
sg82
g3465
sg75
(lp3472
g68
(g69
g70
NtRp3473
(dp3474
g73
(dp3475
g81
I1
ssg82
g3469
sg75
(lp3476
I00
asbasbasbag68
(g84
g70
NtRp3477
(dp3478
g73
(dp3479
sg82
g3448
sg75
(lp3480
g68
(g89
g70
NtRp3481
(dp3482
g73
(dp3483
sg82
g3477
sg75
(lp3484
g68
(g69
g70
NtRp3485
(dp3486
g73
(dp3487
g81
I1
ssg82
g3481
sg75
(lp3488
S'/admin/default/edit/places/controllers/default.py'
p3489
asbasbasbasbasbasbasbag68
(g84
g70
NtRp3490
(dp3491
g73
(dp3492
sg82
g3432
sg75
(lp3493
g68
(g89
g70
NtRp3494
(dp3495
g73
(dp3496
sg82
g3490
sg75
(lp3497
g68
(g69
g70
NtRp3498
(dp3499
g73
(dp3500
g81
I2
ssg82
g3494
sg75
(lp3501
g68
(g77
g70
NtRp3502
(dp3503
g73
(dp3504
g81
I1
ssg82
Nsg75
(lp3505
g68
(g84
g70
NtRp3506
(dp3507
g73
(dp3508
sg82
g3502
sg75
(lp3509
g68
(g89
g70
NtRp3510
(dp3511
g73
(dp3512
sg82
g3506
sg75
(lp3513
g68
(g69
g70
NtRp3514
(dp3515
g73
(dp3516
g81
I1
ssg82
g3510
sg75
(lp3517
g3323
(S't\x04\x00\x00\x00View'
tRp3518
asbasbasbag68
(g84
g70
NtRp3519
(dp3520
g73
(dp3521
sg82
g3502
sg75
(lp3522
g68
(g89
g70
NtRp3523
(dp3524
g73
(dp3525
sg82
g3519
sg75
(lp3526
g68
(g69
g70
NtRp3527
(dp3528
g73
(dp3529
g81
I1
ssg82
g3523
sg75
(lp3530
I00
asbasbasbag68
(g84
g70
NtRp3531
(dp3532
g73
(dp3533
sg82
g3502
sg75
(lp3534
g68
(g89
g70
NtRp3535
(dp3536
g73
(dp3537
sg82
g3531
sg75
(lp3538
g68
(g69
g70
NtRp3539
(dp3540
g73
(dp3541
g81
I1
ssg82
g3535
sg75
(lp3542
S'/admin/default/edit/places/views/default/index.html'
p3543
asbasbasbasbasbasbasbag68
(g84
g70
NtRp3544
(dp3545
g73
(dp3546
sg82
g3432
sg75
(lp3547
g68
(g89
g70
NtRp3548
(dp3549
g73
(dp3550
sg82
g3544
sg75
(lp3551
g68
(g69
g70
NtRp3552
(dp3553
g73
(dp3554
g81
I2
ssg82
g3548
sg75
(lp3555
g68
(g77
g70
NtRp3556
(dp3557
g73
(dp3558
g81
I1
ssg82
Nsg75
(lp3559
g68
(g84
g70
NtRp3560
(dp3561
g73
(dp3562
sg82
g3556
sg75
(lp3563
g68
(g89
g70
NtRp3564
(dp3565
g73
(dp3566
sg82
g3560
sg75
(lp3567
g68
(g69
g70
NtRp3568
(dp3569
g73
(dp3570
g81
I1
ssg82
g3564
sg75
(lp3571
g3323
(S't\x06\x00\x00\x00Layout'
tRp3572
asbasbasbag68
(g84
g70
NtRp3573
(dp3574
g73
(dp3575
sg82
g3556
sg75
(lp3576
g68
(g89
g70
NtRp3577
(dp3578
g73
(dp3579
sg82
g3573
sg75
(lp3580
g68
(g69
g70
NtRp3581
(dp3582
g73
(dp3583
g81
I1
ssg82
g3577
sg75
(lp3584
I00
asbasbasbag68
(g84
g70
NtRp3585
(dp3586
g73
(dp3587
sg82
g3556
sg75
(lp3588
g68
(g89
g70
NtRp3589
(dp3590
g73
(dp3591
sg82
g3585
sg75
(lp3592
g68
(g69
g70
NtRp3593
(dp3594
g73
(dp3595
g81
I1
ssg82
g3589
sg75
(lp3596
S'/admin/default/edit/places/views/layout.html'
p3597
asbasbasbasbasbasbasbag68
(g84
g70
NtRp3598
(dp3599
g73
(dp3600
sg82
g3432
sg75
(lp3601
g68
(g89
g70
NtRp3602
(dp3603
g73
(dp3604
sg82
g3598
sg75
(lp3605
g68
(g69
g70
NtRp3606
(dp3607
g73
(dp3608
g81
I2
ssg82
g3602
sg75
(lp3609
g68
(g77
g70
NtRp3610
(dp3611
g73
(dp3612
g81
I1
ssg82
Nsg75
(lp3613
g68
(g84
g70
NtRp3614
(dp3615
g73
(dp3616
sg82
g3610
sg75
(lp3617
g68
(g89
g70
NtRp3618
(dp3619
g73
(dp3620
sg82
g3614
sg75
(lp3621
g68
(g69
g70
NtRp3622
(dp3623
g73
(dp3624
g81
I1
ssg82
g3618
sg75
(lp3625
g3323
(S't\n\x00\x00\x00Stylesheet'
tRp3626
asbasbasbag68
(g84
g70
NtRp3627
(dp3628
g73
(dp3629
sg82
g3610
sg75
(lp3630
g68
(g89
g70
NtRp3631
(dp3632
g73
(dp3633
sg82
g3627
sg75
(lp3634
g68
(g69
g70
NtRp3635
(dp3636
g73
(dp3637
g81
I1
ssg82
g3631
sg75
(lp3638
I00
asbasbasbag68
(g84
g70
NtRp3639
(dp3640
g73
(dp3641
sg82
g3610
sg75
(lp3642
g68
(g89
g70
NtRp3643
(dp3644
g73
(dp3645
sg82
g3639
sg75
(lp3646
g68
(g69
g70
NtRp3647
(dp3648
g73
(dp3649
g81
I1
ssg82
g3643
sg75
(lp3650
S'/admin/default/edit/places/static/base.css'
p3651
asbasbasbasbasbasbasbag68
(g84
g70
NtRp3652
(dp3653
g73
(dp3654
sg82
g3432
sg75
(lp3655
g68
(g89
g70
NtRp3656
(dp3657
g73
(dp3658
sg82
g3652
sg75
(lp3659
g68
(g69
g70
NtRp3660
(dp3661
g73
(dp3662
g81
I2
ssg82
g3656
sg75
(lp3663
g68
(g77
g70
NtRp3664
(dp3665
g73
(dp3666
g81
I1
ssg82
Nsg75
(lp3667
g68
(g84
g70
NtRp3668
(dp3669
g73
(dp3670
sg82
g3664
sg75
(lp3671
g68
(g89
g70
NtRp3672
(dp3673
g73
(dp3674
sg82
g3668
sg75
(lp3675
g68
(g69
g70
NtRp3676
(dp3677
g73
(dp3678
g81
I1
ssg82
g3672
sg75
(lp3679
g3323
(S's\x08\x00\x00\x00DB Model'
tRp3680
asbasbasbag68
(g84
g70
NtRp3681
(dp3682
g73
(dp3683
sg82
g3664
sg75
(lp3684
g68
(g89
g70
NtRp3685
(dp3686
g73
(dp3687
sg82
g3681
sg75
(lp3688
g68
(g69
g70
NtRp3689
(dp3690
g73
(dp3691
g81
I1
ssg82
g3685
sg75
(lp3692
I00
asbasbasbag68
(g84
g70
NtRp3693
(dp3694
g73
(dp3695
sg82
g3664
sg75
(lp3696
g68
(g89
g70
NtRp3697
(dp3698
g73
(dp3699
sg82
g3693
sg75
(lp3700
g68
(g69
g70
NtRp3701
(dp3702
g73
(dp3703
g81
I1
ssg82
g3697
sg75
(lp3704
S'/admin/default/edit/places/models/db.py'
p3705
asbasbasbasbasbasbasbag68
(g84
g70
NtRp3706
(dp3707
g73
(dp3708
sg82
g3432
sg75
(lp3709
g68
(g89
g70
NtRp3710
(dp3711
g73
(dp3712
sg82
g3706
sg75
(lp3713
g68
(g69
g70
NtRp3714
(dp3715
g73
(dp3716
g81
I2
ssg82
g3710
sg75
(lp3717
g68
(g77
g70
NtRp3718
(dp3719
g73
(dp3720
g81
I1
ssg82
Nsg75
(lp3721
g68
(g84
g70
NtRp3722
(dp3723
g73
(dp3724
sg82
g3718
sg75
(lp3725
g68
(g89
g70
NtRp3726
(dp3727
g73
(dp3728
sg82
g3722
sg75
(lp3729
g68
(g69
g70
NtRp3730
(dp3731
g73
(dp3732
g81
I1
ssg82
g3726
sg75
(lp3733
g3323
(S's\n\x00\x00\x00Menu Model'
tRp3734
asbasbasbag68
(g84
g70
NtRp3735
(dp3736
g73
(dp3737
sg82
g3718
sg75
(lp3738
g68
(g89
g70
NtRp3739
(dp3740
g73
(dp3741
sg82
g3735
sg75
(lp3742
g68
(g69
g70
NtRp3743
(dp3744
g73
(dp3745
g81
I1
ssg82
g3739
sg75
(lp3746
I00
asbasbasbag68
(g84
g70
NtRp3747
(dp3748
g73
(dp3749
sg82
g3718
sg75
(lp3750
g68
(g89
g70
NtRp3751
(dp3752
g73
(dp3753
sg82
g3747
sg75
(lp3754
g68
(g69
g70
NtRp3755
(dp3756
g73
(dp3757
g81
I1
ssg82
g3751
sg75
(lp3758
S'/admin/default/edit/places/models/menu.py'
p3759
asbasbasbasbasbasbasbag68
(g84
g70
NtRp3760
(dp3761
g73
(dp3762
sg82
g3432
sg75
(lp3763
g68
(g89
g70
NtRp3764
(dp3765
g73
(dp3766
sg82
g3760
sg75
(lp3767
g68
(g69
g70
NtRp3768
(dp3769
g73
(dp3770
g81
I2
ssg82
g3764
sg75
(lp3771
g68
(g77
g70
NtRp3772
(dp3773
g73
(dp3774
g81
I1
ssg82
Nsg75
(lp3775
g68
(g84
g70
NtRp3776
(dp3777
g73
(dp3778
sg82
g3772
sg75
(lp3779
g68
(g89
g70
NtRp3780
(dp3781
g73
(dp3782
sg82
g3776
sg75
(lp3783
g68
(g69
g70
NtRp3784
(dp3785
g73
(dp3786
g81
I1
ssg82
g3780
sg75
(lp3787
g3323
(S't\x08\x00\x00\x00Database'
tRp3788
asbasbasbag68
(g84
g70
NtRp3789
(dp3790
g73
(dp3791
sg82
g3772
sg75
(lp3792
g68
(g89
g70
NtRp3793
(dp3794
g73
(dp3795
sg82
g3789
sg75
(lp3796
g68
(g69
g70
NtRp3797
(dp3798
g73
(dp3799
g81
I1
ssg82
g3793
sg75
(lp3800
I00
asbasbasbag68
(g84
g70
NtRp3801
(dp3802
g73
(dp3803
sg82
g3772
sg75
(lp3804
g68
(g89
g70
NtRp3805
(dp3806
g73
(dp3807
sg82
g3801
sg75
(lp3808
g68
(g69
g70
NtRp3809
(dp3810
g73
(dp3811
g81
I1
ssg82
g3805
sg75
(lp3812
S'/places/appadmin/index'
p3813
asbasbasbasbasbasbasbag68
(g84
g70
NtRp3814
(dp3815
g73
(dp3816
sg82
g3432
sg75
(lp3817
g68
(g89
g70
NtRp3818
(dp3819
g73
(dp3820
sg82
g3814
sg75
(lp3821
g68
(g69
g70
NtRp3822
(dp3823
g73
(dp3824
g81
I2
ssg82
g3818
sg75
(lp3825
g68
(g77
g70
NtRp3826
(dp3827
g73
(dp3828
g81
I1
ssg82
Nsg75
(lp3829
g68
(g84
g70
NtRp3830
(dp3831
g73
(dp3832
sg82
g3826
sg75
(lp3833
g68
(g89
g70
NtRp3834
(dp3835
g73
(dp3836
sg82
g3830
sg75
(lp3837
g68
(g69
g70
NtRp3838
(dp3839
g73
(dp3840
g81
I1
ssg82
g3834
sg75
(lp3841
g3323
(S't\x06\x00\x00\x00Errors'
tRp3842
asbasbasbag68
(g84
g70
NtRp3843
(dp3844
g73
(dp3845
sg82
g3826
sg75
(lp3846
g68
(g89
g70
NtRp3847
(dp3848
g73
(dp3849
sg82
g3843
sg75
(lp3850
g68
(g69
g70
NtRp3851
(dp3852
g73
(dp3853
g81
I1
ssg82
g3847
sg75
(lp3854
I00
asbasbasbag68
(g84
g70
NtRp3855
(dp3856
g73
(dp3857
sg82
g3826
sg75
(lp3858
g68
(g89
g70
NtRp3859
(dp3860
g73
(dp3861
sg82
g3855
sg75
(lp3862
g68
(g69
g70
NtRp3863
(dp3864
g73
(dp3865
g81
I1
ssg82
g3859
sg75
(lp3866
S'/admin/default/errors/places'
p3867
asbasbasbasbasbasbasbag68
(g84
g70
NtRp3868
(dp3869
g73
(dp3870
sg82
g3432
sg75
(lp3871
g68
(g89
g70
NtRp3872
(dp3873
g73
(dp3874
sg82
g3868
sg75
(lp3875
g68
(g69
g70
NtRp3876
(dp3877
g73
(dp3878
g81
I2
ssg82
g3872
sg75
(lp3879
g68
(g77
g70
NtRp3880
(dp3881
g73
(dp3882
g81
I1
ssg82
Nsg75
(lp3883
g68
(g84
g70
NtRp3884
(dp3885
g73
(dp3886
sg82
g3880
sg75
(lp3887
g68
(g89
g70
NtRp3888
(dp3889
g73
(dp3890
sg82
g3884
sg75
(lp3891
g68
(g69
g70
NtRp3892
(dp3893
g73
(dp3894
g81
I1
ssg82
g3888
sg75
(lp3895
g3323
(S't\x05\x00\x00\x00About'
tRp3896
asbasbasbag68
(g84
g70
NtRp3897
(dp3898
g73
(dp3899
sg82
g3880
sg75
(lp3900
g68
(g89
g70
NtRp3901
(dp3902
g73
(dp3903
sg82
g3897
sg75
(lp3904
g68
(g69
g70
NtRp3905
(dp3906
g73
(dp3907
g81
I1
ssg82
g3901
sg75
(lp3908
I00
asbasbasbag68
(g84
g70
NtRp3909
(dp3910
g73
(dp3911
sg82
g3880
sg75
(lp3912
g68
(g89
g70
NtRp3913
(dp3914
g73
(dp3915
sg82
g3909
sg75
(lp3916
g68
(g69
g70
NtRp3917
(dp3918
g73
(dp3919
g81
I1
ssg82
g3913
sg75
(lp3920
S'/admin/default/about/places'
p3921
asbasbasbasbasbasbasbasbasbasbasbasbasbasbasbag68
(g84
g70
NtRp3922
(dp3923
g73
(dp3924
sg82
g3291
sg75
(lp3925
g68
(g89
g70
NtRp3926
(dp3927
g73
(dp3928
sg82
g3922
sg75
(lp3929
g68
(g69
g70
NtRp3930
(dp3931
g73
(dp3932
g81
I4
ssg82
g3926
sg75
(lp3933
g68
(g77
g70
NtRp3934
(dp3935
g73
(dp3936
g81
I3
ssg82
Nsg75
(lp3937
g68
(g84
g70
NtRp3938
(dp3939
g73
(dp3940
sg82
g3934
sg75
(lp3941
g68
(g89
g70
NtRp3942
(dp3943
g73
(dp3944
sg82
g3938
sg75
(lp3945
g68
(g69
g70
NtRp3946
(dp3947
g73
(dp3948
g81
I3
ssg82
g3942
sg75
(lp3949
g3323
(S't\t\x00\x00\x00Resources'
tRp3950
asbasbasbag68
(g84
g70
NtRp3951
(dp3952
g73
(dp3953
sg82
g3934
sg75
(lp3954
g68
(g89
g70
NtRp3955
(dp3956
g73
(dp3957
sg82
g3951
sg75
(lp3958
g68
(g69
g70
NtRp3959
(dp3960
g73
(dp3961
g81
I3
ssg82
g3955
sg75
(lp3962
g111
asbasbasbag68
(g84
g70
NtRp3963
(dp3964
g73
(dp3965
sg82
g3934
sg75
(lp3966
g68
(g89
g70
NtRp3967
(dp3968
g73
(dp3969
sg82
g3963
sg75
(lp3970
g68
(g69
g70
NtRp3971
(dp3972
g73
(dp3973
g81
I3
ssg82
g3967
sg75
(lp3974
S'None'
p3975
asbasbasbag68
(g84
g70
NtRp3976
(dp3977
g73
(dp3978
sg82
g3934
sg75
(lp3979
g68
(g89
g70
NtRp3980
(dp3981
g73
(dp3982
sg82
g3976
sg75
(lp3983
g68
(g69
g70
NtRp3984
(dp3985
g73
(dp3986
g81
I3
ssg82
g3980
sg75
(lp3987
g68
(g77
g70
NtRp3988
(dp3989
g73
(dp3990
g81
I2
ssg82
Nsg75
(lp3991
g68
(g84
g70
NtRp3992
(dp3993
g73
(dp3994
sg82
g3988
sg75
(lp3995
g68
(g89
g70
NtRp3996
(dp3997
g73
(dp3998
sg82
g3992
sg75
(lp3999
g68
(g69
g70
NtRp4000
(dp4001
g73
(dp4002
g81
I2
ssg82
g3996
sg75
(lp4003
g68
(g77
g70
NtRp4004
(dp4005
g73
(dp4006
g81
I1
ssg82
Nsg75
(lp4007
g68
(g84
g70
NtRp4008
(dp4009
g73
(dp4010
sg82
g4004
sg75
(lp4011
g68
(g89
g70
NtRp4012
(dp4013
g73
(dp4014
sg82
g4008
sg75
(lp4015
g68
(g69
g70
NtRp4016
(dp4017
g73
(dp4018
g81
I1
ssg82
g4012
sg75
(lp4019
g3323
(S't\r\x00\x00\x00Documentation'
tRp4020
asbasbasbag68
(g84
g70
NtRp4021
(dp4022
g73
(dp4023
sg82
g4004
sg75
(lp4024
g68
(g89
g70
NtRp4025
(dp4026
g73
(dp4027
sg82
g4021
sg75
(lp4028
g68
(g69
g70
NtRp4029
(dp4030
g73
(dp4031
g81
I1
ssg82
g4025
sg75
(lp4032
I00
asbasbasbag68
(g84
g70
NtRp4033
(dp4034
g73
(dp4035
sg82
g4004
sg75
(lp4036
g68
(g89
g70
NtRp4037
(dp4038
g73
(dp4039
sg82
g4033
sg75
(lp4040
g68
(g69
g70
NtRp4041
(dp4042
g73
(dp4043
g81
I1
ssg82
g4037
sg75
(lp4044
S'http://www.web2py.com/book'
p4045
asbasbasbag68
(g84
g70
NtRp4046
(dp4047
g73
(dp4048
sg82
g4004
sg75
(lp4049
g68
(g89
g70
NtRp4050
(dp4051
g73
(dp4052
sg82
g4046
sg75
(lp4053
g68
(g69
g70
NtRp4054
(dp4055
g73
(dp4056
g81
I1
ssg82
g4050
sg75
(lp4057
(lp4058
(g3323
(S't\x07\x00\x00\x00Preface'
tRp4059
I00
S'http://www.web2py.com/book/default/chapter/00'
p4060
tp4061
a(g3323
(S't\x0c\x00\x00\x00Introduction'
tRp4062
I00
S'http://www.web2py.com/book/default/chapter/01'
p4063
tp4064
a(g3323
(S't\x06\x00\x00\x00Python'
tRp4065
I00
S'http://www.web2py.com/book/default/chapter/02'
p4066
tp4067
a(g3323
(S't\x08\x00\x00\x00Overview'
tRp4068
I00
S'http://www.web2py.com/book/default/chapter/03'
p4069
tp4070
a(g3323
(S's\x08\x00\x00\x00The Core'
tRp4071
I00
S'http://www.web2py.com/book/default/chapter/04'
p4072
tp4073
a(g3323
(S's\t\x00\x00\x00The Views'
tRp4074
I00
S'http://www.web2py.com/book/default/chapter/05'
p4075
tp4076
a(g3323
(S't\x08\x00\x00\x00Database'
tRp4077
I00
S'http://www.web2py.com/book/default/chapter/06'
p4078
tp4079
a(g3323
(S's\x14\x00\x00\x00Forms and Validators'
tRp4080
I00
S'http://www.web2py.com/book/default/chapter/07'
p4081
tp4082
a(g3323
(S's\x0e\x00\x00\x00Access Control'
tRp4083
I00
S'http://www.web2py.com/book/default/chapter/08'
p4084
tp4085
a(g3323
(S't\x08\x00\x00\x00Services'
tRp4086
I00
S'http://www.web2py.com/book/default/chapter/09'
p4087
tp4088
a(g3323
(S's\x0c\x00\x00\x00Ajax Recipes'
tRp4089
I00
S'http://www.web2py.com/book/default/chapter/10'
p4090
tp4091
a(g3323
(S's\x12\x00\x00\x00Deployment Recipes'
tRp4092
I00
S'http://www.web2py.com/book/default/chapter/11'
p4093
tp4094
a(g3323
(S's\r\x00\x00\x00Other Recipes'
tRp4095
I00
S'http://www.web2py.com/book/default/chapter/12'
p4096
tp4097
a(g3323
(S's\r\x00\x00\x00Buy this book'
tRp4098
I00
S'http://stores.lulu.com/web2py'
p4099
tp4100
aasbasbasbasbasbasbasbag68
(g84
g70
NtRp4101
(dp4102
g73
(dp4103
sg82
g3988
sg75
(lp4104
g68
(g89
g70
NtRp4105
(dp4106
g73
(dp4107
sg82
g4101
sg75
(lp4108
g68
(g69
g70
NtRp4109
(dp4110
g73
(dp4111
g81
I2
ssg82
g4105
sg75
(lp4112
g68
(g77
g70
NtRp4113
(dp4114
g73
(dp4115
g81
I1
ssg82
Nsg75
(lp4116
g68
(g84
g70
NtRp4117
(dp4118
g73
(dp4119
sg82
g4113
sg75
(lp4120
g68
(g89
g70
NtRp4121
(dp4122
g73
(dp4123
sg82
g4117
sg75
(lp4124
g68
(g69
g70
NtRp4125
(dp4126
g73
(dp4127
g81
I1
ssg82
g4121
sg75
(lp4128
g3323
(S't\t\x00\x00\x00Community'
tRp4129
asbasbasbag68
(g84
g70
NtRp4130
(dp4131
g73
(dp4132
sg82
g4113
sg75
(lp4133
g68
(g89
g70
NtRp4134
(dp4135
g73
(dp4136
sg82
g4130
sg75
(lp4137
g68
(g69
g70
NtRp4138
(dp4139
g73
(dp4140
g81
I1
ssg82
g4134
sg75
(lp4141
I00
asbasbasbag68
(g84
g70
NtRp4142
(dp4143
g73
(dp4144
sg82
g4113
sg75
(lp4145
g68
(g89
g70
NtRp4146
(dp4147
g73
(dp4148
sg82
g4142
sg75
(lp4149
g68
(g69
g70
NtRp4150
(dp4151
g73
(dp4152
g81
I1
ssg82
g4146
sg75
(lp4153
Nasbasbasbag68
(g84
g70
NtRp4154
(dp4155
g73
(dp4156
sg82
g4113
sg75
(lp4157
g68
(g89
g70
NtRp4158
(dp4159
g73
(dp4160
sg82
g4154
sg75
(lp4161
g68
(g69
g70
NtRp4162
(dp4163
g73
(dp4164
g81
I1
ssg82
g4158
sg75
(lp4165
(lp4166
(g3323
(S't\x06\x00\x00\x00Groups'
tRp4167
I00
S'http://www.web2py.com/examples/default/usergroups'
p4168
tp4169
a(g3323
(S't\x07\x00\x00\x00Twitter'
tRp4170
I00
S'http://twitter.com/web2py'
p4171
tp4172
a(g3323
(S's\t\x00\x00\x00Live chat'
tRp4173
I00
S'http://mibbit.com/?channel=%23web2py&server=irc.mibbit.net'
p4174
tp4175
a(g3323
(S's\n\x00\x00\x00User Voice'
tRp4176
I00
S'http://web2py.uservoice.com/'
p4177
tp4178
aasbasbasbasbasbasbasbag68
(g84
g70
NtRp4179
(dp4180
g73
(dp4181
sg82
g3988
sg75
(lp4182
g68
(g89
g70
NtRp4183
(dp4184
g73
(dp4185
sg82
g4179
sg75
(lp4186
g68
(g69
g70
NtRp4187
(dp4188
g73
(dp4189
g81
I2
ssg82
g4183
sg75
(lp4190
g68
(g77
g70
NtRp4191
(dp4192
g73
(dp4193
g81
I1
ssg82
Nsg75
(lp4194
g68
(g84
g70
NtRp4195
(dp4196
g73
(dp4197
sg82
g4191
sg75
(lp4198
g68
(g89
g70
NtRp4199
(dp4200
g73
(dp4201
sg82
g4195
sg75
(lp4202
g68
(g69
g70
NtRp4203
(dp4204
g73
(dp4205
g81
I1
ssg82
g4199
sg75
(lp4206
g3323
(S't\x06\x00\x00\x00Web2py'
tRp4207
asbasbasbag68
(g84
g70
NtRp4208
(dp4209
g73
(dp4210
sg82
g4191
sg75
(lp4211
g68
(g89
g70
NtRp4212
(dp4213
g73
(dp4214
sg82
g4208
sg75
(lp4215
g68
(g69
g70
NtRp4216
(dp4217
g73
(dp4218
g81
I1
ssg82
g4212
sg75
(lp4219
I00
asbasbasbag68
(g84
g70
NtRp4220
(dp4221
g73
(dp4222
sg82
g4191
sg75
(lp4223
g68
(g89
g70
NtRp4224
(dp4225
g73
(dp4226
sg82
g4220
sg75
(lp4227
g68
(g69
g70
NtRp4228
(dp4229
g73
(dp4230
g81
I1
ssg82
g4224
sg75
(lp4231
S'http://www.web2py.com'
p4232
asbasbasbag68
(g84
g70
NtRp4233
(dp4234
g73
(dp4235
sg82
g4191
sg75
(lp4236
g68
(g89
g70
NtRp4237
(dp4238
g73
(dp4239
sg82
g4233
sg75
(lp4240
g68
(g69
g70
NtRp4241
(dp4242
g73
(dp4243
g81
I1
ssg82
g4237
sg75
(lp4244
(lp4245
(g3323
(S't\x08\x00\x00\x00Download'
tRp4246
I00
S'http://www.web2py.com/examples/default/download'
p4247
tp4248
a(g3323
(S't\x07\x00\x00\x00Support'
tRp4249
I00
S'http://www.web2py.com/examples/default/support'
p4250
tp4251
a(g3323
(S's\x0e\x00\x00\x00Quick Examples'
tRp4252
I00
S'http://web2py.com/examples/default/examples'
p4253
tp4254
a(g3323
(S't\x03\x00\x00\x00FAQ'
tRp4255
I00
S'http://web2py.com/AlterEgo'
p4256
tp4257
a(g3323
(S's\x11\x00\x00\x00Free Applications'
tRp4258
I00
S'http://web2py.com/appliances'
p4259
tp4260
a(g3323
(S't\x07\x00\x00\x00Plugins'
tRp4261
I00
S'http://web2py.com/plugins'
p4262
tp4263
a(g3323
(S't\x07\x00\x00\x00Recipes'
tRp4264
I00
S'http://web2pyslices.com/'
p4265
tp4266
a(g3323
(S't\x04\x00\x00\x00Demo'
tRp4267
I00
S'http://web2py.com/demo_admin'
p4268
tp4269
a(g3323
(S't\x08\x00\x00\x00Semantic'
tRp4270
I00
S'http://web2py.com/semantic'
p4271
tp4272
a(g3323
(S't\x07\x00\x00\x00Layouts'
tRp4273
I00
S'http://web2py.com/layouts'
p4274
tp4275
a(g3323
(S't\x06\x00\x00\x00Videos'
tRp4276
I00
S'http://www.web2py.com/examples/default/videos/'
p4277
tp4278
aasbasbasbasbasbasbasbasbasbasbasbasbasbasbasbasbasbasbasbag68
(g84
g70
NtRp4279
(dp4280
g73
(dp4281
sg82
g2818
sg75
(lp4282
g68
(g89
g70
NtRp4283
(dp4284
g73
(dp4285
g93
g94
ssg82
g4279
sg75
(lp4286
S'meta'
p4287
asbag68
(g89
g70
NtRp4288
(dp4289
g73
(dp4290
g100
g101
ssg82
g4279
sg75
(lp4291
S':'
asbag68
(g89
g70
NtRp4292
(dp4293
g73
(dp4294
sg82
g4279
sg75
(lp4295
g68
(g69
g70
NtRp4296
(dp4297
g73
(dp4298
g81
I5
ssg82
g4292
sg75
(lp4299
g68
(g77
g70
NtRp4300
(dp4301
g73
(dp4302
g81
I4
ssg82
Nsg75
(lp4303
g68
(g84
g70
NtRp4304
(dp4305
g73
(dp4306
sg82
g4300
sg75
(lp4307
g68
(g89
g70
NtRp4308
(dp4309
g73
(dp4310
g93
g94
ssg82
g4304
sg75
(lp4311
S'author'
p4312
asbag68
(g89
g70
NtRp4313
(dp4314
g73
(dp4315
g100
g101
ssg82
g4304
sg75
(lp4316
S':'
asbag68
(g89
g70
NtRp4317
(dp4318
g73
(dp4319
sg82
g4304
sg75
(lp4320
g68
(g69
g70
NtRp4321
(dp4322
g73
(dp4323
g81
I4
ssg82
g4317
sg75
(lp4324
S'Your Name <you@example.com>'
p4325
asbasbasbag68
(g84
g70
NtRp4326
(dp4327
g73
(dp4328
sg82
g4300
sg75
(lp4329
g68
(g89
g70
NtRp4330
(dp4331
g73
(dp4332
g93
g94
ssg82
g4326
sg75
(lp4333
S'copyright'
p4334
asbag68
(g89
g70
NtRp4335
(dp4336
g73
(dp4337
g100
g101
ssg82
g4326
sg75
(lp4338
S':'
asbag68
(g89
g70
NtRp4339
(dp4340
g73
(dp4341
sg82
g4326
sg75
(lp4342
g68
(g69
g70
NtRp4343
(dp4344
g73
(dp4345
g81
I4
ssg82
g4339
sg75
(lp4346
S'Copyright 2011'
p4347
asbasbasbag68
(g84
g70
NtRp4348
(dp4349
g73
(dp4350
sg82
g4300
sg75
(lp4351
g68
(g89
g70
NtRp4352
(dp4353
g73
(dp4354
g93
g94
ssg82
g4348
sg75
(lp4355
S'description'
p4356
asbag68
(g89
g70
NtRp4357
(dp4358
g73
(dp4359
g100
g101
ssg82
g4348
sg75
(lp4360
S':'
asbag68
(g89
g70
NtRp4361
(dp4362
g73
(dp4363
sg82
g4348
sg75
(lp4364
g68
(g69
g70
NtRp4365
(dp4366
g73
(dp4367
g81
I4
ssg82
g4361
sg75
(lp4368
S'a cool new app'
p4369
asbasbasbag68
(g84
g70
NtRp4370
(dp4371
g73
(dp4372
sg82
g4300
sg75
(lp4373
g68
(g89
g70
NtRp4374
(dp4375
g73
(dp4376
g93
g94
ssg82
g4370
sg75
(lp4377
S'generator'
p4378
asbag68
(g89
g70
NtRp4379
(dp4380
g73
(dp4381
g100
g101
ssg82
g4370
sg75
(lp4382
S':'
asbag68
(g89
g70
NtRp4383
(dp4384
g73
(dp4385
sg82
g4370
sg75
(lp4386
g68
(g69
g70
NtRp4387
(dp4388
g73
(dp4389
g81
I4
ssg82
g4383
sg75
(lp4390
S'Web2py Web Framework'
p4391
asbasbasbag68
(g84
g70
NtRp4392
(dp4393
g73
(dp4394
sg82
g4300
sg75
(lp4395
g68
(g89
g70
NtRp4396
(dp4397
g73
(dp4398
g93
g94
ssg82
g4392
sg75
(lp4399
S'keywords'
p4400
asbag68
(g89
g70
NtRp4401
(dp4402
g73
(dp4403
g100
g101
ssg82
g4392
sg75
(lp4404
S':'
asbag68
(g89
g70
NtRp4405
(dp4406
g73
(dp4407
sg82
g4392
sg75
(lp4408
g68
(g69
g70
NtRp4409
(dp4410
g73
(dp4411
g81
I4
ssg82
g4405
sg75
(lp4412
S'web2py, python, framework'
p4413
asbasbasbasbasbasbasbag68
(g84
g70
NtRp4414
(dp4415
g73
(dp4416
sg82
g2818
sg75
(lp4417
g68
(g89
g70
NtRp4418
(dp4419
g73
(dp4420
g93
g94
ssg82
g4414
sg75
(lp4421
S'postprocessing'
p4422
asbag68
(g89
g70
NtRp4423
(dp4424
g73
(dp4425
g100
g101
ssg82
g4414
sg75
(lp4426
S':'
asbag68
(g89
g70
NtRp4427
(dp4428
g73
(dp4429
sg82
g4414
sg75
(lp4430
g68
(g69
g70
NtRp4431
(dp4432
g73
(dp4433
g81
I5
ssg82
g4427
sg75
(lp4434
g68
(g77
g70
NtRp4435
(dp4436
g73
(dp4437
g81
I4
ssg82
Nsg75
(lp4438
sbasbasbasbag68
(g84
g70
NtRp4439
(dp4440
g73
(dp4441
sg82
g2818
sg75
(lp4442
g68
(g89
g70
NtRp4443
(dp4444
g73
(dp4445
g93
g94
ssg82
g4439
sg75
(lp4446
S'session_filename'
p4447
asbag68
(g89
g70
NtRp4448
(dp4449
g73
(dp4450
g100
g101
ssg82
g4439
sg75
(lp4451
S':'
asbag68
(g89
g70
NtRp4452
(dp4453
g73
(dp4454
sg82
g4439
sg75
(lp4455
g68
(g69
g70
NtRp4456
(dp4457
g73
(dp4458
g81
I5
ssg82
g4452
sg75
(lp4459
S'/home/ian/web2py/applications/places/sessions/127.0.0.1-093a9dc0-e6b3-4ebf-81d3-ed59f7c9d81d'
p4460
asbasbasbag68
(g84
g70
NtRp4461
(dp4462
g73
(dp4463
sg82
g2818
sg75
(lp4464
g68
(g89
g70
NtRp4465
(dp4466
g73
(dp4467
g93
g94
ssg82
g4461
sg75
(lp4468
S'session_id'
p4469
asbag68
(g89
g70
NtRp4470
(dp4471
g73
(dp4472
g100
g101
ssg82
g4461
sg75
(lp4473
S':'
asbag68
(g89
g70
NtRp4474
(dp4475
g73
(dp4476
sg82
g4461
sg75
(lp4477
g68
(g69
g70
NtRp4478
(dp4479
g73
(dp4480
g81
I5
ssg82
g4474
sg75
(lp4481
S'127.0.0.1-093a9dc0-e6b3-4ebf-81d3-ed59f7c9d81d'
p4482
asbasbasbag68
(g84
g70
NtRp4483
(dp4484
g73
(dp4485
sg82
g2818
sg75
(lp4486
g68
(g89
g70
NtRp4487
(dp4488
g73
(dp4489
g93
g94
ssg82
g4483
sg75
(lp4490
S'session_id_name'
p4491
asbag68
(g89
g70
NtRp4492
(dp4493
g73
(dp4494
g100
g101
ssg82
g4483
sg75
(lp4495
S':'
asbag68
(g89
g70
NtRp4496
(dp4497
g73
(dp4498
sg82
g4483
sg75
(lp4499
g68
(g69
g70
NtRp4500
(dp4501
g73
(dp4502
g81
I5
ssg82
g4496
sg75
(lp4503
g2875
asbasbasbag68
(g84
g70
NtRp4504
(dp4505
g73
(dp4506
sg82
g2818
sg75
(lp4507
g68
(g89
g70
NtRp4508
(dp4509
g73
(dp4510
g93
g94
ssg82
g4504
sg75
(lp4511
S'session_new'
p4512
asbag68
(g89
g70
NtRp4513
(dp4514
g73
(dp4515
g100
g101
ssg82
g4504
sg75
(lp4516
S':'
asbag68
(g89
g70
NtRp4517
(dp4518
g73
(dp4519
sg82
g4504
sg75
(lp4520
g68
(g69
g70
NtRp4521
(dp4522
g73
(dp4523
g81
I5
ssg82
g4517
sg75
(lp4524
g1461
asbasbasbag68
(g84
g70
NtRp4525
(dp4526
g73
(dp4527
sg82
g2818
sg75
(lp4528
g68
(g89
g70
NtRp4529
(dp4530
g73
(dp4531
g93
g94
ssg82
g4525
sg75
(lp4532
S'status'
p4533
asbag68
(g89
g70
NtRp4534
(dp4535
g73
(dp4536
g100
g101
ssg82
g4525
sg75
(lp4537
S':'
asbag68
(g89
g70
NtRp4538
(dp4539
g73
(dp4540
sg82
g4525
sg75
(lp4541
g68
(g69
g70
NtRp4542
(dp4543
g73
(dp4544
g81
I5
ssg82
g4538
sg75
(lp4545
S'200'
p4546
asbasbasbag68
(g84
g70
NtRp4547
(dp4548
g73
(dp4549
sg82
g2818
sg75
(lp4550
g68
(g89
g70
NtRp4551
(dp4552
g73
(dp4553
g93
g94
ssg82
g4547
sg75
(lp4554
S'subtitle'
p4555
asbag68
(g89
g70
NtRp4556
(dp4557
g73
(dp4558
g100
g101
ssg82
g4547
sg75
(lp4559
S':'
asbag68
(g89
g70
NtRp4560
(dp4561
g73
(dp4562
sg82
g4547
sg75
(lp4563
g68
(g69
g70
NtRp4564
(dp4565
g73
(dp4566
g81
I5
ssg82
g4560
sg75
(lp4567
g3323
(S's\r\x00\x00\x00customize me!'
tRp4568
asbasbasbag68
(g84
g70
NtRp4569
(dp4570
g73
(dp4571
sg82
g2818
sg75
(lp4572
g68
(g89
g70
NtRp4573
(dp4574
g73
(dp4575
g93
g94
ssg82
g4569
sg75
(lp4576
S'title'
p4577
asbag68
(g89
g70
NtRp4578
(dp4579
g73
(dp4580
g100
g101
ssg82
g4569
sg75
(lp4581
S':'
asbag68
(g89
g70
NtRp4582
(dp4583
g73
(dp4584
sg82
g4569
sg75
(lp4585
g68
(g69
g70
NtRp4586
(dp4587
g73
(dp4588
g81
I5
ssg82
g4582
sg75
(lp4589
g133
asbasbasbag68
(g84
g70
NtRp4590
(dp4591
g73
(dp4592
sg82
g2818
sg75
(lp4593
g68
(g89
g70
NtRp4594
(dp4595
g73
(dp4596
g93
g94
ssg82
g4590
sg75
(lp4597
g2105
asbag68
(g89
g70
NtRp4598
(dp4599
g73
(dp4600
g100
g101
ssg82
g4590
sg75
(lp4601
S':'
asbag68
(g89
g70
NtRp4602
(dp4603
g73
(dp4604
sg82
g4590
sg75
(lp4605
g68
(g69
g70
NtRp4606
(dp4607
g73
(dp4608
g81
I5
ssg82
g4602
sg75
(lp4609
g2118
asbasbasbag68
(g84
g70
NtRp4610
(dp4611
g73
(dp4612
sg82
g2818
sg75
(lp4613
g68
(g89
g70
NtRp4614
(dp4615
g73
(dp4616
g93
g94
ssg82
g4610
sg75
(lp4617
S'view'
p4618
asbag68
(g89
g70
NtRp4619
(dp4620
g73
(dp4621
g100
g101
ssg82
g4610
sg75
(lp4622
S':'
asbag68
(g89
g70
NtRp4623
(dp4624
g73
(dp4625
sg82
g4610
sg75
(lp4626
g68
(g69
g70
NtRp4627
(dp4628
g73
(dp4629
g81
I5
ssg82
g4623
sg75
(lp4630
S'default/index.html'
p4631
asbasbasbasbasbsS'locals'
p4632
(dp4633
g3
S"'/home/ian/web2py/applications/places/controllers/default.py'"
p4634
sg5
S"'# -*- coding: utf-8 -*-\\n# this file is released ...e_title)\\n\\nresponse._vars=response._caller(index)\\n'"
p4635
sssS'traceback'
p4636
S'Traceback (most recent call last):\n  File "/home/ian/web2py/gluon/restricted.py", line 193, in restricted\n    ccode = compile2(code,layer)\n  File "/home/ian/web2py/gluon/restricted.py", line 179, in compile2\n    return compile(code.rstrip().replace(\'\\r\\n\',\'\\n\')+\'\\n\', layer, \'exec\')\n  File "/home/ian/web2py/applications/places/controllers/default.py", line 20\n    session.the_view = current_view\n                                  ^\nIndentationError: unindent does not match any outer indentation level\n'
p4637
s.