(dp1
S'output'
p2
S''
sS'layer'
p3
S'/home/ian/web2py/applications/places/controllers/default.py'
p4
sS'code'
p5
S'# -*- coding: utf-8 -*-\n# this file is released under public domain and you can use without limitations\n\n#########################################################################\n## This is a samples controller\n## - index is the default action of any application\n## - user is required for authentication and authorization\n## - download is for downloading files uploaded in the db (does streaming)\n## - call exposes all registered services (none by default)\n#########################################################################\n\ndef index():\n    """\n    example action using the internationalization operator T and flash\n    rendered by views/default/index.html or views/generic.html\n    """   \n        \n    if request.vars.the_view:\n\t\tcurrent_view = request.vars.the_view    \n    else:\n        current_view = "webdev"\n    \n    current_row = db(db.tags.tag == current_view).select()    \n    current_tag = current_row[0].id\n            \n    links = db(db.links.tags.contains(current_tag)).select()\n    \n    return dict(links = links)\n\ndef user():\n    """\n    exposes:\n    http://..../[app]/default/user/login\n    http://..../[app]/default/user/logout\n    http://..../[app]/default/user/register\n    http://..../[app]/default/user/profile\n    http://..../[app]/default/user/retrieve_password\n    http://..../[app]/default/user/change_password\n    use @auth.requires_login()\n        @auth.requires_membership(\'group name\')\n        @auth.requires_permission(\'read\',\'table name\',record_id)\n    to decorate functions that need access control\n    """\n    return dict(form=auth())\n\n\ndef download():\n    """\n    allows downloading of uploaded files\n    http://..../[app]/default/download/[filename]\n    """\n    return response.download(request,db)\n\n\ndef call():\n    """\n    exposes services. for example:\n    http://..../[app]/default/call/jsonrpc\n    decorate with @services.jsonrpc the functions to expose\n    supports xml, json, xmlrpc, jsonrpc, amfrpc, rss, csv\n    """\n    return service()\n\n\n@auth.requires_signature()\ndef data():\n    """\n    http://..../[app]/default/data/tables\n    http://..../[app]/default/data/create/[table]\n    http://..../[app]/default/data/read/[table]/[id]\n    http://..../[app]/default/data/update/[table]/[id]\n    http://..../[app]/default/data/delete/[table]/[id]\n    http://..../[app]/default/data/select/[table]\n    http://..../[app]/default/data/search/[table]\n    but URLs bust be signed, i.e. linked with\n      A(\'table\',_href=URL(\'data/tables\',user_signature=True))\n    or with the signed load operator\n      LOAD(\'default\',\'data.load\',args=\'tables\',ajax=True,user_signature=True)\n    """\n    return dict(form=crud())\n\n#@auth.requires_membership(\'administrators\')\ndef edit():\n    form = crud.update(db.links, request.args[0])\n\tcloser = A(\'close\', _href=URL(\'#\'), _class=\'close_link\')\n\tthe_title = H3(\'Edit this Place\')\n\t\n\treturn dict(form = form, closer=closer, the_title=the_title)\n\t\n#@auth.requires_membership(\'administrators\')\ndef create():\n\tform = crud.create(db.links)\n\tcloser = A(\'close\', _href=URL(\'#\'), _class=\'close_link\')\n\tthe_title = H3(\'Link to a New Place\')\n\t\t\n\treturn dict(form = form, closer=closer, the_title=the_title)\n\nresponse._vars=response._caller(index)\n'
p6
sS'snapshot'
p7
(dp8
S'exception'
p9
(dp10
S'__getslice__'
p11
S"<method-wrapper '__getslice__' of exceptions.IndentationError object>"
p12
sS'text'
p13
S'"\\tcloser = A(\'close\', _href=URL(\'#\'), _class=\'close_link\')\\n"'
p14
sS'__str__'
p15
S"<method-wrapper '__str__' of exceptions.IndentationError object>"
p16
sS'__reduce__'
p17
S'<built-in method __reduce__ of exceptions.IndentationError object>'
p18
sS'__dict__'
p19
S'{}'
p20
sS'__sizeof__'
p21
S'<built-in method __sizeof__ of exceptions.IndentationError object>'
p22
sS'__init__'
p23
S"<method-wrapper '__init__' of exceptions.IndentationError object>"
p24
sS'__setattr__'
p25
S"<method-wrapper '__setattr__' of exceptions.IndentationError object>"
p26
sS'__reduce_ex__'
p27
S'<built-in method __reduce_ex__ of exceptions.IndentationError object>'
p28
sS'__new__'
p29
S'<built-in method __new__ of type object>'
p30
sS'__format__'
p31
S'<built-in method __format__ of exceptions.IndentationError object>'
p32
sS'__class__'
p33
S"<type 'exceptions.IndentationError'>"
p34
sS'filename'
p35
S"'/home/ian/web2py/applications/places/controllers/default.py'"
p36
sS'lineno'
p37
S'85'
p38
sS'msg'
p39
S"'unexpected indent'"
p40
sS'__doc__'
p41
S"'Improper indentation.'"
p42
sS'__getitem__'
p43
S"<method-wrapper '__getitem__' of exceptions.IndentationError object>"
p44
sS'__setstate__'
p45
S'<built-in method __setstate__ of exceptions.IndentationError object>'
p46
sS'__getattribute__'
p47
S"<method-wrapper '__getattribute__' of exceptions.IndentationError object>"
p48
sS'print_file_and_line'
p49
S'None'
p50
sS'args'
p51
S'(\'unexpected indent\', (\'/home/ian/web2py/applications/places/controllers/default.py\', 85, 1, "\\tcloser = A(\'close\', _href=URL(\'#\'), _class=\'close_link\')\\n"))'
p52
sS'__subclasshook__'
p53
S'<built-in method __subclasshook__ of type object>'
p54
sS'offset'
p55
S'1'
sS'__unicode__'
p56
S'<built-in method __unicode__ of exceptions.IndentationError object>'
p57
sS'__delattr__'
p58
S"<method-wrapper '__delattr__' of exceptions.IndentationError object>"
p59
sS'__repr__'
p60
S"<method-wrapper '__repr__' of exceptions.IndentationError object>"
p61
sS'__hash__'
p62
S"<method-wrapper '__hash__' of exceptions.IndentationError object>"
p63
ssS'evalue'
p64
S'unexpected indent (default.py, line 85)'
p65
sS'request'
p66
ccopy_reg
_reconstructor
p67
(cgluon.html
BEAUTIFY
p68
c__builtin__
object
p69
NtRp70
(dp71
S'attributes'
p72
(dp73
sS'components'
p74
(lp75
g67
(cgluon.html
TABLE
p76
g69
NtRp77
(dp78
g72
(dp79
S'level'
p80
I5
ssS'parent'
p81
Nsg74
(lp82
g67
(cgluon.html
TR
p83
g69
NtRp84
(dp85
g72
(dp86
sg81
g77
sg74
(lp87
g67
(cgluon.html
TD
p88
g69
NtRp89
(dp90
g72
(dp91
S'_style'
p92
S'font-weight:bold;'
p93
ssg81
g84
sg74
(lp94
S'ajax'
p95
asbag67
(g88
g69
NtRp96
(dp97
g72
(dp98
S'_valign'
p99
S'top'
p100
ssg81
g84
sg74
(lp101
S':'
asbag67
(g88
g69
NtRp102
(dp103
g72
(dp104
sg81
g84
sg74
(lp105
g67
(g68
g69
NtRp106
(dp107
g72
(dp108
g80
I5
ssg81
g102
sg74
(lp109
S'False'
p110
asbasbasbag67
(g83
g69
NtRp111
(dp112
g72
(dp113
sg81
g77
sg74
(lp114
g67
(g88
g69
NtRp115
(dp116
g72
(dp117
g92
g93
ssg81
g111
sg74
(lp118
S'application'
p119
asbag67
(g88
g69
NtRp120
(dp121
g72
(dp122
g99
g100
ssg81
g111
sg74
(lp123
S':'
asbag67
(g88
g69
NtRp124
(dp125
g72
(dp126
sg81
g111
sg74
(lp127
g67
(g68
g69
NtRp128
(dp129
g72
(dp130
g80
I5
ssg81
g124
sg74
(lp131
S'places'
p132
asbasbasbag67
(g83
g69
NtRp133
(dp134
g72
(dp135
sg81
g77
sg74
(lp136
g67
(g88
g69
NtRp137
(dp138
g72
(dp139
g92
g93
ssg81
g133
sg74
(lp140
g51
asbag67
(g88
g69
NtRp141
(dp142
g72
(dp143
g99
g100
ssg81
g133
sg74
(lp144
S':'
asbag67
(g88
g69
NtRp145
(dp146
g72
(dp147
sg81
g133
sg74
(lp148
g67
(g68
g69
NtRp149
(dp150
g72
(dp151
g80
I5
ssg81
g145
sg74
(lp152
g67
(g76
g69
NtRp153
(dp154
g72
(dp155
g80
I4
ssg81
Nsg74
(lp156
sbasbasbasbag67
(g83
g69
NtRp157
(dp158
g72
(dp159
sg81
g77
sg74
(lp160
g67
(g88
g69
NtRp161
(dp162
g72
(dp163
g92
g93
ssg81
g157
sg74
(lp164
S'body'
p165
asbag67
(g88
g69
NtRp166
(dp167
g72
(dp168
g99
g100
ssg81
g157
sg74
(lp169
S':'
asbag67
(g88
g69
NtRp170
(dp171
g72
(dp172
sg81
g157
sg74
(lp173
g67
(g68
g69
NtRp174
(dp175
g72
(dp176
g80
I5
ssg81
g170
sg74
(lp177
S'<cStringIO.StringO object at 0x387b0d8>'
p178
asbasbasbag67
(g83
g69
NtRp179
(dp180
g72
(dp181
sg81
g77
sg74
(lp182
g67
(g88
g69
NtRp183
(dp184
g72
(dp185
g92
g93
ssg81
g179
sg74
(lp186
S'client'
p187
asbag67
(g88
g69
NtRp188
(dp189
g72
(dp190
g99
g100
ssg81
g179
sg74
(lp191
S':'
asbag67
(g88
g69
NtRp192
(dp193
g72
(dp194
sg81
g179
sg74
(lp195
g67
(g68
g69
NtRp196
(dp197
g72
(dp198
g80
I5
ssg81
g192
sg74
(lp199
S'127.0.0.1'
p200
asbasbasbag67
(g83
g69
NtRp201
(dp202
g72
(dp203
sg81
g77
sg74
(lp204
g67
(g88
g69
NtRp205
(dp206
g72
(dp207
g92
g93
ssg81
g201
sg74
(lp208
S'controller'
p209
asbag67
(g88
g69
NtRp210
(dp211
g72
(dp212
g99
g100
ssg81
g201
sg74
(lp213
S':'
asbag67
(g88
g69
NtRp214
(dp215
g72
(dp216
sg81
g201
sg74
(lp217
g67
(g68
g69
NtRp218
(dp219
g72
(dp220
g80
I5
ssg81
g214
sg74
(lp221
S'default'
p222
asbasbasbag67
(g83
g69
NtRp223
(dp224
g72
(dp225
sg81
g77
sg74
(lp226
g67
(g88
g69
NtRp227
(dp228
g72
(dp229
g92
g93
ssg81
g223
sg74
(lp230
S'cookies'
p231
asbag67
(g88
g69
NtRp232
(dp233
g72
(dp234
g99
g100
ssg81
g223
sg74
(lp235
S':'
asbag67
(g88
g69
NtRp236
(dp237
g72
(dp238
sg81
g223
sg74
(lp239
g67
(g68
g69
NtRp240
(dp241
g72
(dp242
g80
I5
ssg81
g236
sg74
(lp243
g67
(g76
g69
NtRp244
(dp245
g72
(dp246
g80
I4
ssg81
Nsg74
(lp247
g67
(g83
g69
NtRp248
(dp249
g72
(dp250
sg81
g244
sg74
(lp251
g67
(g88
g69
NtRp252
(dp253
g72
(dp254
g92
g93
ssg81
g248
sg74
(lp255
S'session_id_admin'
p256
asbag67
(g88
g69
NtRp257
(dp258
g72
(dp259
g99
g100
ssg81
g248
sg74
(lp260
S':'
asbag67
(g88
g69
NtRp261
(dp262
g72
(dp263
sg81
g248
sg74
(lp264
g67
(g68
g69
NtRp265
(dp266
g72
(dp267
g80
I4
ssg81
g261
sg74
(lp268
g67
(g76
g69
NtRp269
(dp270
g72
(dp271
g80
I3
ssg81
Nsg74
(lp272
g67
(g83
g69
NtRp273
(dp274
g72
(dp275
sg81
g269
sg74
(lp276
g67
(g88
g69
NtRp277
(dp278
g72
(dp279
g92
g93
ssg81
g273
sg74
(lp280
S'comment'
p281
asbag67
(g88
g69
NtRp282
(dp283
g72
(dp284
g99
g100
ssg81
g273
sg74
(lp285
S':'
asbag67
(g88
g69
NtRp286
(dp287
g72
(dp288
sg81
g273
sg74
(lp289
g67
(g68
g69
NtRp290
(dp291
g72
(dp292
g80
I3
ssg81
g286
sg74
(lp293
S''
asbasbasbag67
(g83
g69
NtRp294
(dp295
g72
(dp296
sg81
g269
sg74
(lp297
g67
(g88
g69
NtRp298
(dp299
g72
(dp300
g92
g93
ssg81
g294
sg74
(lp301
S'domain'
p302
asbag67
(g88
g69
NtRp303
(dp304
g72
(dp305
g99
g100
ssg81
g294
sg74
(lp306
S':'
asbag67
(g88
g69
NtRp307
(dp308
g72
(dp309
sg81
g294
sg74
(lp310
g67
(g68
g69
NtRp311
(dp312
g72
(dp313
g80
I3
ssg81
g307
sg74
(lp314
S''
asbasbasbag67
(g83
g69
NtRp315
(dp316
g72
(dp317
sg81
g269
sg74
(lp318
g67
(g88
g69
NtRp319
(dp320
g72
(dp321
g92
g93
ssg81
g315
sg74
(lp322
S'expires'
p323
asbag67
(g88
g69
NtRp324
(dp325
g72
(dp326
g99
g100
ssg81
g315
sg74
(lp327
S':'
asbag67
(g88
g69
NtRp328
(dp329
g72
(dp330
sg81
g315
sg74
(lp331
g67
(g68
g69
NtRp332
(dp333
g72
(dp334
g80
I3
ssg81
g328
sg74
(lp335
S''
asbasbasbag67
(g83
g69
NtRp336
(dp337
g72
(dp338
sg81
g269
sg74
(lp339
g67
(g88
g69
NtRp340
(dp341
g72
(dp342
g92
g93
ssg81
g336
sg74
(lp343
S'httponly'
p344
asbag67
(g88
g69
NtRp345
(dp346
g72
(dp347
g99
g100
ssg81
g336
sg74
(lp348
S':'
asbag67
(g88
g69
NtRp349
(dp350
g72
(dp351
sg81
g336
sg74
(lp352
g67
(g68
g69
NtRp353
(dp354
g72
(dp355
g80
I3
ssg81
g349
sg74
(lp356
S''
asbasbasbag67
(g83
g69
NtRp357
(dp358
g72
(dp359
sg81
g269
sg74
(lp360
g67
(g88
g69
NtRp361
(dp362
g72
(dp363
g92
g93
ssg81
g357
sg74
(lp364
S'max-age'
p365
asbag67
(g88
g69
NtRp366
(dp367
g72
(dp368
g99
g100
ssg81
g357
sg74
(lp369
S':'
asbag67
(g88
g69
NtRp370
(dp371
g72
(dp372
sg81
g357
sg74
(lp373
g67
(g68
g69
NtRp374
(dp375
g72
(dp376
g80
I3
ssg81
g370
sg74
(lp377
S''
asbasbasbag67
(g83
g69
NtRp378
(dp379
g72
(dp380
sg81
g269
sg74
(lp381
g67
(g88
g69
NtRp382
(dp383
g72
(dp384
g92
g93
ssg81
g378
sg74
(lp385
S'path'
p386
asbag67
(g88
g69
NtRp387
(dp388
g72
(dp389
g99
g100
ssg81
g378
sg74
(lp390
S':'
asbag67
(g88
g69
NtRp391
(dp392
g72
(dp393
sg81
g378
sg74
(lp394
g67
(g68
g69
NtRp395
(dp396
g72
(dp397
g80
I3
ssg81
g391
sg74
(lp398
S''
asbasbasbag67
(g83
g69
NtRp399
(dp400
g72
(dp401
sg81
g269
sg74
(lp402
g67
(g88
g69
NtRp403
(dp404
g72
(dp405
g92
g93
ssg81
g399
sg74
(lp406
S'secure'
p407
asbag67
(g88
g69
NtRp408
(dp409
g72
(dp410
g99
g100
ssg81
g399
sg74
(lp411
S':'
asbag67
(g88
g69
NtRp412
(dp413
g72
(dp414
sg81
g399
sg74
(lp415
g67
(g68
g69
NtRp416
(dp417
g72
(dp418
g80
I3
ssg81
g412
sg74
(lp419
S''
asbasbasbag67
(g83
g69
NtRp420
(dp421
g72
(dp422
sg81
g269
sg74
(lp423
g67
(g88
g69
NtRp424
(dp425
g72
(dp426
g92
g93
ssg81
g420
sg74
(lp427
S'version'
p428
asbag67
(g88
g69
NtRp429
(dp430
g72
(dp431
g99
g100
ssg81
g420
sg74
(lp432
S':'
asbag67
(g88
g69
NtRp433
(dp434
g72
(dp435
sg81
g420
sg74
(lp436
g67
(g68
g69
NtRp437
(dp438
g72
(dp439
g80
I3
ssg81
g433
sg74
(lp440
S''
asbasbasbasbasbasbasbag67
(g83
g69
NtRp441
(dp442
g72
(dp443
sg81
g244
sg74
(lp444
g67
(g88
g69
NtRp445
(dp446
g72
(dp447
g92
g93
ssg81
g441
sg74
(lp448
S'session_id_places'
p449
asbag67
(g88
g69
NtRp450
(dp451
g72
(dp452
g99
g100
ssg81
g441
sg74
(lp453
S':'
asbag67
(g88
g69
NtRp454
(dp455
g72
(dp456
sg81
g441
sg74
(lp457
g67
(g68
g69
NtRp458
(dp459
g72
(dp460
g80
I4
ssg81
g454
sg74
(lp461
g67
(g76
g69
NtRp462
(dp463
g72
(dp464
g80
I3
ssg81
Nsg74
(lp465
g67
(g83
g69
NtRp466
(dp467
g72
(dp468
sg81
g462
sg74
(lp469
g67
(g88
g69
NtRp470
(dp471
g72
(dp472
g92
g93
ssg81
g466
sg74
(lp473
g281
asbag67
(g88
g69
NtRp474
(dp475
g72
(dp476
g99
g100
ssg81
g466
sg74
(lp477
S':'
asbag67
(g88
g69
NtRp478
(dp479
g72
(dp480
sg81
g466
sg74
(lp481
g67
(g68
g69
NtRp482
(dp483
g72
(dp484
g80
I3
ssg81
g478
sg74
(lp485
S''
asbasbasbag67
(g83
g69
NtRp486
(dp487
g72
(dp488
sg81
g462
sg74
(lp489
g67
(g88
g69
NtRp490
(dp491
g72
(dp492
g92
g93
ssg81
g486
sg74
(lp493
g302
asbag67
(g88
g69
NtRp494
(dp495
g72
(dp496
g99
g100
ssg81
g486
sg74
(lp497
S':'
asbag67
(g88
g69
NtRp498
(dp499
g72
(dp500
sg81
g486
sg74
(lp501
g67
(g68
g69
NtRp502
(dp503
g72
(dp504
g80
I3
ssg81
g498
sg74
(lp505
S''
asbasbasbag67
(g83
g69
NtRp506
(dp507
g72
(dp508
sg81
g462
sg74
(lp509
g67
(g88
g69
NtRp510
(dp511
g72
(dp512
g92
g93
ssg81
g506
sg74
(lp513
g323
asbag67
(g88
g69
NtRp514
(dp515
g72
(dp516
g99
g100
ssg81
g506
sg74
(lp517
S':'
asbag67
(g88
g69
NtRp518
(dp519
g72
(dp520
sg81
g506
sg74
(lp521
g67
(g68
g69
NtRp522
(dp523
g72
(dp524
g80
I3
ssg81
g518
sg74
(lp525
S''
asbasbasbag67
(g83
g69
NtRp526
(dp527
g72
(dp528
sg81
g462
sg74
(lp529
g67
(g88
g69
NtRp530
(dp531
g72
(dp532
g92
g93
ssg81
g526
sg74
(lp533
g344
asbag67
(g88
g69
NtRp534
(dp535
g72
(dp536
g99
g100
ssg81
g526
sg74
(lp537
S':'
asbag67
(g88
g69
NtRp538
(dp539
g72
(dp540
sg81
g526
sg74
(lp541
g67
(g68
g69
NtRp542
(dp543
g72
(dp544
g80
I3
ssg81
g538
sg74
(lp545
S''
asbasbasbag67
(g83
g69
NtRp546
(dp547
g72
(dp548
sg81
g462
sg74
(lp549
g67
(g88
g69
NtRp550
(dp551
g72
(dp552
g92
g93
ssg81
g546
sg74
(lp553
g365
asbag67
(g88
g69
NtRp554
(dp555
g72
(dp556
g99
g100
ssg81
g546
sg74
(lp557
S':'
asbag67
(g88
g69
NtRp558
(dp559
g72
(dp560
sg81
g546
sg74
(lp561
g67
(g68
g69
NtRp562
(dp563
g72
(dp564
g80
I3
ssg81
g558
sg74
(lp565
S''
asbasbasbag67
(g83
g69
NtRp566
(dp567
g72
(dp568
sg81
g462
sg74
(lp569
g67
(g88
g69
NtRp570
(dp571
g72
(dp572
g92
g93
ssg81
g566
sg74
(lp573
g386
asbag67
(g88
g69
NtRp574
(dp575
g72
(dp576
g99
g100
ssg81
g566
sg74
(lp577
S':'
asbag67
(g88
g69
NtRp578
(dp579
g72
(dp580
sg81
g566
sg74
(lp581
g67
(g68
g69
NtRp582
(dp583
g72
(dp584
g80
I3
ssg81
g578
sg74
(lp585
S''
asbasbasbag67
(g83
g69
NtRp586
(dp587
g72
(dp588
sg81
g462
sg74
(lp589
g67
(g88
g69
NtRp590
(dp591
g72
(dp592
g92
g93
ssg81
g586
sg74
(lp593
g407
asbag67
(g88
g69
NtRp594
(dp595
g72
(dp596
g99
g100
ssg81
g586
sg74
(lp597
S':'
asbag67
(g88
g69
NtRp598
(dp599
g72
(dp600
sg81
g586
sg74
(lp601
g67
(g68
g69
NtRp602
(dp603
g72
(dp604
g80
I3
ssg81
g598
sg74
(lp605
S''
asbasbasbag67
(g83
g69
NtRp606
(dp607
g72
(dp608
sg81
g462
sg74
(lp609
g67
(g88
g69
NtRp610
(dp611
g72
(dp612
g92
g93
ssg81
g606
sg74
(lp613
g428
asbag67
(g88
g69
NtRp614
(dp615
g72
(dp616
g99
g100
ssg81
g606
sg74
(lp617
S':'
asbag67
(g88
g69
NtRp618
(dp619
g72
(dp620
sg81
g606
sg74
(lp621
g67
(g68
g69
NtRp622
(dp623
g72
(dp624
g80
I3
ssg81
g618
sg74
(lp625
S''
asbasbasbasbasbasbasbag67
(g83
g69
NtRp626
(dp627
g72
(dp628
sg81
g244
sg74
(lp629
g67
(g88
g69
NtRp630
(dp631
g72
(dp632
g92
g93
ssg81
g626
sg74
(lp633
S'session_id_welcome'
p634
asbag67
(g88
g69
NtRp635
(dp636
g72
(dp637
g99
g100
ssg81
g626
sg74
(lp638
S':'
asbag67
(g88
g69
NtRp639
(dp640
g72
(dp641
sg81
g626
sg74
(lp642
g67
(g68
g69
NtRp643
(dp644
g72
(dp645
g80
I4
ssg81
g639
sg74
(lp646
g67
(g76
g69
NtRp647
(dp648
g72
(dp649
g80
I3
ssg81
Nsg74
(lp650
g67
(g83
g69
NtRp651
(dp652
g72
(dp653
sg81
g647
sg74
(lp654
g67
(g88
g69
NtRp655
(dp656
g72
(dp657
g92
g93
ssg81
g651
sg74
(lp658
g281
asbag67
(g88
g69
NtRp659
(dp660
g72
(dp661
g99
g100
ssg81
g651
sg74
(lp662
S':'
asbag67
(g88
g69
NtRp663
(dp664
g72
(dp665
sg81
g651
sg74
(lp666
g67
(g68
g69
NtRp667
(dp668
g72
(dp669
g80
I3
ssg81
g663
sg74
(lp670
S''
asbasbasbag67
(g83
g69
NtRp671
(dp672
g72
(dp673
sg81
g647
sg74
(lp674
g67
(g88
g69
NtRp675
(dp676
g72
(dp677
g92
g93
ssg81
g671
sg74
(lp678
g302
asbag67
(g88
g69
NtRp679
(dp680
g72
(dp681
g99
g100
ssg81
g671
sg74
(lp682
S':'
asbag67
(g88
g69
NtRp683
(dp684
g72
(dp685
sg81
g671
sg74
(lp686
g67
(g68
g69
NtRp687
(dp688
g72
(dp689
g80
I3
ssg81
g683
sg74
(lp690
S''
asbasbasbag67
(g83
g69
NtRp691
(dp692
g72
(dp693
sg81
g647
sg74
(lp694
g67
(g88
g69
NtRp695
(dp696
g72
(dp697
g92
g93
ssg81
g691
sg74
(lp698
g323
asbag67
(g88
g69
NtRp699
(dp700
g72
(dp701
g99
g100
ssg81
g691
sg74
(lp702
S':'
asbag67
(g88
g69
NtRp703
(dp704
g72
(dp705
sg81
g691
sg74
(lp706
g67
(g68
g69
NtRp707
(dp708
g72
(dp709
g80
I3
ssg81
g703
sg74
(lp710
S''
asbasbasbag67
(g83
g69
NtRp711
(dp712
g72
(dp713
sg81
g647
sg74
(lp714
g67
(g88
g69
NtRp715
(dp716
g72
(dp717
g92
g93
ssg81
g711
sg74
(lp718
g344
asbag67
(g88
g69
NtRp719
(dp720
g72
(dp721
g99
g100
ssg81
g711
sg74
(lp722
S':'
asbag67
(g88
g69
NtRp723
(dp724
g72
(dp725
sg81
g711
sg74
(lp726
g67
(g68
g69
NtRp727
(dp728
g72
(dp729
g80
I3
ssg81
g723
sg74
(lp730
S''
asbasbasbag67
(g83
g69
NtRp731
(dp732
g72
(dp733
sg81
g647
sg74
(lp734
g67
(g88
g69
NtRp735
(dp736
g72
(dp737
g92
g93
ssg81
g731
sg74
(lp738
g365
asbag67
(g88
g69
NtRp739
(dp740
g72
(dp741
g99
g100
ssg81
g731
sg74
(lp742
S':'
asbag67
(g88
g69
NtRp743
(dp744
g72
(dp745
sg81
g731
sg74
(lp746
g67
(g68
g69
NtRp747
(dp748
g72
(dp749
g80
I3
ssg81
g743
sg74
(lp750
S''
asbasbasbag67
(g83
g69
NtRp751
(dp752
g72
(dp753
sg81
g647
sg74
(lp754
g67
(g88
g69
NtRp755
(dp756
g72
(dp757
g92
g93
ssg81
g751
sg74
(lp758
g386
asbag67
(g88
g69
NtRp759
(dp760
g72
(dp761
g99
g100
ssg81
g751
sg74
(lp762
S':'
asbag67
(g88
g69
NtRp763
(dp764
g72
(dp765
sg81
g751
sg74
(lp766
g67
(g68
g69
NtRp767
(dp768
g72
(dp769
g80
I3
ssg81
g763
sg74
(lp770
S''
asbasbasbag67
(g83
g69
NtRp771
(dp772
g72
(dp773
sg81
g647
sg74
(lp774
g67
(g88
g69
NtRp775
(dp776
g72
(dp777
g92
g93
ssg81
g771
sg74
(lp778
g407
asbag67
(g88
g69
NtRp779
(dp780
g72
(dp781
g99
g100
ssg81
g771
sg74
(lp782
S':'
asbag67
(g88
g69
NtRp783
(dp784
g72
(dp785
sg81
g771
sg74
(lp786
g67
(g68
g69
NtRp787
(dp788
g72
(dp789
g80
I3
ssg81
g783
sg74
(lp790
S''
asbasbasbag67
(g83
g69
NtRp791
(dp792
g72
(dp793
sg81
g647
sg74
(lp794
g67
(g88
g69
NtRp795
(dp796
g72
(dp797
g92
g93
ssg81
g791
sg74
(lp798
g428
asbag67
(g88
g69
NtRp799
(dp800
g72
(dp801
g99
g100
ssg81
g791
sg74
(lp802
S':'
asbag67
(g88
g69
NtRp803
(dp804
g72
(dp805
sg81
g791
sg74
(lp806
g67
(g68
g69
NtRp807
(dp808
g72
(dp809
g80
I3
ssg81
g803
sg74
(lp810
S''
asbasbasbasbasbasbasbasbasbasbasbag67
(g83
g69
NtRp811
(dp812
g72
(dp813
sg81
g77
sg74
(lp814
g67
(g88
g69
NtRp815
(dp816
g72
(dp817
g92
g93
ssg81
g811
sg74
(lp818
S'env'
p819
asbag67
(g88
g69
NtRp820
(dp821
g72
(dp822
g99
g100
ssg81
g811
sg74
(lp823
S':'
asbag67
(g88
g69
NtRp824
(dp825
g72
(dp826
sg81
g811
sg74
(lp827
g67
(g68
g69
NtRp828
(dp829
g72
(dp830
g80
I5
ssg81
g824
sg74
(lp831
g67
(g76
g69
NtRp832
(dp833
g72
(dp834
g80
I4
ssg81
Nsg74
(lp835
g67
(g83
g69
NtRp836
(dp837
g72
(dp838
sg81
g832
sg74
(lp839
g67
(g88
g69
NtRp840
(dp841
g72
(dp842
g92
g93
ssg81
g836
sg74
(lp843
S'app_folders'
p844
asbag67
(g88
g69
NtRp845
(dp846
g72
(dp847
g99
g100
ssg81
g836
sg74
(lp848
S':'
asbag67
(g88
g69
NtRp849
(dp850
g72
(dp851
sg81
g836
sg74
(lp852
g67
(g68
g69
NtRp853
(dp854
g72
(dp855
g80
I4
ssg81
g849
sg74
(lp856
S"set(['/home/ian/web2py/applications/welcome/', '/home/ian/web2py/applications/places/', '/home/ian/web2py/applications/admin/'])"
p857
asbasbasbag67
(g83
g69
NtRp858
(dp859
g72
(dp860
sg81
g832
sg74
(lp861
g67
(g88
g69
NtRp862
(dp863
g72
(dp864
g92
g93
ssg81
g858
sg74
(lp865
S'applications_parent'
p866
asbag67
(g88
g69
NtRp867
(dp868
g72
(dp869
g99
g100
ssg81
g858
sg74
(lp870
S':'
asbag67
(g88
g69
NtRp871
(dp872
g72
(dp873
sg81
g858
sg74
(lp874
g67
(g68
g69
NtRp875
(dp876
g72
(dp877
g80
I4
ssg81
g871
sg74
(lp878
S'/home/ian/web2py'
p879
asbasbasbag67
(g83
g69
NtRp880
(dp881
g72
(dp882
sg81
g832
sg74
(lp883
g67
(g88
g69
NtRp884
(dp885
g72
(dp886
g92
g93
ssg81
g880
sg74
(lp887
S'cmd_args'
p888
asbag67
(g88
g69
NtRp889
(dp890
g72
(dp891
g99
g100
ssg81
g880
sg74
(lp892
S':'
asbag67
(g88
g69
NtRp893
(dp894
g72
(dp895
sg81
g880
sg74
(lp896
g67
(g68
g69
NtRp897
(dp898
g72
(dp899
g80
I4
ssg81
g893
sg74
(lp900
g67
(g76
g69
NtRp901
(dp902
g72
(dp903
g80
I3
ssg81
Nsg74
(lp904
sbasbasbasbag67
(g83
g69
NtRp905
(dp906
g72
(dp907
sg81
g832
sg74
(lp908
g67
(g88
g69
NtRp909
(dp910
g72
(dp911
g92
g93
ssg81
g905
sg74
(lp912
S'cmd_options'
p913
asbag67
(g88
g69
NtRp914
(dp915
g72
(dp916
g99
g100
ssg81
g905
sg74
(lp917
S':'
asbag67
(g88
g69
NtRp918
(dp919
g72
(dp920
sg81
g905
sg74
(lp921
g67
(g68
g69
NtRp922
(dp923
g72
(dp924
g80
I4
ssg81
g918
sg74
(lp925
S"<Values at 0x26ccbd8: {'verbose': False, 'ip': '127.0.0.1', 'shutdown_timeout': 5, 'taskbar': False, 'nocron': False, 'pid_filename': 'httpserver.pid', 'maxthreads': None, 'softcron': False, 'server_name': 'Ariel-ubuntu', 'bpython': False, 'nogui': False, 'port': 8000, 'extcron': False, 'debuglevel': 30, 'test': None, 'folder': '/home/ian/web2py', 'config': '', 'import_models': False, 'winservice': '', 'shell': None, 'run': '', 'log_filename': 'httpserver.log', 'args': [''], 'ssl_ca_certificate': None, 'scheduler': None, 'profiler_filename': None, 'ssl_private_key': '', 'password': '<ask>', 'request_queue_size': 5, 'ssl_certificate': '', 'cronjob': False, 'plain': False, 'quiet': False, 'interfaces': None, 'minthreads': None, 'timeout': 10, 'numthreads': None, 'nobanner': False}>"
p926
asbasbasbag67
(g83
g69
NtRp927
(dp928
g72
(dp929
sg81
g832
sg74
(lp930
g67
(g88
g69
NtRp931
(dp932
g72
(dp933
g92
g93
ssg81
g927
sg74
(lp934
S'db_sessions'
p935
asbag67
(g88
g69
NtRp936
(dp937
g72
(dp938
g99
g100
ssg81
g927
sg74
(lp939
S':'
asbag67
(g88
g69
NtRp940
(dp941
g72
(dp942
sg81
g927
sg74
(lp943
g67
(g68
g69
NtRp944
(dp945
g72
(dp946
g80
I4
ssg81
g940
sg74
(lp947
S'set([])'
p948
asbasbasbag67
(g83
g69
NtRp949
(dp950
g72
(dp951
sg81
g832
sg74
(lp952
g67
(g88
g69
NtRp953
(dp954
g72
(dp955
g92
g93
ssg81
g949
sg74
(lp956
S'debugging'
p957
asbag67
(g88
g69
NtRp958
(dp959
g72
(dp960
g99
g100
ssg81
g949
sg74
(lp961
S':'
asbag67
(g88
g69
NtRp962
(dp963
g72
(dp964
sg81
g949
sg74
(lp965
g67
(g68
g69
NtRp966
(dp967
g72
(dp968
g80
I4
ssg81
g962
sg74
(lp969
g110
asbasbasbag67
(g83
g69
NtRp970
(dp971
g72
(dp972
sg81
g832
sg74
(lp973
g67
(g88
g69
NtRp974
(dp975
g72
(dp976
g92
g93
ssg81
g970
sg74
(lp977
S'gluon_parent'
p978
asbag67
(g88
g69
NtRp979
(dp980
g72
(dp981
g99
g100
ssg81
g970
sg74
(lp982
S':'
asbag67
(g88
g69
NtRp983
(dp984
g72
(dp985
sg81
g970
sg74
(lp986
g67
(g68
g69
NtRp987
(dp988
g72
(dp989
g80
I4
ssg81
g983
sg74
(lp990
S'/home/ian/web2py'
p991
asbasbasbag67
(g83
g69
NtRp992
(dp993
g72
(dp994
sg81
g832
sg74
(lp995
g67
(g88
g69
NtRp996
(dp997
g72
(dp998
g92
g93
ssg81
g992
sg74
(lp999
S'http_accept'
p1000
asbag67
(g88
g69
NtRp1001
(dp1002
g72
(dp1003
g99
g100
ssg81
g992
sg74
(lp1004
S':'
asbag67
(g88
g69
NtRp1005
(dp1006
g72
(dp1007
sg81
g992
sg74
(lp1008
g67
(g68
g69
NtRp1009
(dp1010
g72
(dp1011
g80
I4
ssg81
g1005
sg74
(lp1012
S'text/html,application/xhtml+xml,application/xml;q=0.9,*/*;q=0.8'
p1013
asbasbasbag67
(g83
g69
NtRp1014
(dp1015
g72
(dp1016
sg81
g832
sg74
(lp1017
g67
(g88
g69
NtRp1018
(dp1019
g72
(dp1020
g92
g93
ssg81
g1014
sg74
(lp1021
S'http_accept_charset'
p1022
asbag67
(g88
g69
NtRp1023
(dp1024
g72
(dp1025
g99
g100
ssg81
g1014
sg74
(lp1026
S':'
asbag67
(g88
g69
NtRp1027
(dp1028
g72
(dp1029
sg81
g1014
sg74
(lp1030
g67
(g68
g69
NtRp1031
(dp1032
g72
(dp1033
g80
I4
ssg81
g1027
sg74
(lp1034
S'ISO-8859-1,utf-8;q=0.7,*;q=0.7'
p1035
asbasbasbag67
(g83
g69
NtRp1036
(dp1037
g72
(dp1038
sg81
g832
sg74
(lp1039
g67
(g88
g69
NtRp1040
(dp1041
g72
(dp1042
g92
g93
ssg81
g1036
sg74
(lp1043
S'http_accept_encoding'
p1044
asbag67
(g88
g69
NtRp1045
(dp1046
g72
(dp1047
g99
g100
ssg81
g1036
sg74
(lp1048
S':'
asbag67
(g88
g69
NtRp1049
(dp1050
g72
(dp1051
sg81
g1036
sg74
(lp1052
g67
(g68
g69
NtRp1053
(dp1054
g72
(dp1055
g80
I4
ssg81
g1049
sg74
(lp1056
S'gzip, deflate'
p1057
asbasbasbag67
(g83
g69
NtRp1058
(dp1059
g72
(dp1060
sg81
g832
sg74
(lp1061
g67
(g88
g69
NtRp1062
(dp1063
g72
(dp1064
g92
g93
ssg81
g1058
sg74
(lp1065
S'http_accept_language'
p1066
asbag67
(g88
g69
NtRp1067
(dp1068
g72
(dp1069
g99
g100
ssg81
g1058
sg74
(lp1070
S':'
asbag67
(g88
g69
NtRp1071
(dp1072
g72
(dp1073
sg81
g1058
sg74
(lp1074
g67
(g68
g69
NtRp1075
(dp1076
g72
(dp1077
g80
I4
ssg81
g1071
sg74
(lp1078
S'en-us,en;q=0.5'
p1079
asbasbasbag67
(g83
g69
NtRp1080
(dp1081
g72
(dp1082
sg81
g832
sg74
(lp1083
g67
(g88
g69
NtRp1084
(dp1085
g72
(dp1086
g92
g93
ssg81
g1080
sg74
(lp1087
S'http_cache_control'
p1088
asbag67
(g88
g69
NtRp1089
(dp1090
g72
(dp1091
g99
g100
ssg81
g1080
sg74
(lp1092
S':'
asbag67
(g88
g69
NtRp1093
(dp1094
g72
(dp1095
sg81
g1080
sg74
(lp1096
g67
(g68
g69
NtRp1097
(dp1098
g72
(dp1099
g80
I4
ssg81
g1093
sg74
(lp1100
S'max-age=0'
p1101
asbasbasbag67
(g83
g69
NtRp1102
(dp1103
g72
(dp1104
sg81
g832
sg74
(lp1105
g67
(g88
g69
NtRp1106
(dp1107
g72
(dp1108
g92
g93
ssg81
g1102
sg74
(lp1109
S'http_connection'
p1110
asbag67
(g88
g69
NtRp1111
(dp1112
g72
(dp1113
g99
g100
ssg81
g1102
sg74
(lp1114
S':'
asbag67
(g88
g69
NtRp1115
(dp1116
g72
(dp1117
sg81
g1102
sg74
(lp1118
g67
(g68
g69
NtRp1119
(dp1120
g72
(dp1121
g80
I4
ssg81
g1115
sg74
(lp1122
S'keep-alive'
p1123
asbasbasbag67
(g83
g69
NtRp1124
(dp1125
g72
(dp1126
sg81
g832
sg74
(lp1127
g67
(g88
g69
NtRp1128
(dp1129
g72
(dp1130
g92
g93
ssg81
g1124
sg74
(lp1131
S'http_cookie'
p1132
asbag67
(g88
g69
NtRp1133
(dp1134
g72
(dp1135
g99
g100
ssg81
g1124
sg74
(lp1136
S':'
asbag67
(g88
g69
NtRp1137
(dp1138
g72
(dp1139
sg81
g1124
sg74
(lp1140
g67
(g68
g69
NtRp1141
(dp1142
g72
(dp1143
g80
I4
ssg81
g1137
sg74
(lp1144
S'session_id_welcome=127.0.0.1-f0e6d08e-4585-488a-91e0-180c6c7f25a8; session_id_admin=127.0.0.1-dac11dfe-be99-4fb0-a78e-57512c9f5790; session_id_places=127.0.0.1-9bd70a00-d029-4b6e-8bcc-a423c3a61399'
p1145
asbasbasbag67
(g83
g69
NtRp1146
(dp1147
g72
(dp1148
sg81
g832
sg74
(lp1149
g67
(g88
g69
NtRp1150
(dp1151
g72
(dp1152
g92
g93
ssg81
g1146
sg74
(lp1153
S'http_host'
p1154
asbag67
(g88
g69
NtRp1155
(dp1156
g72
(dp1157
g99
g100
ssg81
g1146
sg74
(lp1158
S':'
asbag67
(g88
g69
NtRp1159
(dp1160
g72
(dp1161
sg81
g1146
sg74
(lp1162
g67
(g68
g69
NtRp1163
(dp1164
g72
(dp1165
g80
I4
ssg81
g1159
sg74
(lp1166
S'127.0.0.1:8000'
p1167
asbasbasbag67
(g83
g69
NtRp1168
(dp1169
g72
(dp1170
sg81
g832
sg74
(lp1171
g67
(g88
g69
NtRp1172
(dp1173
g72
(dp1174
g92
g93
ssg81
g1168
sg74
(lp1175
S'http_user_agent'
p1176
asbag67
(g88
g69
NtRp1177
(dp1178
g72
(dp1179
g99
g100
ssg81
g1168
sg74
(lp1180
S':'
asbag67
(g88
g69
NtRp1181
(dp1182
g72
(dp1183
sg81
g1168
sg74
(lp1184
g67
(g68
g69
NtRp1185
(dp1186
g72
(dp1187
g80
I4
ssg81
g1181
sg74
(lp1188
S'Mozilla/5.0 (X11; Linux x86_64; rv:7.0.1) Gecko/20100101 Firefox/7.0.1'
p1189
asbasbasbag67
(g83
g69
NtRp1190
(dp1191
g72
(dp1192
sg81
g832
sg74
(lp1193
g67
(g88
g69
NtRp1194
(dp1195
g72
(dp1196
g92
g93
ssg81
g1190
sg74
(lp1197
S'is_jython'
p1198
asbag67
(g88
g69
NtRp1199
(dp1200
g72
(dp1201
g99
g100
ssg81
g1190
sg74
(lp1202
S':'
asbag67
(g88
g69
NtRp1203
(dp1204
g72
(dp1205
sg81
g1190
sg74
(lp1206
g67
(g68
g69
NtRp1207
(dp1208
g72
(dp1209
g80
I4
ssg81
g1203
sg74
(lp1210
g110
asbasbasbag67
(g83
g69
NtRp1211
(dp1212
g72
(dp1213
sg81
g832
sg74
(lp1214
g67
(g88
g69
NtRp1215
(dp1216
g72
(dp1217
g92
g93
ssg81
g1211
sg74
(lp1218
S'path_info'
p1219
asbag67
(g88
g69
NtRp1220
(dp1221
g72
(dp1222
g99
g100
ssg81
g1211
sg74
(lp1223
S':'
asbag67
(g88
g69
NtRp1224
(dp1225
g72
(dp1226
sg81
g1211
sg74
(lp1227
g67
(g68
g69
NtRp1228
(dp1229
g72
(dp1230
g80
I4
ssg81
g1224
sg74
(lp1231
S'/places/default/'
p1232
asbasbasbag67
(g83
g69
NtRp1233
(dp1234
g72
(dp1235
sg81
g832
sg74
(lp1236
g67
(g88
g69
NtRp1237
(dp1238
g72
(dp1239
g92
g93
ssg81
g1233
sg74
(lp1240
S'query_string'
p1241
asbag67
(g88
g69
NtRp1242
(dp1243
g72
(dp1244
g99
g100
ssg81
g1233
sg74
(lp1245
S':'
asbag67
(g88
g69
NtRp1246
(dp1247
g72
(dp1248
sg81
g1233
sg74
(lp1249
g67
(g68
g69
NtRp1250
(dp1251
g72
(dp1252
g80
I4
ssg81
g1246
sg74
(lp1253
S''
asbasbasbag67
(g83
g69
NtRp1254
(dp1255
g72
(dp1256
sg81
g832
sg74
(lp1257
g67
(g88
g69
NtRp1258
(dp1259
g72
(dp1260
g92
g93
ssg81
g1254
sg74
(lp1261
S'remote_addr'
p1262
asbag67
(g88
g69
NtRp1263
(dp1264
g72
(dp1265
g99
g100
ssg81
g1254
sg74
(lp1266
S':'
asbag67
(g88
g69
NtRp1267
(dp1268
g72
(dp1269
sg81
g1254
sg74
(lp1270
g67
(g68
g69
NtRp1271
(dp1272
g72
(dp1273
g80
I4
ssg81
g1267
sg74
(lp1274
g200
asbasbasbag67
(g83
g69
NtRp1275
(dp1276
g72
(dp1277
sg81
g832
sg74
(lp1278
g67
(g88
g69
NtRp1279
(dp1280
g72
(dp1281
g92
g93
ssg81
g1275
sg74
(lp1282
S'remote_port'
p1283
asbag67
(g88
g69
NtRp1284
(dp1285
g72
(dp1286
g99
g100
ssg81
g1275
sg74
(lp1287
S':'
asbag67
(g88
g69
NtRp1288
(dp1289
g72
(dp1290
sg81
g1275
sg74
(lp1291
g67
(g68
g69
NtRp1292
(dp1293
g72
(dp1294
g80
I4
ssg81
g1288
sg74
(lp1295
S'57387'
p1296
asbasbasbag67
(g83
g69
NtRp1297
(dp1298
g72
(dp1299
sg81
g832
sg74
(lp1300
g67
(g88
g69
NtRp1301
(dp1302
g72
(dp1303
g92
g93
ssg81
g1297
sg74
(lp1304
S'request_method'
p1305
asbag67
(g88
g69
NtRp1306
(dp1307
g72
(dp1308
g99
g100
ssg81
g1297
sg74
(lp1309
S':'
asbag67
(g88
g69
NtRp1310
(dp1311
g72
(dp1312
sg81
g1297
sg74
(lp1313
g67
(g68
g69
NtRp1314
(dp1315
g72
(dp1316
g80
I4
ssg81
g1310
sg74
(lp1317
S'GET'
p1318
asbasbasbag67
(g83
g69
NtRp1319
(dp1320
g72
(dp1321
sg81
g832
sg74
(lp1322
g67
(g88
g69
NtRp1323
(dp1324
g72
(dp1325
g92
g93
ssg81
g1319
sg74
(lp1326
S'script_name'
p1327
asbag67
(g88
g69
NtRp1328
(dp1329
g72
(dp1330
g99
g100
ssg81
g1319
sg74
(lp1331
S':'
asbag67
(g88
g69
NtRp1332
(dp1333
g72
(dp1334
sg81
g1319
sg74
(lp1335
g67
(g68
g69
NtRp1336
(dp1337
g72
(dp1338
g80
I4
ssg81
g1332
sg74
(lp1339
S''
asbasbasbag67
(g83
g69
NtRp1340
(dp1341
g72
(dp1342
sg81
g832
sg74
(lp1343
g67
(g88
g69
NtRp1344
(dp1345
g72
(dp1346
g92
g93
ssg81
g1340
sg74
(lp1347
S'server_name'
p1348
asbag67
(g88
g69
NtRp1349
(dp1350
g72
(dp1351
g99
g100
ssg81
g1340
sg74
(lp1352
S':'
asbag67
(g88
g69
NtRp1353
(dp1354
g72
(dp1355
sg81
g1340
sg74
(lp1356
g67
(g68
g69
NtRp1357
(dp1358
g72
(dp1359
g80
I4
ssg81
g1353
sg74
(lp1360
S'Ariel-ubuntu'
p1361
asbasbasbag67
(g83
g69
NtRp1362
(dp1363
g72
(dp1364
sg81
g832
sg74
(lp1365
g67
(g88
g69
NtRp1366
(dp1367
g72
(dp1368
g92
g93
ssg81
g1362
sg74
(lp1369
S'server_port'
p1370
asbag67
(g88
g69
NtRp1371
(dp1372
g72
(dp1373
g99
g100
ssg81
g1362
sg74
(lp1374
S':'
asbag67
(g88
g69
NtRp1375
(dp1376
g72
(dp1377
sg81
g1362
sg74
(lp1378
g67
(g68
g69
NtRp1379
(dp1380
g72
(dp1381
g80
I4
ssg81
g1375
sg74
(lp1382
S'8000'
p1383
asbasbasbag67
(g83
g69
NtRp1384
(dp1385
g72
(dp1386
sg81
g832
sg74
(lp1387
g67
(g88
g69
NtRp1388
(dp1389
g72
(dp1390
g92
g93
ssg81
g1384
sg74
(lp1391
S'server_protocol'
p1392
asbag67
(g88
g69
NtRp1393
(dp1394
g72
(dp1395
g99
g100
ssg81
g1384
sg74
(lp1396
S':'
asbag67
(g88
g69
NtRp1397
(dp1398
g72
(dp1399
sg81
g1384
sg74
(lp1400
g67
(g68
g69
NtRp1401
(dp1402
g72
(dp1403
g80
I4
ssg81
g1397
sg74
(lp1404
S'HTTP/1.1'
p1405
asbasbasbag67
(g83
g69
NtRp1406
(dp1407
g72
(dp1408
sg81
g832
sg74
(lp1409
g67
(g88
g69
NtRp1410
(dp1411
g72
(dp1412
g92
g93
ssg81
g1406
sg74
(lp1413
S'server_software'
p1414
asbag67
(g88
g69
NtRp1415
(dp1416
g72
(dp1417
g99
g100
ssg81
g1406
sg74
(lp1418
S':'
asbag67
(g88
g69
NtRp1419
(dp1420
g72
(dp1421
sg81
g1406
sg74
(lp1422
g67
(g68
g69
NtRp1423
(dp1424
g72
(dp1425
g80
I4
ssg81
g1419
sg74
(lp1426
S'Rocket 1.2.4'
p1427
asbasbasbag67
(g83
g69
NtRp1428
(dp1429
g72
(dp1430
sg81
g832
sg74
(lp1431
g67
(g88
g69
NtRp1432
(dp1433
g72
(dp1434
g92
g93
ssg81
g1428
sg74
(lp1435
S'web2py_crontype'
p1436
asbag67
(g88
g69
NtRp1437
(dp1438
g72
(dp1439
g99
g100
ssg81
g1428
sg74
(lp1440
S':'
asbag67
(g88
g69
NtRp1441
(dp1442
g72
(dp1443
sg81
g1428
sg74
(lp1444
g67
(g68
g69
NtRp1445
(dp1446
g72
(dp1447
g80
I4
ssg81
g1441
sg74
(lp1448
S'hard'
p1449
asbasbasbag67
(g83
g69
NtRp1450
(dp1451
g72
(dp1452
sg81
g832
sg74
(lp1453
g67
(g88
g69
NtRp1454
(dp1455
g72
(dp1456
g92
g93
ssg81
g1450
sg74
(lp1457
S'web2py_path'
p1458
asbag67
(g88
g69
NtRp1459
(dp1460
g72
(dp1461
g99
g100
ssg81
g1450
sg74
(lp1462
S':'
asbag67
(g88
g69
NtRp1463
(dp1464
g72
(dp1465
sg81
g1450
sg74
(lp1466
g67
(g68
g69
NtRp1467
(dp1468
g72
(dp1469
g80
I4
ssg81
g1463
sg74
(lp1470
g879
asbasbasbag67
(g83
g69
NtRp1471
(dp1472
g72
(dp1473
sg81
g832
sg74
(lp1474
g67
(g88
g69
NtRp1475
(dp1476
g72
(dp1477
g92
g93
ssg81
g1471
sg74
(lp1478
S'web2py_version'
p1479
asbag67
(g88
g69
NtRp1480
(dp1481
g72
(dp1482
g99
g100
ssg81
g1471
sg74
(lp1483
S':'
asbag67
(g88
g69
NtRp1484
(dp1485
g72
(dp1486
sg81
g1471
sg74
(lp1487
g67
(g68
g69
NtRp1488
(dp1489
g72
(dp1490
g80
I4
ssg81
g1484
sg74
(lp1491
g67
(g76
g69
NtRp1492
(dp1493
g72
(dp1494
g80
I3
ssg81
Nsg74
(lp1495
g67
(g83
g69
NtRp1496
(dp1497
g72
(dp1498
sg81
g1492
sg74
(lp1499
g67
(g88
g69
NtRp1500
(dp1501
g72
(dp1502
sg81
g1496
sg74
(lp1503
g67
(g68
g69
NtRp1504
(dp1505
g72
(dp1506
g80
I3
ssg81
g1500
sg74
(lp1507
S'1'
asbasbasbag67
(g83
g69
NtRp1508
(dp1509
g72
(dp1510
sg81
g1492
sg74
(lp1511
g67
(g88
g69
NtRp1512
(dp1513
g72
(dp1514
sg81
g1508
sg74
(lp1515
g67
(g68
g69
NtRp1516
(dp1517
g72
(dp1518
g80
I3
ssg81
g1512
sg74
(lp1519
S'99'
p1520
asbasbasbag67
(g83
g69
NtRp1521
(dp1522
g72
(dp1523
sg81
g1492
sg74
(lp1524
g67
(g88
g69
NtRp1525
(dp1526
g72
(dp1527
sg81
g1521
sg74
(lp1528
g67
(g68
g69
NtRp1529
(dp1530
g72
(dp1531
g80
I3
ssg81
g1525
sg74
(lp1532
S'2'
asbasbasbag67
(g83
g69
NtRp1533
(dp1534
g72
(dp1535
sg81
g1492
sg74
(lp1536
g67
(g88
g69
NtRp1537
(dp1538
g72
(dp1539
sg81
g1533
sg74
(lp1540
g67
(g68
g69
NtRp1541
(dp1542
g72
(dp1543
g80
I3
ssg81
g1537
sg74
(lp1544
S'datetime.datetime(2011, 9, 26, 6, 55, 33)'
p1545
asbasbasbag67
(g83
g69
NtRp1546
(dp1547
g72
(dp1548
sg81
g1492
sg74
(lp1549
g67
(g88
g69
NtRp1550
(dp1551
g72
(dp1552
sg81
g1546
sg74
(lp1553
g67
(g68
g69
NtRp1554
(dp1555
g72
(dp1556
g80
I3
ssg81
g1550
sg74
(lp1557
S'stable'
p1558
asbasbasbasbasbasbasbag67
(g83
g69
NtRp1559
(dp1560
g72
(dp1561
sg81
g832
sg74
(lp1562
g67
(g88
g69
NtRp1563
(dp1564
g72
(dp1565
g92
g93
ssg81
g1559
sg74
(lp1566
S'wsgi_errors'
p1567
asbag67
(g88
g69
NtRp1568
(dp1569
g72
(dp1570
g99
g100
ssg81
g1559
sg74
(lp1571
S':'
asbag67
(g88
g69
NtRp1572
(dp1573
g72
(dp1574
sg81
g1559
sg74
(lp1575
g67
(g68
g69
NtRp1576
(dp1577
g72
(dp1578
g80
I4
ssg81
g1572
sg74
(lp1579
S"<open file '<stderr>', mode 'w' at 0x7f6d3a48b270>"
p1580
asbasbasbag67
(g83
g69
NtRp1581
(dp1582
g72
(dp1583
sg81
g832
sg74
(lp1584
g67
(g88
g69
NtRp1585
(dp1586
g72
(dp1587
g92
g93
ssg81
g1581
sg74
(lp1588
S'wsgi_file_wrapper'
p1589
asbag67
(g88
g69
NtRp1590
(dp1591
g72
(dp1592
g99
g100
ssg81
g1581
sg74
(lp1593
S':'
asbag67
(g88
g69
NtRp1594
(dp1595
g72
(dp1596
sg81
g1581
sg74
(lp1597
g67
(g68
g69
NtRp1598
(dp1599
g72
(dp1600
g80
I4
ssg81
g1594
sg74
(lp1601
S'<class wsgiref.util.FileWrapper at 0x25957a0>'
p1602
asbasbasbag67
(g83
g69
NtRp1603
(dp1604
g72
(dp1605
sg81
g832
sg74
(lp1606
g67
(g88
g69
NtRp1607
(dp1608
g72
(dp1609
g92
g93
ssg81
g1603
sg74
(lp1610
S'wsgi_input'
p1611
asbag67
(g88
g69
NtRp1612
(dp1613
g72
(dp1614
g99
g100
ssg81
g1603
sg74
(lp1615
S':'
asbag67
(g88
g69
NtRp1616
(dp1617
g72
(dp1618
sg81
g1603
sg74
(lp1619
g67
(g68
g69
NtRp1620
(dp1621
g72
(dp1622
g80
I4
ssg81
g1616
sg74
(lp1623
S'<socket._fileobject object at 0x3b14550>'
p1624
asbasbasbag67
(g83
g69
NtRp1625
(dp1626
g72
(dp1627
sg81
g832
sg74
(lp1628
g67
(g88
g69
NtRp1629
(dp1630
g72
(dp1631
g92
g93
ssg81
g1625
sg74
(lp1632
S'wsgi_multiprocess'
p1633
asbag67
(g88
g69
NtRp1634
(dp1635
g72
(dp1636
g99
g100
ssg81
g1625
sg74
(lp1637
S':'
asbag67
(g88
g69
NtRp1638
(dp1639
g72
(dp1640
sg81
g1625
sg74
(lp1641
g67
(g68
g69
NtRp1642
(dp1643
g72
(dp1644
g80
I4
ssg81
g1638
sg74
(lp1645
g110
asbasbasbag67
(g83
g69
NtRp1646
(dp1647
g72
(dp1648
sg81
g832
sg74
(lp1649
g67
(g88
g69
NtRp1650
(dp1651
g72
(dp1652
g92
g93
ssg81
g1646
sg74
(lp1653
S'wsgi_multithread'
p1654
asbag67
(g88
g69
NtRp1655
(dp1656
g72
(dp1657
g99
g100
ssg81
g1646
sg74
(lp1658
S':'
asbag67
(g88
g69
NtRp1659
(dp1660
g72
(dp1661
sg81
g1646
sg74
(lp1662
g67
(g68
g69
NtRp1663
(dp1664
g72
(dp1665
g80
I4
ssg81
g1659
sg74
(lp1666
S'True'
p1667
asbasbasbag67
(g83
g69
NtRp1668
(dp1669
g72
(dp1670
sg81
g832
sg74
(lp1671
g67
(g88
g69
NtRp1672
(dp1673
g72
(dp1674
g92
g93
ssg81
g1668
sg74
(lp1675
S'wsgi_run_once'
p1676
asbag67
(g88
g69
NtRp1677
(dp1678
g72
(dp1679
g99
g100
ssg81
g1668
sg74
(lp1680
S':'
asbag67
(g88
g69
NtRp1681
(dp1682
g72
(dp1683
sg81
g1668
sg74
(lp1684
g67
(g68
g69
NtRp1685
(dp1686
g72
(dp1687
g80
I4
ssg81
g1681
sg74
(lp1688
g110
asbasbasbag67
(g83
g69
NtRp1689
(dp1690
g72
(dp1691
sg81
g832
sg74
(lp1692
g67
(g88
g69
NtRp1693
(dp1694
g72
(dp1695
g92
g93
ssg81
g1689
sg74
(lp1696
S'wsgi_url_scheme'
p1697
asbag67
(g88
g69
NtRp1698
(dp1699
g72
(dp1700
g99
g100
ssg81
g1689
sg74
(lp1701
S':'
asbag67
(g88
g69
NtRp1702
(dp1703
g72
(dp1704
sg81
g1689
sg74
(lp1705
g67
(g68
g69
NtRp1706
(dp1707
g72
(dp1708
g80
I4
ssg81
g1702
sg74
(lp1709
S'http'
p1710
asbasbasbag67
(g83
g69
NtRp1711
(dp1712
g72
(dp1713
sg81
g832
sg74
(lp1714
g67
(g88
g69
NtRp1715
(dp1716
g72
(dp1717
g92
g93
ssg81
g1711
sg74
(lp1718
S'wsgi_version'
p1719
asbag67
(g88
g69
NtRp1720
(dp1721
g72
(dp1722
g99
g100
ssg81
g1711
sg74
(lp1723
S':'
asbag67
(g88
g69
NtRp1724
(dp1725
g72
(dp1726
sg81
g1711
sg74
(lp1727
g67
(g68
g69
NtRp1728
(dp1729
g72
(dp1730
g80
I4
ssg81
g1724
sg74
(lp1731
g67
(g76
g69
NtRp1732
(dp1733
g72
(dp1734
g80
I3
ssg81
Nsg74
(lp1735
g67
(g83
g69
NtRp1736
(dp1737
g72
(dp1738
sg81
g1732
sg74
(lp1739
g67
(g88
g69
NtRp1740
(dp1741
g72
(dp1742
sg81
g1736
sg74
(lp1743
g67
(g68
g69
NtRp1744
(dp1745
g72
(dp1746
g80
I3
ssg81
g1740
sg74
(lp1747
S'1'
asbasbasbag67
(g83
g69
NtRp1748
(dp1749
g72
(dp1750
sg81
g1732
sg74
(lp1751
g67
(g88
g69
NtRp1752
(dp1753
g72
(dp1754
sg81
g1748
sg74
(lp1755
g67
(g68
g69
NtRp1756
(dp1757
g72
(dp1758
g80
I3
ssg81
g1752
sg74
(lp1759
S'0'
asbasbasbasbasbasbasbasbasbasbasbag67
(g83
g69
NtRp1760
(dp1761
g72
(dp1762
sg81
g77
sg74
(lp1763
g67
(g88
g69
NtRp1764
(dp1765
g72
(dp1766
g92
g93
ssg81
g1760
sg74
(lp1767
S'extension'
p1768
asbag67
(g88
g69
NtRp1769
(dp1770
g72
(dp1771
g99
g100
ssg81
g1760
sg74
(lp1772
S':'
asbag67
(g88
g69
NtRp1773
(dp1774
g72
(dp1775
sg81
g1760
sg74
(lp1776
g67
(g68
g69
NtRp1777
(dp1778
g72
(dp1779
g80
I5
ssg81
g1773
sg74
(lp1780
S'html'
p1781
asbasbasbag67
(g83
g69
NtRp1782
(dp1783
g72
(dp1784
sg81
g77
sg74
(lp1785
g67
(g88
g69
NtRp1786
(dp1787
g72
(dp1788
g92
g93
ssg81
g1782
sg74
(lp1789
S'folder'
p1790
asbag67
(g88
g69
NtRp1791
(dp1792
g72
(dp1793
g99
g100
ssg81
g1782
sg74
(lp1794
S':'
asbag67
(g88
g69
NtRp1795
(dp1796
g72
(dp1797
sg81
g1782
sg74
(lp1798
g67
(g68
g69
NtRp1799
(dp1800
g72
(dp1801
g80
I5
ssg81
g1795
sg74
(lp1802
S'/home/ian/web2py/applications/places/'
p1803
asbasbasbag67
(g83
g69
NtRp1804
(dp1805
g72
(dp1806
sg81
g77
sg74
(lp1807
g67
(g88
g69
NtRp1808
(dp1809
g72
(dp1810
g92
g93
ssg81
g1804
sg74
(lp1811
S'function'
p1812
asbag67
(g88
g69
NtRp1813
(dp1814
g72
(dp1815
g99
g100
ssg81
g1804
sg74
(lp1816
S':'
asbag67
(g88
g69
NtRp1817
(dp1818
g72
(dp1819
sg81
g1804
sg74
(lp1820
g67
(g68
g69
NtRp1821
(dp1822
g72
(dp1823
g80
I5
ssg81
g1817
sg74
(lp1824
S'index'
p1825
asbasbasbag67
(g83
g69
NtRp1826
(dp1827
g72
(dp1828
sg81
g77
sg74
(lp1829
g67
(g88
g69
NtRp1830
(dp1831
g72
(dp1832
g92
g93
ssg81
g1826
sg74
(lp1833
S'get_vars'
p1834
asbag67
(g88
g69
NtRp1835
(dp1836
g72
(dp1837
g99
g100
ssg81
g1826
sg74
(lp1838
S':'
asbag67
(g88
g69
NtRp1839
(dp1840
g72
(dp1841
sg81
g1826
sg74
(lp1842
g67
(g68
g69
NtRp1843
(dp1844
g72
(dp1845
g80
I5
ssg81
g1839
sg74
(lp1846
g67
(g76
g69
NtRp1847
(dp1848
g72
(dp1849
g80
I4
ssg81
Nsg74
(lp1850
sbasbasbasbag67
(g83
g69
NtRp1851
(dp1852
g72
(dp1853
sg81
g77
sg74
(lp1854
g67
(g88
g69
NtRp1855
(dp1856
g72
(dp1857
g92
g93
ssg81
g1851
sg74
(lp1858
S'global_settings'
p1859
asbag67
(g88
g69
NtRp1860
(dp1861
g72
(dp1862
g99
g100
ssg81
g1851
sg74
(lp1863
S':'
asbag67
(g88
g69
NtRp1864
(dp1865
g72
(dp1866
sg81
g1851
sg74
(lp1867
g67
(g68
g69
NtRp1868
(dp1869
g72
(dp1870
g80
I5
ssg81
g1864
sg74
(lp1871
g67
(g76
g69
NtRp1872
(dp1873
g72
(dp1874
g80
I4
ssg81
Nsg74
(lp1875
g67
(g83
g69
NtRp1876
(dp1877
g72
(dp1878
sg81
g1872
sg74
(lp1879
g67
(g88
g69
NtRp1880
(dp1881
g72
(dp1882
g92
g93
ssg81
g1876
sg74
(lp1883
g844
asbag67
(g88
g69
NtRp1884
(dp1885
g72
(dp1886
g99
g100
ssg81
g1876
sg74
(lp1887
S':'
asbag67
(g88
g69
NtRp1888
(dp1889
g72
(dp1890
sg81
g1876
sg74
(lp1891
g67
(g68
g69
NtRp1892
(dp1893
g72
(dp1894
g80
I4
ssg81
g1888
sg74
(lp1895
S"set(['/home/ian/web2py/applications/welcome/', '/home/ian/web2py/applications/places/', '/home/ian/web2py/applications/admin/'])"
p1896
asbasbasbag67
(g83
g69
NtRp1897
(dp1898
g72
(dp1899
sg81
g1872
sg74
(lp1900
g67
(g88
g69
NtRp1901
(dp1902
g72
(dp1903
g92
g93
ssg81
g1897
sg74
(lp1904
g866
asbag67
(g88
g69
NtRp1905
(dp1906
g72
(dp1907
g99
g100
ssg81
g1897
sg74
(lp1908
S':'
asbag67
(g88
g69
NtRp1909
(dp1910
g72
(dp1911
sg81
g1897
sg74
(lp1912
g67
(g68
g69
NtRp1913
(dp1914
g72
(dp1915
g80
I4
ssg81
g1909
sg74
(lp1916
g879
asbasbasbag67
(g83
g69
NtRp1917
(dp1918
g72
(dp1919
sg81
g1872
sg74
(lp1920
g67
(g88
g69
NtRp1921
(dp1922
g72
(dp1923
g92
g93
ssg81
g1917
sg74
(lp1924
g888
asbag67
(g88
g69
NtRp1925
(dp1926
g72
(dp1927
g99
g100
ssg81
g1917
sg74
(lp1928
S':'
asbag67
(g88
g69
NtRp1929
(dp1930
g72
(dp1931
sg81
g1917
sg74
(lp1932
g67
(g68
g69
NtRp1933
(dp1934
g72
(dp1935
g80
I4
ssg81
g1929
sg74
(lp1936
g67
(g76
g69
NtRp1937
(dp1938
g72
(dp1939
g80
I3
ssg81
Nsg74
(lp1940
sbasbasbasbag67
(g83
g69
NtRp1941
(dp1942
g72
(dp1943
sg81
g1872
sg74
(lp1944
g67
(g88
g69
NtRp1945
(dp1946
g72
(dp1947
g92
g93
ssg81
g1941
sg74
(lp1948
g913
asbag67
(g88
g69
NtRp1949
(dp1950
g72
(dp1951
g99
g100
ssg81
g1941
sg74
(lp1952
S':'
asbag67
(g88
g69
NtRp1953
(dp1954
g72
(dp1955
sg81
g1941
sg74
(lp1956
g67
(g68
g69
NtRp1957
(dp1958
g72
(dp1959
g80
I4
ssg81
g1953
sg74
(lp1960
S"<Values at 0x26ccbd8: {'verbose': False, 'ip': '127.0.0.1', 'shutdown_timeout': 5, 'taskbar': False, 'nocron': False, 'pid_filename': 'httpserver.pid', 'maxthreads': None, 'softcron': False, 'server_name': 'Ariel-ubuntu', 'bpython': False, 'nogui': False, 'port': 8000, 'extcron': False, 'debuglevel': 30, 'test': None, 'folder': '/home/ian/web2py', 'config': '', 'import_models': False, 'winservice': '', 'shell': None, 'run': '', 'log_filename': 'httpserver.log', 'args': [''], 'ssl_ca_certificate': None, 'scheduler': None, 'profiler_filename': None, 'ssl_private_key': '', 'password': '<ask>', 'request_queue_size': 5, 'ssl_certificate': '', 'cronjob': False, 'plain': False, 'quiet': False, 'interfaces': None, 'minthreads': None, 'timeout': 10, 'numthreads': None, 'nobanner': False}>"
p1961
asbasbasbag67
(g83
g69
NtRp1962
(dp1963
g72
(dp1964
sg81
g1872
sg74
(lp1965
g67
(g88
g69
NtRp1966
(dp1967
g72
(dp1968
g92
g93
ssg81
g1962
sg74
(lp1969
g935
asbag67
(g88
g69
NtRp1970
(dp1971
g72
(dp1972
g99
g100
ssg81
g1962
sg74
(lp1973
S':'
asbag67
(g88
g69
NtRp1974
(dp1975
g72
(dp1976
sg81
g1962
sg74
(lp1977
g67
(g68
g69
NtRp1978
(dp1979
g72
(dp1980
g80
I4
ssg81
g1974
sg74
(lp1981
S'set([])'
p1982
asbasbasbag67
(g83
g69
NtRp1983
(dp1984
g72
(dp1985
sg81
g1872
sg74
(lp1986
g67
(g88
g69
NtRp1987
(dp1988
g72
(dp1989
g92
g93
ssg81
g1983
sg74
(lp1990
g957
asbag67
(g88
g69
NtRp1991
(dp1992
g72
(dp1993
g99
g100
ssg81
g1983
sg74
(lp1994
S':'
asbag67
(g88
g69
NtRp1995
(dp1996
g72
(dp1997
sg81
g1983
sg74
(lp1998
g67
(g68
g69
NtRp1999
(dp2000
g72
(dp2001
g80
I4
ssg81
g1995
sg74
(lp2002
g110
asbasbasbag67
(g83
g69
NtRp2003
(dp2004
g72
(dp2005
sg81
g1872
sg74
(lp2006
g67
(g88
g69
NtRp2007
(dp2008
g72
(dp2009
g92
g93
ssg81
g2003
sg74
(lp2010
g978
asbag67
(g88
g69
NtRp2011
(dp2012
g72
(dp2013
g99
g100
ssg81
g2003
sg74
(lp2014
S':'
asbag67
(g88
g69
NtRp2015
(dp2016
g72
(dp2017
sg81
g2003
sg74
(lp2018
g67
(g68
g69
NtRp2019
(dp2020
g72
(dp2021
g80
I4
ssg81
g2015
sg74
(lp2022
g991
asbasbasbag67
(g83
g69
NtRp2023
(dp2024
g72
(dp2025
sg81
g1872
sg74
(lp2026
g67
(g88
g69
NtRp2027
(dp2028
g72
(dp2029
g92
g93
ssg81
g2023
sg74
(lp2030
g1198
asbag67
(g88
g69
NtRp2031
(dp2032
g72
(dp2033
g99
g100
ssg81
g2023
sg74
(lp2034
S':'
asbag67
(g88
g69
NtRp2035
(dp2036
g72
(dp2037
sg81
g2023
sg74
(lp2038
g67
(g68
g69
NtRp2039
(dp2040
g72
(dp2041
g80
I4
ssg81
g2035
sg74
(lp2042
g110
asbasbasbag67
(g83
g69
NtRp2043
(dp2044
g72
(dp2045
sg81
g1872
sg74
(lp2046
g67
(g88
g69
NtRp2047
(dp2048
g72
(dp2049
g92
g93
ssg81
g2043
sg74
(lp2050
g1436
asbag67
(g88
g69
NtRp2051
(dp2052
g72
(dp2053
g99
g100
ssg81
g2043
sg74
(lp2054
S':'
asbag67
(g88
g69
NtRp2055
(dp2056
g72
(dp2057
sg81
g2043
sg74
(lp2058
g67
(g68
g69
NtRp2059
(dp2060
g72
(dp2061
g80
I4
ssg81
g2055
sg74
(lp2062
g1449
asbasbasbag67
(g83
g69
NtRp2063
(dp2064
g72
(dp2065
sg81
g1872
sg74
(lp2066
g67
(g88
g69
NtRp2067
(dp2068
g72
(dp2069
g92
g93
ssg81
g2063
sg74
(lp2070
g1479
asbag67
(g88
g69
NtRp2071
(dp2072
g72
(dp2073
g99
g100
ssg81
g2063
sg74
(lp2074
S':'
asbag67
(g88
g69
NtRp2075
(dp2076
g72
(dp2077
sg81
g2063
sg74
(lp2078
g67
(g68
g69
NtRp2079
(dp2080
g72
(dp2081
g80
I4
ssg81
g2075
sg74
(lp2082
g67
(g76
g69
NtRp2083
(dp2084
g72
(dp2085
g80
I3
ssg81
Nsg74
(lp2086
g67
(g83
g69
NtRp2087
(dp2088
g72
(dp2089
sg81
g2083
sg74
(lp2090
g67
(g88
g69
NtRp2091
(dp2092
g72
(dp2093
sg81
g2087
sg74
(lp2094
g67
(g68
g69
NtRp2095
(dp2096
g72
(dp2097
g80
I3
ssg81
g2091
sg74
(lp2098
S'1'
asbasbasbag67
(g83
g69
NtRp2099
(dp2100
g72
(dp2101
sg81
g2083
sg74
(lp2102
g67
(g88
g69
NtRp2103
(dp2104
g72
(dp2105
sg81
g2099
sg74
(lp2106
g67
(g68
g69
NtRp2107
(dp2108
g72
(dp2109
g80
I3
ssg81
g2103
sg74
(lp2110
S'99'
p2111
asbasbasbag67
(g83
g69
NtRp2112
(dp2113
g72
(dp2114
sg81
g2083
sg74
(lp2115
g67
(g88
g69
NtRp2116
(dp2117
g72
(dp2118
sg81
g2112
sg74
(lp2119
g67
(g68
g69
NtRp2120
(dp2121
g72
(dp2122
g80
I3
ssg81
g2116
sg74
(lp2123
S'2'
asbasbasbag67
(g83
g69
NtRp2124
(dp2125
g72
(dp2126
sg81
g2083
sg74
(lp2127
g67
(g88
g69
NtRp2128
(dp2129
g72
(dp2130
sg81
g2124
sg74
(lp2131
g67
(g68
g69
NtRp2132
(dp2133
g72
(dp2134
g80
I3
ssg81
g2128
sg74
(lp2135
S'datetime.datetime(2011, 9, 26, 6, 55, 33)'
p2136
asbasbasbag67
(g83
g69
NtRp2137
(dp2138
g72
(dp2139
sg81
g2083
sg74
(lp2140
g67
(g88
g69
NtRp2141
(dp2142
g72
(dp2143
sg81
g2137
sg74
(lp2144
g67
(g68
g69
NtRp2145
(dp2146
g72
(dp2147
g80
I3
ssg81
g2141
sg74
(lp2148
g1558
asbasbasbasbasbasbasbasbasbasbasbag67
(g83
g69
NtRp2149
(dp2150
g72
(dp2151
sg81
g77
sg74
(lp2152
g67
(g88
g69
NtRp2153
(dp2154
g72
(dp2155
g92
g93
ssg81
g2149
sg74
(lp2156
S'is_https'
p2157
asbag67
(g88
g69
NtRp2158
(dp2159
g72
(dp2160
g99
g100
ssg81
g2149
sg74
(lp2161
S':'
asbag67
(g88
g69
NtRp2162
(dp2163
g72
(dp2164
sg81
g2149
sg74
(lp2165
g67
(g68
g69
NtRp2166
(dp2167
g72
(dp2168
g80
I5
ssg81
g2162
sg74
(lp2169
g110
asbasbasbag67
(g83
g69
NtRp2170
(dp2171
g72
(dp2172
sg81
g77
sg74
(lp2173
g67
(g88
g69
NtRp2174
(dp2175
g72
(dp2176
g92
g93
ssg81
g2170
sg74
(lp2177
S'is_local'
p2178
asbag67
(g88
g69
NtRp2179
(dp2180
g72
(dp2181
g99
g100
ssg81
g2170
sg74
(lp2182
S':'
asbag67
(g88
g69
NtRp2183
(dp2184
g72
(dp2185
sg81
g2170
sg74
(lp2186
g67
(g68
g69
NtRp2187
(dp2188
g72
(dp2189
g80
I5
ssg81
g2183
sg74
(lp2190
g1667
asbasbasbag67
(g83
g69
NtRp2191
(dp2192
g72
(dp2193
sg81
g77
sg74
(lp2194
g67
(g88
g69
NtRp2195
(dp2196
g72
(dp2197
g92
g93
ssg81
g2191
sg74
(lp2198
S'is_restful'
p2199
asbag67
(g88
g69
NtRp2200
(dp2201
g72
(dp2202
g99
g100
ssg81
g2191
sg74
(lp2203
S':'
asbag67
(g88
g69
NtRp2204
(dp2205
g72
(dp2206
sg81
g2191
sg74
(lp2207
g67
(g68
g69
NtRp2208
(dp2209
g72
(dp2210
g80
I5
ssg81
g2204
sg74
(lp2211
g110
asbasbasbag67
(g83
g69
NtRp2212
(dp2213
g72
(dp2214
sg81
g77
sg74
(lp2215
g67
(g88
g69
NtRp2216
(dp2217
g72
(dp2218
g92
g93
ssg81
g2212
sg74
(lp2219
S'now'
p2220
asbag67
(g88
g69
NtRp2221
(dp2222
g72
(dp2223
g99
g100
ssg81
g2212
sg74
(lp2224
S':'
asbag67
(g88
g69
NtRp2225
(dp2226
g72
(dp2227
sg81
g2212
sg74
(lp2228
g67
(g68
g69
NtRp2229
(dp2230
g72
(dp2231
g80
I5
ssg81
g2225
sg74
(lp2232
S'datetime.datetime(2011, 10, 2, 20, 44, 38, 296780)'
p2233
asbasbasbag67
(g83
g69
NtRp2234
(dp2235
g72
(dp2236
sg81
g77
sg74
(lp2237
g67
(g88
g69
NtRp2238
(dp2239
g72
(dp2240
g92
g93
ssg81
g2234
sg74
(lp2241
S'post_vars'
p2242
asbag67
(g88
g69
NtRp2243
(dp2244
g72
(dp2245
g99
g100
ssg81
g2234
sg74
(lp2246
S':'
asbag67
(g88
g69
NtRp2247
(dp2248
g72
(dp2249
sg81
g2234
sg74
(lp2250
g67
(g68
g69
NtRp2251
(dp2252
g72
(dp2253
g80
I5
ssg81
g2247
sg74
(lp2254
g67
(g76
g69
NtRp2255
(dp2256
g72
(dp2257
g80
I4
ssg81
Nsg74
(lp2258
sbasbasbasbag67
(g83
g69
NtRp2259
(dp2260
g72
(dp2261
sg81
g77
sg74
(lp2262
g67
(g88
g69
NtRp2263
(dp2264
g72
(dp2265
g92
g93
ssg81
g2259
sg74
(lp2266
S'url'
p2267
asbag67
(g88
g69
NtRp2268
(dp2269
g72
(dp2270
g99
g100
ssg81
g2259
sg74
(lp2271
S':'
asbag67
(g88
g69
NtRp2272
(dp2273
g72
(dp2274
sg81
g2259
sg74
(lp2275
g67
(g68
g69
NtRp2276
(dp2277
g72
(dp2278
g80
I5
ssg81
g2272
sg74
(lp2279
S'/places/default/index'
p2280
asbasbasbag67
(g83
g69
NtRp2281
(dp2282
g72
(dp2283
sg81
g77
sg74
(lp2284
g67
(g88
g69
NtRp2285
(dp2286
g72
(dp2287
g92
g93
ssg81
g2281
sg74
(lp2288
S'utcnow'
p2289
asbag67
(g88
g69
NtRp2290
(dp2291
g72
(dp2292
g99
g100
ssg81
g2281
sg74
(lp2293
S':'
asbag67
(g88
g69
NtRp2294
(dp2295
g72
(dp2296
sg81
g2281
sg74
(lp2297
g67
(g68
g69
NtRp2298
(dp2299
g72
(dp2300
g80
I5
ssg81
g2294
sg74
(lp2301
S'datetime.datetime(2011, 10, 3, 0, 44, 38, 296832)'
p2302
asbasbasbag67
(g83
g69
NtRp2303
(dp2304
g72
(dp2305
sg81
g77
sg74
(lp2306
g67
(g88
g69
NtRp2307
(dp2308
g72
(dp2309
g92
g93
ssg81
g2303
sg74
(lp2310
S'uuid'
p2311
asbag67
(g88
g69
NtRp2312
(dp2313
g72
(dp2314
g99
g100
ssg81
g2303
sg74
(lp2315
S':'
asbag67
(g88
g69
NtRp2316
(dp2317
g72
(dp2318
sg81
g2303
sg74
(lp2319
g67
(g68
g69
NtRp2320
(dp2321
g72
(dp2322
g80
I5
ssg81
g2316
sg74
(lp2323
S'places/127.0.0.1.2011-10-02.20-44-38.78cc94f2-57c9-4106-a229-8209bbdbb174'
p2324
asbasbasbag67
(g83
g69
NtRp2325
(dp2326
g72
(dp2327
sg81
g77
sg74
(lp2328
g67
(g88
g69
NtRp2329
(dp2330
g72
(dp2331
g92
g93
ssg81
g2325
sg74
(lp2332
S'vars'
p2333
asbag67
(g88
g69
NtRp2334
(dp2335
g72
(dp2336
g99
g100
ssg81
g2325
sg74
(lp2337
S':'
asbag67
(g88
g69
NtRp2338
(dp2339
g72
(dp2340
sg81
g2325
sg74
(lp2341
g67
(g68
g69
NtRp2342
(dp2343
g72
(dp2344
g80
I5
ssg81
g2338
sg74
(lp2345
g67
(g76
g69
NtRp2346
(dp2347
g72
(dp2348
g80
I4
ssg81
Nsg74
(lp2349
sbasbasbasbag67
(g83
g69
NtRp2350
(dp2351
g72
(dp2352
sg81
g77
sg74
(lp2353
g67
(g88
g69
NtRp2354
(dp2355
g72
(dp2356
g92
g93
ssg81
g2350
sg74
(lp2357
S'wsgi'
p2358
asbag67
(g88
g69
NtRp2359
(dp2360
g72
(dp2361
g99
g100
ssg81
g2350
sg74
(lp2362
S':'
asbag67
(g88
g69
NtRp2363
(dp2364
g72
(dp2365
sg81
g2350
sg74
(lp2366
g67
(g68
g69
NtRp2367
(dp2368
g72
(dp2369
g80
I5
ssg81
g2363
sg74
(lp2370
g67
(g76
g69
NtRp2371
(dp2372
g72
(dp2373
g80
I4
ssg81
Nsg74
(lp2374
g67
(g83
g69
NtRp2375
(dp2376
g72
(dp2377
sg81
g2371
sg74
(lp2378
g67
(g88
g69
NtRp2379
(dp2380
g72
(dp2381
g92
g93
ssg81
g2375
sg74
(lp2382
S'environ'
p2383
asbag67
(g88
g69
NtRp2384
(dp2385
g72
(dp2386
g99
g100
ssg81
g2375
sg74
(lp2387
S':'
asbag67
(g88
g69
NtRp2388
(dp2389
g72
(dp2390
sg81
g2375
sg74
(lp2391
g67
(g68
g69
NtRp2392
(dp2393
g72
(dp2394
g80
I4
ssg81
g2388
sg74
(lp2395
g67
(g76
g69
NtRp2396
(dp2397
g72
(dp2398
g80
I3
ssg81
Nsg74
(lp2399
g67
(g83
g69
NtRp2400
(dp2401
g72
(dp2402
sg81
g2396
sg74
(lp2403
g67
(g88
g69
NtRp2404
(dp2405
g72
(dp2406
g92
g93
ssg81
g2400
sg74
(lp2407
S'HTTP_ACCEPT'
p2408
asbag67
(g88
g69
NtRp2409
(dp2410
g72
(dp2411
g99
g100
ssg81
g2400
sg74
(lp2412
S':'
asbag67
(g88
g69
NtRp2413
(dp2414
g72
(dp2415
sg81
g2400
sg74
(lp2416
g67
(g68
g69
NtRp2417
(dp2418
g72
(dp2419
g80
I3
ssg81
g2413
sg74
(lp2420
g1013
asbasbasbag67
(g83
g69
NtRp2421
(dp2422
g72
(dp2423
sg81
g2396
sg74
(lp2424
g67
(g88
g69
NtRp2425
(dp2426
g72
(dp2427
g92
g93
ssg81
g2421
sg74
(lp2428
S'HTTP_ACCEPT_CHARSET'
p2429
asbag67
(g88
g69
NtRp2430
(dp2431
g72
(dp2432
g99
g100
ssg81
g2421
sg74
(lp2433
S':'
asbag67
(g88
g69
NtRp2434
(dp2435
g72
(dp2436
sg81
g2421
sg74
(lp2437
g67
(g68
g69
NtRp2438
(dp2439
g72
(dp2440
g80
I3
ssg81
g2434
sg74
(lp2441
g1035
asbasbasbag67
(g83
g69
NtRp2442
(dp2443
g72
(dp2444
sg81
g2396
sg74
(lp2445
g67
(g88
g69
NtRp2446
(dp2447
g72
(dp2448
g92
g93
ssg81
g2442
sg74
(lp2449
S'HTTP_ACCEPT_ENCODING'
p2450
asbag67
(g88
g69
NtRp2451
(dp2452
g72
(dp2453
g99
g100
ssg81
g2442
sg74
(lp2454
S':'
asbag67
(g88
g69
NtRp2455
(dp2456
g72
(dp2457
sg81
g2442
sg74
(lp2458
g67
(g68
g69
NtRp2459
(dp2460
g72
(dp2461
g80
I3
ssg81
g2455
sg74
(lp2462
g1057
asbasbasbag67
(g83
g69
NtRp2463
(dp2464
g72
(dp2465
sg81
g2396
sg74
(lp2466
g67
(g88
g69
NtRp2467
(dp2468
g72
(dp2469
g92
g93
ssg81
g2463
sg74
(lp2470
S'HTTP_ACCEPT_LANGUAGE'
p2471
asbag67
(g88
g69
NtRp2472
(dp2473
g72
(dp2474
g99
g100
ssg81
g2463
sg74
(lp2475
S':'
asbag67
(g88
g69
NtRp2476
(dp2477
g72
(dp2478
sg81
g2463
sg74
(lp2479
g67
(g68
g69
NtRp2480
(dp2481
g72
(dp2482
g80
I3
ssg81
g2476
sg74
(lp2483
g1079
asbasbasbag67
(g83
g69
NtRp2484
(dp2485
g72
(dp2486
sg81
g2396
sg74
(lp2487
g67
(g88
g69
NtRp2488
(dp2489
g72
(dp2490
g92
g93
ssg81
g2484
sg74
(lp2491
S'HTTP_CACHE_CONTROL'
p2492
asbag67
(g88
g69
NtRp2493
(dp2494
g72
(dp2495
g99
g100
ssg81
g2484
sg74
(lp2496
S':'
asbag67
(g88
g69
NtRp2497
(dp2498
g72
(dp2499
sg81
g2484
sg74
(lp2500
g67
(g68
g69
NtRp2501
(dp2502
g72
(dp2503
g80
I3
ssg81
g2497
sg74
(lp2504
g1101
asbasbasbag67
(g83
g69
NtRp2505
(dp2506
g72
(dp2507
sg81
g2396
sg74
(lp2508
g67
(g88
g69
NtRp2509
(dp2510
g72
(dp2511
g92
g93
ssg81
g2505
sg74
(lp2512
S'HTTP_CONNECTION'
p2513
asbag67
(g88
g69
NtRp2514
(dp2515
g72
(dp2516
g99
g100
ssg81
g2505
sg74
(lp2517
S':'
asbag67
(g88
g69
NtRp2518
(dp2519
g72
(dp2520
sg81
g2505
sg74
(lp2521
g67
(g68
g69
NtRp2522
(dp2523
g72
(dp2524
g80
I3
ssg81
g2518
sg74
(lp2525
g1123
asbasbasbag67
(g83
g69
NtRp2526
(dp2527
g72
(dp2528
sg81
g2396
sg74
(lp2529
g67
(g88
g69
NtRp2530
(dp2531
g72
(dp2532
g92
g93
ssg81
g2526
sg74
(lp2533
S'HTTP_COOKIE'
p2534
asbag67
(g88
g69
NtRp2535
(dp2536
g72
(dp2537
g99
g100
ssg81
g2526
sg74
(lp2538
S':'
asbag67
(g88
g69
NtRp2539
(dp2540
g72
(dp2541
sg81
g2526
sg74
(lp2542
g67
(g68
g69
NtRp2543
(dp2544
g72
(dp2545
g80
I3
ssg81
g2539
sg74
(lp2546
g1145
asbasbasbag67
(g83
g69
NtRp2547
(dp2548
g72
(dp2549
sg81
g2396
sg74
(lp2550
g67
(g88
g69
NtRp2551
(dp2552
g72
(dp2553
g92
g93
ssg81
g2547
sg74
(lp2554
S'HTTP_HOST'
p2555
asbag67
(g88
g69
NtRp2556
(dp2557
g72
(dp2558
g99
g100
ssg81
g2547
sg74
(lp2559
S':'
asbag67
(g88
g69
NtRp2560
(dp2561
g72
(dp2562
sg81
g2547
sg74
(lp2563
g67
(g68
g69
NtRp2564
(dp2565
g72
(dp2566
g80
I3
ssg81
g2560
sg74
(lp2567
g1167
asbasbasbag67
(g83
g69
NtRp2568
(dp2569
g72
(dp2570
sg81
g2396
sg74
(lp2571
g67
(g88
g69
NtRp2572
(dp2573
g72
(dp2574
g92
g93
ssg81
g2568
sg74
(lp2575
S'HTTP_USER_AGENT'
p2576
asbag67
(g88
g69
NtRp2577
(dp2578
g72
(dp2579
g99
g100
ssg81
g2568
sg74
(lp2580
S':'
asbag67
(g88
g69
NtRp2581
(dp2582
g72
(dp2583
sg81
g2568
sg74
(lp2584
g67
(g68
g69
NtRp2585
(dp2586
g72
(dp2587
g80
I3
ssg81
g2581
sg74
(lp2588
g1189
asbasbasbag67
(g83
g69
NtRp2589
(dp2590
g72
(dp2591
sg81
g2396
sg74
(lp2592
g67
(g88
g69
NtRp2593
(dp2594
g72
(dp2595
g92
g93
ssg81
g2589
sg74
(lp2596
S'PATH_INFO'
p2597
asbag67
(g88
g69
NtRp2598
(dp2599
g72
(dp2600
g99
g100
ssg81
g2589
sg74
(lp2601
S':'
asbag67
(g88
g69
NtRp2602
(dp2603
g72
(dp2604
sg81
g2589
sg74
(lp2605
g67
(g68
g69
NtRp2606
(dp2607
g72
(dp2608
g80
I3
ssg81
g2602
sg74
(lp2609
g1232
asbasbasbag67
(g83
g69
NtRp2610
(dp2611
g72
(dp2612
sg81
g2396
sg74
(lp2613
g67
(g88
g69
NtRp2614
(dp2615
g72
(dp2616
g92
g93
ssg81
g2610
sg74
(lp2617
S'QUERY_STRING'
p2618
asbag67
(g88
g69
NtRp2619
(dp2620
g72
(dp2621
g99
g100
ssg81
g2610
sg74
(lp2622
S':'
asbag67
(g88
g69
NtRp2623
(dp2624
g72
(dp2625
sg81
g2610
sg74
(lp2626
g67
(g68
g69
NtRp2627
(dp2628
g72
(dp2629
g80
I3
ssg81
g2623
sg74
(lp2630
S''
asbasbasbag67
(g83
g69
NtRp2631
(dp2632
g72
(dp2633
sg81
g2396
sg74
(lp2634
g67
(g88
g69
NtRp2635
(dp2636
g72
(dp2637
g92
g93
ssg81
g2631
sg74
(lp2638
S'REMOTE_ADDR'
p2639
asbag67
(g88
g69
NtRp2640
(dp2641
g72
(dp2642
g99
g100
ssg81
g2631
sg74
(lp2643
S':'
asbag67
(g88
g69
NtRp2644
(dp2645
g72
(dp2646
sg81
g2631
sg74
(lp2647
g67
(g68
g69
NtRp2648
(dp2649
g72
(dp2650
g80
I3
ssg81
g2644
sg74
(lp2651
g200
asbasbasbag67
(g83
g69
NtRp2652
(dp2653
g72
(dp2654
sg81
g2396
sg74
(lp2655
g67
(g88
g69
NtRp2656
(dp2657
g72
(dp2658
g92
g93
ssg81
g2652
sg74
(lp2659
S'REMOTE_PORT'
p2660
asbag67
(g88
g69
NtRp2661
(dp2662
g72
(dp2663
g99
g100
ssg81
g2652
sg74
(lp2664
S':'
asbag67
(g88
g69
NtRp2665
(dp2666
g72
(dp2667
sg81
g2652
sg74
(lp2668
g67
(g68
g69
NtRp2669
(dp2670
g72
(dp2671
g80
I3
ssg81
g2665
sg74
(lp2672
g1296
asbasbasbag67
(g83
g69
NtRp2673
(dp2674
g72
(dp2675
sg81
g2396
sg74
(lp2676
g67
(g88
g69
NtRp2677
(dp2678
g72
(dp2679
g92
g93
ssg81
g2673
sg74
(lp2680
S'REQUEST_METHOD'
p2681
asbag67
(g88
g69
NtRp2682
(dp2683
g72
(dp2684
g99
g100
ssg81
g2673
sg74
(lp2685
S':'
asbag67
(g88
g69
NtRp2686
(dp2687
g72
(dp2688
sg81
g2673
sg74
(lp2689
g67
(g68
g69
NtRp2690
(dp2691
g72
(dp2692
g80
I3
ssg81
g2686
sg74
(lp2693
g1318
asbasbasbag67
(g83
g69
NtRp2694
(dp2695
g72
(dp2696
sg81
g2396
sg74
(lp2697
g67
(g88
g69
NtRp2698
(dp2699
g72
(dp2700
g92
g93
ssg81
g2694
sg74
(lp2701
S'SCRIPT_NAME'
p2702
asbag67
(g88
g69
NtRp2703
(dp2704
g72
(dp2705
g99
g100
ssg81
g2694
sg74
(lp2706
S':'
asbag67
(g88
g69
NtRp2707
(dp2708
g72
(dp2709
sg81
g2694
sg74
(lp2710
g67
(g68
g69
NtRp2711
(dp2712
g72
(dp2713
g80
I3
ssg81
g2707
sg74
(lp2714
S''
asbasbasbag67
(g83
g69
NtRp2715
(dp2716
g72
(dp2717
sg81
g2396
sg74
(lp2718
g67
(g88
g69
NtRp2719
(dp2720
g72
(dp2721
g92
g93
ssg81
g2715
sg74
(lp2722
S'SERVER_NAME'
p2723
asbag67
(g88
g69
NtRp2724
(dp2725
g72
(dp2726
g99
g100
ssg81
g2715
sg74
(lp2727
S':'
asbag67
(g88
g69
NtRp2728
(dp2729
g72
(dp2730
sg81
g2715
sg74
(lp2731
g67
(g68
g69
NtRp2732
(dp2733
g72
(dp2734
g80
I3
ssg81
g2728
sg74
(lp2735
g1361
asbasbasbag67
(g83
g69
NtRp2736
(dp2737
g72
(dp2738
sg81
g2396
sg74
(lp2739
g67
(g88
g69
NtRp2740
(dp2741
g72
(dp2742
g92
g93
ssg81
g2736
sg74
(lp2743
S'SERVER_PORT'
p2744
asbag67
(g88
g69
NtRp2745
(dp2746
g72
(dp2747
g99
g100
ssg81
g2736
sg74
(lp2748
S':'
asbag67
(g88
g69
NtRp2749
(dp2750
g72
(dp2751
sg81
g2736
sg74
(lp2752
g67
(g68
g69
NtRp2753
(dp2754
g72
(dp2755
g80
I3
ssg81
g2749
sg74
(lp2756
g1383
asbasbasbag67
(g83
g69
NtRp2757
(dp2758
g72
(dp2759
sg81
g2396
sg74
(lp2760
g67
(g88
g69
NtRp2761
(dp2762
g72
(dp2763
g92
g93
ssg81
g2757
sg74
(lp2764
S'SERVER_PROTOCOL'
p2765
asbag67
(g88
g69
NtRp2766
(dp2767
g72
(dp2768
g99
g100
ssg81
g2757
sg74
(lp2769
S':'
asbag67
(g88
g69
NtRp2770
(dp2771
g72
(dp2772
sg81
g2757
sg74
(lp2773
g67
(g68
g69
NtRp2774
(dp2775
g72
(dp2776
g80
I3
ssg81
g2770
sg74
(lp2777
g1405
asbasbasbag67
(g83
g69
NtRp2778
(dp2779
g72
(dp2780
sg81
g2396
sg74
(lp2781
g67
(g88
g69
NtRp2782
(dp2783
g72
(dp2784
g92
g93
ssg81
g2778
sg74
(lp2785
S'SERVER_SOFTWARE'
p2786
asbag67
(g88
g69
NtRp2787
(dp2788
g72
(dp2789
g99
g100
ssg81
g2778
sg74
(lp2790
S':'
asbag67
(g88
g69
NtRp2791
(dp2792
g72
(dp2793
sg81
g2778
sg74
(lp2794
g67
(g68
g69
NtRp2795
(dp2796
g72
(dp2797
g80
I3
ssg81
g2791
sg74
(lp2798
g1427
asbasbasbag67
(g83
g69
NtRp2799
(dp2800
g72
(dp2801
sg81
g2396
sg74
(lp2802
g67
(g88
g69
NtRp2803
(dp2804
g72
(dp2805
g92
g93
ssg81
g2799
sg74
(lp2806
S'wsgi.errors'
p2807
asbag67
(g88
g69
NtRp2808
(dp2809
g72
(dp2810
g99
g100
ssg81
g2799
sg74
(lp2811
S':'
asbag67
(g88
g69
NtRp2812
(dp2813
g72
(dp2814
sg81
g2799
sg74
(lp2815
g67
(g68
g69
NtRp2816
(dp2817
g72
(dp2818
g80
I3
ssg81
g2812
sg74
(lp2819
S"<open file '<stderr>', mode 'w' at 0x7f6d3a48b270>"
p2820
asbasbasbag67
(g83
g69
NtRp2821
(dp2822
g72
(dp2823
sg81
g2396
sg74
(lp2824
g67
(g88
g69
NtRp2825
(dp2826
g72
(dp2827
g92
g93
ssg81
g2821
sg74
(lp2828
S'wsgi.file_wrapper'
p2829
asbag67
(g88
g69
NtRp2830
(dp2831
g72
(dp2832
g99
g100
ssg81
g2821
sg74
(lp2833
S':'
asbag67
(g88
g69
NtRp2834
(dp2835
g72
(dp2836
sg81
g2821
sg74
(lp2837
g67
(g68
g69
NtRp2838
(dp2839
g72
(dp2840
g80
I3
ssg81
g2834
sg74
(lp2841
S'<class wsgiref.util.FileWrapper at 0x25957a0>'
p2842
asbasbasbag67
(g83
g69
NtRp2843
(dp2844
g72
(dp2845
sg81
g2396
sg74
(lp2846
g67
(g88
g69
NtRp2847
(dp2848
g72
(dp2849
g92
g93
ssg81
g2843
sg74
(lp2850
S'wsgi.input'
p2851
asbag67
(g88
g69
NtRp2852
(dp2853
g72
(dp2854
g99
g100
ssg81
g2843
sg74
(lp2855
S':'
asbag67
(g88
g69
NtRp2856
(dp2857
g72
(dp2858
sg81
g2843
sg74
(lp2859
g67
(g68
g69
NtRp2860
(dp2861
g72
(dp2862
g80
I3
ssg81
g2856
sg74
(lp2863
S'<cStringIO.StringO object at 0x387b0d8>'
p2864
asbasbasbag67
(g83
g69
NtRp2865
(dp2866
g72
(dp2867
sg81
g2396
sg74
(lp2868
g67
(g88
g69
NtRp2869
(dp2870
g72
(dp2871
g92
g93
ssg81
g2865
sg74
(lp2872
S'wsgi.multiprocess'
p2873
asbag67
(g88
g69
NtRp2874
(dp2875
g72
(dp2876
g99
g100
ssg81
g2865
sg74
(lp2877
S':'
asbag67
(g88
g69
NtRp2878
(dp2879
g72
(dp2880
sg81
g2865
sg74
(lp2881
g67
(g68
g69
NtRp2882
(dp2883
g72
(dp2884
g80
I3
ssg81
g2878
sg74
(lp2885
g110
asbasbasbag67
(g83
g69
NtRp2886
(dp2887
g72
(dp2888
sg81
g2396
sg74
(lp2889
g67
(g88
g69
NtRp2890
(dp2891
g72
(dp2892
g92
g93
ssg81
g2886
sg74
(lp2893
S'wsgi.multithread'
p2894
asbag67
(g88
g69
NtRp2895
(dp2896
g72
(dp2897
g99
g100
ssg81
g2886
sg74
(lp2898
S':'
asbag67
(g88
g69
NtRp2899
(dp2900
g72
(dp2901
sg81
g2886
sg74
(lp2902
g67
(g68
g69
NtRp2903
(dp2904
g72
(dp2905
g80
I3
ssg81
g2899
sg74
(lp2906
g1667
asbasbasbag67
(g83
g69
NtRp2907
(dp2908
g72
(dp2909
sg81
g2396
sg74
(lp2910
g67
(g88
g69
NtRp2911
(dp2912
g72
(dp2913
g92
g93
ssg81
g2907
sg74
(lp2914
S'wsgi.run_once'
p2915
asbag67
(g88
g69
NtRp2916
(dp2917
g72
(dp2918
g99
g100
ssg81
g2907
sg74
(lp2919
S':'
asbag67
(g88
g69
NtRp2920
(dp2921
g72
(dp2922
sg81
g2907
sg74
(lp2923
g67
(g68
g69
NtRp2924
(dp2925
g72
(dp2926
g80
I3
ssg81
g2920
sg74
(lp2927
g110
asbasbasbag67
(g83
g69
NtRp2928
(dp2929
g72
(dp2930
sg81
g2396
sg74
(lp2931
g67
(g88
g69
NtRp2932
(dp2933
g72
(dp2934
g92
g93
ssg81
g2928
sg74
(lp2935
S'wsgi.url_scheme'
p2936
asbag67
(g88
g69
NtRp2937
(dp2938
g72
(dp2939
g99
g100
ssg81
g2928
sg74
(lp2940
S':'
asbag67
(g88
g69
NtRp2941
(dp2942
g72
(dp2943
sg81
g2928
sg74
(lp2944
g67
(g68
g69
NtRp2945
(dp2946
g72
(dp2947
g80
I3
ssg81
g2941
sg74
(lp2948
g1710
asbasbasbag67
(g83
g69
NtRp2949
(dp2950
g72
(dp2951
sg81
g2396
sg74
(lp2952
g67
(g88
g69
NtRp2953
(dp2954
g72
(dp2955
g92
g93
ssg81
g2949
sg74
(lp2956
S'wsgi.version'
p2957
asbag67
(g88
g69
NtRp2958
(dp2959
g72
(dp2960
g99
g100
ssg81
g2949
sg74
(lp2961
S':'
asbag67
(g88
g69
NtRp2962
(dp2963
g72
(dp2964
sg81
g2949
sg74
(lp2965
g67
(g68
g69
NtRp2966
(dp2967
g72
(dp2968
g80
I3
ssg81
g2962
sg74
(lp2969
S'1'
asbasbasbasbasbasbasbasbasbasbasbasbasbsS'frames'
p2970
(lp2971
(dp2972
S'file'
p2973
S'/home/ian/web2py/gluon/restricted.py'
p2974
sS'dump'
p2975
(dp2976
S'code'
p2977
S"'# -*- coding: utf-8 -*-\\n# this file is released ...e_title)\\n\\nresponse._vars=response._caller(index)\\n'"
p2978
sS'layer'
p2979
S"'/home/ian/web2py/applications/places/controllers/default.py'"
p2980
sS'global compile2'
p2981
S'<function compile2>'
p2982
sS'ccode'
p2983
S'undefined'
p2984
ssS'lnum'
p2985
I193
sS'lines'
p2986
(dp2987
I192
S'        else:'
p2988
sI193
S'            ccode = compile2(code,layer)'
p2989
sI194
S'        exec ccode in environment'
p2990
sI195
S'    except HTTP:'
p2991
sI196
S'        raise'
p2992
sI197
S'    except Exception, error:'
p2993
sI188
S"    environment['__file__'] = layer"
p2994
sI189
S'    try:'
p2995
sI190
S'        if type(code) == types.CodeType:'
p2996
sI191
S'            ccode = code'
p2997
ssS'call'
p2998
S"(code='# -*- coding: utf-8 -*-\\n# this file is released ...e_title)\\n\\nresponse._vars=response._caller(index)\\n', environment={'A': <class 'gluon.html.A'>, 'Auth': <class 'gluon.tools.Auth'>, 'B': <class 'gluon.html.B'>, 'BEAUTIFY': <class 'gluon.html.BEAUTIFY'>, 'BODY': <class 'gluon.html.BODY'>, 'BR': <class 'gluon.html.BR'>, 'BUTTON': <class 'gluon.html.BUTTON'>, 'CAT': <class 'gluon.html.CAT'>, 'CENTER': <class 'gluon.html.CENTER'>, 'CLEANUP': <class 'gluon.validators.CLEANUP'>, ...}, layer='/home/ian/web2py/applications/places/controllers/default.py')"
p2999
sS'func'
p3000
S'restricted'
p3001
sa(dp3002
g2973
S'/home/ian/web2py/gluon/restricted.py'
p3003
sg2975
(dp3004
S'builtincompile'
p3005
S'<built-in function compile>'
p3006
sS'code'
p3007
S"'# -*- coding: utf-8 -*-\\n# this file is released ...e_title)\\n\\nresponse._vars=response._caller(index)\\n'"
p3008
sS'code.rstrip'
p3009
S'<built-in method rstrip of str object>'
p3010
sS').replace'
p3011
g2984
sS'layer'
p3012
S"'/home/ian/web2py/applications/places/controllers/default.py'"
p3013
ssg2985
I179
sg2986
(dp3014
I174
S''
sI175
S'def compile2(code,layer):'
p3015
sI176
S'    """'
p3016
sI177
S"    The +'\\n' is necessary else compile fails when code ends in a comment."
p3017
sI178
S'    """'
p3018
sI179
S"    return compile(code.rstrip().replace('\\r\\n','\\n')+'\\n', layer, 'exec')"
p3019
sI180
S''
sI181
S"def restricted(code, environment=None, layer='Unknown'):"
p3020
sI182
S'    """'
p3021
sI183
S'    runs code in environment and returns the output. if an exception occurs'
p3022
ssg2998
S"(code='# -*- coding: utf-8 -*-\\n# this file is released ...e_title)\\n\\nresponse._vars=response._caller(index)\\n', layer='/home/ian/web2py/applications/places/controllers/default.py')"
p3023
sg3000
S'compile2'
p3024
sasS'pyver'
p3025
S'Python 2.7.1+: /usr/bin/python2.7'
p3026
sS'session'
p3027
g67
(g68
g69
NtRp3028
(dp3029
g72
(dp3030
sg74
(lp3031
g67
(g76
g69
NtRp3032
(dp3033
g72
(dp3034
g80
I5
ssg81
Nsg74
(lp3035
g67
(g83
g69
NtRp3036
(dp3037
g72
(dp3038
sg81
g3032
sg74
(lp3039
g67
(g88
g69
NtRp3040
(dp3041
g72
(dp3042
g92
g93
ssg81
g3036
sg74
(lp3043
S'current'
p3044
asbag67
(g88
g69
NtRp3045
(dp3046
g72
(dp3047
g99
g100
ssg81
g3036
sg74
(lp3048
S':'
asbag67
(g88
g69
NtRp3049
(dp3050
g72
(dp3051
sg81
g3036
sg74
(lp3052
g67
(g68
g69
NtRp3053
(dp3054
g72
(dp3055
g80
I5
ssg81
g3049
sg74
(lp3056
S'kitchen'
p3057
asbasbasbag67
(g83
g69
NtRp3058
(dp3059
g72
(dp3060
sg81
g3032
sg74
(lp3061
g67
(g88
g69
NtRp3062
(dp3063
g72
(dp3064
g92
g93
ssg81
g3058
sg74
(lp3065
S'current_view'
p3066
asbag67
(g88
g69
NtRp3067
(dp3068
g72
(dp3069
g99
g100
ssg81
g3058
sg74
(lp3070
S':'
asbag67
(g88
g69
NtRp3071
(dp3072
g72
(dp3073
sg81
g3058
sg74
(lp3074
g67
(g68
g69
NtRp3075
(dp3076
g72
(dp3077
g80
I5
ssg81
g3071
sg74
(lp3078
S'kitchen'
p3079
asbasbasbag67
(g83
g69
NtRp3080
(dp3081
g72
(dp3082
sg81
g3032
sg74
(lp3083
g67
(g88
g69
NtRp3084
(dp3085
g72
(dp3086
g92
g93
ssg81
g3080
sg74
(lp3087
S'the_view'
p3088
asbag67
(g88
g69
NtRp3089
(dp3090
g72
(dp3091
g99
g100
ssg81
g3080
sg74
(lp3092
S':'
asbag67
(g88
g69
NtRp3093
(dp3094
g72
(dp3095
sg81
g3080
sg74
(lp3096
g67
(g68
g69
NtRp3097
(dp3098
g72
(dp3099
g80
I5
ssg81
g3093
sg74
(lp3100
S'kitchen'
p3101
asbasbasbasbasbsS'etype'
p3102
S"<type 'exceptions.IndentationError'>"
p3103
sS'date'
p3104
S'Sun Oct  2 20:44:38 2011'
p3105
sS'response'
p3106
g67
(g68
g69
NtRp3107
(dp3108
g72
(dp3109
sg74
(lp3110
g67
(g76
g69
NtRp3111
(dp3112
g72
(dp3113
g80
I5
ssg81
Nsg74
(lp3114
g67
(g83
g69
NtRp3115
(dp3116
g72
(dp3117
sg81
g3111
sg74
(lp3118
g67
(g88
g69
NtRp3119
(dp3120
g72
(dp3121
g92
g93
ssg81
g3115
sg74
(lp3122
g165
asbag67
(g88
g69
NtRp3123
(dp3124
g72
(dp3125
g99
g100
ssg81
g3115
sg74
(lp3126
S':'
asbag67
(g88
g69
NtRp3127
(dp3128
g72
(dp3129
sg81
g3115
sg74
(lp3130
g67
(g68
g69
NtRp3131
(dp3132
g72
(dp3133
g80
I5
ssg81
g3127
sg74
(lp3134
S'<cStringIO.StringO object at 0x2f20928>'
p3135
asbasbasbag67
(g83
g69
NtRp3136
(dp3137
g72
(dp3138
sg81
g3111
sg74
(lp3139
g67
(g88
g69
NtRp3140
(dp3141
g72
(dp3142
g92
g93
ssg81
g3136
sg74
(lp3143
g231
asbag67
(g88
g69
NtRp3144
(dp3145
g72
(dp3146
g99
g100
ssg81
g3136
sg74
(lp3147
S':'
asbag67
(g88
g69
NtRp3148
(dp3149
g72
(dp3150
sg81
g3136
sg74
(lp3151
g67
(g68
g69
NtRp3152
(dp3153
g72
(dp3154
g80
I5
ssg81
g3148
sg74
(lp3155
g67
(g76
g69
NtRp3156
(dp3157
g72
(dp3158
g80
I4
ssg81
Nsg74
(lp3159
g67
(g83
g69
NtRp3160
(dp3161
g72
(dp3162
sg81
g3156
sg74
(lp3163
g67
(g88
g69
NtRp3164
(dp3165
g72
(dp3166
g92
g93
ssg81
g3160
sg74
(lp3167
S'session_id_places'
p3168
asbag67
(g88
g69
NtRp3169
(dp3170
g72
(dp3171
g99
g100
ssg81
g3160
sg74
(lp3172
S':'
asbag67
(g88
g69
NtRp3173
(dp3174
g72
(dp3175
sg81
g3160
sg74
(lp3176
g67
(g68
g69
NtRp3177
(dp3178
g72
(dp3179
g80
I4
ssg81
g3173
sg74
(lp3180
g67
(g76
g69
NtRp3181
(dp3182
g72
(dp3183
g80
I3
ssg81
Nsg74
(lp3184
g67
(g83
g69
NtRp3185
(dp3186
g72
(dp3187
sg81
g3181
sg74
(lp3188
g67
(g88
g69
NtRp3189
(dp3190
g72
(dp3191
g92
g93
ssg81
g3185
sg74
(lp3192
g281
asbag67
(g88
g69
NtRp3193
(dp3194
g72
(dp3195
g99
g100
ssg81
g3185
sg74
(lp3196
S':'
asbag67
(g88
g69
NtRp3197
(dp3198
g72
(dp3199
sg81
g3185
sg74
(lp3200
g67
(g68
g69
NtRp3201
(dp3202
g72
(dp3203
g80
I3
ssg81
g3197
sg74
(lp3204
S''
asbasbasbag67
(g83
g69
NtRp3205
(dp3206
g72
(dp3207
sg81
g3181
sg74
(lp3208
g67
(g88
g69
NtRp3209
(dp3210
g72
(dp3211
g92
g93
ssg81
g3205
sg74
(lp3212
g302
asbag67
(g88
g69
NtRp3213
(dp3214
g72
(dp3215
g99
g100
ssg81
g3205
sg74
(lp3216
S':'
asbag67
(g88
g69
NtRp3217
(dp3218
g72
(dp3219
sg81
g3205
sg74
(lp3220
g67
(g68
g69
NtRp3221
(dp3222
g72
(dp3223
g80
I3
ssg81
g3217
sg74
(lp3224
S''
asbasbasbag67
(g83
g69
NtRp3225
(dp3226
g72
(dp3227
sg81
g3181
sg74
(lp3228
g67
(g88
g69
NtRp3229
(dp3230
g72
(dp3231
g92
g93
ssg81
g3225
sg74
(lp3232
g323
asbag67
(g88
g69
NtRp3233
(dp3234
g72
(dp3235
g99
g100
ssg81
g3225
sg74
(lp3236
S':'
asbag67
(g88
g69
NtRp3237
(dp3238
g72
(dp3239
sg81
g3225
sg74
(lp3240
g67
(g68
g69
NtRp3241
(dp3242
g72
(dp3243
g80
I3
ssg81
g3237
sg74
(lp3244
S''
asbasbasbag67
(g83
g69
NtRp3245
(dp3246
g72
(dp3247
sg81
g3181
sg74
(lp3248
g67
(g88
g69
NtRp3249
(dp3250
g72
(dp3251
g92
g93
ssg81
g3245
sg74
(lp3252
g344
asbag67
(g88
g69
NtRp3253
(dp3254
g72
(dp3255
g99
g100
ssg81
g3245
sg74
(lp3256
S':'
asbag67
(g88
g69
NtRp3257
(dp3258
g72
(dp3259
sg81
g3245
sg74
(lp3260
g67
(g68
g69
NtRp3261
(dp3262
g72
(dp3263
g80
I3
ssg81
g3257
sg74
(lp3264
S''
asbasbasbag67
(g83
g69
NtRp3265
(dp3266
g72
(dp3267
sg81
g3181
sg74
(lp3268
g67
(g88
g69
NtRp3269
(dp3270
g72
(dp3271
g92
g93
ssg81
g3265
sg74
(lp3272
g365
asbag67
(g88
g69
NtRp3273
(dp3274
g72
(dp3275
g99
g100
ssg81
g3265
sg74
(lp3276
S':'
asbag67
(g88
g69
NtRp3277
(dp3278
g72
(dp3279
sg81
g3265
sg74
(lp3280
g67
(g68
g69
NtRp3281
(dp3282
g72
(dp3283
g80
I3
ssg81
g3277
sg74
(lp3284
S''
asbasbasbag67
(g83
g69
NtRp3285
(dp3286
g72
(dp3287
sg81
g3181
sg74
(lp3288
g67
(g88
g69
NtRp3289
(dp3290
g72
(dp3291
g92
g93
ssg81
g3285
sg74
(lp3292
g386
asbag67
(g88
g69
NtRp3293
(dp3294
g72
(dp3295
g99
g100
ssg81
g3285
sg74
(lp3296
S':'
asbag67
(g88
g69
NtRp3297
(dp3298
g72
(dp3299
sg81
g3285
sg74
(lp3300
g67
(g68
g69
NtRp3301
(dp3302
g72
(dp3303
g80
I3
ssg81
g3297
sg74
(lp3304
S'/'
asbasbasbag67
(g83
g69
NtRp3305
(dp3306
g72
(dp3307
sg81
g3181
sg74
(lp3308
g67
(g88
g69
NtRp3309
(dp3310
g72
(dp3311
g92
g93
ssg81
g3305
sg74
(lp3312
g407
asbag67
(g88
g69
NtRp3313
(dp3314
g72
(dp3315
g99
g100
ssg81
g3305
sg74
(lp3316
S':'
asbag67
(g88
g69
NtRp3317
(dp3318
g72
(dp3319
sg81
g3305
sg74
(lp3320
g67
(g68
g69
NtRp3321
(dp3322
g72
(dp3323
g80
I3
ssg81
g3317
sg74
(lp3324
S''
asbasbasbag67
(g83
g69
NtRp3325
(dp3326
g72
(dp3327
sg81
g3181
sg74
(lp3328
g67
(g88
g69
NtRp3329
(dp3330
g72
(dp3331
g92
g93
ssg81
g3325
sg74
(lp3332
g428
asbag67
(g88
g69
NtRp3333
(dp3334
g72
(dp3335
g99
g100
ssg81
g3325
sg74
(lp3336
S':'
asbag67
(g88
g69
NtRp3337
(dp3338
g72
(dp3339
sg81
g3325
sg74
(lp3340
g67
(g68
g69
NtRp3341
(dp3342
g72
(dp3343
g80
I3
ssg81
g3337
sg74
(lp3344
S''
asbasbasbasbasbasbasbasbasbasbasbag67
(g83
g69
NtRp3345
(dp3346
g72
(dp3347
sg81
g3111
sg74
(lp3348
g67
(g88
g69
NtRp3349
(dp3350
g72
(dp3351
g92
g93
ssg81
g3345
sg74
(lp3352
S'files'
p3353
asbag67
(g88
g69
NtRp3354
(dp3355
g72
(dp3356
g99
g100
ssg81
g3345
sg74
(lp3357
S':'
asbag67
(g88
g69
NtRp3358
(dp3359
g72
(dp3360
sg81
g3345
sg74
(lp3361
g67
(g68
g69
NtRp3362
(dp3363
g72
(dp3364
g80
I5
ssg81
g3358
sg74
(lp3365
g67
(g76
g69
NtRp3366
(dp3367
g72
(dp3368
g80
I4
ssg81
Nsg74
(lp3369
sbasbasbasbag67
(g83
g69
NtRp3370
(dp3371
g72
(dp3372
sg81
g3111
sg74
(lp3373
g67
(g88
g69
NtRp3374
(dp3375
g72
(dp3376
g92
g93
ssg81
g3370
sg74
(lp3377
S'flash'
p3378
asbag67
(g88
g69
NtRp3379
(dp3380
g72
(dp3381
g99
g100
ssg81
g3370
sg74
(lp3382
S':'
asbag67
(g88
g69
NtRp3383
(dp3384
g72
(dp3385
sg81
g3370
sg74
(lp3386
g67
(g68
g69
NtRp3387
(dp3388
g72
(dp3389
g80
I5
ssg81
g3383
sg74
(lp3390
S''
asbasbasbag67
(g83
g69
NtRp3391
(dp3392
g72
(dp3393
sg81
g3111
sg74
(lp3394
g67
(g88
g69
NtRp3395
(dp3396
g72
(dp3397
g92
g93
ssg81
g3391
sg74
(lp3398
S'generic_patterns'
p3399
asbag67
(g88
g69
NtRp3400
(dp3401
g72
(dp3402
g99
g100
ssg81
g3391
sg74
(lp3403
S':'
asbag67
(g88
g69
NtRp3404
(dp3405
g72
(dp3406
sg81
g3391
sg74
(lp3407
g67
(g68
g69
NtRp3408
(dp3409
g72
(dp3410
g80
I5
ssg81
g3404
sg74
(lp3411
g67
(g76
g69
NtRp3412
(dp3413
g72
(dp3414
g80
I4
ssg81
Nsg74
(lp3415
g67
(g83
g69
NtRp3416
(dp3417
g72
(dp3418
sg81
g3412
sg74
(lp3419
g67
(g88
g69
NtRp3420
(dp3421
g72
(dp3422
sg81
g3416
sg74
(lp3423
g67
(g68
g69
NtRp3424
(dp3425
g72
(dp3426
g80
I4
ssg81
g3420
sg74
(lp3427
S'*'
asbasbasbasbasbasbasbag67
(g83
g69
NtRp3428
(dp3429
g72
(dp3430
sg81
g3111
sg74
(lp3431
g67
(g88
g69
NtRp3432
(dp3433
g72
(dp3434
g92
g93
ssg81
g3428
sg74
(lp3435
S'headers'
p3436
asbag67
(g88
g69
NtRp3437
(dp3438
g72
(dp3439
g99
g100
ssg81
g3428
sg74
(lp3440
S':'
asbag67
(g88
g69
NtRp3441
(dp3442
g72
(dp3443
sg81
g3428
sg74
(lp3444
g67
(g68
g69
NtRp3445
(dp3446
g72
(dp3447
g80
I5
ssg81
g3441
sg74
(lp3448
g67
(g76
g69
NtRp3449
(dp3450
g72
(dp3451
g80
I4
ssg81
Nsg74
(lp3452
g67
(g83
g69
NtRp3453
(dp3454
g72
(dp3455
sg81
g3449
sg74
(lp3456
g67
(g88
g69
NtRp3457
(dp3458
g72
(dp3459
g92
g93
ssg81
g3453
sg74
(lp3460
S'Cache-Control'
p3461
asbag67
(g88
g69
NtRp3462
(dp3463
g72
(dp3464
g99
g100
ssg81
g3453
sg74
(lp3465
S':'
asbag67
(g88
g69
NtRp3466
(dp3467
g72
(dp3468
sg81
g3453
sg74
(lp3469
g67
(g68
g69
NtRp3470
(dp3471
g72
(dp3472
g80
I4
ssg81
g3466
sg74
(lp3473
S'no-store, no-cache, must-revalidate, post-check=0, pre-check=0'
p3474
asbasbasbag67
(g83
g69
NtRp3475
(dp3476
g72
(dp3477
sg81
g3449
sg74
(lp3478
g67
(g88
g69
NtRp3479
(dp3480
g72
(dp3481
g92
g93
ssg81
g3475
sg74
(lp3482
S'Content-Type'
p3483
asbag67
(g88
g69
NtRp3484
(dp3485
g72
(dp3486
g99
g100
ssg81
g3475
sg74
(lp3487
S':'
asbag67
(g88
g69
NtRp3488
(dp3489
g72
(dp3490
sg81
g3475
sg74
(lp3491
g67
(g68
g69
NtRp3492
(dp3493
g72
(dp3494
g80
I4
ssg81
g3488
sg74
(lp3495
S'text/html; charset=utf-8'
p3496
asbasbasbag67
(g83
g69
NtRp3497
(dp3498
g72
(dp3499
sg81
g3449
sg74
(lp3500
g67
(g88
g69
NtRp3501
(dp3502
g72
(dp3503
g92
g93
ssg81
g3497
sg74
(lp3504
S'Expires'
p3505
asbag67
(g88
g69
NtRp3506
(dp3507
g72
(dp3508
g99
g100
ssg81
g3497
sg74
(lp3509
S':'
asbag67
(g88
g69
NtRp3510
(dp3511
g72
(dp3512
sg81
g3497
sg74
(lp3513
g67
(g68
g69
NtRp3514
(dp3515
g72
(dp3516
g80
I4
ssg81
g3510
sg74
(lp3517
S'Mon, 03 Oct 2011 00:44:38 GMT'
p3518
asbasbasbag67
(g83
g69
NtRp3519
(dp3520
g72
(dp3521
sg81
g3449
sg74
(lp3522
g67
(g88
g69
NtRp3523
(dp3524
g72
(dp3525
g92
g93
ssg81
g3519
sg74
(lp3526
S'Pragma'
p3527
asbag67
(g88
g69
NtRp3528
(dp3529
g72
(dp3530
g99
g100
ssg81
g3519
sg74
(lp3531
S':'
asbag67
(g88
g69
NtRp3532
(dp3533
g72
(dp3534
sg81
g3519
sg74
(lp3535
g67
(g68
g69
NtRp3536
(dp3537
g72
(dp3538
g80
I4
ssg81
g3532
sg74
(lp3539
S'no-cache'
p3540
asbasbasbag67
(g83
g69
NtRp3541
(dp3542
g72
(dp3543
sg81
g3449
sg74
(lp3544
g67
(g88
g69
NtRp3545
(dp3546
g72
(dp3547
g92
g93
ssg81
g3541
sg74
(lp3548
S'X-Powered-By'
p3549
asbag67
(g88
g69
NtRp3550
(dp3551
g72
(dp3552
g99
g100
ssg81
g3541
sg74
(lp3553
S':'
asbag67
(g88
g69
NtRp3554
(dp3555
g72
(dp3556
sg81
g3541
sg74
(lp3557
g67
(g68
g69
NtRp3558
(dp3559
g72
(dp3560
g80
I4
ssg81
g3554
sg74
(lp3561
S'web2py'
p3562
asbasbasbasbasbasbasbag67
(g83
g69
NtRp3563
(dp3564
g72
(dp3565
sg81
g3111
sg74
(lp3566
g67
(g88
g69
NtRp3567
(dp3568
g72
(dp3569
g92
g93
ssg81
g3563
sg74
(lp3570
S'menu'
p3571
asbag67
(g88
g69
NtRp3572
(dp3573
g72
(dp3574
g99
g100
ssg81
g3563
sg74
(lp3575
S':'
asbag67
(g88
g69
NtRp3576
(dp3577
g72
(dp3578
sg81
g3563
sg74
(lp3579
g67
(g68
g69
NtRp3580
(dp3581
g72
(dp3582
g80
I5
ssg81
g3576
sg74
(lp3583
g67
(g76
g69
NtRp3584
(dp3585
g72
(dp3586
g80
I4
ssg81
Nsg74
(lp3587
g67
(g83
g69
NtRp3588
(dp3589
g72
(dp3590
sg81
g3584
sg74
(lp3591
g67
(g88
g69
NtRp3592
(dp3593
g72
(dp3594
sg81
g3588
sg74
(lp3595
g67
(g68
g69
NtRp3596
(dp3597
g72
(dp3598
g80
I4
ssg81
g3592
sg74
(lp3599
g67
(g76
g69
NtRp3600
(dp3601
g72
(dp3602
g80
I3
ssg81
Nsg74
(lp3603
g67
(g83
g69
NtRp3604
(dp3605
g72
(dp3606
sg81
g3600
sg74
(lp3607
g67
(g88
g69
NtRp3608
(dp3609
g72
(dp3610
sg81
g3604
sg74
(lp3611
g67
(g68
g69
NtRp3612
(dp3613
g72
(dp3614
g80
I3
ssg81
g3608
sg74
(lp3615
cgluon.languages
lazyT_unpickle
p3616
(S't\x04\x00\x00\x00Home'
tRp3617
asbasbasbag67
(g83
g69
NtRp3618
(dp3619
g72
(dp3620
sg81
g3600
sg74
(lp3621
g67
(g88
g69
NtRp3622
(dp3623
g72
(dp3624
sg81
g3618
sg74
(lp3625
g67
(g68
g69
NtRp3626
(dp3627
g72
(dp3628
g80
I3
ssg81
g3622
sg74
(lp3629
g110
asbasbasbag67
(g83
g69
NtRp3630
(dp3631
g72
(dp3632
sg81
g3600
sg74
(lp3633
g67
(g88
g69
NtRp3634
(dp3635
g72
(dp3636
sg81
g3630
sg74
(lp3637
g67
(g68
g69
NtRp3638
(dp3639
g72
(dp3640
g80
I3
ssg81
g3634
sg74
(lp3641
S'/places/default/index'
p3642
asbasbasbag67
(g83
g69
NtRp3643
(dp3644
g72
(dp3645
sg81
g3600
sg74
(lp3646
g67
(g88
g69
NtRp3647
(dp3648
g72
(dp3649
sg81
g3643
sg74
(lp3650
g67
(g68
g69
NtRp3651
(dp3652
g72
(dp3653
g80
I3
ssg81
g3647
sg74
(lp3654
g67
(g76
g69
NtRp3655
(dp3656
g72
(dp3657
g80
I2
ssg81
Nsg74
(lp3658
sbasbasbasbasbasbasbasbag67
(g83
g69
NtRp3659
(dp3660
g72
(dp3661
sg81
g3584
sg74
(lp3662
g67
(g88
g69
NtRp3663
(dp3664
g72
(dp3665
sg81
g3659
sg74
(lp3666
g67
(g68
g69
NtRp3667
(dp3668
g72
(dp3669
g80
I4
ssg81
g3663
sg74
(lp3670
g67
(g76
g69
NtRp3671
(dp3672
g72
(dp3673
g80
I3
ssg81
Nsg74
(lp3674
g67
(g83
g69
NtRp3675
(dp3676
g72
(dp3677
sg81
g3671
sg74
(lp3678
g67
(g88
g69
NtRp3679
(dp3680
g72
(dp3681
sg81
g3675
sg74
(lp3682
g67
(g68
g69
NtRp3683
(dp3684
g72
(dp3685
g80
I3
ssg81
g3679
sg74
(lp3686
g3616
(S's\x08\x00\x00\x00This App'
tRp3687
asbasbasbag67
(g83
g69
NtRp3688
(dp3689
g72
(dp3690
sg81
g3671
sg74
(lp3691
g67
(g88
g69
NtRp3692
(dp3693
g72
(dp3694
sg81
g3688
sg74
(lp3695
g67
(g68
g69
NtRp3696
(dp3697
g72
(dp3698
g80
I3
ssg81
g3692
sg74
(lp3699
g110
asbasbasbag67
(g83
g69
NtRp3700
(dp3701
g72
(dp3702
sg81
g3671
sg74
(lp3703
g67
(g88
g69
NtRp3704
(dp3705
g72
(dp3706
sg81
g3700
sg74
(lp3707
g67
(g68
g69
NtRp3708
(dp3709
g72
(dp3710
g80
I3
ssg81
g3704
sg74
(lp3711
S'/admin/default/design/places'
p3712
asbasbasbag67
(g83
g69
NtRp3713
(dp3714
g72
(dp3715
sg81
g3671
sg74
(lp3716
g67
(g88
g69
NtRp3717
(dp3718
g72
(dp3719
sg81
g3713
sg74
(lp3720
g67
(g68
g69
NtRp3721
(dp3722
g72
(dp3723
g80
I3
ssg81
g3717
sg74
(lp3724
g67
(g76
g69
NtRp3725
(dp3726
g72
(dp3727
g80
I2
ssg81
Nsg74
(lp3728
g67
(g83
g69
NtRp3729
(dp3730
g72
(dp3731
sg81
g3725
sg74
(lp3732
g67
(g88
g69
NtRp3733
(dp3734
g72
(dp3735
sg81
g3729
sg74
(lp3736
g67
(g68
g69
NtRp3737
(dp3738
g72
(dp3739
g80
I2
ssg81
g3733
sg74
(lp3740
g67
(g76
g69
NtRp3741
(dp3742
g72
(dp3743
g80
I1
ssg81
Nsg74
(lp3744
g67
(g83
g69
NtRp3745
(dp3746
g72
(dp3747
sg81
g3741
sg74
(lp3748
g67
(g88
g69
NtRp3749
(dp3750
g72
(dp3751
sg81
g3745
sg74
(lp3752
g67
(g68
g69
NtRp3753
(dp3754
g72
(dp3755
g80
I1
ssg81
g3749
sg74
(lp3756
g3616
(S't\n\x00\x00\x00Controller'
tRp3757
asbasbasbag67
(g83
g69
NtRp3758
(dp3759
g72
(dp3760
sg81
g3741
sg74
(lp3761
g67
(g88
g69
NtRp3762
(dp3763
g72
(dp3764
sg81
g3758
sg74
(lp3765
g67
(g68
g69
NtRp3766
(dp3767
g72
(dp3768
g80
I1
ssg81
g3762
sg74
(lp3769
I00
asbasbasbag67
(g83
g69
NtRp3770
(dp3771
g72
(dp3772
sg81
g3741
sg74
(lp3773
g67
(g88
g69
NtRp3774
(dp3775
g72
(dp3776
sg81
g3770
sg74
(lp3777
g67
(g68
g69
NtRp3778
(dp3779
g72
(dp3780
g80
I1
ssg81
g3774
sg74
(lp3781
S'/admin/default/edit/places/controllers/default.py'
p3782
asbasbasbasbasbasbasbag67
(g83
g69
NtRp3783
(dp3784
g72
(dp3785
sg81
g3725
sg74
(lp3786
g67
(g88
g69
NtRp3787
(dp3788
g72
(dp3789
sg81
g3783
sg74
(lp3790
g67
(g68
g69
NtRp3791
(dp3792
g72
(dp3793
g80
I2
ssg81
g3787
sg74
(lp3794
g67
(g76
g69
NtRp3795
(dp3796
g72
(dp3797
g80
I1
ssg81
Nsg74
(lp3798
g67
(g83
g69
NtRp3799
(dp3800
g72
(dp3801
sg81
g3795
sg74
(lp3802
g67
(g88
g69
NtRp3803
(dp3804
g72
(dp3805
sg81
g3799
sg74
(lp3806
g67
(g68
g69
NtRp3807
(dp3808
g72
(dp3809
g80
I1
ssg81
g3803
sg74
(lp3810
g3616
(S't\x04\x00\x00\x00View'
tRp3811
asbasbasbag67
(g83
g69
NtRp3812
(dp3813
g72
(dp3814
sg81
g3795
sg74
(lp3815
g67
(g88
g69
NtRp3816
(dp3817
g72
(dp3818
sg81
g3812
sg74
(lp3819
g67
(g68
g69
NtRp3820
(dp3821
g72
(dp3822
g80
I1
ssg81
g3816
sg74
(lp3823
I00
asbasbasbag67
(g83
g69
NtRp3824
(dp3825
g72
(dp3826
sg81
g3795
sg74
(lp3827
g67
(g88
g69
NtRp3828
(dp3829
g72
(dp3830
sg81
g3824
sg74
(lp3831
g67
(g68
g69
NtRp3832
(dp3833
g72
(dp3834
g80
I1
ssg81
g3828
sg74
(lp3835
S'/admin/default/edit/places/views/default/index.html'
p3836
asbasbasbasbasbasbasbag67
(g83
g69
NtRp3837
(dp3838
g72
(dp3839
sg81
g3725
sg74
(lp3840
g67
(g88
g69
NtRp3841
(dp3842
g72
(dp3843
sg81
g3837
sg74
(lp3844
g67
(g68
g69
NtRp3845
(dp3846
g72
(dp3847
g80
I2
ssg81
g3841
sg74
(lp3848
g67
(g76
g69
NtRp3849
(dp3850
g72
(dp3851
g80
I1
ssg81
Nsg74
(lp3852
g67
(g83
g69
NtRp3853
(dp3854
g72
(dp3855
sg81
g3849
sg74
(lp3856
g67
(g88
g69
NtRp3857
(dp3858
g72
(dp3859
sg81
g3853
sg74
(lp3860
g67
(g68
g69
NtRp3861
(dp3862
g72
(dp3863
g80
I1
ssg81
g3857
sg74
(lp3864
g3616
(S't\x06\x00\x00\x00Layout'
tRp3865
asbasbasbag67
(g83
g69
NtRp3866
(dp3867
g72
(dp3868
sg81
g3849
sg74
(lp3869
g67
(g88
g69
NtRp3870
(dp3871
g72
(dp3872
sg81
g3866
sg74
(lp3873
g67
(g68
g69
NtRp3874
(dp3875
g72
(dp3876
g80
I1
ssg81
g3870
sg74
(lp3877
I00
asbasbasbag67
(g83
g69
NtRp3878
(dp3879
g72
(dp3880
sg81
g3849
sg74
(lp3881
g67
(g88
g69
NtRp3882
(dp3883
g72
(dp3884
sg81
g3878
sg74
(lp3885
g67
(g68
g69
NtRp3886
(dp3887
g72
(dp3888
g80
I1
ssg81
g3882
sg74
(lp3889
S'/admin/default/edit/places/views/layout.html'
p3890
asbasbasbasbasbasbasbag67
(g83
g69
NtRp3891
(dp3892
g72
(dp3893
sg81
g3725
sg74
(lp3894
g67
(g88
g69
NtRp3895
(dp3896
g72
(dp3897
sg81
g3891
sg74
(lp3898
g67
(g68
g69
NtRp3899
(dp3900
g72
(dp3901
g80
I2
ssg81
g3895
sg74
(lp3902
g67
(g76
g69
NtRp3903
(dp3904
g72
(dp3905
g80
I1
ssg81
Nsg74
(lp3906
g67
(g83
g69
NtRp3907
(dp3908
g72
(dp3909
sg81
g3903
sg74
(lp3910
g67
(g88
g69
NtRp3911
(dp3912
g72
(dp3913
sg81
g3907
sg74
(lp3914
g67
(g68
g69
NtRp3915
(dp3916
g72
(dp3917
g80
I1
ssg81
g3911
sg74
(lp3918
g3616
(S't\n\x00\x00\x00Stylesheet'
tRp3919
asbasbasbag67
(g83
g69
NtRp3920
(dp3921
g72
(dp3922
sg81
g3903
sg74
(lp3923
g67
(g88
g69
NtRp3924
(dp3925
g72
(dp3926
sg81
g3920
sg74
(lp3927
g67
(g68
g69
NtRp3928
(dp3929
g72
(dp3930
g80
I1
ssg81
g3924
sg74
(lp3931
I00
asbasbasbag67
(g83
g69
NtRp3932
(dp3933
g72
(dp3934
sg81
g3903
sg74
(lp3935
g67
(g88
g69
NtRp3936
(dp3937
g72
(dp3938
sg81
g3932
sg74
(lp3939
g67
(g68
g69
NtRp3940
(dp3941
g72
(dp3942
g80
I1
ssg81
g3936
sg74
(lp3943
S'/admin/default/edit/places/static/base.css'
p3944
asbasbasbasbasbasbasbag67
(g83
g69
NtRp3945
(dp3946
g72
(dp3947
sg81
g3725
sg74
(lp3948
g67
(g88
g69
NtRp3949
(dp3950
g72
(dp3951
sg81
g3945
sg74
(lp3952
g67
(g68
g69
NtRp3953
(dp3954
g72
(dp3955
g80
I2
ssg81
g3949
sg74
(lp3956
g67
(g76
g69
NtRp3957
(dp3958
g72
(dp3959
g80
I1
ssg81
Nsg74
(lp3960
g67
(g83
g69
NtRp3961
(dp3962
g72
(dp3963
sg81
g3957
sg74
(lp3964
g67
(g88
g69
NtRp3965
(dp3966
g72
(dp3967
sg81
g3961
sg74
(lp3968
g67
(g68
g69
NtRp3969
(dp3970
g72
(dp3971
g80
I1
ssg81
g3965
sg74
(lp3972
g3616
(S's\x08\x00\x00\x00DB Model'
tRp3973
asbasbasbag67
(g83
g69
NtRp3974
(dp3975
g72
(dp3976
sg81
g3957
sg74
(lp3977
g67
(g88
g69
NtRp3978
(dp3979
g72
(dp3980
sg81
g3974
sg74
(lp3981
g67
(g68
g69
NtRp3982
(dp3983
g72
(dp3984
g80
I1
ssg81
g3978
sg74
(lp3985
I00
asbasbasbag67
(g83
g69
NtRp3986
(dp3987
g72
(dp3988
sg81
g3957
sg74
(lp3989
g67
(g88
g69
NtRp3990
(dp3991
g72
(dp3992
sg81
g3986
sg74
(lp3993
g67
(g68
g69
NtRp3994
(dp3995
g72
(dp3996
g80
I1
ssg81
g3990
sg74
(lp3997
S'/admin/default/edit/places/models/db.py'
p3998
asbasbasbasbasbasbasbag67
(g83
g69
NtRp3999
(dp4000
g72
(dp4001
sg81
g3725
sg74
(lp4002
g67
(g88
g69
NtRp4003
(dp4004
g72
(dp4005
sg81
g3999
sg74
(lp4006
g67
(g68
g69
NtRp4007
(dp4008
g72
(dp4009
g80
I2
ssg81
g4003
sg74
(lp4010
g67
(g76
g69
NtRp4011
(dp4012
g72
(dp4013
g80
I1
ssg81
Nsg74
(lp4014
g67
(g83
g69
NtRp4015
(dp4016
g72
(dp4017
sg81
g4011
sg74
(lp4018
g67
(g88
g69
NtRp4019
(dp4020
g72
(dp4021
sg81
g4015
sg74
(lp4022
g67
(g68
g69
NtRp4023
(dp4024
g72
(dp4025
g80
I1
ssg81
g4019
sg74
(lp4026
g3616
(S's\n\x00\x00\x00Menu Model'
tRp4027
asbasbasbag67
(g83
g69
NtRp4028
(dp4029
g72
(dp4030
sg81
g4011
sg74
(lp4031
g67
(g88
g69
NtRp4032
(dp4033
g72
(dp4034
sg81
g4028
sg74
(lp4035
g67
(g68
g69
NtRp4036
(dp4037
g72
(dp4038
g80
I1
ssg81
g4032
sg74
(lp4039
I00
asbasbasbag67
(g83
g69
NtRp4040
(dp4041
g72
(dp4042
sg81
g4011
sg74
(lp4043
g67
(g88
g69
NtRp4044
(dp4045
g72
(dp4046
sg81
g4040
sg74
(lp4047
g67
(g68
g69
NtRp4048
(dp4049
g72
(dp4050
g80
I1
ssg81
g4044
sg74
(lp4051
S'/admin/default/edit/places/models/menu.py'
p4052
asbasbasbasbasbasbasbag67
(g83
g69
NtRp4053
(dp4054
g72
(dp4055
sg81
g3725
sg74
(lp4056
g67
(g88
g69
NtRp4057
(dp4058
g72
(dp4059
sg81
g4053
sg74
(lp4060
g67
(g68
g69
NtRp4061
(dp4062
g72
(dp4063
g80
I2
ssg81
g4057
sg74
(lp4064
g67
(g76
g69
NtRp4065
(dp4066
g72
(dp4067
g80
I1
ssg81
Nsg74
(lp4068
g67
(g83
g69
NtRp4069
(dp4070
g72
(dp4071
sg81
g4065
sg74
(lp4072
g67
(g88
g69
NtRp4073
(dp4074
g72
(dp4075
sg81
g4069
sg74
(lp4076
g67
(g68
g69
NtRp4077
(dp4078
g72
(dp4079
g80
I1
ssg81
g4073
sg74
(lp4080
g3616
(S't\x08\x00\x00\x00Database'
tRp4081
asbasbasbag67
(g83
g69
NtRp4082
(dp4083
g72
(dp4084
sg81
g4065
sg74
(lp4085
g67
(g88
g69
NtRp4086
(dp4087
g72
(dp4088
sg81
g4082
sg74
(lp4089
g67
(g68
g69
NtRp4090
(dp4091
g72
(dp4092
g80
I1
ssg81
g4086
sg74
(lp4093
I00
asbasbasbag67
(g83
g69
NtRp4094
(dp4095
g72
(dp4096
sg81
g4065
sg74
(lp4097
g67
(g88
g69
NtRp4098
(dp4099
g72
(dp4100
sg81
g4094
sg74
(lp4101
g67
(g68
g69
NtRp4102
(dp4103
g72
(dp4104
g80
I1
ssg81
g4098
sg74
(lp4105
S'/places/appadmin/index'
p4106
asbasbasbasbasbasbasbag67
(g83
g69
NtRp4107
(dp4108
g72
(dp4109
sg81
g3725
sg74
(lp4110
g67
(g88
g69
NtRp4111
(dp4112
g72
(dp4113
sg81
g4107
sg74
(lp4114
g67
(g68
g69
NtRp4115
(dp4116
g72
(dp4117
g80
I2
ssg81
g4111
sg74
(lp4118
g67
(g76
g69
NtRp4119
(dp4120
g72
(dp4121
g80
I1
ssg81
Nsg74
(lp4122
g67
(g83
g69
NtRp4123
(dp4124
g72
(dp4125
sg81
g4119
sg74
(lp4126
g67
(g88
g69
NtRp4127
(dp4128
g72
(dp4129
sg81
g4123
sg74
(lp4130
g67
(g68
g69
NtRp4131
(dp4132
g72
(dp4133
g80
I1
ssg81
g4127
sg74
(lp4134
g3616
(S't\x06\x00\x00\x00Errors'
tRp4135
asbasbasbag67
(g83
g69
NtRp4136
(dp4137
g72
(dp4138
sg81
g4119
sg74
(lp4139
g67
(g88
g69
NtRp4140
(dp4141
g72
(dp4142
sg81
g4136
sg74
(lp4143
g67
(g68
g69
NtRp4144
(dp4145
g72
(dp4146
g80
I1
ssg81
g4140
sg74
(lp4147
I00
asbasbasbag67
(g83
g69
NtRp4148
(dp4149
g72
(dp4150
sg81
g4119
sg74
(lp4151
g67
(g88
g69
NtRp4152
(dp4153
g72
(dp4154
sg81
g4148
sg74
(lp4155
g67
(g68
g69
NtRp4156
(dp4157
g72
(dp4158
g80
I1
ssg81
g4152
sg74
(lp4159
S'/admin/default/errors/places'
p4160
asbasbasbasbasbasbasbag67
(g83
g69
NtRp4161
(dp4162
g72
(dp4163
sg81
g3725
sg74
(lp4164
g67
(g88
g69
NtRp4165
(dp4166
g72
(dp4167
sg81
g4161
sg74
(lp4168
g67
(g68
g69
NtRp4169
(dp4170
g72
(dp4171
g80
I2
ssg81
g4165
sg74
(lp4172
g67
(g76
g69
NtRp4173
(dp4174
g72
(dp4175
g80
I1
ssg81
Nsg74
(lp4176
g67
(g83
g69
NtRp4177
(dp4178
g72
(dp4179
sg81
g4173
sg74
(lp4180
g67
(g88
g69
NtRp4181
(dp4182
g72
(dp4183
sg81
g4177
sg74
(lp4184
g67
(g68
g69
NtRp4185
(dp4186
g72
(dp4187
g80
I1
ssg81
g4181
sg74
(lp4188
g3616
(S't\x05\x00\x00\x00About'
tRp4189
asbasbasbag67
(g83
g69
NtRp4190
(dp4191
g72
(dp4192
sg81
g4173
sg74
(lp4193
g67
(g88
g69
NtRp4194
(dp4195
g72
(dp4196
sg81
g4190
sg74
(lp4197
g67
(g68
g69
NtRp4198
(dp4199
g72
(dp4200
g80
I1
ssg81
g4194
sg74
(lp4201
I00
asbasbasbag67
(g83
g69
NtRp4202
(dp4203
g72
(dp4204
sg81
g4173
sg74
(lp4205
g67
(g88
g69
NtRp4206
(dp4207
g72
(dp4208
sg81
g4202
sg74
(lp4209
g67
(g68
g69
NtRp4210
(dp4211
g72
(dp4212
g80
I1
ssg81
g4206
sg74
(lp4213
S'/admin/default/about/places'
p4214
asbasbasbasbasbasbasbasbasbasbasbasbasbasbasbag67
(g83
g69
NtRp4215
(dp4216
g72
(dp4217
sg81
g3584
sg74
(lp4218
g67
(g88
g69
NtRp4219
(dp4220
g72
(dp4221
sg81
g4215
sg74
(lp4222
g67
(g68
g69
NtRp4223
(dp4224
g72
(dp4225
g80
I4
ssg81
g4219
sg74
(lp4226
g67
(g76
g69
NtRp4227
(dp4228
g72
(dp4229
g80
I3
ssg81
Nsg74
(lp4230
g67
(g83
g69
NtRp4231
(dp4232
g72
(dp4233
sg81
g4227
sg74
(lp4234
g67
(g88
g69
NtRp4235
(dp4236
g72
(dp4237
sg81
g4231
sg74
(lp4238
g67
(g68
g69
NtRp4239
(dp4240
g72
(dp4241
g80
I3
ssg81
g4235
sg74
(lp4242
g3616
(S't\t\x00\x00\x00Resources'
tRp4243
asbasbasbag67
(g83
g69
NtRp4244
(dp4245
g72
(dp4246
sg81
g4227
sg74
(lp4247
g67
(g88
g69
NtRp4248
(dp4249
g72
(dp4250
sg81
g4244
sg74
(lp4251
g67
(g68
g69
NtRp4252
(dp4253
g72
(dp4254
g80
I3
ssg81
g4248
sg74
(lp4255
g110
asbasbasbag67
(g83
g69
NtRp4256
(dp4257
g72
(dp4258
sg81
g4227
sg74
(lp4259
g67
(g88
g69
NtRp4260
(dp4261
g72
(dp4262
sg81
g4256
sg74
(lp4263
g67
(g68
g69
NtRp4264
(dp4265
g72
(dp4266
g80
I3
ssg81
g4260
sg74
(lp4267
S'None'
p4268
asbasbasbag67
(g83
g69
NtRp4269
(dp4270
g72
(dp4271
sg81
g4227
sg74
(lp4272
g67
(g88
g69
NtRp4273
(dp4274
g72
(dp4275
sg81
g4269
sg74
(lp4276
g67
(g68
g69
NtRp4277
(dp4278
g72
(dp4279
g80
I3
ssg81
g4273
sg74
(lp4280
g67
(g76
g69
NtRp4281
(dp4282
g72
(dp4283
g80
I2
ssg81
Nsg74
(lp4284
g67
(g83
g69
NtRp4285
(dp4286
g72
(dp4287
sg81
g4281
sg74
(lp4288
g67
(g88
g69
NtRp4289
(dp4290
g72
(dp4291
sg81
g4285
sg74
(lp4292
g67
(g68
g69
NtRp4293
(dp4294
g72
(dp4295
g80
I2
ssg81
g4289
sg74
(lp4296
g67
(g76
g69
NtRp4297
(dp4298
g72
(dp4299
g80
I1
ssg81
Nsg74
(lp4300
g67
(g83
g69
NtRp4301
(dp4302
g72
(dp4303
sg81
g4297
sg74
(lp4304
g67
(g88
g69
NtRp4305
(dp4306
g72
(dp4307
sg81
g4301
sg74
(lp4308
g67
(g68
g69
NtRp4309
(dp4310
g72
(dp4311
g80
I1
ssg81
g4305
sg74
(lp4312
g3616
(S't\r\x00\x00\x00Documentation'
tRp4313
asbasbasbag67
(g83
g69
NtRp4314
(dp4315
g72
(dp4316
sg81
g4297
sg74
(lp4317
g67
(g88
g69
NtRp4318
(dp4319
g72
(dp4320
sg81
g4314
sg74
(lp4321
g67
(g68
g69
NtRp4322
(dp4323
g72
(dp4324
g80
I1
ssg81
g4318
sg74
(lp4325
I00
asbasbasbag67
(g83
g69
NtRp4326
(dp4327
g72
(dp4328
sg81
g4297
sg74
(lp4329
g67
(g88
g69
NtRp4330
(dp4331
g72
(dp4332
sg81
g4326
sg74
(lp4333
g67
(g68
g69
NtRp4334
(dp4335
g72
(dp4336
g80
I1
ssg81
g4330
sg74
(lp4337
S'http://www.web2py.com/book'
p4338
asbasbasbag67
(g83
g69
NtRp4339
(dp4340
g72
(dp4341
sg81
g4297
sg74
(lp4342
g67
(g88
g69
NtRp4343
(dp4344
g72
(dp4345
sg81
g4339
sg74
(lp4346
g67
(g68
g69
NtRp4347
(dp4348
g72
(dp4349
g80
I1
ssg81
g4343
sg74
(lp4350
(lp4351
(g3616
(S't\x07\x00\x00\x00Preface'
tRp4352
I00
S'http://www.web2py.com/book/default/chapter/00'
p4353
tp4354
a(g3616
(S't\x0c\x00\x00\x00Introduction'
tRp4355
I00
S'http://www.web2py.com/book/default/chapter/01'
p4356
tp4357
a(g3616
(S't\x06\x00\x00\x00Python'
tRp4358
I00
S'http://www.web2py.com/book/default/chapter/02'
p4359
tp4360
a(g3616
(S't\x08\x00\x00\x00Overview'
tRp4361
I00
S'http://www.web2py.com/book/default/chapter/03'
p4362
tp4363
a(g3616
(S's\x08\x00\x00\x00The Core'
tRp4364
I00
S'http://www.web2py.com/book/default/chapter/04'
p4365
tp4366
a(g3616
(S's\t\x00\x00\x00The Views'
tRp4367
I00
S'http://www.web2py.com/book/default/chapter/05'
p4368
tp4369
a(g3616
(S't\x08\x00\x00\x00Database'
tRp4370
I00
S'http://www.web2py.com/book/default/chapter/06'
p4371
tp4372
a(g3616
(S's\x14\x00\x00\x00Forms and Validators'
tRp4373
I00
S'http://www.web2py.com/book/default/chapter/07'
p4374
tp4375
a(g3616
(S's\x0e\x00\x00\x00Access Control'
tRp4376
I00
S'http://www.web2py.com/book/default/chapter/08'
p4377
tp4378
a(g3616
(S't\x08\x00\x00\x00Services'
tRp4379
I00
S'http://www.web2py.com/book/default/chapter/09'
p4380
tp4381
a(g3616
(S's\x0c\x00\x00\x00Ajax Recipes'
tRp4382
I00
S'http://www.web2py.com/book/default/chapter/10'
p4383
tp4384
a(g3616
(S's\x12\x00\x00\x00Deployment Recipes'
tRp4385
I00
S'http://www.web2py.com/book/default/chapter/11'
p4386
tp4387
a(g3616
(S's\r\x00\x00\x00Other Recipes'
tRp4388
I00
S'http://www.web2py.com/book/default/chapter/12'
p4389
tp4390
a(g3616
(S's\r\x00\x00\x00Buy this book'
tRp4391
I00
S'http://stores.lulu.com/web2py'
p4392
tp4393
aasbasbasbasbasbasbasbag67
(g83
g69
NtRp4394
(dp4395
g72
(dp4396
sg81
g4281
sg74
(lp4397
g67
(g88
g69
NtRp4398
(dp4399
g72
(dp4400
sg81
g4394
sg74
(lp4401
g67
(g68
g69
NtRp4402
(dp4403
g72
(dp4404
g80
I2
ssg81
g4398
sg74
(lp4405
g67
(g76
g69
NtRp4406
(dp4407
g72
(dp4408
g80
I1
ssg81
Nsg74
(lp4409
g67
(g83
g69
NtRp4410
(dp4411
g72
(dp4412
sg81
g4406
sg74
(lp4413
g67
(g88
g69
NtRp4414
(dp4415
g72
(dp4416
sg81
g4410
sg74
(lp4417
g67
(g68
g69
NtRp4418
(dp4419
g72
(dp4420
g80
I1
ssg81
g4414
sg74
(lp4421
g3616
(S't\t\x00\x00\x00Community'
tRp4422
asbasbasbag67
(g83
g69
NtRp4423
(dp4424
g72
(dp4425
sg81
g4406
sg74
(lp4426
g67
(g88
g69
NtRp4427
(dp4428
g72
(dp4429
sg81
g4423
sg74
(lp4430
g67
(g68
g69
NtRp4431
(dp4432
g72
(dp4433
g80
I1
ssg81
g4427
sg74
(lp4434
I00
asbasbasbag67
(g83
g69
NtRp4435
(dp4436
g72
(dp4437
sg81
g4406
sg74
(lp4438
g67
(g88
g69
NtRp4439
(dp4440
g72
(dp4441
sg81
g4435
sg74
(lp4442
g67
(g68
g69
NtRp4443
(dp4444
g72
(dp4445
g80
I1
ssg81
g4439
sg74
(lp4446
Nasbasbasbag67
(g83
g69
NtRp4447
(dp4448
g72
(dp4449
sg81
g4406
sg74
(lp4450
g67
(g88
g69
NtRp4451
(dp4452
g72
(dp4453
sg81
g4447
sg74
(lp4454
g67
(g68
g69
NtRp4455
(dp4456
g72
(dp4457
g80
I1
ssg81
g4451
sg74
(lp4458
(lp4459
(g3616
(S't\x06\x00\x00\x00Groups'
tRp4460
I00
S'http://www.web2py.com/examples/default/usergroups'
p4461
tp4462
a(g3616
(S't\x07\x00\x00\x00Twitter'
tRp4463
I00
S'http://twitter.com/web2py'
p4464
tp4465
a(g3616
(S's\t\x00\x00\x00Live chat'
tRp4466
I00
S'http://mibbit.com/?channel=%23web2py&server=irc.mibbit.net'
p4467
tp4468
a(g3616
(S's\n\x00\x00\x00User Voice'
tRp4469
I00
S'http://web2py.uservoice.com/'
p4470
tp4471
aasbasbasbasbasbasbasbag67
(g83
g69
NtRp4472
(dp4473
g72
(dp4474
sg81
g4281
sg74
(lp4475
g67
(g88
g69
NtRp4476
(dp4477
g72
(dp4478
sg81
g4472
sg74
(lp4479
g67
(g68
g69
NtRp4480
(dp4481
g72
(dp4482
g80
I2
ssg81
g4476
sg74
(lp4483
g67
(g76
g69
NtRp4484
(dp4485
g72
(dp4486
g80
I1
ssg81
Nsg74
(lp4487
g67
(g83
g69
NtRp4488
(dp4489
g72
(dp4490
sg81
g4484
sg74
(lp4491
g67
(g88
g69
NtRp4492
(dp4493
g72
(dp4494
sg81
g4488
sg74
(lp4495
g67
(g68
g69
NtRp4496
(dp4497
g72
(dp4498
g80
I1
ssg81
g4492
sg74
(lp4499
g3616
(S't\x06\x00\x00\x00Web2py'
tRp4500
asbasbasbag67
(g83
g69
NtRp4501
(dp4502
g72
(dp4503
sg81
g4484
sg74
(lp4504
g67
(g88
g69
NtRp4505
(dp4506
g72
(dp4507
sg81
g4501
sg74
(lp4508
g67
(g68
g69
NtRp4509
(dp4510
g72
(dp4511
g80
I1
ssg81
g4505
sg74
(lp4512
I00
asbasbasbag67
(g83
g69
NtRp4513
(dp4514
g72
(dp4515
sg81
g4484
sg74
(lp4516
g67
(g88
g69
NtRp4517
(dp4518
g72
(dp4519
sg81
g4513
sg74
(lp4520
g67
(g68
g69
NtRp4521
(dp4522
g72
(dp4523
g80
I1
ssg81
g4517
sg74
(lp4524
S'http://www.web2py.com'
p4525
asbasbasbag67
(g83
g69
NtRp4526
(dp4527
g72
(dp4528
sg81
g4484
sg74
(lp4529
g67
(g88
g69
NtRp4530
(dp4531
g72
(dp4532
sg81
g4526
sg74
(lp4533
g67
(g68
g69
NtRp4534
(dp4535
g72
(dp4536
g80
I1
ssg81
g4530
sg74
(lp4537
(lp4538
(g3616
(S't\x08\x00\x00\x00Download'
tRp4539
I00
S'http://www.web2py.com/examples/default/download'
p4540
tp4541
a(g3616
(S't\x07\x00\x00\x00Support'
tRp4542
I00
S'http://www.web2py.com/examples/default/support'
p4543
tp4544
a(g3616
(S's\x0e\x00\x00\x00Quick Examples'
tRp4545
I00
S'http://web2py.com/examples/default/examples'
p4546
tp4547
a(g3616
(S't\x03\x00\x00\x00FAQ'
tRp4548
I00
S'http://web2py.com/AlterEgo'
p4549
tp4550
a(g3616
(S's\x11\x00\x00\x00Free Applications'
tRp4551
I00
S'http://web2py.com/appliances'
p4552
tp4553
a(g3616
(S't\x07\x00\x00\x00Plugins'
tRp4554
I00
S'http://web2py.com/plugins'
p4555
tp4556
a(g3616
(S't\x07\x00\x00\x00Recipes'
tRp4557
I00
S'http://web2pyslices.com/'
p4558
tp4559
a(g3616
(S't\x04\x00\x00\x00Demo'
tRp4560
I00
S'http://web2py.com/demo_admin'
p4561
tp4562
a(g3616
(S't\x08\x00\x00\x00Semantic'
tRp4563
I00
S'http://web2py.com/semantic'
p4564
tp4565
a(g3616
(S't\x07\x00\x00\x00Layouts'
tRp4566
I00
S'http://web2py.com/layouts'
p4567
tp4568
a(g3616
(S't\x06\x00\x00\x00Videos'
tRp4569
I00
S'http://www.web2py.com/examples/default/videos/'
p4570
tp4571
aasbasbasbasbasbasbasbasbasbasbasbasbasbasbasbasbasbasbasbag67
(g83
g69
NtRp4572
(dp4573
g72
(dp4574
sg81
g3111
sg74
(lp4575
g67
(g88
g69
NtRp4576
(dp4577
g72
(dp4578
g92
g93
ssg81
g4572
sg74
(lp4579
S'meta'
p4580
asbag67
(g88
g69
NtRp4581
(dp4582
g72
(dp4583
g99
g100
ssg81
g4572
sg74
(lp4584
S':'
asbag67
(g88
g69
NtRp4585
(dp4586
g72
(dp4587
sg81
g4572
sg74
(lp4588
g67
(g68
g69
NtRp4589
(dp4590
g72
(dp4591
g80
I5
ssg81
g4585
sg74
(lp4592
g67
(g76
g69
NtRp4593
(dp4594
g72
(dp4595
g80
I4
ssg81
Nsg74
(lp4596
g67
(g83
g69
NtRp4597
(dp4598
g72
(dp4599
sg81
g4593
sg74
(lp4600
g67
(g88
g69
NtRp4601
(dp4602
g72
(dp4603
g92
g93
ssg81
g4597
sg74
(lp4604
S'author'
p4605
asbag67
(g88
g69
NtRp4606
(dp4607
g72
(dp4608
g99
g100
ssg81
g4597
sg74
(lp4609
S':'
asbag67
(g88
g69
NtRp4610
(dp4611
g72
(dp4612
sg81
g4597
sg74
(lp4613
g67
(g68
g69
NtRp4614
(dp4615
g72
(dp4616
g80
I4
ssg81
g4610
sg74
(lp4617
S'Your Name <you@example.com>'
p4618
asbasbasbag67
(g83
g69
NtRp4619
(dp4620
g72
(dp4621
sg81
g4593
sg74
(lp4622
g67
(g88
g69
NtRp4623
(dp4624
g72
(dp4625
g92
g93
ssg81
g4619
sg74
(lp4626
S'copyright'
p4627
asbag67
(g88
g69
NtRp4628
(dp4629
g72
(dp4630
g99
g100
ssg81
g4619
sg74
(lp4631
S':'
asbag67
(g88
g69
NtRp4632
(dp4633
g72
(dp4634
sg81
g4619
sg74
(lp4635
g67
(g68
g69
NtRp4636
(dp4637
g72
(dp4638
g80
I4
ssg81
g4632
sg74
(lp4639
S'Copyright 2011'
p4640
asbasbasbag67
(g83
g69
NtRp4641
(dp4642
g72
(dp4643
sg81
g4593
sg74
(lp4644
g67
(g88
g69
NtRp4645
(dp4646
g72
(dp4647
g92
g93
ssg81
g4641
sg74
(lp4648
S'description'
p4649
asbag67
(g88
g69
NtRp4650
(dp4651
g72
(dp4652
g99
g100
ssg81
g4641
sg74
(lp4653
S':'
asbag67
(g88
g69
NtRp4654
(dp4655
g72
(dp4656
sg81
g4641
sg74
(lp4657
g67
(g68
g69
NtRp4658
(dp4659
g72
(dp4660
g80
I4
ssg81
g4654
sg74
(lp4661
S'a cool new app'
p4662
asbasbasbag67
(g83
g69
NtRp4663
(dp4664
g72
(dp4665
sg81
g4593
sg74
(lp4666
g67
(g88
g69
NtRp4667
(dp4668
g72
(dp4669
g92
g93
ssg81
g4663
sg74
(lp4670
S'generator'
p4671
asbag67
(g88
g69
NtRp4672
(dp4673
g72
(dp4674
g99
g100
ssg81
g4663
sg74
(lp4675
S':'
asbag67
(g88
g69
NtRp4676
(dp4677
g72
(dp4678
sg81
g4663
sg74
(lp4679
g67
(g68
g69
NtRp4680
(dp4681
g72
(dp4682
g80
I4
ssg81
g4676
sg74
(lp4683
S'Web2py Web Framework'
p4684
asbasbasbag67
(g83
g69
NtRp4685
(dp4686
g72
(dp4687
sg81
g4593
sg74
(lp4688
g67
(g88
g69
NtRp4689
(dp4690
g72
(dp4691
g92
g93
ssg81
g4685
sg74
(lp4692
S'keywords'
p4693
asbag67
(g88
g69
NtRp4694
(dp4695
g72
(dp4696
g99
g100
ssg81
g4685
sg74
(lp4697
S':'
asbag67
(g88
g69
NtRp4698
(dp4699
g72
(dp4700
sg81
g4685
sg74
(lp4701
g67
(g68
g69
NtRp4702
(dp4703
g72
(dp4704
g80
I4
ssg81
g4698
sg74
(lp4705
S'web2py, python, framework'
p4706
asbasbasbasbasbasbasbag67
(g83
g69
NtRp4707
(dp4708
g72
(dp4709
sg81
g3111
sg74
(lp4710
g67
(g88
g69
NtRp4711
(dp4712
g72
(dp4713
g92
g93
ssg81
g4707
sg74
(lp4714
S'postprocessing'
p4715
asbag67
(g88
g69
NtRp4716
(dp4717
g72
(dp4718
g99
g100
ssg81
g4707
sg74
(lp4719
S':'
asbag67
(g88
g69
NtRp4720
(dp4721
g72
(dp4722
sg81
g4707
sg74
(lp4723
g67
(g68
g69
NtRp4724
(dp4725
g72
(dp4726
g80
I5
ssg81
g4720
sg74
(lp4727
g67
(g76
g69
NtRp4728
(dp4729
g72
(dp4730
g80
I4
ssg81
Nsg74
(lp4731
sbasbasbasbag67
(g83
g69
NtRp4732
(dp4733
g72
(dp4734
sg81
g3111
sg74
(lp4735
g67
(g88
g69
NtRp4736
(dp4737
g72
(dp4738
g92
g93
ssg81
g4732
sg74
(lp4739
S'session_file'
p4740
asbag67
(g88
g69
NtRp4741
(dp4742
g72
(dp4743
g99
g100
ssg81
g4732
sg74
(lp4744
S':'
asbag67
(g88
g69
NtRp4745
(dp4746
g72
(dp4747
sg81
g4732
sg74
(lp4748
g67
(g68
g69
NtRp4749
(dp4750
g72
(dp4751
g80
I5
ssg81
g4745
sg74
(lp4752
S"<open file '/home/ian/web2py/applications/places/sessions/127.0.0.1-9bd70a00-d029-4b6e-8bcc-a423c3a61399', mode 'rb+' at 0x3b32ae0>"
p4753
asbasbasbag67
(g83
g69
NtRp4754
(dp4755
g72
(dp4756
sg81
g3111
sg74
(lp4757
g67
(g88
g69
NtRp4758
(dp4759
g72
(dp4760
g92
g93
ssg81
g4754
sg74
(lp4761
S'session_filename'
p4762
asbag67
(g88
g69
NtRp4763
(dp4764
g72
(dp4765
g99
g100
ssg81
g4754
sg74
(lp4766
S':'
asbag67
(g88
g69
NtRp4767
(dp4768
g72
(dp4769
sg81
g4754
sg74
(lp4770
g67
(g68
g69
NtRp4771
(dp4772
g72
(dp4773
g80
I5
ssg81
g4767
sg74
(lp4774
S'/home/ian/web2py/applications/places/sessions/127.0.0.1-9bd70a00-d029-4b6e-8bcc-a423c3a61399'
p4775
asbasbasbag67
(g83
g69
NtRp4776
(dp4777
g72
(dp4778
sg81
g3111
sg74
(lp4779
g67
(g88
g69
NtRp4780
(dp4781
g72
(dp4782
g92
g93
ssg81
g4776
sg74
(lp4783
S'session_id'
p4784
asbag67
(g88
g69
NtRp4785
(dp4786
g72
(dp4787
g99
g100
ssg81
g4776
sg74
(lp4788
S':'
asbag67
(g88
g69
NtRp4789
(dp4790
g72
(dp4791
sg81
g4776
sg74
(lp4792
g67
(g68
g69
NtRp4793
(dp4794
g72
(dp4795
g80
I5
ssg81
g4789
sg74
(lp4796
S'127.0.0.1-9bd70a00-d029-4b6e-8bcc-a423c3a61399'
p4797
asbasbasbag67
(g83
g69
NtRp4798
(dp4799
g72
(dp4800
sg81
g3111
sg74
(lp4801
g67
(g88
g69
NtRp4802
(dp4803
g72
(dp4804
g92
g93
ssg81
g4798
sg74
(lp4805
S'session_id_name'
p4806
asbag67
(g88
g69
NtRp4807
(dp4808
g72
(dp4809
g99
g100
ssg81
g4798
sg74
(lp4810
S':'
asbag67
(g88
g69
NtRp4811
(dp4812
g72
(dp4813
sg81
g4798
sg74
(lp4814
g67
(g68
g69
NtRp4815
(dp4816
g72
(dp4817
g80
I5
ssg81
g4811
sg74
(lp4818
g3168
asbasbasbag67
(g83
g69
NtRp4819
(dp4820
g72
(dp4821
sg81
g3111
sg74
(lp4822
g67
(g88
g69
NtRp4823
(dp4824
g72
(dp4825
g92
g93
ssg81
g4819
sg74
(lp4826
S'session_locked'
p4827
asbag67
(g88
g69
NtRp4828
(dp4829
g72
(dp4830
g99
g100
ssg81
g4819
sg74
(lp4831
S':'
asbag67
(g88
g69
NtRp4832
(dp4833
g72
(dp4834
sg81
g4819
sg74
(lp4835
g67
(g68
g69
NtRp4836
(dp4837
g72
(dp4838
g80
I5
ssg81
g4832
sg74
(lp4839
g1667
asbasbasbag67
(g83
g69
NtRp4840
(dp4841
g72
(dp4842
sg81
g3111
sg74
(lp4843
g67
(g88
g69
NtRp4844
(dp4845
g72
(dp4846
g92
g93
ssg81
g4840
sg74
(lp4847
S'session_new'
p4848
asbag67
(g88
g69
NtRp4849
(dp4850
g72
(dp4851
g99
g100
ssg81
g4840
sg74
(lp4852
S':'
asbag67
(g88
g69
NtRp4853
(dp4854
g72
(dp4855
sg81
g4840
sg74
(lp4856
g67
(g68
g69
NtRp4857
(dp4858
g72
(dp4859
g80
I5
ssg81
g4853
sg74
(lp4860
g110
asbasbasbag67
(g83
g69
NtRp4861
(dp4862
g72
(dp4863
sg81
g3111
sg74
(lp4864
g67
(g88
g69
NtRp4865
(dp4866
g72
(dp4867
g92
g93
ssg81
g4861
sg74
(lp4868
S'status'
p4869
asbag67
(g88
g69
NtRp4870
(dp4871
g72
(dp4872
g99
g100
ssg81
g4861
sg74
(lp4873
S':'
asbag67
(g88
g69
NtRp4874
(dp4875
g72
(dp4876
sg81
g4861
sg74
(lp4877
g67
(g68
g69
NtRp4878
(dp4879
g72
(dp4880
g80
I5
ssg81
g4874
sg74
(lp4881
S'200'
p4882
asbasbasbag67
(g83
g69
NtRp4883
(dp4884
g72
(dp4885
sg81
g3111
sg74
(lp4886
g67
(g88
g69
NtRp4887
(dp4888
g72
(dp4889
g92
g93
ssg81
g4883
sg74
(lp4890
S'subtitle'
p4891
asbag67
(g88
g69
NtRp4892
(dp4893
g72
(dp4894
g99
g100
ssg81
g4883
sg74
(lp4895
S':'
asbag67
(g88
g69
NtRp4896
(dp4897
g72
(dp4898
sg81
g4883
sg74
(lp4899
g67
(g68
g69
NtRp4900
(dp4901
g72
(dp4902
g80
I5
ssg81
g4896
sg74
(lp4903
g3616
(S's\r\x00\x00\x00customize me!'
tRp4904
asbasbasbag67
(g83
g69
NtRp4905
(dp4906
g72
(dp4907
sg81
g3111
sg74
(lp4908
g67
(g88
g69
NtRp4909
(dp4910
g72
(dp4911
g92
g93
ssg81
g4905
sg74
(lp4912
S'title'
p4913
asbag67
(g88
g69
NtRp4914
(dp4915
g72
(dp4916
g99
g100
ssg81
g4905
sg74
(lp4917
S':'
asbag67
(g88
g69
NtRp4918
(dp4919
g72
(dp4920
sg81
g4905
sg74
(lp4921
g67
(g68
g69
NtRp4922
(dp4923
g72
(dp4924
g80
I5
ssg81
g4918
sg74
(lp4925
g132
asbasbasbag67
(g83
g69
NtRp4926
(dp4927
g72
(dp4928
sg81
g3111
sg74
(lp4929
g67
(g88
g69
NtRp4930
(dp4931
g72
(dp4932
g92
g93
ssg81
g4926
sg74
(lp4933
g2311
asbag67
(g88
g69
NtRp4934
(dp4935
g72
(dp4936
g99
g100
ssg81
g4926
sg74
(lp4937
S':'
asbag67
(g88
g69
NtRp4938
(dp4939
g72
(dp4940
sg81
g4926
sg74
(lp4941
g67
(g68
g69
NtRp4942
(dp4943
g72
(dp4944
g80
I5
ssg81
g4938
sg74
(lp4945
g2324
asbasbasbag67
(g83
g69
NtRp4946
(dp4947
g72
(dp4948
sg81
g3111
sg74
(lp4949
g67
(g88
g69
NtRp4950
(dp4951
g72
(dp4952
g92
g93
ssg81
g4946
sg74
(lp4953
S'view'
p4954
asbag67
(g88
g69
NtRp4955
(dp4956
g72
(dp4957
g99
g100
ssg81
g4946
sg74
(lp4958
S':'
asbag67
(g88
g69
NtRp4959
(dp4960
g72
(dp4961
sg81
g4946
sg74
(lp4962
g67
(g68
g69
NtRp4963
(dp4964
g72
(dp4965
g80
I5
ssg81
g4959
sg74
(lp4966
S'default/index.html'
p4967
asbasbasbasbasbsS'locals'
p4968
(dp4969
g3
S"'/home/ian/web2py/applications/places/controllers/default.py'"
p4970
sg5
S"'# -*- coding: utf-8 -*-\\n# this file is released ...e_title)\\n\\nresponse._vars=response._caller(index)\\n'"
p4971
sssS'traceback'
p4972
S'Traceback (most recent call last):\n  File "/home/ian/web2py/gluon/restricted.py", line 193, in restricted\n    ccode = compile2(code,layer)\n  File "/home/ian/web2py/gluon/restricted.py", line 179, in compile2\n    return compile(code.rstrip().replace(\'\\r\\n\',\'\\n\')+\'\\n\', layer, \'exec\')\n  File "/home/ian/web2py/applications/places/controllers/default.py", line 85\n    closer = A(\'close\', _href=URL(\'#\'), _class=\'close_link\')\n   ^\nIndentationError: unexpected indent\n'
p4973
s.