(dp1
S'output'
p2
S''
sS'layer'
p3
S'/home/ian/web2py/applications/places/views/default/index.html'
p4
sS'code'
p5
S'left_sidebar_enabled=right_sidebar_enabled=False\nresponse.write(\'\\n\', escape=False)\nresponse.write(\'<!DOCTYPE html>\\n<html lang="\', escape=False)\nresponse.write(T.accepted_language or \'en\')\nresponse.write(\'" class="no-js"><!-- no-js need it for modernzr -->\\n  <head>\\n    \\n    <meta charset="utf-8" />        \\n    <!-- www.phpied.com/conditional-comments-block-downloads/ -->\\n    <!--[if IE]><![endif]-->    \\n    <!-- Always force latest IE rendering engine \\n     (even in intranet) & Chrome Frame \\n     Remove this if you use the .htaccess -->\\n    <meta http-equiv="X-UA-Compatible" content="IE=edge,chrome=1">\\n    \\n    <title>\', escape=False)\nresponse.write(response.title or request.application)\nresponse.write(\'</title>\\n    \\n    <!-- http://dev.w3.org/html5/markup/meta.name.html -->\\n    <meta name="application-name" content="\', escape=False)\nresponse.write(request.application)\nresponse.write(\'" /> \\n    \\n    <!-- Speaking of Google, don\\\'t forget to set your site up: \\n     http://google.com/webmasters -->\\n    <meta name="google-site-verification" content="" />\\n    \\n    <!--  Mobile Viewport Fix\\n      j.mp/mobileviewport & davidbcalhoun.com/2010/viewport-metatag \\n      device-width: Occupy full width of the screen in its current orientation\\n      initial-scale = 1.0 retains dimensions instead of zooming out if page height > device height\\n      maximum-scale = 1.0 retains dimensions instead of zooming in if page width < device width\\n      -->\\n    <meta name="viewport" content="width=device-width, initial-scale=1.0, maximum-scale=1.0">\\n    \\n    <!-- Place favicon.ico and apple-touch-icon.png in the root of your domain and delete these references -->\\n    <link rel="shortcut icon" href="\', escape=False)\nresponse.write(URL(\'static\',\'favicon.ico\'))\nresponse.write(\'" type="image/x-icon">\\n    <link rel="apple-touch-icon" href="\', escape=False)\nresponse.write(URL(\'static\',\'favicon.png\'))\nresponse.write(\'">\\n\\n    <!-- For the less-enabled mobile browsers like Opera Mini -->\\n    <link rel="stylesheet" media="handheld" href="\', escape=False)\nresponse.write(URL(\'static\',\'css/handheld.css\'))\nresponse.write(\'">\\n    \\n    <!-- All JavaScript at the bottom, except for Modernizr which enables HTML5 elements & feature detects -->\\n    <script src="\', escape=False)\nresponse.write(URL(\'static\',\'js/modernizr-1.7.min.js\'))\nresponse.write(\'"></script>\\n    \\n    \', escape=False)\n#------  require CSS and JS files for this page (read info in base.css) ------\nresponse.write(\'\\n    \', escape=False)\nresponse.files.append(URL(\'static\',\'css/base.css\'))\nresponse.write(\'\\n    \', escape=False)\nresponse.files.append(URL(\'static\',\'css/superfish.css\'))\nresponse.write(\'\\n    \', escape=False)\nresponse.files.append(URL(\'static\',\'js/superfish.js\'))\nresponse.write(\'\\n    \', escape=False)\n#------ include web2py specific js code (jquery, calendar, form stuff) ------\nresponse.write(\'\\n    \', escape=False)\nresponse.files.insert(0,URL(\'static\',\'js/jquery.js\'))\nresponse.files.insert(1,URL(\'static\',\'css/anytime.css\'))\nresponse.files.insert(2,URL(\'static\',\'js/anytime.js\'))\nresponse.include_meta()\nresponse.include_files()\nresponse.write(\'\\n<script type="text/javascript"><!--\\n    // These variables are used by the web2py_ajax_init function in web2py_ajax.js (which is loaded below).\\n    var w2p_ajax_confirm_message = "\', escape=False)\nresponse.write(T(\'Are you sure you want to delete this object?\'))\nresponse.write(\'";\\n    var w2p_ajax_date_format = "\', escape=False)\nresponse.write(T(\'%Y-%m-%d\'))\nresponse.write(\'";\\n    var w2p_ajax_datetime_format = "\', escape=False)\nresponse.write(T(\'%Y-%m-%d %H:%M:%S\'))\nresponse.write(\'";\\n    //--></script>\\n    <script src="\', escape=False)\nresponse.write(URL(\'static\',\'js/web2py_ajax.js\'))\nresponse.write(\'" type="text/javascript"></script>\\n\', escape=False)\nresponse.write(\'\\n\\n    \', escape=False)\n#using sidebars need to know what sidebar you want to use\n#prior of using it, because of static width size of content, you can use\n#left_sidebar, right_sidebar, both or none (False left and right)\nleft_sidebar_enabled = globals().get(\'left_sidebar_enabled\',False)\nright_sidebar_enabled = globals().get(\'right_sidebar_enabled\',False)\nif left_sidebar_enabled and right_sidebar_enabled: width_content=\'63%\'\nelif left_sidebar_enabled != right_sidebar_enabled: width_content=\'740px\'\nelse: width_content=\'100%\'\nif left_sidebar_enabled: left_sidebar_style = \'style="display: block;"\'\nelse: left_sidebar_style = \'style="display: none;"\'\nif right_sidebar_enabled: right_sidebar_style = \'style="display: block;"\'\nelse: right_sidebar_style = \'style="display: none;"\'\nstyle_content = \'style="width: %s"\' % width_content\nresponse.write(\'\\n    \\n    <!--use html5shiv to let IE see new html entities and give them block style so that they are treated properly--> \\n    <!--[if IE]>\\n        <script src="http://html5shiv.googlecode.com/svn/trunk/html5.js"></script>\\n    <![endif]-->\\n    <style>\\n      article, aside, details, figcaption, figure, footer, header,\\n      hgroup, menu, nav, section { display: block; }\\n    </style>\\n      \\n    \\n  </head>\\n  \\n  <!-- paulirish.com/2008/conditional-stylesheets-vs-css-hacks-answer-neither/ -->  \\n  <!--[if lt IE 7 ]> <body class="ie6"> <![endif]-->\\n  <!--[if IE 7 ]>    <body class="ie7"> <![endif]-->\\n  <!--[if IE 8 ]>    <body class="ie8"> <![endif]-->\\n  <!--[if IE 9 ]>    <body class="ie9"> <![endif]-->\\n  <!--[if (gt IE 9)|!(IE)]><!--> <body> <!--<![endif]-->\\n    \\n    <div class="flash">\', escape=False)\nresponse.write(response.flash or \'\')\nresponse.write(\'</div> <!-- notification div -->                           \\n    \\n    <header>\\n        \\n      \', escape=False)\nresponse.write(\' <!-- this is default header -->\\n      \', escape=False)\ntry:\n    response.write(auth.navbar(action=URL(\'default\',\'user\')))\nexcept:pass\nresponse.write(\'               \\n      <h1 id="appname">\', escape=False)\nresponse.write(A(request.application.capitalize(), _href=URL(\'default\', \'index\')))\nresponse.write(\'</h1>\\n      <div style="clear: both;"></div><!-- Clear the divs -->\\n      \', escape=False)\nresponse.write(\'                \\n                             \\n    </header>\\n    \\n    <div id="page" class="\', escape=False)\nresponse.write(request.controller)\nresponse.write(\' \', escape=False)\nresponse.write(request.function)\nresponse.write(\'">    \\n\\n      \', escape=False)\nif left_sidebar_enabled:\n    response.write(\'\\n          <div id="left_sidebar" \', escape=False)\n    response.write(XML(left_sidebar_style))\n    response.write(\' >\\n            <div style="padding: 4px;">\\n          \', escape=False)\n    response.write(\'New Left Sidebar Content\', escape=False)\n    response.write(\'       \\n            </div>\\n          </div><!-- left_sidebar -->\\n      \', escape=False)\n    pass\nresponse.write(\'\\n\\n      <!-- content of other views-->\\n      \', escape=False)\nresponse.write("\\n\\n<ul id=\'menu\' class=\'clearfix\'>\\n", escape=False)\nfor tag in db(db.tags).select():\n    response.write(\'\\n\\n\', escape=False)\n    response.write(LI(A(tag.tag, _href=URL(\'index.load\', args=[tag.tag]), cid="links")))\n    response.write(\'\\n\\n\', escape=False)\n    pass\nresponse.write("\\n<li class=\'adder\'>", escape=False)\nresponse.write(A(\'add\', _href=URL(\'create.load\'), cid=\'modal_form\')\nresponse.write(\'</li>\\n</ul>\\n\\n<section id="links">\\n\\n\', escape=False)\nresponse.write(LOAD(\'index.load\',ajax=True))\nresponse.write(\'\\n\\n</section>\\n\\n\', escape=False)\n#=BEAUTIFY(response._vars)\nresponse.write(\'\\n\\n\', escape=False)\nresponse.write(\'\\n\', escape=False)\nresponse.write(\'\\n\', escape=False)\nresponse.write(\' \\n      <!-- content -->\\n\\n      \', escape=False)\nif right_sidebar_enabled:\n    response.write(\'\\n          <div id="right_sidebar" \', escape=False)\n    response.write(XML(right_sidebar_style))\n    response.write(\' >\\n            <div style="padding: 4px;">\\n              \', escape=False)\n    response.write(\'New Right Sidebar Content\', escape=False)\n    response.write(\'\\n            </div>\\n          </div><!-- right_sidebar -->\\n      \', escape=False)\n    pass\nresponse.write(\'\\n       \\n      <div style="clear: both;"></div><!-- Clear the divs -->                         \\n    \\n    </div><!--page-->\\n    \\n    <footer>\\n      \', escape=False)\nresponse.write(\' <!-- this is default footer -->\\n      <a href="http://www.web2py.com/" >\\n        <img src="\', escape=False)\nresponse.write(URL(\'static\',\'images/poweredby.png\'))\nresponse.write(\'"/>\\n      </a>\\n      \', escape=False)\nresponse.write(T(\'Copyright\'))\nresponse.write(\' &#169; Ian W. Scott 2011 (licensed under GPL 3.0)               \\n      <div style="clear: both;"></div><!-- Clear the divs -->\\n      \', escape=False)\nresponse.write("\\n    </footer>           \\n\\n\\t<div id=\'modal_frame\'>", escape=False)\nresponse.write(LOAD(\'create.load\',ajax=True))\nresponse.write(\'</div>\\n\\n    <!--[if lt IE 7 ]>\\n    <script src="\', escape=False)\nresponse.write(URL(\'static\',\'js/dd_belatedpng.js\'))\nresponse.write(\'"></script>\\n    <script> DD_belatedPNG.fix(\\\'img, .png_bg\\\'); //fix any <img> or .png_bg background-images </script>\\n    <![endif]-->\\n    \\n    <!-- asynchronous google analytics: mathiasbynens.be/notes/async-analytics-snippet \\n     change the UA-XXXXX-X to be your site\\\'s ID -->\\n    <!--   \\n       <script>\\n         var _gaq = [[\\\'_setAccount\\\', \\\'UA-XXXXX-X\\\'], [\\\'_trackPageview\\\']];\\n         (function(d, t) {\\n         var g = d.createElement(t),\\n         s = d.getElementsByTagName(t)[0];\\n         g.async = true;\\n         g.src = \\\'//www.google-analytics.com/ga.js\\\';\\n         s.parentNode.insertBefore(g, s);\\n         })(document, \\\'script\\\');\\n       </script>\\n       -->    \\n  </body>\\n</html>\\n\', escape=False)'
p6
sS'snapshot'
p7
(dp8
S'exception'
p9
(dp10
S'__getslice__'
p11
S"<method-wrapper '__getslice__' of exceptions.SyntaxError object>"
p12
sS'text'
p13
S'\'response.write(\\\'</li>\\\\n</ul>\\\\n\\\\n<section id="links">\\\\n\\\\n\\\', escape=False)\\n\''
p14
sS'__str__'
p15
S"<method-wrapper '__str__' of exceptions.SyntaxError object>"
p16
sS'__reduce__'
p17
S'<built-in method __reduce__ of exceptions.SyntaxError object>'
p18
sS'__dict__'
p19
S'{}'
p20
sS'__sizeof__'
p21
S'<built-in method __sizeof__ of exceptions.SyntaxError object>'
p22
sS'__init__'
p23
S"<method-wrapper '__init__' of exceptions.SyntaxError object>"
p24
sS'__setattr__'
p25
S"<method-wrapper '__setattr__' of exceptions.SyntaxError object>"
p26
sS'__reduce_ex__'
p27
S'<built-in method __reduce_ex__ of exceptions.SyntaxError object>'
p28
sS'__new__'
p29
S'<built-in method __new__ of type object>'
p30
sS'__format__'
p31
S'<built-in method __format__ of exceptions.SyntaxError object>'
p32
sS'__class__'
p33
S"<type 'exceptions.SyntaxError'>"
p34
sS'filename'
p35
S"'/home/ian/web2py/applications/places/views/default/index.html'"
p36
sS'lineno'
p37
S'87'
p38
sS'msg'
p39
S"'invalid syntax'"
p40
sS'__doc__'
p41
S"'Invalid syntax.'"
p42
sS'__getitem__'
p43
S"<method-wrapper '__getitem__' of exceptions.SyntaxError object>"
p44
sS'__setstate__'
p45
S'<built-in method __setstate__ of exceptions.SyntaxError object>'
p46
sS'__getattribute__'
p47
S"<method-wrapper '__getattribute__' of exceptions.SyntaxError object>"
p48
sS'print_file_and_line'
p49
S'None'
p50
sS'args'
p51
S'(\'invalid syntax\', (\'/home/ian/web2py/applications/places/views/default/index.html\', 87, 8, \'response.write(\\\'</li>\\\\n</ul>\\\\n\\\\n<section id="links">\\\\n\\\\n\\\', escape=False)\\n\'))'
p52
sS'__subclasshook__'
p53
S'<built-in method __subclasshook__ of type object>'
p54
sS'offset'
p55
S'8'
sS'__unicode__'
p56
S'<built-in method __unicode__ of exceptions.SyntaxError object>'
p57
sS'__delattr__'
p58
S"<method-wrapper '__delattr__' of exceptions.SyntaxError object>"
p59
sS'__repr__'
p60
S"<method-wrapper '__repr__' of exceptions.SyntaxError object>"
p61
sS'__hash__'
p62
S"<method-wrapper '__hash__' of exceptions.SyntaxError object>"
p63
ssS'evalue'
p64
S'invalid syntax (index.html, line 87)'
p65
sS'request'
p66
ccopy_reg
_reconstructor
p67
(cgluon.html
BEAUTIFY
p68
c__builtin__
object
p69
NtRp70
(dp71
S'attributes'
p72
(dp73
sS'components'
p74
(lp75
g67
(cgluon.html
TABLE
p76
g69
NtRp77
(dp78
g72
(dp79
S'level'
p80
I5
ssS'parent'
p81
Nsg74
(lp82
g67
(cgluon.html
TR
p83
g69
NtRp84
(dp85
g72
(dp86
sg81
g77
sg74
(lp87
g67
(cgluon.html
TD
p88
g69
NtRp89
(dp90
g72
(dp91
S'_style'
p92
S'font-weight:bold;'
p93
ssg81
g84
sg74
(lp94
S'ajax'
p95
asbag67
(g88
g69
NtRp96
(dp97
g72
(dp98
S'_valign'
p99
S'top'
p100
ssg81
g84
sg74
(lp101
S':'
asbag67
(g88
g69
NtRp102
(dp103
g72
(dp104
sg81
g84
sg74
(lp105
g67
(g68
g69
NtRp106
(dp107
g72
(dp108
g80
I5
ssg81
g102
sg74
(lp109
S'False'
p110
asbasbasbag67
(g83
g69
NtRp111
(dp112
g72
(dp113
sg81
g77
sg74
(lp114
g67
(g88
g69
NtRp115
(dp116
g72
(dp117
g92
g93
ssg81
g111
sg74
(lp118
S'application'
p119
asbag67
(g88
g69
NtRp120
(dp121
g72
(dp122
g99
g100
ssg81
g111
sg74
(lp123
S':'
asbag67
(g88
g69
NtRp124
(dp125
g72
(dp126
sg81
g111
sg74
(lp127
g67
(g68
g69
NtRp128
(dp129
g72
(dp130
g80
I5
ssg81
g124
sg74
(lp131
S'places'
p132
asbasbasbag67
(g83
g69
NtRp133
(dp134
g72
(dp135
sg81
g77
sg74
(lp136
g67
(g88
g69
NtRp137
(dp138
g72
(dp139
g92
g93
ssg81
g133
sg74
(lp140
g51
asbag67
(g88
g69
NtRp141
(dp142
g72
(dp143
g99
g100
ssg81
g133
sg74
(lp144
S':'
asbag67
(g88
g69
NtRp145
(dp146
g72
(dp147
sg81
g133
sg74
(lp148
g67
(g68
g69
NtRp149
(dp150
g72
(dp151
g80
I5
ssg81
g145
sg74
(lp152
g67
(g76
g69
NtRp153
(dp154
g72
(dp155
g80
I4
ssg81
Nsg74
(lp156
sbasbasbasbag67
(g83
g69
NtRp157
(dp158
g72
(dp159
sg81
g77
sg74
(lp160
g67
(g88
g69
NtRp161
(dp162
g72
(dp163
g92
g93
ssg81
g157
sg74
(lp164
S'body'
p165
asbag67
(g88
g69
NtRp166
(dp167
g72
(dp168
g99
g100
ssg81
g157
sg74
(lp169
S':'
asbag67
(g88
g69
NtRp170
(dp171
g72
(dp172
sg81
g157
sg74
(lp173
g67
(g68
g69
NtRp174
(dp175
g72
(dp176
g80
I5
ssg81
g170
sg74
(lp177
S'<cStringIO.StringO object at 0x2c3c3e8>'
p178
asbasbasbag67
(g83
g69
NtRp179
(dp180
g72
(dp181
sg81
g77
sg74
(lp182
g67
(g88
g69
NtRp183
(dp184
g72
(dp185
g92
g93
ssg81
g179
sg74
(lp186
S'client'
p187
asbag67
(g88
g69
NtRp188
(dp189
g72
(dp190
g99
g100
ssg81
g179
sg74
(lp191
S':'
asbag67
(g88
g69
NtRp192
(dp193
g72
(dp194
sg81
g179
sg74
(lp195
g67
(g68
g69
NtRp196
(dp197
g72
(dp198
g80
I5
ssg81
g192
sg74
(lp199
S'127.0.0.1'
p200
asbasbasbag67
(g83
g69
NtRp201
(dp202
g72
(dp203
sg81
g77
sg74
(lp204
g67
(g88
g69
NtRp205
(dp206
g72
(dp207
g92
g93
ssg81
g201
sg74
(lp208
S'controller'
p209
asbag67
(g88
g69
NtRp210
(dp211
g72
(dp212
g99
g100
ssg81
g201
sg74
(lp213
S':'
asbag67
(g88
g69
NtRp214
(dp215
g72
(dp216
sg81
g201
sg74
(lp217
g67
(g68
g69
NtRp218
(dp219
g72
(dp220
g80
I5
ssg81
g214
sg74
(lp221
S'default'
p222
asbasbasbag67
(g83
g69
NtRp223
(dp224
g72
(dp225
sg81
g77
sg74
(lp226
g67
(g88
g69
NtRp227
(dp228
g72
(dp229
g92
g93
ssg81
g223
sg74
(lp230
S'cookies'
p231
asbag67
(g88
g69
NtRp232
(dp233
g72
(dp234
g99
g100
ssg81
g223
sg74
(lp235
S':'
asbag67
(g88
g69
NtRp236
(dp237
g72
(dp238
sg81
g223
sg74
(lp239
g67
(g68
g69
NtRp240
(dp241
g72
(dp242
g80
I5
ssg81
g236
sg74
(lp243
g67
(g76
g69
NtRp244
(dp245
g72
(dp246
g80
I4
ssg81
Nsg74
(lp247
g67
(g83
g69
NtRp248
(dp249
g72
(dp250
sg81
g244
sg74
(lp251
g67
(g88
g69
NtRp252
(dp253
g72
(dp254
g92
g93
ssg81
g248
sg74
(lp255
S'session_id_welcome'
p256
asbag67
(g88
g69
NtRp257
(dp258
g72
(dp259
g99
g100
ssg81
g248
sg74
(lp260
S':'
asbag67
(g88
g69
NtRp261
(dp262
g72
(dp263
sg81
g248
sg74
(lp264
g67
(g68
g69
NtRp265
(dp266
g72
(dp267
g80
I4
ssg81
g261
sg74
(lp268
g67
(g76
g69
NtRp269
(dp270
g72
(dp271
g80
I3
ssg81
Nsg74
(lp272
g67
(g83
g69
NtRp273
(dp274
g72
(dp275
sg81
g269
sg74
(lp276
g67
(g88
g69
NtRp277
(dp278
g72
(dp279
g92
g93
ssg81
g273
sg74
(lp280
S'comment'
p281
asbag67
(g88
g69
NtRp282
(dp283
g72
(dp284
g99
g100
ssg81
g273
sg74
(lp285
S':'
asbag67
(g88
g69
NtRp286
(dp287
g72
(dp288
sg81
g273
sg74
(lp289
g67
(g68
g69
NtRp290
(dp291
g72
(dp292
g80
I3
ssg81
g286
sg74
(lp293
S''
asbasbasbag67
(g83
g69
NtRp294
(dp295
g72
(dp296
sg81
g269
sg74
(lp297
g67
(g88
g69
NtRp298
(dp299
g72
(dp300
g92
g93
ssg81
g294
sg74
(lp301
S'domain'
p302
asbag67
(g88
g69
NtRp303
(dp304
g72
(dp305
g99
g100
ssg81
g294
sg74
(lp306
S':'
asbag67
(g88
g69
NtRp307
(dp308
g72
(dp309
sg81
g294
sg74
(lp310
g67
(g68
g69
NtRp311
(dp312
g72
(dp313
g80
I3
ssg81
g307
sg74
(lp314
S''
asbasbasbag67
(g83
g69
NtRp315
(dp316
g72
(dp317
sg81
g269
sg74
(lp318
g67
(g88
g69
NtRp319
(dp320
g72
(dp321
g92
g93
ssg81
g315
sg74
(lp322
S'expires'
p323
asbag67
(g88
g69
NtRp324
(dp325
g72
(dp326
g99
g100
ssg81
g315
sg74
(lp327
S':'
asbag67
(g88
g69
NtRp328
(dp329
g72
(dp330
sg81
g315
sg74
(lp331
g67
(g68
g69
NtRp332
(dp333
g72
(dp334
g80
I3
ssg81
g328
sg74
(lp335
S''
asbasbasbag67
(g83
g69
NtRp336
(dp337
g72
(dp338
sg81
g269
sg74
(lp339
g67
(g88
g69
NtRp340
(dp341
g72
(dp342
g92
g93
ssg81
g336
sg74
(lp343
S'httponly'
p344
asbag67
(g88
g69
NtRp345
(dp346
g72
(dp347
g99
g100
ssg81
g336
sg74
(lp348
S':'
asbag67
(g88
g69
NtRp349
(dp350
g72
(dp351
sg81
g336
sg74
(lp352
g67
(g68
g69
NtRp353
(dp354
g72
(dp355
g80
I3
ssg81
g349
sg74
(lp356
S''
asbasbasbag67
(g83
g69
NtRp357
(dp358
g72
(dp359
sg81
g269
sg74
(lp360
g67
(g88
g69
NtRp361
(dp362
g72
(dp363
g92
g93
ssg81
g357
sg74
(lp364
S'max-age'
p365
asbag67
(g88
g69
NtRp366
(dp367
g72
(dp368
g99
g100
ssg81
g357
sg74
(lp369
S':'
asbag67
(g88
g69
NtRp370
(dp371
g72
(dp372
sg81
g357
sg74
(lp373
g67
(g68
g69
NtRp374
(dp375
g72
(dp376
g80
I3
ssg81
g370
sg74
(lp377
S''
asbasbasbag67
(g83
g69
NtRp378
(dp379
g72
(dp380
sg81
g269
sg74
(lp381
g67
(g88
g69
NtRp382
(dp383
g72
(dp384
g92
g93
ssg81
g378
sg74
(lp385
S'path'
p386
asbag67
(g88
g69
NtRp387
(dp388
g72
(dp389
g99
g100
ssg81
g378
sg74
(lp390
S':'
asbag67
(g88
g69
NtRp391
(dp392
g72
(dp393
sg81
g378
sg74
(lp394
g67
(g68
g69
NtRp395
(dp396
g72
(dp397
g80
I3
ssg81
g391
sg74
(lp398
S''
asbasbasbag67
(g83
g69
NtRp399
(dp400
g72
(dp401
sg81
g269
sg74
(lp402
g67
(g88
g69
NtRp403
(dp404
g72
(dp405
g92
g93
ssg81
g399
sg74
(lp406
S'secure'
p407
asbag67
(g88
g69
NtRp408
(dp409
g72
(dp410
g99
g100
ssg81
g399
sg74
(lp411
S':'
asbag67
(g88
g69
NtRp412
(dp413
g72
(dp414
sg81
g399
sg74
(lp415
g67
(g68
g69
NtRp416
(dp417
g72
(dp418
g80
I3
ssg81
g412
sg74
(lp419
S''
asbasbasbag67
(g83
g69
NtRp420
(dp421
g72
(dp422
sg81
g269
sg74
(lp423
g67
(g88
g69
NtRp424
(dp425
g72
(dp426
g92
g93
ssg81
g420
sg74
(lp427
S'version'
p428
asbag67
(g88
g69
NtRp429
(dp430
g72
(dp431
g99
g100
ssg81
g420
sg74
(lp432
S':'
asbag67
(g88
g69
NtRp433
(dp434
g72
(dp435
sg81
g420
sg74
(lp436
g67
(g68
g69
NtRp437
(dp438
g72
(dp439
g80
I3
ssg81
g433
sg74
(lp440
S''
asbasbasbasbasbasbasbasbasbasbasbag67
(g83
g69
NtRp441
(dp442
g72
(dp443
sg81
g77
sg74
(lp444
g67
(g88
g69
NtRp445
(dp446
g72
(dp447
g92
g93
ssg81
g441
sg74
(lp448
S'env'
p449
asbag67
(g88
g69
NtRp450
(dp451
g72
(dp452
g99
g100
ssg81
g441
sg74
(lp453
S':'
asbag67
(g88
g69
NtRp454
(dp455
g72
(dp456
sg81
g441
sg74
(lp457
g67
(g68
g69
NtRp458
(dp459
g72
(dp460
g80
I5
ssg81
g454
sg74
(lp461
g67
(g76
g69
NtRp462
(dp463
g72
(dp464
g80
I4
ssg81
Nsg74
(lp465
g67
(g83
g69
NtRp466
(dp467
g72
(dp468
sg81
g462
sg74
(lp469
g67
(g88
g69
NtRp470
(dp471
g72
(dp472
g92
g93
ssg81
g466
sg74
(lp473
S'app_folders'
p474
asbag67
(g88
g69
NtRp475
(dp476
g72
(dp477
g99
g100
ssg81
g466
sg74
(lp478
S':'
asbag67
(g88
g69
NtRp479
(dp480
g72
(dp481
sg81
g466
sg74
(lp482
g67
(g68
g69
NtRp483
(dp484
g72
(dp485
g80
I4
ssg81
g479
sg74
(lp486
S"set(['/home/ian/web2py/applications/welcome/', '/home/ian/web2py/applications/places/'])"
p487
asbasbasbag67
(g83
g69
NtRp488
(dp489
g72
(dp490
sg81
g462
sg74
(lp491
g67
(g88
g69
NtRp492
(dp493
g72
(dp494
g92
g93
ssg81
g488
sg74
(lp495
S'applications_parent'
p496
asbag67
(g88
g69
NtRp497
(dp498
g72
(dp499
g99
g100
ssg81
g488
sg74
(lp500
S':'
asbag67
(g88
g69
NtRp501
(dp502
g72
(dp503
sg81
g488
sg74
(lp504
g67
(g68
g69
NtRp505
(dp506
g72
(dp507
g80
I4
ssg81
g501
sg74
(lp508
S'/home/ian/web2py'
p509
asbasbasbag67
(g83
g69
NtRp510
(dp511
g72
(dp512
sg81
g462
sg74
(lp513
g67
(g88
g69
NtRp514
(dp515
g72
(dp516
g92
g93
ssg81
g510
sg74
(lp517
S'cmd_args'
p518
asbag67
(g88
g69
NtRp519
(dp520
g72
(dp521
g99
g100
ssg81
g510
sg74
(lp522
S':'
asbag67
(g88
g69
NtRp523
(dp524
g72
(dp525
sg81
g510
sg74
(lp526
g67
(g68
g69
NtRp527
(dp528
g72
(dp529
g80
I4
ssg81
g523
sg74
(lp530
g67
(g76
g69
NtRp531
(dp532
g72
(dp533
g80
I3
ssg81
Nsg74
(lp534
sbasbasbasbag67
(g83
g69
NtRp535
(dp536
g72
(dp537
sg81
g462
sg74
(lp538
g67
(g88
g69
NtRp539
(dp540
g72
(dp541
g92
g93
ssg81
g535
sg74
(lp542
S'cmd_options'
p543
asbag67
(g88
g69
NtRp544
(dp545
g72
(dp546
g99
g100
ssg81
g535
sg74
(lp547
S':'
asbag67
(g88
g69
NtRp548
(dp549
g72
(dp550
sg81
g535
sg74
(lp551
g67
(g68
g69
NtRp552
(dp553
g72
(dp554
g80
I4
ssg81
g548
sg74
(lp555
S"<Values at 0x26ccbd8: {'verbose': False, 'ip': '127.0.0.1', 'shutdown_timeout': 5, 'taskbar': False, 'nocron': False, 'pid_filename': 'httpserver.pid', 'maxthreads': None, 'softcron': False, 'server_name': 'Ariel-ubuntu', 'bpython': False, 'nogui': False, 'port': 8000, 'extcron': False, 'debuglevel': 30, 'test': None, 'folder': '/home/ian/web2py', 'config': '', 'import_models': False, 'winservice': '', 'shell': None, 'run': '', 'log_filename': 'httpserver.log', 'args': [''], 'ssl_ca_certificate': None, 'scheduler': None, 'profiler_filename': None, 'ssl_private_key': '', 'password': '<ask>', 'request_queue_size': 5, 'ssl_certificate': '', 'cronjob': False, 'plain': False, 'quiet': False, 'interfaces': None, 'minthreads': None, 'timeout': 10, 'numthreads': None, 'nobanner': False}>"
p556
asbasbasbag67
(g83
g69
NtRp557
(dp558
g72
(dp559
sg81
g462
sg74
(lp560
g67
(g88
g69
NtRp561
(dp562
g72
(dp563
g92
g93
ssg81
g557
sg74
(lp564
S'db_sessions'
p565
asbag67
(g88
g69
NtRp566
(dp567
g72
(dp568
g99
g100
ssg81
g557
sg74
(lp569
S':'
asbag67
(g88
g69
NtRp570
(dp571
g72
(dp572
sg81
g557
sg74
(lp573
g67
(g68
g69
NtRp574
(dp575
g72
(dp576
g80
I4
ssg81
g570
sg74
(lp577
S'set([])'
p578
asbasbasbag67
(g83
g69
NtRp579
(dp580
g72
(dp581
sg81
g462
sg74
(lp582
g67
(g88
g69
NtRp583
(dp584
g72
(dp585
g92
g93
ssg81
g579
sg74
(lp586
S'debugging'
p587
asbag67
(g88
g69
NtRp588
(dp589
g72
(dp590
g99
g100
ssg81
g579
sg74
(lp591
S':'
asbag67
(g88
g69
NtRp592
(dp593
g72
(dp594
sg81
g579
sg74
(lp595
g67
(g68
g69
NtRp596
(dp597
g72
(dp598
g80
I4
ssg81
g592
sg74
(lp599
g110
asbasbasbag67
(g83
g69
NtRp600
(dp601
g72
(dp602
sg81
g462
sg74
(lp603
g67
(g88
g69
NtRp604
(dp605
g72
(dp606
g92
g93
ssg81
g600
sg74
(lp607
S'gluon_parent'
p608
asbag67
(g88
g69
NtRp609
(dp610
g72
(dp611
g99
g100
ssg81
g600
sg74
(lp612
S':'
asbag67
(g88
g69
NtRp613
(dp614
g72
(dp615
sg81
g600
sg74
(lp616
g67
(g68
g69
NtRp617
(dp618
g72
(dp619
g80
I4
ssg81
g613
sg74
(lp620
S'/home/ian/web2py'
p621
asbasbasbag67
(g83
g69
NtRp622
(dp623
g72
(dp624
sg81
g462
sg74
(lp625
g67
(g88
g69
NtRp626
(dp627
g72
(dp628
g92
g93
ssg81
g622
sg74
(lp629
S'http_accept'
p630
asbag67
(g88
g69
NtRp631
(dp632
g72
(dp633
g99
g100
ssg81
g622
sg74
(lp634
S':'
asbag67
(g88
g69
NtRp635
(dp636
g72
(dp637
sg81
g622
sg74
(lp638
g67
(g68
g69
NtRp639
(dp640
g72
(dp641
g80
I4
ssg81
g635
sg74
(lp642
S'text/html,application/xhtml+xml,application/xml;q=0.9,*/*;q=0.8'
p643
asbasbasbag67
(g83
g69
NtRp644
(dp645
g72
(dp646
sg81
g462
sg74
(lp647
g67
(g88
g69
NtRp648
(dp649
g72
(dp650
g92
g93
ssg81
g644
sg74
(lp651
S'http_accept_charset'
p652
asbag67
(g88
g69
NtRp653
(dp654
g72
(dp655
g99
g100
ssg81
g644
sg74
(lp656
S':'
asbag67
(g88
g69
NtRp657
(dp658
g72
(dp659
sg81
g644
sg74
(lp660
g67
(g68
g69
NtRp661
(dp662
g72
(dp663
g80
I4
ssg81
g657
sg74
(lp664
S'ISO-8859-1,utf-8;q=0.7,*;q=0.7'
p665
asbasbasbag67
(g83
g69
NtRp666
(dp667
g72
(dp668
sg81
g462
sg74
(lp669
g67
(g88
g69
NtRp670
(dp671
g72
(dp672
g92
g93
ssg81
g666
sg74
(lp673
S'http_accept_encoding'
p674
asbag67
(g88
g69
NtRp675
(dp676
g72
(dp677
g99
g100
ssg81
g666
sg74
(lp678
S':'
asbag67
(g88
g69
NtRp679
(dp680
g72
(dp681
sg81
g666
sg74
(lp682
g67
(g68
g69
NtRp683
(dp684
g72
(dp685
g80
I4
ssg81
g679
sg74
(lp686
S'gzip, deflate'
p687
asbasbasbag67
(g83
g69
NtRp688
(dp689
g72
(dp690
sg81
g462
sg74
(lp691
g67
(g88
g69
NtRp692
(dp693
g72
(dp694
g92
g93
ssg81
g688
sg74
(lp695
S'http_accept_language'
p696
asbag67
(g88
g69
NtRp697
(dp698
g72
(dp699
g99
g100
ssg81
g688
sg74
(lp700
S':'
asbag67
(g88
g69
NtRp701
(dp702
g72
(dp703
sg81
g688
sg74
(lp704
g67
(g68
g69
NtRp705
(dp706
g72
(dp707
g80
I4
ssg81
g701
sg74
(lp708
S'en-us,en;q=0.5'
p709
asbasbasbag67
(g83
g69
NtRp710
(dp711
g72
(dp712
sg81
g462
sg74
(lp713
g67
(g88
g69
NtRp714
(dp715
g72
(dp716
g92
g93
ssg81
g710
sg74
(lp717
S'http_connection'
p718
asbag67
(g88
g69
NtRp719
(dp720
g72
(dp721
g99
g100
ssg81
g710
sg74
(lp722
S':'
asbag67
(g88
g69
NtRp723
(dp724
g72
(dp725
sg81
g710
sg74
(lp726
g67
(g68
g69
NtRp727
(dp728
g72
(dp729
g80
I4
ssg81
g723
sg74
(lp730
S'keep-alive'
p731
asbasbasbag67
(g83
g69
NtRp732
(dp733
g72
(dp734
sg81
g462
sg74
(lp735
g67
(g88
g69
NtRp736
(dp737
g72
(dp738
g92
g93
ssg81
g732
sg74
(lp739
S'http_cookie'
p740
asbag67
(g88
g69
NtRp741
(dp742
g72
(dp743
g99
g100
ssg81
g732
sg74
(lp744
S':'
asbag67
(g88
g69
NtRp745
(dp746
g72
(dp747
sg81
g732
sg74
(lp748
g67
(g68
g69
NtRp749
(dp750
g72
(dp751
g80
I4
ssg81
g745
sg74
(lp752
S'session_id_welcome=127.0.0.1-f0e6d08e-4585-488a-91e0-180c6c7f25a8'
p753
asbasbasbag67
(g83
g69
NtRp754
(dp755
g72
(dp756
sg81
g462
sg74
(lp757
g67
(g88
g69
NtRp758
(dp759
g72
(dp760
g92
g93
ssg81
g754
sg74
(lp761
S'http_host'
p762
asbag67
(g88
g69
NtRp763
(dp764
g72
(dp765
g99
g100
ssg81
g754
sg74
(lp766
S':'
asbag67
(g88
g69
NtRp767
(dp768
g72
(dp769
sg81
g754
sg74
(lp770
g67
(g68
g69
NtRp771
(dp772
g72
(dp773
g80
I4
ssg81
g767
sg74
(lp774
S'127.0.0.1:8000'
p775
asbasbasbag67
(g83
g69
NtRp776
(dp777
g72
(dp778
sg81
g462
sg74
(lp779
g67
(g88
g69
NtRp780
(dp781
g72
(dp782
g92
g93
ssg81
g776
sg74
(lp783
S'http_user_agent'
p784
asbag67
(g88
g69
NtRp785
(dp786
g72
(dp787
g99
g100
ssg81
g776
sg74
(lp788
S':'
asbag67
(g88
g69
NtRp789
(dp790
g72
(dp791
sg81
g776
sg74
(lp792
g67
(g68
g69
NtRp793
(dp794
g72
(dp795
g80
I4
ssg81
g789
sg74
(lp796
S'Mozilla/5.0 (X11; Linux x86_64; rv:7.0.1) Gecko/20100101 Firefox/7.0.1'
p797
asbasbasbag67
(g83
g69
NtRp798
(dp799
g72
(dp800
sg81
g462
sg74
(lp801
g67
(g88
g69
NtRp802
(dp803
g72
(dp804
g92
g93
ssg81
g798
sg74
(lp805
S'is_jython'
p806
asbag67
(g88
g69
NtRp807
(dp808
g72
(dp809
g99
g100
ssg81
g798
sg74
(lp810
S':'
asbag67
(g88
g69
NtRp811
(dp812
g72
(dp813
sg81
g798
sg74
(lp814
g67
(g68
g69
NtRp815
(dp816
g72
(dp817
g80
I4
ssg81
g811
sg74
(lp818
g110
asbasbasbag67
(g83
g69
NtRp819
(dp820
g72
(dp821
sg81
g462
sg74
(lp822
g67
(g88
g69
NtRp823
(dp824
g72
(dp825
g92
g93
ssg81
g819
sg74
(lp826
S'path_info'
p827
asbag67
(g88
g69
NtRp828
(dp829
g72
(dp830
g99
g100
ssg81
g819
sg74
(lp831
S':'
asbag67
(g88
g69
NtRp832
(dp833
g72
(dp834
sg81
g819
sg74
(lp835
g67
(g68
g69
NtRp836
(dp837
g72
(dp838
g80
I4
ssg81
g832
sg74
(lp839
S'/places'
p840
asbasbasbag67
(g83
g69
NtRp841
(dp842
g72
(dp843
sg81
g462
sg74
(lp844
g67
(g88
g69
NtRp845
(dp846
g72
(dp847
g92
g93
ssg81
g841
sg74
(lp848
S'query_string'
p849
asbag67
(g88
g69
NtRp850
(dp851
g72
(dp852
g99
g100
ssg81
g841
sg74
(lp853
S':'
asbag67
(g88
g69
NtRp854
(dp855
g72
(dp856
sg81
g841
sg74
(lp857
g67
(g68
g69
NtRp858
(dp859
g72
(dp860
g80
I4
ssg81
g854
sg74
(lp861
S''
asbasbasbag67
(g83
g69
NtRp862
(dp863
g72
(dp864
sg81
g462
sg74
(lp865
g67
(g88
g69
NtRp866
(dp867
g72
(dp868
g92
g93
ssg81
g862
sg74
(lp869
S'remote_addr'
p870
asbag67
(g88
g69
NtRp871
(dp872
g72
(dp873
g99
g100
ssg81
g862
sg74
(lp874
S':'
asbag67
(g88
g69
NtRp875
(dp876
g72
(dp877
sg81
g862
sg74
(lp878
g67
(g68
g69
NtRp879
(dp880
g72
(dp881
g80
I4
ssg81
g875
sg74
(lp882
g200
asbasbasbag67
(g83
g69
NtRp883
(dp884
g72
(dp885
sg81
g462
sg74
(lp886
g67
(g88
g69
NtRp887
(dp888
g72
(dp889
g92
g93
ssg81
g883
sg74
(lp890
S'remote_port'
p891
asbag67
(g88
g69
NtRp892
(dp893
g72
(dp894
g99
g100
ssg81
g883
sg74
(lp895
S':'
asbag67
(g88
g69
NtRp896
(dp897
g72
(dp898
sg81
g883
sg74
(lp899
g67
(g68
g69
NtRp900
(dp901
g72
(dp902
g80
I4
ssg81
g896
sg74
(lp903
S'32891'
p904
asbasbasbag67
(g83
g69
NtRp905
(dp906
g72
(dp907
sg81
g462
sg74
(lp908
g67
(g88
g69
NtRp909
(dp910
g72
(dp911
g92
g93
ssg81
g905
sg74
(lp912
S'request_method'
p913
asbag67
(g88
g69
NtRp914
(dp915
g72
(dp916
g99
g100
ssg81
g905
sg74
(lp917
S':'
asbag67
(g88
g69
NtRp918
(dp919
g72
(dp920
sg81
g905
sg74
(lp921
g67
(g68
g69
NtRp922
(dp923
g72
(dp924
g80
I4
ssg81
g918
sg74
(lp925
S'GET'
p926
asbasbasbag67
(g83
g69
NtRp927
(dp928
g72
(dp929
sg81
g462
sg74
(lp930
g67
(g88
g69
NtRp931
(dp932
g72
(dp933
g92
g93
ssg81
g927
sg74
(lp934
S'script_name'
p935
asbag67
(g88
g69
NtRp936
(dp937
g72
(dp938
g99
g100
ssg81
g927
sg74
(lp939
S':'
asbag67
(g88
g69
NtRp940
(dp941
g72
(dp942
sg81
g927
sg74
(lp943
g67
(g68
g69
NtRp944
(dp945
g72
(dp946
g80
I4
ssg81
g940
sg74
(lp947
S''
asbasbasbag67
(g83
g69
NtRp948
(dp949
g72
(dp950
sg81
g462
sg74
(lp951
g67
(g88
g69
NtRp952
(dp953
g72
(dp954
g92
g93
ssg81
g948
sg74
(lp955
S'server_name'
p956
asbag67
(g88
g69
NtRp957
(dp958
g72
(dp959
g99
g100
ssg81
g948
sg74
(lp960
S':'
asbag67
(g88
g69
NtRp961
(dp962
g72
(dp963
sg81
g948
sg74
(lp964
g67
(g68
g69
NtRp965
(dp966
g72
(dp967
g80
I4
ssg81
g961
sg74
(lp968
S'Ariel-ubuntu'
p969
asbasbasbag67
(g83
g69
NtRp970
(dp971
g72
(dp972
sg81
g462
sg74
(lp973
g67
(g88
g69
NtRp974
(dp975
g72
(dp976
g92
g93
ssg81
g970
sg74
(lp977
S'server_port'
p978
asbag67
(g88
g69
NtRp979
(dp980
g72
(dp981
g99
g100
ssg81
g970
sg74
(lp982
S':'
asbag67
(g88
g69
NtRp983
(dp984
g72
(dp985
sg81
g970
sg74
(lp986
g67
(g68
g69
NtRp987
(dp988
g72
(dp989
g80
I4
ssg81
g983
sg74
(lp990
S'8000'
p991
asbasbasbag67
(g83
g69
NtRp992
(dp993
g72
(dp994
sg81
g462
sg74
(lp995
g67
(g88
g69
NtRp996
(dp997
g72
(dp998
g92
g93
ssg81
g992
sg74
(lp999
S'server_protocol'
p1000
asbag67
(g88
g69
NtRp1001
(dp1002
g72
(dp1003
g99
g100
ssg81
g992
sg74
(lp1004
S':'
asbag67
(g88
g69
NtRp1005
(dp1006
g72
(dp1007
sg81
g992
sg74
(lp1008
g67
(g68
g69
NtRp1009
(dp1010
g72
(dp1011
g80
I4
ssg81
g1005
sg74
(lp1012
S'HTTP/1.1'
p1013
asbasbasbag67
(g83
g69
NtRp1014
(dp1015
g72
(dp1016
sg81
g462
sg74
(lp1017
g67
(g88
g69
NtRp1018
(dp1019
g72
(dp1020
g92
g93
ssg81
g1014
sg74
(lp1021
S'server_software'
p1022
asbag67
(g88
g69
NtRp1023
(dp1024
g72
(dp1025
g99
g100
ssg81
g1014
sg74
(lp1026
S':'
asbag67
(g88
g69
NtRp1027
(dp1028
g72
(dp1029
sg81
g1014
sg74
(lp1030
g67
(g68
g69
NtRp1031
(dp1032
g72
(dp1033
g80
I4
ssg81
g1027
sg74
(lp1034
S'Rocket 1.2.4'
p1035
asbasbasbag67
(g83
g69
NtRp1036
(dp1037
g72
(dp1038
sg81
g462
sg74
(lp1039
g67
(g88
g69
NtRp1040
(dp1041
g72
(dp1042
g92
g93
ssg81
g1036
sg74
(lp1043
S'web2py_crontype'
p1044
asbag67
(g88
g69
NtRp1045
(dp1046
g72
(dp1047
g99
g100
ssg81
g1036
sg74
(lp1048
S':'
asbag67
(g88
g69
NtRp1049
(dp1050
g72
(dp1051
sg81
g1036
sg74
(lp1052
g67
(g68
g69
NtRp1053
(dp1054
g72
(dp1055
g80
I4
ssg81
g1049
sg74
(lp1056
S'hard'
p1057
asbasbasbag67
(g83
g69
NtRp1058
(dp1059
g72
(dp1060
sg81
g462
sg74
(lp1061
g67
(g88
g69
NtRp1062
(dp1063
g72
(dp1064
g92
g93
ssg81
g1058
sg74
(lp1065
S'web2py_path'
p1066
asbag67
(g88
g69
NtRp1067
(dp1068
g72
(dp1069
g99
g100
ssg81
g1058
sg74
(lp1070
S':'
asbag67
(g88
g69
NtRp1071
(dp1072
g72
(dp1073
sg81
g1058
sg74
(lp1074
g67
(g68
g69
NtRp1075
(dp1076
g72
(dp1077
g80
I4
ssg81
g1071
sg74
(lp1078
g509
asbasbasbag67
(g83
g69
NtRp1079
(dp1080
g72
(dp1081
sg81
g462
sg74
(lp1082
g67
(g88
g69
NtRp1083
(dp1084
g72
(dp1085
g92
g93
ssg81
g1079
sg74
(lp1086
S'web2py_version'
p1087
asbag67
(g88
g69
NtRp1088
(dp1089
g72
(dp1090
g99
g100
ssg81
g1079
sg74
(lp1091
S':'
asbag67
(g88
g69
NtRp1092
(dp1093
g72
(dp1094
sg81
g1079
sg74
(lp1095
g67
(g68
g69
NtRp1096
(dp1097
g72
(dp1098
g80
I4
ssg81
g1092
sg74
(lp1099
g67
(g76
g69
NtRp1100
(dp1101
g72
(dp1102
g80
I3
ssg81
Nsg74
(lp1103
g67
(g83
g69
NtRp1104
(dp1105
g72
(dp1106
sg81
g1100
sg74
(lp1107
g67
(g88
g69
NtRp1108
(dp1109
g72
(dp1110
sg81
g1104
sg74
(lp1111
g67
(g68
g69
NtRp1112
(dp1113
g72
(dp1114
g80
I3
ssg81
g1108
sg74
(lp1115
S'1'
asbasbasbag67
(g83
g69
NtRp1116
(dp1117
g72
(dp1118
sg81
g1100
sg74
(lp1119
g67
(g88
g69
NtRp1120
(dp1121
g72
(dp1122
sg81
g1116
sg74
(lp1123
g67
(g68
g69
NtRp1124
(dp1125
g72
(dp1126
g80
I3
ssg81
g1120
sg74
(lp1127
S'99'
p1128
asbasbasbag67
(g83
g69
NtRp1129
(dp1130
g72
(dp1131
sg81
g1100
sg74
(lp1132
g67
(g88
g69
NtRp1133
(dp1134
g72
(dp1135
sg81
g1129
sg74
(lp1136
g67
(g68
g69
NtRp1137
(dp1138
g72
(dp1139
g80
I3
ssg81
g1133
sg74
(lp1140
S'2'
asbasbasbag67
(g83
g69
NtRp1141
(dp1142
g72
(dp1143
sg81
g1100
sg74
(lp1144
g67
(g88
g69
NtRp1145
(dp1146
g72
(dp1147
sg81
g1141
sg74
(lp1148
g67
(g68
g69
NtRp1149
(dp1150
g72
(dp1151
g80
I3
ssg81
g1145
sg74
(lp1152
S'datetime.datetime(2011, 9, 26, 6, 55, 33)'
p1153
asbasbasbag67
(g83
g69
NtRp1154
(dp1155
g72
(dp1156
sg81
g1100
sg74
(lp1157
g67
(g88
g69
NtRp1158
(dp1159
g72
(dp1160
sg81
g1154
sg74
(lp1161
g67
(g68
g69
NtRp1162
(dp1163
g72
(dp1164
g80
I3
ssg81
g1158
sg74
(lp1165
S'stable'
p1166
asbasbasbasbasbasbasbag67
(g83
g69
NtRp1167
(dp1168
g72
(dp1169
sg81
g462
sg74
(lp1170
g67
(g88
g69
NtRp1171
(dp1172
g72
(dp1173
g92
g93
ssg81
g1167
sg74
(lp1174
S'wsgi_errors'
p1175
asbag67
(g88
g69
NtRp1176
(dp1177
g72
(dp1178
g99
g100
ssg81
g1167
sg74
(lp1179
S':'
asbag67
(g88
g69
NtRp1180
(dp1181
g72
(dp1182
sg81
g1167
sg74
(lp1183
g67
(g68
g69
NtRp1184
(dp1185
g72
(dp1186
g80
I4
ssg81
g1180
sg74
(lp1187
S"<open file '<stderr>', mode 'w' at 0x7f6d3a48b270>"
p1188
asbasbasbag67
(g83
g69
NtRp1189
(dp1190
g72
(dp1191
sg81
g462
sg74
(lp1192
g67
(g88
g69
NtRp1193
(dp1194
g72
(dp1195
g92
g93
ssg81
g1189
sg74
(lp1196
S'wsgi_file_wrapper'
p1197
asbag67
(g88
g69
NtRp1198
(dp1199
g72
(dp1200
g99
g100
ssg81
g1189
sg74
(lp1201
S':'
asbag67
(g88
g69
NtRp1202
(dp1203
g72
(dp1204
sg81
g1189
sg74
(lp1205
g67
(g68
g69
NtRp1206
(dp1207
g72
(dp1208
g80
I4
ssg81
g1202
sg74
(lp1209
S'<class wsgiref.util.FileWrapper at 0x25957a0>'
p1210
asbasbasbag67
(g83
g69
NtRp1211
(dp1212
g72
(dp1213
sg81
g462
sg74
(lp1214
g67
(g88
g69
NtRp1215
(dp1216
g72
(dp1217
g92
g93
ssg81
g1211
sg74
(lp1218
S'wsgi_input'
p1219
asbag67
(g88
g69
NtRp1220
(dp1221
g72
(dp1222
g99
g100
ssg81
g1211
sg74
(lp1223
S':'
asbag67
(g88
g69
NtRp1224
(dp1225
g72
(dp1226
sg81
g1211
sg74
(lp1227
g67
(g68
g69
NtRp1228
(dp1229
g72
(dp1230
g80
I4
ssg81
g1224
sg74
(lp1231
S'<socket._fileobject object at 0x2c331d0>'
p1232
asbasbasbag67
(g83
g69
NtRp1233
(dp1234
g72
(dp1235
sg81
g462
sg74
(lp1236
g67
(g88
g69
NtRp1237
(dp1238
g72
(dp1239
g92
g93
ssg81
g1233
sg74
(lp1240
S'wsgi_multiprocess'
p1241
asbag67
(g88
g69
NtRp1242
(dp1243
g72
(dp1244
g99
g100
ssg81
g1233
sg74
(lp1245
S':'
asbag67
(g88
g69
NtRp1246
(dp1247
g72
(dp1248
sg81
g1233
sg74
(lp1249
g67
(g68
g69
NtRp1250
(dp1251
g72
(dp1252
g80
I4
ssg81
g1246
sg74
(lp1253
g110
asbasbasbag67
(g83
g69
NtRp1254
(dp1255
g72
(dp1256
sg81
g462
sg74
(lp1257
g67
(g88
g69
NtRp1258
(dp1259
g72
(dp1260
g92
g93
ssg81
g1254
sg74
(lp1261
S'wsgi_multithread'
p1262
asbag67
(g88
g69
NtRp1263
(dp1264
g72
(dp1265
g99
g100
ssg81
g1254
sg74
(lp1266
S':'
asbag67
(g88
g69
NtRp1267
(dp1268
g72
(dp1269
sg81
g1254
sg74
(lp1270
g67
(g68
g69
NtRp1271
(dp1272
g72
(dp1273
g80
I4
ssg81
g1267
sg74
(lp1274
S'True'
p1275
asbasbasbag67
(g83
g69
NtRp1276
(dp1277
g72
(dp1278
sg81
g462
sg74
(lp1279
g67
(g88
g69
NtRp1280
(dp1281
g72
(dp1282
g92
g93
ssg81
g1276
sg74
(lp1283
S'wsgi_run_once'
p1284
asbag67
(g88
g69
NtRp1285
(dp1286
g72
(dp1287
g99
g100
ssg81
g1276
sg74
(lp1288
S':'
asbag67
(g88
g69
NtRp1289
(dp1290
g72
(dp1291
sg81
g1276
sg74
(lp1292
g67
(g68
g69
NtRp1293
(dp1294
g72
(dp1295
g80
I4
ssg81
g1289
sg74
(lp1296
g110
asbasbasbag67
(g83
g69
NtRp1297
(dp1298
g72
(dp1299
sg81
g462
sg74
(lp1300
g67
(g88
g69
NtRp1301
(dp1302
g72
(dp1303
g92
g93
ssg81
g1297
sg74
(lp1304
S'wsgi_url_scheme'
p1305
asbag67
(g88
g69
NtRp1306
(dp1307
g72
(dp1308
g99
g100
ssg81
g1297
sg74
(lp1309
S':'
asbag67
(g88
g69
NtRp1310
(dp1311
g72
(dp1312
sg81
g1297
sg74
(lp1313
g67
(g68
g69
NtRp1314
(dp1315
g72
(dp1316
g80
I4
ssg81
g1310
sg74
(lp1317
S'http'
p1318
asbasbasbag67
(g83
g69
NtRp1319
(dp1320
g72
(dp1321
sg81
g462
sg74
(lp1322
g67
(g88
g69
NtRp1323
(dp1324
g72
(dp1325
g92
g93
ssg81
g1319
sg74
(lp1326
S'wsgi_version'
p1327
asbag67
(g88
g69
NtRp1328
(dp1329
g72
(dp1330
g99
g100
ssg81
g1319
sg74
(lp1331
S':'
asbag67
(g88
g69
NtRp1332
(dp1333
g72
(dp1334
sg81
g1319
sg74
(lp1335
g67
(g68
g69
NtRp1336
(dp1337
g72
(dp1338
g80
I4
ssg81
g1332
sg74
(lp1339
g67
(g76
g69
NtRp1340
(dp1341
g72
(dp1342
g80
I3
ssg81
Nsg74
(lp1343
g67
(g83
g69
NtRp1344
(dp1345
g72
(dp1346
sg81
g1340
sg74
(lp1347
g67
(g88
g69
NtRp1348
(dp1349
g72
(dp1350
sg81
g1344
sg74
(lp1351
g67
(g68
g69
NtRp1352
(dp1353
g72
(dp1354
g80
I3
ssg81
g1348
sg74
(lp1355
S'1'
asbasbasbag67
(g83
g69
NtRp1356
(dp1357
g72
(dp1358
sg81
g1340
sg74
(lp1359
g67
(g88
g69
NtRp1360
(dp1361
g72
(dp1362
sg81
g1356
sg74
(lp1363
g67
(g68
g69
NtRp1364
(dp1365
g72
(dp1366
g80
I3
ssg81
g1360
sg74
(lp1367
S'0'
asbasbasbasbasbasbasbasbasbasbasbag67
(g83
g69
NtRp1368
(dp1369
g72
(dp1370
sg81
g77
sg74
(lp1371
g67
(g88
g69
NtRp1372
(dp1373
g72
(dp1374
g92
g93
ssg81
g1368
sg74
(lp1375
S'extension'
p1376
asbag67
(g88
g69
NtRp1377
(dp1378
g72
(dp1379
g99
g100
ssg81
g1368
sg74
(lp1380
S':'
asbag67
(g88
g69
NtRp1381
(dp1382
g72
(dp1383
sg81
g1368
sg74
(lp1384
g67
(g68
g69
NtRp1385
(dp1386
g72
(dp1387
g80
I5
ssg81
g1381
sg74
(lp1388
S'html'
p1389
asbasbasbag67
(g83
g69
NtRp1390
(dp1391
g72
(dp1392
sg81
g77
sg74
(lp1393
g67
(g88
g69
NtRp1394
(dp1395
g72
(dp1396
g92
g93
ssg81
g1390
sg74
(lp1397
S'folder'
p1398
asbag67
(g88
g69
NtRp1399
(dp1400
g72
(dp1401
g99
g100
ssg81
g1390
sg74
(lp1402
S':'
asbag67
(g88
g69
NtRp1403
(dp1404
g72
(dp1405
sg81
g1390
sg74
(lp1406
g67
(g68
g69
NtRp1407
(dp1408
g72
(dp1409
g80
I5
ssg81
g1403
sg74
(lp1410
S'/home/ian/web2py/applications/places/'
p1411
asbasbasbag67
(g83
g69
NtRp1412
(dp1413
g72
(dp1414
sg81
g77
sg74
(lp1415
g67
(g88
g69
NtRp1416
(dp1417
g72
(dp1418
g92
g93
ssg81
g1412
sg74
(lp1419
S'function'
p1420
asbag67
(g88
g69
NtRp1421
(dp1422
g72
(dp1423
g99
g100
ssg81
g1412
sg74
(lp1424
S':'
asbag67
(g88
g69
NtRp1425
(dp1426
g72
(dp1427
sg81
g1412
sg74
(lp1428
g67
(g68
g69
NtRp1429
(dp1430
g72
(dp1431
g80
I5
ssg81
g1425
sg74
(lp1432
S'index'
p1433
asbasbasbag67
(g83
g69
NtRp1434
(dp1435
g72
(dp1436
sg81
g77
sg74
(lp1437
g67
(g88
g69
NtRp1438
(dp1439
g72
(dp1440
g92
g93
ssg81
g1434
sg74
(lp1441
S'get_vars'
p1442
asbag67
(g88
g69
NtRp1443
(dp1444
g72
(dp1445
g99
g100
ssg81
g1434
sg74
(lp1446
S':'
asbag67
(g88
g69
NtRp1447
(dp1448
g72
(dp1449
sg81
g1434
sg74
(lp1450
g67
(g68
g69
NtRp1451
(dp1452
g72
(dp1453
g80
I5
ssg81
g1447
sg74
(lp1454
g67
(g76
g69
NtRp1455
(dp1456
g72
(dp1457
g80
I4
ssg81
Nsg74
(lp1458
sbasbasbasbag67
(g83
g69
NtRp1459
(dp1460
g72
(dp1461
sg81
g77
sg74
(lp1462
g67
(g88
g69
NtRp1463
(dp1464
g72
(dp1465
g92
g93
ssg81
g1459
sg74
(lp1466
S'global_settings'
p1467
asbag67
(g88
g69
NtRp1468
(dp1469
g72
(dp1470
g99
g100
ssg81
g1459
sg74
(lp1471
S':'
asbag67
(g88
g69
NtRp1472
(dp1473
g72
(dp1474
sg81
g1459
sg74
(lp1475
g67
(g68
g69
NtRp1476
(dp1477
g72
(dp1478
g80
I5
ssg81
g1472
sg74
(lp1479
g67
(g76
g69
NtRp1480
(dp1481
g72
(dp1482
g80
I4
ssg81
Nsg74
(lp1483
g67
(g83
g69
NtRp1484
(dp1485
g72
(dp1486
sg81
g1480
sg74
(lp1487
g67
(g88
g69
NtRp1488
(dp1489
g72
(dp1490
g92
g93
ssg81
g1484
sg74
(lp1491
g474
asbag67
(g88
g69
NtRp1492
(dp1493
g72
(dp1494
g99
g100
ssg81
g1484
sg74
(lp1495
S':'
asbag67
(g88
g69
NtRp1496
(dp1497
g72
(dp1498
sg81
g1484
sg74
(lp1499
g67
(g68
g69
NtRp1500
(dp1501
g72
(dp1502
g80
I4
ssg81
g1496
sg74
(lp1503
S"set(['/home/ian/web2py/applications/welcome/', '/home/ian/web2py/applications/places/'])"
p1504
asbasbasbag67
(g83
g69
NtRp1505
(dp1506
g72
(dp1507
sg81
g1480
sg74
(lp1508
g67
(g88
g69
NtRp1509
(dp1510
g72
(dp1511
g92
g93
ssg81
g1505
sg74
(lp1512
g496
asbag67
(g88
g69
NtRp1513
(dp1514
g72
(dp1515
g99
g100
ssg81
g1505
sg74
(lp1516
S':'
asbag67
(g88
g69
NtRp1517
(dp1518
g72
(dp1519
sg81
g1505
sg74
(lp1520
g67
(g68
g69
NtRp1521
(dp1522
g72
(dp1523
g80
I4
ssg81
g1517
sg74
(lp1524
g509
asbasbasbag67
(g83
g69
NtRp1525
(dp1526
g72
(dp1527
sg81
g1480
sg74
(lp1528
g67
(g88
g69
NtRp1529
(dp1530
g72
(dp1531
g92
g93
ssg81
g1525
sg74
(lp1532
g518
asbag67
(g88
g69
NtRp1533
(dp1534
g72
(dp1535
g99
g100
ssg81
g1525
sg74
(lp1536
S':'
asbag67
(g88
g69
NtRp1537
(dp1538
g72
(dp1539
sg81
g1525
sg74
(lp1540
g67
(g68
g69
NtRp1541
(dp1542
g72
(dp1543
g80
I4
ssg81
g1537
sg74
(lp1544
g67
(g76
g69
NtRp1545
(dp1546
g72
(dp1547
g80
I3
ssg81
Nsg74
(lp1548
sbasbasbasbag67
(g83
g69
NtRp1549
(dp1550
g72
(dp1551
sg81
g1480
sg74
(lp1552
g67
(g88
g69
NtRp1553
(dp1554
g72
(dp1555
g92
g93
ssg81
g1549
sg74
(lp1556
g543
asbag67
(g88
g69
NtRp1557
(dp1558
g72
(dp1559
g99
g100
ssg81
g1549
sg74
(lp1560
S':'
asbag67
(g88
g69
NtRp1561
(dp1562
g72
(dp1563
sg81
g1549
sg74
(lp1564
g67
(g68
g69
NtRp1565
(dp1566
g72
(dp1567
g80
I4
ssg81
g1561
sg74
(lp1568
S"<Values at 0x26ccbd8: {'verbose': False, 'ip': '127.0.0.1', 'shutdown_timeout': 5, 'taskbar': False, 'nocron': False, 'pid_filename': 'httpserver.pid', 'maxthreads': None, 'softcron': False, 'server_name': 'Ariel-ubuntu', 'bpython': False, 'nogui': False, 'port': 8000, 'extcron': False, 'debuglevel': 30, 'test': None, 'folder': '/home/ian/web2py', 'config': '', 'import_models': False, 'winservice': '', 'shell': None, 'run': '', 'log_filename': 'httpserver.log', 'args': [''], 'ssl_ca_certificate': None, 'scheduler': None, 'profiler_filename': None, 'ssl_private_key': '', 'password': '<ask>', 'request_queue_size': 5, 'ssl_certificate': '', 'cronjob': False, 'plain': False, 'quiet': False, 'interfaces': None, 'minthreads': None, 'timeout': 10, 'numthreads': None, 'nobanner': False}>"
p1569
asbasbasbag67
(g83
g69
NtRp1570
(dp1571
g72
(dp1572
sg81
g1480
sg74
(lp1573
g67
(g88
g69
NtRp1574
(dp1575
g72
(dp1576
g92
g93
ssg81
g1570
sg74
(lp1577
g565
asbag67
(g88
g69
NtRp1578
(dp1579
g72
(dp1580
g99
g100
ssg81
g1570
sg74
(lp1581
S':'
asbag67
(g88
g69
NtRp1582
(dp1583
g72
(dp1584
sg81
g1570
sg74
(lp1585
g67
(g68
g69
NtRp1586
(dp1587
g72
(dp1588
g80
I4
ssg81
g1582
sg74
(lp1589
S'set([])'
p1590
asbasbasbag67
(g83
g69
NtRp1591
(dp1592
g72
(dp1593
sg81
g1480
sg74
(lp1594
g67
(g88
g69
NtRp1595
(dp1596
g72
(dp1597
g92
g93
ssg81
g1591
sg74
(lp1598
g587
asbag67
(g88
g69
NtRp1599
(dp1600
g72
(dp1601
g99
g100
ssg81
g1591
sg74
(lp1602
S':'
asbag67
(g88
g69
NtRp1603
(dp1604
g72
(dp1605
sg81
g1591
sg74
(lp1606
g67
(g68
g69
NtRp1607
(dp1608
g72
(dp1609
g80
I4
ssg81
g1603
sg74
(lp1610
g110
asbasbasbag67
(g83
g69
NtRp1611
(dp1612
g72
(dp1613
sg81
g1480
sg74
(lp1614
g67
(g88
g69
NtRp1615
(dp1616
g72
(dp1617
g92
g93
ssg81
g1611
sg74
(lp1618
g608
asbag67
(g88
g69
NtRp1619
(dp1620
g72
(dp1621
g99
g100
ssg81
g1611
sg74
(lp1622
S':'
asbag67
(g88
g69
NtRp1623
(dp1624
g72
(dp1625
sg81
g1611
sg74
(lp1626
g67
(g68
g69
NtRp1627
(dp1628
g72
(dp1629
g80
I4
ssg81
g1623
sg74
(lp1630
g621
asbasbasbag67
(g83
g69
NtRp1631
(dp1632
g72
(dp1633
sg81
g1480
sg74
(lp1634
g67
(g88
g69
NtRp1635
(dp1636
g72
(dp1637
g92
g93
ssg81
g1631
sg74
(lp1638
g806
asbag67
(g88
g69
NtRp1639
(dp1640
g72
(dp1641
g99
g100
ssg81
g1631
sg74
(lp1642
S':'
asbag67
(g88
g69
NtRp1643
(dp1644
g72
(dp1645
sg81
g1631
sg74
(lp1646
g67
(g68
g69
NtRp1647
(dp1648
g72
(dp1649
g80
I4
ssg81
g1643
sg74
(lp1650
g110
asbasbasbag67
(g83
g69
NtRp1651
(dp1652
g72
(dp1653
sg81
g1480
sg74
(lp1654
g67
(g88
g69
NtRp1655
(dp1656
g72
(dp1657
g92
g93
ssg81
g1651
sg74
(lp1658
g1044
asbag67
(g88
g69
NtRp1659
(dp1660
g72
(dp1661
g99
g100
ssg81
g1651
sg74
(lp1662
S':'
asbag67
(g88
g69
NtRp1663
(dp1664
g72
(dp1665
sg81
g1651
sg74
(lp1666
g67
(g68
g69
NtRp1667
(dp1668
g72
(dp1669
g80
I4
ssg81
g1663
sg74
(lp1670
g1057
asbasbasbag67
(g83
g69
NtRp1671
(dp1672
g72
(dp1673
sg81
g1480
sg74
(lp1674
g67
(g88
g69
NtRp1675
(dp1676
g72
(dp1677
g92
g93
ssg81
g1671
sg74
(lp1678
g1087
asbag67
(g88
g69
NtRp1679
(dp1680
g72
(dp1681
g99
g100
ssg81
g1671
sg74
(lp1682
S':'
asbag67
(g88
g69
NtRp1683
(dp1684
g72
(dp1685
sg81
g1671
sg74
(lp1686
g67
(g68
g69
NtRp1687
(dp1688
g72
(dp1689
g80
I4
ssg81
g1683
sg74
(lp1690
g67
(g76
g69
NtRp1691
(dp1692
g72
(dp1693
g80
I3
ssg81
Nsg74
(lp1694
g67
(g83
g69
NtRp1695
(dp1696
g72
(dp1697
sg81
g1691
sg74
(lp1698
g67
(g88
g69
NtRp1699
(dp1700
g72
(dp1701
sg81
g1695
sg74
(lp1702
g67
(g68
g69
NtRp1703
(dp1704
g72
(dp1705
g80
I3
ssg81
g1699
sg74
(lp1706
S'1'
asbasbasbag67
(g83
g69
NtRp1707
(dp1708
g72
(dp1709
sg81
g1691
sg74
(lp1710
g67
(g88
g69
NtRp1711
(dp1712
g72
(dp1713
sg81
g1707
sg74
(lp1714
g67
(g68
g69
NtRp1715
(dp1716
g72
(dp1717
g80
I3
ssg81
g1711
sg74
(lp1718
S'99'
p1719
asbasbasbag67
(g83
g69
NtRp1720
(dp1721
g72
(dp1722
sg81
g1691
sg74
(lp1723
g67
(g88
g69
NtRp1724
(dp1725
g72
(dp1726
sg81
g1720
sg74
(lp1727
g67
(g68
g69
NtRp1728
(dp1729
g72
(dp1730
g80
I3
ssg81
g1724
sg74
(lp1731
S'2'
asbasbasbag67
(g83
g69
NtRp1732
(dp1733
g72
(dp1734
sg81
g1691
sg74
(lp1735
g67
(g88
g69
NtRp1736
(dp1737
g72
(dp1738
sg81
g1732
sg74
(lp1739
g67
(g68
g69
NtRp1740
(dp1741
g72
(dp1742
g80
I3
ssg81
g1736
sg74
(lp1743
S'datetime.datetime(2011, 9, 26, 6, 55, 33)'
p1744
asbasbasbag67
(g83
g69
NtRp1745
(dp1746
g72
(dp1747
sg81
g1691
sg74
(lp1748
g67
(g88
g69
NtRp1749
(dp1750
g72
(dp1751
sg81
g1745
sg74
(lp1752
g67
(g68
g69
NtRp1753
(dp1754
g72
(dp1755
g80
I3
ssg81
g1749
sg74
(lp1756
g1166
asbasbasbasbasbasbasbasbasbasbasbag67
(g83
g69
NtRp1757
(dp1758
g72
(dp1759
sg81
g77
sg74
(lp1760
g67
(g88
g69
NtRp1761
(dp1762
g72
(dp1763
g92
g93
ssg81
g1757
sg74
(lp1764
S'is_https'
p1765
asbag67
(g88
g69
NtRp1766
(dp1767
g72
(dp1768
g99
g100
ssg81
g1757
sg74
(lp1769
S':'
asbag67
(g88
g69
NtRp1770
(dp1771
g72
(dp1772
sg81
g1757
sg74
(lp1773
g67
(g68
g69
NtRp1774
(dp1775
g72
(dp1776
g80
I5
ssg81
g1770
sg74
(lp1777
g110
asbasbasbag67
(g83
g69
NtRp1778
(dp1779
g72
(dp1780
sg81
g77
sg74
(lp1781
g67
(g88
g69
NtRp1782
(dp1783
g72
(dp1784
g92
g93
ssg81
g1778
sg74
(lp1785
S'is_local'
p1786
asbag67
(g88
g69
NtRp1787
(dp1788
g72
(dp1789
g99
g100
ssg81
g1778
sg74
(lp1790
S':'
asbag67
(g88
g69
NtRp1791
(dp1792
g72
(dp1793
sg81
g1778
sg74
(lp1794
g67
(g68
g69
NtRp1795
(dp1796
g72
(dp1797
g80
I5
ssg81
g1791
sg74
(lp1798
g1275
asbasbasbag67
(g83
g69
NtRp1799
(dp1800
g72
(dp1801
sg81
g77
sg74
(lp1802
g67
(g88
g69
NtRp1803
(dp1804
g72
(dp1805
g92
g93
ssg81
g1799
sg74
(lp1806
S'is_restful'
p1807
asbag67
(g88
g69
NtRp1808
(dp1809
g72
(dp1810
g99
g100
ssg81
g1799
sg74
(lp1811
S':'
asbag67
(g88
g69
NtRp1812
(dp1813
g72
(dp1814
sg81
g1799
sg74
(lp1815
g67
(g68
g69
NtRp1816
(dp1817
g72
(dp1818
g80
I5
ssg81
g1812
sg74
(lp1819
g110
asbasbasbag67
(g83
g69
NtRp1820
(dp1821
g72
(dp1822
sg81
g77
sg74
(lp1823
g67
(g88
g69
NtRp1824
(dp1825
g72
(dp1826
g92
g93
ssg81
g1820
sg74
(lp1827
S'now'
p1828
asbag67
(g88
g69
NtRp1829
(dp1830
g72
(dp1831
g99
g100
ssg81
g1820
sg74
(lp1832
S':'
asbag67
(g88
g69
NtRp1833
(dp1834
g72
(dp1835
sg81
g1820
sg74
(lp1836
g67
(g68
g69
NtRp1837
(dp1838
g72
(dp1839
g80
I5
ssg81
g1833
sg74
(lp1840
S'datetime.datetime(2011, 10, 2, 18, 57, 33, 234713)'
p1841
asbasbasbag67
(g83
g69
NtRp1842
(dp1843
g72
(dp1844
sg81
g77
sg74
(lp1845
g67
(g88
g69
NtRp1846
(dp1847
g72
(dp1848
g92
g93
ssg81
g1842
sg74
(lp1849
S'post_vars'
p1850
asbag67
(g88
g69
NtRp1851
(dp1852
g72
(dp1853
g99
g100
ssg81
g1842
sg74
(lp1854
S':'
asbag67
(g88
g69
NtRp1855
(dp1856
g72
(dp1857
sg81
g1842
sg74
(lp1858
g67
(g68
g69
NtRp1859
(dp1860
g72
(dp1861
g80
I5
ssg81
g1855
sg74
(lp1862
g67
(g76
g69
NtRp1863
(dp1864
g72
(dp1865
g80
I4
ssg81
Nsg74
(lp1866
sbasbasbasbag67
(g83
g69
NtRp1867
(dp1868
g72
(dp1869
sg81
g77
sg74
(lp1870
g67
(g88
g69
NtRp1871
(dp1872
g72
(dp1873
g92
g93
ssg81
g1867
sg74
(lp1874
S'url'
p1875
asbag67
(g88
g69
NtRp1876
(dp1877
g72
(dp1878
g99
g100
ssg81
g1867
sg74
(lp1879
S':'
asbag67
(g88
g69
NtRp1880
(dp1881
g72
(dp1882
sg81
g1867
sg74
(lp1883
g67
(g68
g69
NtRp1884
(dp1885
g72
(dp1886
g80
I5
ssg81
g1880
sg74
(lp1887
S'/places/default/index'
p1888
asbasbasbag67
(g83
g69
NtRp1889
(dp1890
g72
(dp1891
sg81
g77
sg74
(lp1892
g67
(g88
g69
NtRp1893
(dp1894
g72
(dp1895
g92
g93
ssg81
g1889
sg74
(lp1896
S'utcnow'
p1897
asbag67
(g88
g69
NtRp1898
(dp1899
g72
(dp1900
g99
g100
ssg81
g1889
sg74
(lp1901
S':'
asbag67
(g88
g69
NtRp1902
(dp1903
g72
(dp1904
sg81
g1889
sg74
(lp1905
g67
(g68
g69
NtRp1906
(dp1907
g72
(dp1908
g80
I5
ssg81
g1902
sg74
(lp1909
S'datetime.datetime(2011, 10, 2, 22, 57, 33, 234754)'
p1910
asbasbasbag67
(g83
g69
NtRp1911
(dp1912
g72
(dp1913
sg81
g77
sg74
(lp1914
g67
(g88
g69
NtRp1915
(dp1916
g72
(dp1917
g92
g93
ssg81
g1911
sg74
(lp1918
S'uuid'
p1919
asbag67
(g88
g69
NtRp1920
(dp1921
g72
(dp1922
g99
g100
ssg81
g1911
sg74
(lp1923
S':'
asbag67
(g88
g69
NtRp1924
(dp1925
g72
(dp1926
sg81
g1911
sg74
(lp1927
g67
(g68
g69
NtRp1928
(dp1929
g72
(dp1930
g80
I5
ssg81
g1924
sg74
(lp1931
S'places/127.0.0.1.2011-10-02.18-57-33.ded2e751-cdc3-4da4-a83c-a2e5a2ebf894'
p1932
asbasbasbag67
(g83
g69
NtRp1933
(dp1934
g72
(dp1935
sg81
g77
sg74
(lp1936
g67
(g88
g69
NtRp1937
(dp1938
g72
(dp1939
g92
g93
ssg81
g1933
sg74
(lp1940
S'vars'
p1941
asbag67
(g88
g69
NtRp1942
(dp1943
g72
(dp1944
g99
g100
ssg81
g1933
sg74
(lp1945
S':'
asbag67
(g88
g69
NtRp1946
(dp1947
g72
(dp1948
sg81
g1933
sg74
(lp1949
g67
(g68
g69
NtRp1950
(dp1951
g72
(dp1952
g80
I5
ssg81
g1946
sg74
(lp1953
g67
(g76
g69
NtRp1954
(dp1955
g72
(dp1956
g80
I4
ssg81
Nsg74
(lp1957
sbasbasbasbag67
(g83
g69
NtRp1958
(dp1959
g72
(dp1960
sg81
g77
sg74
(lp1961
g67
(g88
g69
NtRp1962
(dp1963
g72
(dp1964
g92
g93
ssg81
g1958
sg74
(lp1965
S'wsgi'
p1966
asbag67
(g88
g69
NtRp1967
(dp1968
g72
(dp1969
g99
g100
ssg81
g1958
sg74
(lp1970
S':'
asbag67
(g88
g69
NtRp1971
(dp1972
g72
(dp1973
sg81
g1958
sg74
(lp1974
g67
(g68
g69
NtRp1975
(dp1976
g72
(dp1977
g80
I5
ssg81
g1971
sg74
(lp1978
g67
(g76
g69
NtRp1979
(dp1980
g72
(dp1981
g80
I4
ssg81
Nsg74
(lp1982
g67
(g83
g69
NtRp1983
(dp1984
g72
(dp1985
sg81
g1979
sg74
(lp1986
g67
(g88
g69
NtRp1987
(dp1988
g72
(dp1989
g92
g93
ssg81
g1983
sg74
(lp1990
S'environ'
p1991
asbag67
(g88
g69
NtRp1992
(dp1993
g72
(dp1994
g99
g100
ssg81
g1983
sg74
(lp1995
S':'
asbag67
(g88
g69
NtRp1996
(dp1997
g72
(dp1998
sg81
g1983
sg74
(lp1999
g67
(g68
g69
NtRp2000
(dp2001
g72
(dp2002
g80
I4
ssg81
g1996
sg74
(lp2003
g67
(g76
g69
NtRp2004
(dp2005
g72
(dp2006
g80
I3
ssg81
Nsg74
(lp2007
g67
(g83
g69
NtRp2008
(dp2009
g72
(dp2010
sg81
g2004
sg74
(lp2011
g67
(g88
g69
NtRp2012
(dp2013
g72
(dp2014
g92
g93
ssg81
g2008
sg74
(lp2015
S'HTTP_ACCEPT'
p2016
asbag67
(g88
g69
NtRp2017
(dp2018
g72
(dp2019
g99
g100
ssg81
g2008
sg74
(lp2020
S':'
asbag67
(g88
g69
NtRp2021
(dp2022
g72
(dp2023
sg81
g2008
sg74
(lp2024
g67
(g68
g69
NtRp2025
(dp2026
g72
(dp2027
g80
I3
ssg81
g2021
sg74
(lp2028
g643
asbasbasbag67
(g83
g69
NtRp2029
(dp2030
g72
(dp2031
sg81
g2004
sg74
(lp2032
g67
(g88
g69
NtRp2033
(dp2034
g72
(dp2035
g92
g93
ssg81
g2029
sg74
(lp2036
S'HTTP_ACCEPT_CHARSET'
p2037
asbag67
(g88
g69
NtRp2038
(dp2039
g72
(dp2040
g99
g100
ssg81
g2029
sg74
(lp2041
S':'
asbag67
(g88
g69
NtRp2042
(dp2043
g72
(dp2044
sg81
g2029
sg74
(lp2045
g67
(g68
g69
NtRp2046
(dp2047
g72
(dp2048
g80
I3
ssg81
g2042
sg74
(lp2049
g665
asbasbasbag67
(g83
g69
NtRp2050
(dp2051
g72
(dp2052
sg81
g2004
sg74
(lp2053
g67
(g88
g69
NtRp2054
(dp2055
g72
(dp2056
g92
g93
ssg81
g2050
sg74
(lp2057
S'HTTP_ACCEPT_ENCODING'
p2058
asbag67
(g88
g69
NtRp2059
(dp2060
g72
(dp2061
g99
g100
ssg81
g2050
sg74
(lp2062
S':'
asbag67
(g88
g69
NtRp2063
(dp2064
g72
(dp2065
sg81
g2050
sg74
(lp2066
g67
(g68
g69
NtRp2067
(dp2068
g72
(dp2069
g80
I3
ssg81
g2063
sg74
(lp2070
g687
asbasbasbag67
(g83
g69
NtRp2071
(dp2072
g72
(dp2073
sg81
g2004
sg74
(lp2074
g67
(g88
g69
NtRp2075
(dp2076
g72
(dp2077
g92
g93
ssg81
g2071
sg74
(lp2078
S'HTTP_ACCEPT_LANGUAGE'
p2079
asbag67
(g88
g69
NtRp2080
(dp2081
g72
(dp2082
g99
g100
ssg81
g2071
sg74
(lp2083
S':'
asbag67
(g88
g69
NtRp2084
(dp2085
g72
(dp2086
sg81
g2071
sg74
(lp2087
g67
(g68
g69
NtRp2088
(dp2089
g72
(dp2090
g80
I3
ssg81
g2084
sg74
(lp2091
g709
asbasbasbag67
(g83
g69
NtRp2092
(dp2093
g72
(dp2094
sg81
g2004
sg74
(lp2095
g67
(g88
g69
NtRp2096
(dp2097
g72
(dp2098
g92
g93
ssg81
g2092
sg74
(lp2099
S'HTTP_CONNECTION'
p2100
asbag67
(g88
g69
NtRp2101
(dp2102
g72
(dp2103
g99
g100
ssg81
g2092
sg74
(lp2104
S':'
asbag67
(g88
g69
NtRp2105
(dp2106
g72
(dp2107
sg81
g2092
sg74
(lp2108
g67
(g68
g69
NtRp2109
(dp2110
g72
(dp2111
g80
I3
ssg81
g2105
sg74
(lp2112
g731
asbasbasbag67
(g83
g69
NtRp2113
(dp2114
g72
(dp2115
sg81
g2004
sg74
(lp2116
g67
(g88
g69
NtRp2117
(dp2118
g72
(dp2119
g92
g93
ssg81
g2113
sg74
(lp2120
S'HTTP_COOKIE'
p2121
asbag67
(g88
g69
NtRp2122
(dp2123
g72
(dp2124
g99
g100
ssg81
g2113
sg74
(lp2125
S':'
asbag67
(g88
g69
NtRp2126
(dp2127
g72
(dp2128
sg81
g2113
sg74
(lp2129
g67
(g68
g69
NtRp2130
(dp2131
g72
(dp2132
g80
I3
ssg81
g2126
sg74
(lp2133
g753
asbasbasbag67
(g83
g69
NtRp2134
(dp2135
g72
(dp2136
sg81
g2004
sg74
(lp2137
g67
(g88
g69
NtRp2138
(dp2139
g72
(dp2140
g92
g93
ssg81
g2134
sg74
(lp2141
S'HTTP_HOST'
p2142
asbag67
(g88
g69
NtRp2143
(dp2144
g72
(dp2145
g99
g100
ssg81
g2134
sg74
(lp2146
S':'
asbag67
(g88
g69
NtRp2147
(dp2148
g72
(dp2149
sg81
g2134
sg74
(lp2150
g67
(g68
g69
NtRp2151
(dp2152
g72
(dp2153
g80
I3
ssg81
g2147
sg74
(lp2154
g775
asbasbasbag67
(g83
g69
NtRp2155
(dp2156
g72
(dp2157
sg81
g2004
sg74
(lp2158
g67
(g88
g69
NtRp2159
(dp2160
g72
(dp2161
g92
g93
ssg81
g2155
sg74
(lp2162
S'HTTP_USER_AGENT'
p2163
asbag67
(g88
g69
NtRp2164
(dp2165
g72
(dp2166
g99
g100
ssg81
g2155
sg74
(lp2167
S':'
asbag67
(g88
g69
NtRp2168
(dp2169
g72
(dp2170
sg81
g2155
sg74
(lp2171
g67
(g68
g69
NtRp2172
(dp2173
g72
(dp2174
g80
I3
ssg81
g2168
sg74
(lp2175
g797
asbasbasbag67
(g83
g69
NtRp2176
(dp2177
g72
(dp2178
sg81
g2004
sg74
(lp2179
g67
(g88
g69
NtRp2180
(dp2181
g72
(dp2182
g92
g93
ssg81
g2176
sg74
(lp2183
S'PATH_INFO'
p2184
asbag67
(g88
g69
NtRp2185
(dp2186
g72
(dp2187
g99
g100
ssg81
g2176
sg74
(lp2188
S':'
asbag67
(g88
g69
NtRp2189
(dp2190
g72
(dp2191
sg81
g2176
sg74
(lp2192
g67
(g68
g69
NtRp2193
(dp2194
g72
(dp2195
g80
I3
ssg81
g2189
sg74
(lp2196
g840
asbasbasbag67
(g83
g69
NtRp2197
(dp2198
g72
(dp2199
sg81
g2004
sg74
(lp2200
g67
(g88
g69
NtRp2201
(dp2202
g72
(dp2203
g92
g93
ssg81
g2197
sg74
(lp2204
S'QUERY_STRING'
p2205
asbag67
(g88
g69
NtRp2206
(dp2207
g72
(dp2208
g99
g100
ssg81
g2197
sg74
(lp2209
S':'
asbag67
(g88
g69
NtRp2210
(dp2211
g72
(dp2212
sg81
g2197
sg74
(lp2213
g67
(g68
g69
NtRp2214
(dp2215
g72
(dp2216
g80
I3
ssg81
g2210
sg74
(lp2217
S''
asbasbasbag67
(g83
g69
NtRp2218
(dp2219
g72
(dp2220
sg81
g2004
sg74
(lp2221
g67
(g88
g69
NtRp2222
(dp2223
g72
(dp2224
g92
g93
ssg81
g2218
sg74
(lp2225
S'REMOTE_ADDR'
p2226
asbag67
(g88
g69
NtRp2227
(dp2228
g72
(dp2229
g99
g100
ssg81
g2218
sg74
(lp2230
S':'
asbag67
(g88
g69
NtRp2231
(dp2232
g72
(dp2233
sg81
g2218
sg74
(lp2234
g67
(g68
g69
NtRp2235
(dp2236
g72
(dp2237
g80
I3
ssg81
g2231
sg74
(lp2238
g200
asbasbasbag67
(g83
g69
NtRp2239
(dp2240
g72
(dp2241
sg81
g2004
sg74
(lp2242
g67
(g88
g69
NtRp2243
(dp2244
g72
(dp2245
g92
g93
ssg81
g2239
sg74
(lp2246
S'REMOTE_PORT'
p2247
asbag67
(g88
g69
NtRp2248
(dp2249
g72
(dp2250
g99
g100
ssg81
g2239
sg74
(lp2251
S':'
asbag67
(g88
g69
NtRp2252
(dp2253
g72
(dp2254
sg81
g2239
sg74
(lp2255
g67
(g68
g69
NtRp2256
(dp2257
g72
(dp2258
g80
I3
ssg81
g2252
sg74
(lp2259
g904
asbasbasbag67
(g83
g69
NtRp2260
(dp2261
g72
(dp2262
sg81
g2004
sg74
(lp2263
g67
(g88
g69
NtRp2264
(dp2265
g72
(dp2266
g92
g93
ssg81
g2260
sg74
(lp2267
S'REQUEST_METHOD'
p2268
asbag67
(g88
g69
NtRp2269
(dp2270
g72
(dp2271
g99
g100
ssg81
g2260
sg74
(lp2272
S':'
asbag67
(g88
g69
NtRp2273
(dp2274
g72
(dp2275
sg81
g2260
sg74
(lp2276
g67
(g68
g69
NtRp2277
(dp2278
g72
(dp2279
g80
I3
ssg81
g2273
sg74
(lp2280
g926
asbasbasbag67
(g83
g69
NtRp2281
(dp2282
g72
(dp2283
sg81
g2004
sg74
(lp2284
g67
(g88
g69
NtRp2285
(dp2286
g72
(dp2287
g92
g93
ssg81
g2281
sg74
(lp2288
S'SCRIPT_NAME'
p2289
asbag67
(g88
g69
NtRp2290
(dp2291
g72
(dp2292
g99
g100
ssg81
g2281
sg74
(lp2293
S':'
asbag67
(g88
g69
NtRp2294
(dp2295
g72
(dp2296
sg81
g2281
sg74
(lp2297
g67
(g68
g69
NtRp2298
(dp2299
g72
(dp2300
g80
I3
ssg81
g2294
sg74
(lp2301
S''
asbasbasbag67
(g83
g69
NtRp2302
(dp2303
g72
(dp2304
sg81
g2004
sg74
(lp2305
g67
(g88
g69
NtRp2306
(dp2307
g72
(dp2308
g92
g93
ssg81
g2302
sg74
(lp2309
S'SERVER_NAME'
p2310
asbag67
(g88
g69
NtRp2311
(dp2312
g72
(dp2313
g99
g100
ssg81
g2302
sg74
(lp2314
S':'
asbag67
(g88
g69
NtRp2315
(dp2316
g72
(dp2317
sg81
g2302
sg74
(lp2318
g67
(g68
g69
NtRp2319
(dp2320
g72
(dp2321
g80
I3
ssg81
g2315
sg74
(lp2322
g969
asbasbasbag67
(g83
g69
NtRp2323
(dp2324
g72
(dp2325
sg81
g2004
sg74
(lp2326
g67
(g88
g69
NtRp2327
(dp2328
g72
(dp2329
g92
g93
ssg81
g2323
sg74
(lp2330
S'SERVER_PORT'
p2331
asbag67
(g88
g69
NtRp2332
(dp2333
g72
(dp2334
g99
g100
ssg81
g2323
sg74
(lp2335
S':'
asbag67
(g88
g69
NtRp2336
(dp2337
g72
(dp2338
sg81
g2323
sg74
(lp2339
g67
(g68
g69
NtRp2340
(dp2341
g72
(dp2342
g80
I3
ssg81
g2336
sg74
(lp2343
g991
asbasbasbag67
(g83
g69
NtRp2344
(dp2345
g72
(dp2346
sg81
g2004
sg74
(lp2347
g67
(g88
g69
NtRp2348
(dp2349
g72
(dp2350
g92
g93
ssg81
g2344
sg74
(lp2351
S'SERVER_PROTOCOL'
p2352
asbag67
(g88
g69
NtRp2353
(dp2354
g72
(dp2355
g99
g100
ssg81
g2344
sg74
(lp2356
S':'
asbag67
(g88
g69
NtRp2357
(dp2358
g72
(dp2359
sg81
g2344
sg74
(lp2360
g67
(g68
g69
NtRp2361
(dp2362
g72
(dp2363
g80
I3
ssg81
g2357
sg74
(lp2364
g1013
asbasbasbag67
(g83
g69
NtRp2365
(dp2366
g72
(dp2367
sg81
g2004
sg74
(lp2368
g67
(g88
g69
NtRp2369
(dp2370
g72
(dp2371
g92
g93
ssg81
g2365
sg74
(lp2372
S'SERVER_SOFTWARE'
p2373
asbag67
(g88
g69
NtRp2374
(dp2375
g72
(dp2376
g99
g100
ssg81
g2365
sg74
(lp2377
S':'
asbag67
(g88
g69
NtRp2378
(dp2379
g72
(dp2380
sg81
g2365
sg74
(lp2381
g67
(g68
g69
NtRp2382
(dp2383
g72
(dp2384
g80
I3
ssg81
g2378
sg74
(lp2385
g1035
asbasbasbag67
(g83
g69
NtRp2386
(dp2387
g72
(dp2388
sg81
g2004
sg74
(lp2389
g67
(g88
g69
NtRp2390
(dp2391
g72
(dp2392
g92
g93
ssg81
g2386
sg74
(lp2393
S'wsgi.errors'
p2394
asbag67
(g88
g69
NtRp2395
(dp2396
g72
(dp2397
g99
g100
ssg81
g2386
sg74
(lp2398
S':'
asbag67
(g88
g69
NtRp2399
(dp2400
g72
(dp2401
sg81
g2386
sg74
(lp2402
g67
(g68
g69
NtRp2403
(dp2404
g72
(dp2405
g80
I3
ssg81
g2399
sg74
(lp2406
S"<open file '<stderr>', mode 'w' at 0x7f6d3a48b270>"
p2407
asbasbasbag67
(g83
g69
NtRp2408
(dp2409
g72
(dp2410
sg81
g2004
sg74
(lp2411
g67
(g88
g69
NtRp2412
(dp2413
g72
(dp2414
g92
g93
ssg81
g2408
sg74
(lp2415
S'wsgi.file_wrapper'
p2416
asbag67
(g88
g69
NtRp2417
(dp2418
g72
(dp2419
g99
g100
ssg81
g2408
sg74
(lp2420
S':'
asbag67
(g88
g69
NtRp2421
(dp2422
g72
(dp2423
sg81
g2408
sg74
(lp2424
g67
(g68
g69
NtRp2425
(dp2426
g72
(dp2427
g80
I3
ssg81
g2421
sg74
(lp2428
S'<class wsgiref.util.FileWrapper at 0x25957a0>'
p2429
asbasbasbag67
(g83
g69
NtRp2430
(dp2431
g72
(dp2432
sg81
g2004
sg74
(lp2433
g67
(g88
g69
NtRp2434
(dp2435
g72
(dp2436
g92
g93
ssg81
g2430
sg74
(lp2437
S'wsgi.input'
p2438
asbag67
(g88
g69
NtRp2439
(dp2440
g72
(dp2441
g99
g100
ssg81
g2430
sg74
(lp2442
S':'
asbag67
(g88
g69
NtRp2443
(dp2444
g72
(dp2445
sg81
g2430
sg74
(lp2446
g67
(g68
g69
NtRp2447
(dp2448
g72
(dp2449
g80
I3
ssg81
g2443
sg74
(lp2450
S'<cStringIO.StringO object at 0x2c3c3e8>'
p2451
asbasbasbag67
(g83
g69
NtRp2452
(dp2453
g72
(dp2454
sg81
g2004
sg74
(lp2455
g67
(g88
g69
NtRp2456
(dp2457
g72
(dp2458
g92
g93
ssg81
g2452
sg74
(lp2459
S'wsgi.multiprocess'
p2460
asbag67
(g88
g69
NtRp2461
(dp2462
g72
(dp2463
g99
g100
ssg81
g2452
sg74
(lp2464
S':'
asbag67
(g88
g69
NtRp2465
(dp2466
g72
(dp2467
sg81
g2452
sg74
(lp2468
g67
(g68
g69
NtRp2469
(dp2470
g72
(dp2471
g80
I3
ssg81
g2465
sg74
(lp2472
g110
asbasbasbag67
(g83
g69
NtRp2473
(dp2474
g72
(dp2475
sg81
g2004
sg74
(lp2476
g67
(g88
g69
NtRp2477
(dp2478
g72
(dp2479
g92
g93
ssg81
g2473
sg74
(lp2480
S'wsgi.multithread'
p2481
asbag67
(g88
g69
NtRp2482
(dp2483
g72
(dp2484
g99
g100
ssg81
g2473
sg74
(lp2485
S':'
asbag67
(g88
g69
NtRp2486
(dp2487
g72
(dp2488
sg81
g2473
sg74
(lp2489
g67
(g68
g69
NtRp2490
(dp2491
g72
(dp2492
g80
I3
ssg81
g2486
sg74
(lp2493
g1275
asbasbasbag67
(g83
g69
NtRp2494
(dp2495
g72
(dp2496
sg81
g2004
sg74
(lp2497
g67
(g88
g69
NtRp2498
(dp2499
g72
(dp2500
g92
g93
ssg81
g2494
sg74
(lp2501
S'wsgi.run_once'
p2502
asbag67
(g88
g69
NtRp2503
(dp2504
g72
(dp2505
g99
g100
ssg81
g2494
sg74
(lp2506
S':'
asbag67
(g88
g69
NtRp2507
(dp2508
g72
(dp2509
sg81
g2494
sg74
(lp2510
g67
(g68
g69
NtRp2511
(dp2512
g72
(dp2513
g80
I3
ssg81
g2507
sg74
(lp2514
g110
asbasbasbag67
(g83
g69
NtRp2515
(dp2516
g72
(dp2517
sg81
g2004
sg74
(lp2518
g67
(g88
g69
NtRp2519
(dp2520
g72
(dp2521
g92
g93
ssg81
g2515
sg74
(lp2522
S'wsgi.url_scheme'
p2523
asbag67
(g88
g69
NtRp2524
(dp2525
g72
(dp2526
g99
g100
ssg81
g2515
sg74
(lp2527
S':'
asbag67
(g88
g69
NtRp2528
(dp2529
g72
(dp2530
sg81
g2515
sg74
(lp2531
g67
(g68
g69
NtRp2532
(dp2533
g72
(dp2534
g80
I3
ssg81
g2528
sg74
(lp2535
g1318
asbasbasbag67
(g83
g69
NtRp2536
(dp2537
g72
(dp2538
sg81
g2004
sg74
(lp2539
g67
(g88
g69
NtRp2540
(dp2541
g72
(dp2542
g92
g93
ssg81
g2536
sg74
(lp2543
S'wsgi.version'
p2544
asbag67
(g88
g69
NtRp2545
(dp2546
g72
(dp2547
g99
g100
ssg81
g2536
sg74
(lp2548
S':'
asbag67
(g88
g69
NtRp2549
(dp2550
g72
(dp2551
sg81
g2536
sg74
(lp2552
g67
(g68
g69
NtRp2553
(dp2554
g72
(dp2555
g80
I3
ssg81
g2549
sg74
(lp2556
S'1'
asbasbasbasbasbasbasbasbasbasbasbasbasbsS'frames'
p2557
(lp2558
(dp2559
S'file'
p2560
S'/home/ian/web2py/gluon/restricted.py'
p2561
sS'dump'
p2562
(dp2563
S'code'
p2564
S'r"left_sidebar_enabled=right_sidebar_enabled=False...    -->    \\n  </body>\\n</html>\\n\', escape=False)"'
p2565
sS'layer'
p2566
S"'/home/ian/web2py/applications/places/views/default/index.html'"
p2567
sS'global compile2'
p2568
S'<function compile2>'
p2569
sS'ccode'
p2570
S'undefined'
p2571
ssS'lnum'
p2572
I193
sS'lines'
p2573
(dp2574
I192
S'        else:'
p2575
sI193
S'            ccode = compile2(code,layer)'
p2576
sI194
S'        exec ccode in environment'
p2577
sI195
S'    except HTTP:'
p2578
sI196
S'        raise'
p2579
sI197
S'    except Exception, error:'
p2580
sI188
S"    environment['__file__'] = layer"
p2581
sI189
S'    try:'
p2582
sI190
S'        if type(code) == types.CodeType:'
p2583
sI191
S'            ccode = code'
p2584
ssS'call'
p2585
S'(code=r"left_sidebar_enabled=right_sidebar_enabled=False...    -->    \\n  </body>\\n</html>\\n\', escape=False)", environment={\'A\': <class \'gluon.html.A\'>, \'Auth\': <class \'gluon.tools.Auth\'>, \'B\': <class \'gluon.html.B\'>, \'BEAUTIFY\': <class \'gluon.html.BEAUTIFY\'>, \'BODY\': <class \'gluon.html.BODY\'>, \'BR\': <class \'gluon.html.BR\'>, \'BUTTON\': <class \'gluon.html.BUTTON\'>, \'CAT\': <class \'gluon.html.CAT\'>, \'CENTER\': <class \'gluon.html.CENTER\'>, \'CLEANUP\': <class \'gluon.validators.CLEANUP\'>, ...}, layer=\'/home/ian/web2py/applications/places/views/default/index.html\')'
p2586
sS'func'
p2587
S'restricted'
p2588
sa(dp2589
g2560
S'/home/ian/web2py/gluon/restricted.py'
p2590
sg2562
(dp2591
S'builtincompile'
p2592
S'<built-in function compile>'
p2593
sS'code'
p2594
S'r"left_sidebar_enabled=right_sidebar_enabled=False...    -->    \\n  </body>\\n</html>\\n\', escape=False)"'
p2595
sS'code.rstrip'
p2596
S'<built-in method rstrip of str object>'
p2597
sS').replace'
p2598
g2571
sS'layer'
p2599
S"'/home/ian/web2py/applications/places/views/default/index.html'"
p2600
ssg2572
I179
sg2573
(dp2601
I174
S''
sI175
S'def compile2(code,layer):'
p2602
sI176
S'    """'
p2603
sI177
S"    The +'\\n' is necessary else compile fails when code ends in a comment."
p2604
sI178
S'    """'
p2605
sI179
S"    return compile(code.rstrip().replace('\\r\\n','\\n')+'\\n', layer, 'exec')"
p2606
sI180
S''
sI181
S"def restricted(code, environment=None, layer='Unknown'):"
p2607
sI182
S'    """'
p2608
sI183
S'    runs code in environment and returns the output. if an exception occurs'
p2609
ssg2585
S'(code=r"left_sidebar_enabled=right_sidebar_enabled=False...    -->    \\n  </body>\\n</html>\\n\', escape=False)", layer=\'/home/ian/web2py/applications/places/views/default/index.html\')'
p2610
sg2587
S'compile2'
p2611
sasS'pyver'
p2612
S'Python 2.7.1+: /usr/bin/python2.7'
p2613
sS'session'
p2614
g67
(g68
g69
NtRp2615
(dp2616
g72
(dp2617
sg74
(lp2618
g67
(g76
g69
NtRp2619
(dp2620
g72
(dp2621
g80
I5
ssg81
Nsg74
(lp2622
g67
(g83
g69
NtRp2623
(dp2624
g72
(dp2625
sg81
g2619
sg74
(lp2626
g67
(g88
g69
NtRp2627
(dp2628
g72
(dp2629
g92
g93
ssg81
g2623
sg74
(lp2630
S'current_view'
p2631
asbag67
(g88
g69
NtRp2632
(dp2633
g72
(dp2634
g99
g100
ssg81
g2623
sg74
(lp2635
S':'
asbag67
(g88
g69
NtRp2636
(dp2637
g72
(dp2638
sg81
g2623
sg74
(lp2639
g67
(g68
g69
NtRp2640
(dp2641
g72
(dp2642
g80
I5
ssg81
g2636
sg74
(lp2643
S'kitchen'
p2644
asbasbasbasbasbsS'etype'
p2645
S"<type 'exceptions.SyntaxError'>"
p2646
sS'date'
p2647
S'Sun Oct  2 18:57:33 2011'
p2648
sS'response'
p2649
g67
(g68
g69
NtRp2650
(dp2651
g72
(dp2652
sg74
(lp2653
g67
(g76
g69
NtRp2654
(dp2655
g72
(dp2656
g80
I5
ssg81
Nsg74
(lp2657
g67
(g83
g69
NtRp2658
(dp2659
g72
(dp2660
sg81
g2654
sg74
(lp2661
g67
(g88
g69
NtRp2662
(dp2663
g72
(dp2664
g92
g93
ssg81
g2658
sg74
(lp2665
g165
asbag67
(g88
g69
NtRp2666
(dp2667
g72
(dp2668
g99
g100
ssg81
g2658
sg74
(lp2669
S':'
asbag67
(g88
g69
NtRp2670
(dp2671
g72
(dp2672
sg81
g2658
sg74
(lp2673
g67
(g68
g69
NtRp2674
(dp2675
g72
(dp2676
g80
I5
ssg81
g2670
sg74
(lp2677
S'<cStringIO.StringO object at 0x2c3c7d8>'
p2678
asbasbasbag67
(g83
g69
NtRp2679
(dp2680
g72
(dp2681
sg81
g2654
sg74
(lp2682
g67
(g88
g69
NtRp2683
(dp2684
g72
(dp2685
g92
g93
ssg81
g2679
sg74
(lp2686
g231
asbag67
(g88
g69
NtRp2687
(dp2688
g72
(dp2689
g99
g100
ssg81
g2679
sg74
(lp2690
S':'
asbag67
(g88
g69
NtRp2691
(dp2692
g72
(dp2693
sg81
g2679
sg74
(lp2694
g67
(g68
g69
NtRp2695
(dp2696
g72
(dp2697
g80
I5
ssg81
g2691
sg74
(lp2698
g67
(g76
g69
NtRp2699
(dp2700
g72
(dp2701
g80
I4
ssg81
Nsg74
(lp2702
g67
(g83
g69
NtRp2703
(dp2704
g72
(dp2705
sg81
g2699
sg74
(lp2706
g67
(g88
g69
NtRp2707
(dp2708
g72
(dp2709
g92
g93
ssg81
g2703
sg74
(lp2710
S'session_id_places'
p2711
asbag67
(g88
g69
NtRp2712
(dp2713
g72
(dp2714
g99
g100
ssg81
g2703
sg74
(lp2715
S':'
asbag67
(g88
g69
NtRp2716
(dp2717
g72
(dp2718
sg81
g2703
sg74
(lp2719
g67
(g68
g69
NtRp2720
(dp2721
g72
(dp2722
g80
I4
ssg81
g2716
sg74
(lp2723
g67
(g76
g69
NtRp2724
(dp2725
g72
(dp2726
g80
I3
ssg81
Nsg74
(lp2727
g67
(g83
g69
NtRp2728
(dp2729
g72
(dp2730
sg81
g2724
sg74
(lp2731
g67
(g88
g69
NtRp2732
(dp2733
g72
(dp2734
g92
g93
ssg81
g2728
sg74
(lp2735
g281
asbag67
(g88
g69
NtRp2736
(dp2737
g72
(dp2738
g99
g100
ssg81
g2728
sg74
(lp2739
S':'
asbag67
(g88
g69
NtRp2740
(dp2741
g72
(dp2742
sg81
g2728
sg74
(lp2743
g67
(g68
g69
NtRp2744
(dp2745
g72
(dp2746
g80
I3
ssg81
g2740
sg74
(lp2747
S''
asbasbasbag67
(g83
g69
NtRp2748
(dp2749
g72
(dp2750
sg81
g2724
sg74
(lp2751
g67
(g88
g69
NtRp2752
(dp2753
g72
(dp2754
g92
g93
ssg81
g2748
sg74
(lp2755
g302
asbag67
(g88
g69
NtRp2756
(dp2757
g72
(dp2758
g99
g100
ssg81
g2748
sg74
(lp2759
S':'
asbag67
(g88
g69
NtRp2760
(dp2761
g72
(dp2762
sg81
g2748
sg74
(lp2763
g67
(g68
g69
NtRp2764
(dp2765
g72
(dp2766
g80
I3
ssg81
g2760
sg74
(lp2767
S''
asbasbasbag67
(g83
g69
NtRp2768
(dp2769
g72
(dp2770
sg81
g2724
sg74
(lp2771
g67
(g88
g69
NtRp2772
(dp2773
g72
(dp2774
g92
g93
ssg81
g2768
sg74
(lp2775
g323
asbag67
(g88
g69
NtRp2776
(dp2777
g72
(dp2778
g99
g100
ssg81
g2768
sg74
(lp2779
S':'
asbag67
(g88
g69
NtRp2780
(dp2781
g72
(dp2782
sg81
g2768
sg74
(lp2783
g67
(g68
g69
NtRp2784
(dp2785
g72
(dp2786
g80
I3
ssg81
g2780
sg74
(lp2787
S''
asbasbasbag67
(g83
g69
NtRp2788
(dp2789
g72
(dp2790
sg81
g2724
sg74
(lp2791
g67
(g88
g69
NtRp2792
(dp2793
g72
(dp2794
g92
g93
ssg81
g2788
sg74
(lp2795
g344
asbag67
(g88
g69
NtRp2796
(dp2797
g72
(dp2798
g99
g100
ssg81
g2788
sg74
(lp2799
S':'
asbag67
(g88
g69
NtRp2800
(dp2801
g72
(dp2802
sg81
g2788
sg74
(lp2803
g67
(g68
g69
NtRp2804
(dp2805
g72
(dp2806
g80
I3
ssg81
g2800
sg74
(lp2807
S''
asbasbasbag67
(g83
g69
NtRp2808
(dp2809
g72
(dp2810
sg81
g2724
sg74
(lp2811
g67
(g88
g69
NtRp2812
(dp2813
g72
(dp2814
g92
g93
ssg81
g2808
sg74
(lp2815
g365
asbag67
(g88
g69
NtRp2816
(dp2817
g72
(dp2818
g99
g100
ssg81
g2808
sg74
(lp2819
S':'
asbag67
(g88
g69
NtRp2820
(dp2821
g72
(dp2822
sg81
g2808
sg74
(lp2823
g67
(g68
g69
NtRp2824
(dp2825
g72
(dp2826
g80
I3
ssg81
g2820
sg74
(lp2827
S''
asbasbasbag67
(g83
g69
NtRp2828
(dp2829
g72
(dp2830
sg81
g2724
sg74
(lp2831
g67
(g88
g69
NtRp2832
(dp2833
g72
(dp2834
g92
g93
ssg81
g2828
sg74
(lp2835
g386
asbag67
(g88
g69
NtRp2836
(dp2837
g72
(dp2838
g99
g100
ssg81
g2828
sg74
(lp2839
S':'
asbag67
(g88
g69
NtRp2840
(dp2841
g72
(dp2842
sg81
g2828
sg74
(lp2843
g67
(g68
g69
NtRp2844
(dp2845
g72
(dp2846
g80
I3
ssg81
g2840
sg74
(lp2847
S'/'
asbasbasbag67
(g83
g69
NtRp2848
(dp2849
g72
(dp2850
sg81
g2724
sg74
(lp2851
g67
(g88
g69
NtRp2852
(dp2853
g72
(dp2854
g92
g93
ssg81
g2848
sg74
(lp2855
g407
asbag67
(g88
g69
NtRp2856
(dp2857
g72
(dp2858
g99
g100
ssg81
g2848
sg74
(lp2859
S':'
asbag67
(g88
g69
NtRp2860
(dp2861
g72
(dp2862
sg81
g2848
sg74
(lp2863
g67
(g68
g69
NtRp2864
(dp2865
g72
(dp2866
g80
I3
ssg81
g2860
sg74
(lp2867
S''
asbasbasbag67
(g83
g69
NtRp2868
(dp2869
g72
(dp2870
sg81
g2724
sg74
(lp2871
g67
(g88
g69
NtRp2872
(dp2873
g72
(dp2874
g92
g93
ssg81
g2868
sg74
(lp2875
g428
asbag67
(g88
g69
NtRp2876
(dp2877
g72
(dp2878
g99
g100
ssg81
g2868
sg74
(lp2879
S':'
asbag67
(g88
g69
NtRp2880
(dp2881
g72
(dp2882
sg81
g2868
sg74
(lp2883
g67
(g68
g69
NtRp2884
(dp2885
g72
(dp2886
g80
I3
ssg81
g2880
sg74
(lp2887
S''
asbasbasbasbasbasbasbasbasbasbasbag67
(g83
g69
NtRp2888
(dp2889
g72
(dp2890
sg81
g2654
sg74
(lp2891
g67
(g88
g69
NtRp2892
(dp2893
g72
(dp2894
g92
g93
ssg81
g2888
sg74
(lp2895
S'files'
p2896
asbag67
(g88
g69
NtRp2897
(dp2898
g72
(dp2899
g99
g100
ssg81
g2888
sg74
(lp2900
S':'
asbag67
(g88
g69
NtRp2901
(dp2902
g72
(dp2903
sg81
g2888
sg74
(lp2904
g67
(g68
g69
NtRp2905
(dp2906
g72
(dp2907
g80
I5
ssg81
g2901
sg74
(lp2908
g67
(g76
g69
NtRp2909
(dp2910
g72
(dp2911
g80
I4
ssg81
Nsg74
(lp2912
sbasbasbasbag67
(g83
g69
NtRp2913
(dp2914
g72
(dp2915
sg81
g2654
sg74
(lp2916
g67
(g88
g69
NtRp2917
(dp2918
g72
(dp2919
g92
g93
ssg81
g2913
sg74
(lp2920
S'flash'
p2921
asbag67
(g88
g69
NtRp2922
(dp2923
g72
(dp2924
g99
g100
ssg81
g2913
sg74
(lp2925
S':'
asbag67
(g88
g69
NtRp2926
(dp2927
g72
(dp2928
sg81
g2913
sg74
(lp2929
g67
(g68
g69
NtRp2930
(dp2931
g72
(dp2932
g80
I5
ssg81
g2926
sg74
(lp2933
S''
asbasbasbag67
(g83
g69
NtRp2934
(dp2935
g72
(dp2936
sg81
g2654
sg74
(lp2937
g67
(g88
g69
NtRp2938
(dp2939
g72
(dp2940
g92
g93
ssg81
g2934
sg74
(lp2941
S'generic_patterns'
p2942
asbag67
(g88
g69
NtRp2943
(dp2944
g72
(dp2945
g99
g100
ssg81
g2934
sg74
(lp2946
S':'
asbag67
(g88
g69
NtRp2947
(dp2948
g72
(dp2949
sg81
g2934
sg74
(lp2950
g67
(g68
g69
NtRp2951
(dp2952
g72
(dp2953
g80
I5
ssg81
g2947
sg74
(lp2954
g67
(g76
g69
NtRp2955
(dp2956
g72
(dp2957
g80
I4
ssg81
Nsg74
(lp2958
g67
(g83
g69
NtRp2959
(dp2960
g72
(dp2961
sg81
g2955
sg74
(lp2962
g67
(g88
g69
NtRp2963
(dp2964
g72
(dp2965
sg81
g2959
sg74
(lp2966
g67
(g68
g69
NtRp2967
(dp2968
g72
(dp2969
g80
I4
ssg81
g2963
sg74
(lp2970
S'*'
asbasbasbasbasbasbasbag67
(g83
g69
NtRp2971
(dp2972
g72
(dp2973
sg81
g2654
sg74
(lp2974
g67
(g88
g69
NtRp2975
(dp2976
g72
(dp2977
g92
g93
ssg81
g2971
sg74
(lp2978
S'headers'
p2979
asbag67
(g88
g69
NtRp2980
(dp2981
g72
(dp2982
g99
g100
ssg81
g2971
sg74
(lp2983
S':'
asbag67
(g88
g69
NtRp2984
(dp2985
g72
(dp2986
sg81
g2971
sg74
(lp2987
g67
(g68
g69
NtRp2988
(dp2989
g72
(dp2990
g80
I5
ssg81
g2984
sg74
(lp2991
g67
(g76
g69
NtRp2992
(dp2993
g72
(dp2994
g80
I4
ssg81
Nsg74
(lp2995
g67
(g83
g69
NtRp2996
(dp2997
g72
(dp2998
sg81
g2992
sg74
(lp2999
g67
(g88
g69
NtRp3000
(dp3001
g72
(dp3002
g92
g93
ssg81
g2996
sg74
(lp3003
S'Cache-Control'
p3004
asbag67
(g88
g69
NtRp3005
(dp3006
g72
(dp3007
g99
g100
ssg81
g2996
sg74
(lp3008
S':'
asbag67
(g88
g69
NtRp3009
(dp3010
g72
(dp3011
sg81
g2996
sg74
(lp3012
g67
(g68
g69
NtRp3013
(dp3014
g72
(dp3015
g80
I4
ssg81
g3009
sg74
(lp3016
S'no-store, no-cache, must-revalidate, post-check=0, pre-check=0'
p3017
asbasbasbag67
(g83
g69
NtRp3018
(dp3019
g72
(dp3020
sg81
g2992
sg74
(lp3021
g67
(g88
g69
NtRp3022
(dp3023
g72
(dp3024
g92
g93
ssg81
g3018
sg74
(lp3025
S'Content-Type'
p3026
asbag67
(g88
g69
NtRp3027
(dp3028
g72
(dp3029
g99
g100
ssg81
g3018
sg74
(lp3030
S':'
asbag67
(g88
g69
NtRp3031
(dp3032
g72
(dp3033
sg81
g3018
sg74
(lp3034
g67
(g68
g69
NtRp3035
(dp3036
g72
(dp3037
g80
I4
ssg81
g3031
sg74
(lp3038
S'text/html; charset=utf-8'
p3039
asbasbasbag67
(g83
g69
NtRp3040
(dp3041
g72
(dp3042
sg81
g2992
sg74
(lp3043
g67
(g88
g69
NtRp3044
(dp3045
g72
(dp3046
g92
g93
ssg81
g3040
sg74
(lp3047
S'Expires'
p3048
asbag67
(g88
g69
NtRp3049
(dp3050
g72
(dp3051
g99
g100
ssg81
g3040
sg74
(lp3052
S':'
asbag67
(g88
g69
NtRp3053
(dp3054
g72
(dp3055
sg81
g3040
sg74
(lp3056
g67
(g68
g69
NtRp3057
(dp3058
g72
(dp3059
g80
I4
ssg81
g3053
sg74
(lp3060
S'Sun, 02 Oct 2011 22:57:33 GMT'
p3061
asbasbasbag67
(g83
g69
NtRp3062
(dp3063
g72
(dp3064
sg81
g2992
sg74
(lp3065
g67
(g88
g69
NtRp3066
(dp3067
g72
(dp3068
g92
g93
ssg81
g3062
sg74
(lp3069
S'Pragma'
p3070
asbag67
(g88
g69
NtRp3071
(dp3072
g72
(dp3073
g99
g100
ssg81
g3062
sg74
(lp3074
S':'
asbag67
(g88
g69
NtRp3075
(dp3076
g72
(dp3077
sg81
g3062
sg74
(lp3078
g67
(g68
g69
NtRp3079
(dp3080
g72
(dp3081
g80
I4
ssg81
g3075
sg74
(lp3082
S'no-cache'
p3083
asbasbasbag67
(g83
g69
NtRp3084
(dp3085
g72
(dp3086
sg81
g2992
sg74
(lp3087
g67
(g88
g69
NtRp3088
(dp3089
g72
(dp3090
g92
g93
ssg81
g3084
sg74
(lp3091
S'X-Powered-By'
p3092
asbag67
(g88
g69
NtRp3093
(dp3094
g72
(dp3095
g99
g100
ssg81
g3084
sg74
(lp3096
S':'
asbag67
(g88
g69
NtRp3097
(dp3098
g72
(dp3099
sg81
g3084
sg74
(lp3100
g67
(g68
g69
NtRp3101
(dp3102
g72
(dp3103
g80
I4
ssg81
g3097
sg74
(lp3104
S'web2py'
p3105
asbasbasbasbasbasbasbag67
(g83
g69
NtRp3106
(dp3107
g72
(dp3108
sg81
g2654
sg74
(lp3109
g67
(g88
g69
NtRp3110
(dp3111
g72
(dp3112
g92
g93
ssg81
g3106
sg74
(lp3113
S'menu'
p3114
asbag67
(g88
g69
NtRp3115
(dp3116
g72
(dp3117
g99
g100
ssg81
g3106
sg74
(lp3118
S':'
asbag67
(g88
g69
NtRp3119
(dp3120
g72
(dp3121
sg81
g3106
sg74
(lp3122
g67
(g68
g69
NtRp3123
(dp3124
g72
(dp3125
g80
I5
ssg81
g3119
sg74
(lp3126
g67
(g76
g69
NtRp3127
(dp3128
g72
(dp3129
g80
I4
ssg81
Nsg74
(lp3130
g67
(g83
g69
NtRp3131
(dp3132
g72
(dp3133
sg81
g3127
sg74
(lp3134
g67
(g88
g69
NtRp3135
(dp3136
g72
(dp3137
sg81
g3131
sg74
(lp3138
g67
(g68
g69
NtRp3139
(dp3140
g72
(dp3141
g80
I4
ssg81
g3135
sg74
(lp3142
g67
(g76
g69
NtRp3143
(dp3144
g72
(dp3145
g80
I3
ssg81
Nsg74
(lp3146
g67
(g83
g69
NtRp3147
(dp3148
g72
(dp3149
sg81
g3143
sg74
(lp3150
g67
(g88
g69
NtRp3151
(dp3152
g72
(dp3153
sg81
g3147
sg74
(lp3154
g67
(g68
g69
NtRp3155
(dp3156
g72
(dp3157
g80
I3
ssg81
g3151
sg74
(lp3158
cgluon.languages
lazyT_unpickle
p3159
(S't\x04\x00\x00\x00Home'
tRp3160
asbasbasbag67
(g83
g69
NtRp3161
(dp3162
g72
(dp3163
sg81
g3143
sg74
(lp3164
g67
(g88
g69
NtRp3165
(dp3166
g72
(dp3167
sg81
g3161
sg74
(lp3168
g67
(g68
g69
NtRp3169
(dp3170
g72
(dp3171
g80
I3
ssg81
g3165
sg74
(lp3172
g110
asbasbasbag67
(g83
g69
NtRp3173
(dp3174
g72
(dp3175
sg81
g3143
sg74
(lp3176
g67
(g88
g69
NtRp3177
(dp3178
g72
(dp3179
sg81
g3173
sg74
(lp3180
g67
(g68
g69
NtRp3181
(dp3182
g72
(dp3183
g80
I3
ssg81
g3177
sg74
(lp3184
S'/places/default/index'
p3185
asbasbasbag67
(g83
g69
NtRp3186
(dp3187
g72
(dp3188
sg81
g3143
sg74
(lp3189
g67
(g88
g69
NtRp3190
(dp3191
g72
(dp3192
sg81
g3186
sg74
(lp3193
g67
(g68
g69
NtRp3194
(dp3195
g72
(dp3196
g80
I3
ssg81
g3190
sg74
(lp3197
g67
(g76
g69
NtRp3198
(dp3199
g72
(dp3200
g80
I2
ssg81
Nsg74
(lp3201
sbasbasbasbasbasbasbasbag67
(g83
g69
NtRp3202
(dp3203
g72
(dp3204
sg81
g3127
sg74
(lp3205
g67
(g88
g69
NtRp3206
(dp3207
g72
(dp3208
sg81
g3202
sg74
(lp3209
g67
(g68
g69
NtRp3210
(dp3211
g72
(dp3212
g80
I4
ssg81
g3206
sg74
(lp3213
g67
(g76
g69
NtRp3214
(dp3215
g72
(dp3216
g80
I3
ssg81
Nsg74
(lp3217
g67
(g83
g69
NtRp3218
(dp3219
g72
(dp3220
sg81
g3214
sg74
(lp3221
g67
(g88
g69
NtRp3222
(dp3223
g72
(dp3224
sg81
g3218
sg74
(lp3225
g67
(g68
g69
NtRp3226
(dp3227
g72
(dp3228
g80
I3
ssg81
g3222
sg74
(lp3229
g3159
(S's\x08\x00\x00\x00This App'
tRp3230
asbasbasbag67
(g83
g69
NtRp3231
(dp3232
g72
(dp3233
sg81
g3214
sg74
(lp3234
g67
(g88
g69
NtRp3235
(dp3236
g72
(dp3237
sg81
g3231
sg74
(lp3238
g67
(g68
g69
NtRp3239
(dp3240
g72
(dp3241
g80
I3
ssg81
g3235
sg74
(lp3242
g110
asbasbasbag67
(g83
g69
NtRp3243
(dp3244
g72
(dp3245
sg81
g3214
sg74
(lp3246
g67
(g88
g69
NtRp3247
(dp3248
g72
(dp3249
sg81
g3243
sg74
(lp3250
g67
(g68
g69
NtRp3251
(dp3252
g72
(dp3253
g80
I3
ssg81
g3247
sg74
(lp3254
S'/admin/default/design/places'
p3255
asbasbasbag67
(g83
g69
NtRp3256
(dp3257
g72
(dp3258
sg81
g3214
sg74
(lp3259
g67
(g88
g69
NtRp3260
(dp3261
g72
(dp3262
sg81
g3256
sg74
(lp3263
g67
(g68
g69
NtRp3264
(dp3265
g72
(dp3266
g80
I3
ssg81
g3260
sg74
(lp3267
g67
(g76
g69
NtRp3268
(dp3269
g72
(dp3270
g80
I2
ssg81
Nsg74
(lp3271
g67
(g83
g69
NtRp3272
(dp3273
g72
(dp3274
sg81
g3268
sg74
(lp3275
g67
(g88
g69
NtRp3276
(dp3277
g72
(dp3278
sg81
g3272
sg74
(lp3279
g67
(g68
g69
NtRp3280
(dp3281
g72
(dp3282
g80
I2
ssg81
g3276
sg74
(lp3283
g67
(g76
g69
NtRp3284
(dp3285
g72
(dp3286
g80
I1
ssg81
Nsg74
(lp3287
g67
(g83
g69
NtRp3288
(dp3289
g72
(dp3290
sg81
g3284
sg74
(lp3291
g67
(g88
g69
NtRp3292
(dp3293
g72
(dp3294
sg81
g3288
sg74
(lp3295
g67
(g68
g69
NtRp3296
(dp3297
g72
(dp3298
g80
I1
ssg81
g3292
sg74
(lp3299
g3159
(S't\n\x00\x00\x00Controller'
tRp3300
asbasbasbag67
(g83
g69
NtRp3301
(dp3302
g72
(dp3303
sg81
g3284
sg74
(lp3304
g67
(g88
g69
NtRp3305
(dp3306
g72
(dp3307
sg81
g3301
sg74
(lp3308
g67
(g68
g69
NtRp3309
(dp3310
g72
(dp3311
g80
I1
ssg81
g3305
sg74
(lp3312
I00
asbasbasbag67
(g83
g69
NtRp3313
(dp3314
g72
(dp3315
sg81
g3284
sg74
(lp3316
g67
(g88
g69
NtRp3317
(dp3318
g72
(dp3319
sg81
g3313
sg74
(lp3320
g67
(g68
g69
NtRp3321
(dp3322
g72
(dp3323
g80
I1
ssg81
g3317
sg74
(lp3324
S'/admin/default/edit/places/controllers/default.py'
p3325
asbasbasbasbasbasbasbag67
(g83
g69
NtRp3326
(dp3327
g72
(dp3328
sg81
g3268
sg74
(lp3329
g67
(g88
g69
NtRp3330
(dp3331
g72
(dp3332
sg81
g3326
sg74
(lp3333
g67
(g68
g69
NtRp3334
(dp3335
g72
(dp3336
g80
I2
ssg81
g3330
sg74
(lp3337
g67
(g76
g69
NtRp3338
(dp3339
g72
(dp3340
g80
I1
ssg81
Nsg74
(lp3341
g67
(g83
g69
NtRp3342
(dp3343
g72
(dp3344
sg81
g3338
sg74
(lp3345
g67
(g88
g69
NtRp3346
(dp3347
g72
(dp3348
sg81
g3342
sg74
(lp3349
g67
(g68
g69
NtRp3350
(dp3351
g72
(dp3352
g80
I1
ssg81
g3346
sg74
(lp3353
g3159
(S't\x04\x00\x00\x00View'
tRp3354
asbasbasbag67
(g83
g69
NtRp3355
(dp3356
g72
(dp3357
sg81
g3338
sg74
(lp3358
g67
(g88
g69
NtRp3359
(dp3360
g72
(dp3361
sg81
g3355
sg74
(lp3362
g67
(g68
g69
NtRp3363
(dp3364
g72
(dp3365
g80
I1
ssg81
g3359
sg74
(lp3366
I00
asbasbasbag67
(g83
g69
NtRp3367
(dp3368
g72
(dp3369
sg81
g3338
sg74
(lp3370
g67
(g88
g69
NtRp3371
(dp3372
g72
(dp3373
sg81
g3367
sg74
(lp3374
g67
(g68
g69
NtRp3375
(dp3376
g72
(dp3377
g80
I1
ssg81
g3371
sg74
(lp3378
S'/admin/default/edit/places/views/default/index.html'
p3379
asbasbasbasbasbasbasbag67
(g83
g69
NtRp3380
(dp3381
g72
(dp3382
sg81
g3268
sg74
(lp3383
g67
(g88
g69
NtRp3384
(dp3385
g72
(dp3386
sg81
g3380
sg74
(lp3387
g67
(g68
g69
NtRp3388
(dp3389
g72
(dp3390
g80
I2
ssg81
g3384
sg74
(lp3391
g67
(g76
g69
NtRp3392
(dp3393
g72
(dp3394
g80
I1
ssg81
Nsg74
(lp3395
g67
(g83
g69
NtRp3396
(dp3397
g72
(dp3398
sg81
g3392
sg74
(lp3399
g67
(g88
g69
NtRp3400
(dp3401
g72
(dp3402
sg81
g3396
sg74
(lp3403
g67
(g68
g69
NtRp3404
(dp3405
g72
(dp3406
g80
I1
ssg81
g3400
sg74
(lp3407
g3159
(S't\x06\x00\x00\x00Layout'
tRp3408
asbasbasbag67
(g83
g69
NtRp3409
(dp3410
g72
(dp3411
sg81
g3392
sg74
(lp3412
g67
(g88
g69
NtRp3413
(dp3414
g72
(dp3415
sg81
g3409
sg74
(lp3416
g67
(g68
g69
NtRp3417
(dp3418
g72
(dp3419
g80
I1
ssg81
g3413
sg74
(lp3420
I00
asbasbasbag67
(g83
g69
NtRp3421
(dp3422
g72
(dp3423
sg81
g3392
sg74
(lp3424
g67
(g88
g69
NtRp3425
(dp3426
g72
(dp3427
sg81
g3421
sg74
(lp3428
g67
(g68
g69
NtRp3429
(dp3430
g72
(dp3431
g80
I1
ssg81
g3425
sg74
(lp3432
S'/admin/default/edit/places/views/layout.html'
p3433
asbasbasbasbasbasbasbag67
(g83
g69
NtRp3434
(dp3435
g72
(dp3436
sg81
g3268
sg74
(lp3437
g67
(g88
g69
NtRp3438
(dp3439
g72
(dp3440
sg81
g3434
sg74
(lp3441
g67
(g68
g69
NtRp3442
(dp3443
g72
(dp3444
g80
I2
ssg81
g3438
sg74
(lp3445
g67
(g76
g69
NtRp3446
(dp3447
g72
(dp3448
g80
I1
ssg81
Nsg74
(lp3449
g67
(g83
g69
NtRp3450
(dp3451
g72
(dp3452
sg81
g3446
sg74
(lp3453
g67
(g88
g69
NtRp3454
(dp3455
g72
(dp3456
sg81
g3450
sg74
(lp3457
g67
(g68
g69
NtRp3458
(dp3459
g72
(dp3460
g80
I1
ssg81
g3454
sg74
(lp3461
g3159
(S't\n\x00\x00\x00Stylesheet'
tRp3462
asbasbasbag67
(g83
g69
NtRp3463
(dp3464
g72
(dp3465
sg81
g3446
sg74
(lp3466
g67
(g88
g69
NtRp3467
(dp3468
g72
(dp3469
sg81
g3463
sg74
(lp3470
g67
(g68
g69
NtRp3471
(dp3472
g72
(dp3473
g80
I1
ssg81
g3467
sg74
(lp3474
I00
asbasbasbag67
(g83
g69
NtRp3475
(dp3476
g72
(dp3477
sg81
g3446
sg74
(lp3478
g67
(g88
g69
NtRp3479
(dp3480
g72
(dp3481
sg81
g3475
sg74
(lp3482
g67
(g68
g69
NtRp3483
(dp3484
g72
(dp3485
g80
I1
ssg81
g3479
sg74
(lp3486
S'/admin/default/edit/places/static/base.css'
p3487
asbasbasbasbasbasbasbag67
(g83
g69
NtRp3488
(dp3489
g72
(dp3490
sg81
g3268
sg74
(lp3491
g67
(g88
g69
NtRp3492
(dp3493
g72
(dp3494
sg81
g3488
sg74
(lp3495
g67
(g68
g69
NtRp3496
(dp3497
g72
(dp3498
g80
I2
ssg81
g3492
sg74
(lp3499
g67
(g76
g69
NtRp3500
(dp3501
g72
(dp3502
g80
I1
ssg81
Nsg74
(lp3503
g67
(g83
g69
NtRp3504
(dp3505
g72
(dp3506
sg81
g3500
sg74
(lp3507
g67
(g88
g69
NtRp3508
(dp3509
g72
(dp3510
sg81
g3504
sg74
(lp3511
g67
(g68
g69
NtRp3512
(dp3513
g72
(dp3514
g80
I1
ssg81
g3508
sg74
(lp3515
g3159
(S's\x08\x00\x00\x00DB Model'
tRp3516
asbasbasbag67
(g83
g69
NtRp3517
(dp3518
g72
(dp3519
sg81
g3500
sg74
(lp3520
g67
(g88
g69
NtRp3521
(dp3522
g72
(dp3523
sg81
g3517
sg74
(lp3524
g67
(g68
g69
NtRp3525
(dp3526
g72
(dp3527
g80
I1
ssg81
g3521
sg74
(lp3528
I00
asbasbasbag67
(g83
g69
NtRp3529
(dp3530
g72
(dp3531
sg81
g3500
sg74
(lp3532
g67
(g88
g69
NtRp3533
(dp3534
g72
(dp3535
sg81
g3529
sg74
(lp3536
g67
(g68
g69
NtRp3537
(dp3538
g72
(dp3539
g80
I1
ssg81
g3533
sg74
(lp3540
S'/admin/default/edit/places/models/db.py'
p3541
asbasbasbasbasbasbasbag67
(g83
g69
NtRp3542
(dp3543
g72
(dp3544
sg81
g3268
sg74
(lp3545
g67
(g88
g69
NtRp3546
(dp3547
g72
(dp3548
sg81
g3542
sg74
(lp3549
g67
(g68
g69
NtRp3550
(dp3551
g72
(dp3552
g80
I2
ssg81
g3546
sg74
(lp3553
g67
(g76
g69
NtRp3554
(dp3555
g72
(dp3556
g80
I1
ssg81
Nsg74
(lp3557
g67
(g83
g69
NtRp3558
(dp3559
g72
(dp3560
sg81
g3554
sg74
(lp3561
g67
(g88
g69
NtRp3562
(dp3563
g72
(dp3564
sg81
g3558
sg74
(lp3565
g67
(g68
g69
NtRp3566
(dp3567
g72
(dp3568
g80
I1
ssg81
g3562
sg74
(lp3569
g3159
(S's\n\x00\x00\x00Menu Model'
tRp3570
asbasbasbag67
(g83
g69
NtRp3571
(dp3572
g72
(dp3573
sg81
g3554
sg74
(lp3574
g67
(g88
g69
NtRp3575
(dp3576
g72
(dp3577
sg81
g3571
sg74
(lp3578
g67
(g68
g69
NtRp3579
(dp3580
g72
(dp3581
g80
I1
ssg81
g3575
sg74
(lp3582
I00
asbasbasbag67
(g83
g69
NtRp3583
(dp3584
g72
(dp3585
sg81
g3554
sg74
(lp3586
g67
(g88
g69
NtRp3587
(dp3588
g72
(dp3589
sg81
g3583
sg74
(lp3590
g67
(g68
g69
NtRp3591
(dp3592
g72
(dp3593
g80
I1
ssg81
g3587
sg74
(lp3594
S'/admin/default/edit/places/models/menu.py'
p3595
asbasbasbasbasbasbasbag67
(g83
g69
NtRp3596
(dp3597
g72
(dp3598
sg81
g3268
sg74
(lp3599
g67
(g88
g69
NtRp3600
(dp3601
g72
(dp3602
sg81
g3596
sg74
(lp3603
g67
(g68
g69
NtRp3604
(dp3605
g72
(dp3606
g80
I2
ssg81
g3600
sg74
(lp3607
g67
(g76
g69
NtRp3608
(dp3609
g72
(dp3610
g80
I1
ssg81
Nsg74
(lp3611
g67
(g83
g69
NtRp3612
(dp3613
g72
(dp3614
sg81
g3608
sg74
(lp3615
g67
(g88
g69
NtRp3616
(dp3617
g72
(dp3618
sg81
g3612
sg74
(lp3619
g67
(g68
g69
NtRp3620
(dp3621
g72
(dp3622
g80
I1
ssg81
g3616
sg74
(lp3623
g3159
(S't\x08\x00\x00\x00Database'
tRp3624
asbasbasbag67
(g83
g69
NtRp3625
(dp3626
g72
(dp3627
sg81
g3608
sg74
(lp3628
g67
(g88
g69
NtRp3629
(dp3630
g72
(dp3631
sg81
g3625
sg74
(lp3632
g67
(g68
g69
NtRp3633
(dp3634
g72
(dp3635
g80
I1
ssg81
g3629
sg74
(lp3636
I00
asbasbasbag67
(g83
g69
NtRp3637
(dp3638
g72
(dp3639
sg81
g3608
sg74
(lp3640
g67
(g88
g69
NtRp3641
(dp3642
g72
(dp3643
sg81
g3637
sg74
(lp3644
g67
(g68
g69
NtRp3645
(dp3646
g72
(dp3647
g80
I1
ssg81
g3641
sg74
(lp3648
S'/places/appadmin/index'
p3649
asbasbasbasbasbasbasbag67
(g83
g69
NtRp3650
(dp3651
g72
(dp3652
sg81
g3268
sg74
(lp3653
g67
(g88
g69
NtRp3654
(dp3655
g72
(dp3656
sg81
g3650
sg74
(lp3657
g67
(g68
g69
NtRp3658
(dp3659
g72
(dp3660
g80
I2
ssg81
g3654
sg74
(lp3661
g67
(g76
g69
NtRp3662
(dp3663
g72
(dp3664
g80
I1
ssg81
Nsg74
(lp3665
g67
(g83
g69
NtRp3666
(dp3667
g72
(dp3668
sg81
g3662
sg74
(lp3669
g67
(g88
g69
NtRp3670
(dp3671
g72
(dp3672
sg81
g3666
sg74
(lp3673
g67
(g68
g69
NtRp3674
(dp3675
g72
(dp3676
g80
I1
ssg81
g3670
sg74
(lp3677
g3159
(S't\x06\x00\x00\x00Errors'
tRp3678
asbasbasbag67
(g83
g69
NtRp3679
(dp3680
g72
(dp3681
sg81
g3662
sg74
(lp3682
g67
(g88
g69
NtRp3683
(dp3684
g72
(dp3685
sg81
g3679
sg74
(lp3686
g67
(g68
g69
NtRp3687
(dp3688
g72
(dp3689
g80
I1
ssg81
g3683
sg74
(lp3690
I00
asbasbasbag67
(g83
g69
NtRp3691
(dp3692
g72
(dp3693
sg81
g3662
sg74
(lp3694
g67
(g88
g69
NtRp3695
(dp3696
g72
(dp3697
sg81
g3691
sg74
(lp3698
g67
(g68
g69
NtRp3699
(dp3700
g72
(dp3701
g80
I1
ssg81
g3695
sg74
(lp3702
S'/admin/default/errors/places'
p3703
asbasbasbasbasbasbasbag67
(g83
g69
NtRp3704
(dp3705
g72
(dp3706
sg81
g3268
sg74
(lp3707
g67
(g88
g69
NtRp3708
(dp3709
g72
(dp3710
sg81
g3704
sg74
(lp3711
g67
(g68
g69
NtRp3712
(dp3713
g72
(dp3714
g80
I2
ssg81
g3708
sg74
(lp3715
g67
(g76
g69
NtRp3716
(dp3717
g72
(dp3718
g80
I1
ssg81
Nsg74
(lp3719
g67
(g83
g69
NtRp3720
(dp3721
g72
(dp3722
sg81
g3716
sg74
(lp3723
g67
(g88
g69
NtRp3724
(dp3725
g72
(dp3726
sg81
g3720
sg74
(lp3727
g67
(g68
g69
NtRp3728
(dp3729
g72
(dp3730
g80
I1
ssg81
g3724
sg74
(lp3731
g3159
(S't\x05\x00\x00\x00About'
tRp3732
asbasbasbag67
(g83
g69
NtRp3733
(dp3734
g72
(dp3735
sg81
g3716
sg74
(lp3736
g67
(g88
g69
NtRp3737
(dp3738
g72
(dp3739
sg81
g3733
sg74
(lp3740
g67
(g68
g69
NtRp3741
(dp3742
g72
(dp3743
g80
I1
ssg81
g3737
sg74
(lp3744
I00
asbasbasbag67
(g83
g69
NtRp3745
(dp3746
g72
(dp3747
sg81
g3716
sg74
(lp3748
g67
(g88
g69
NtRp3749
(dp3750
g72
(dp3751
sg81
g3745
sg74
(lp3752
g67
(g68
g69
NtRp3753
(dp3754
g72
(dp3755
g80
I1
ssg81
g3749
sg74
(lp3756
S'/admin/default/about/places'
p3757
asbasbasbasbasbasbasbasbasbasbasbasbasbasbasbag67
(g83
g69
NtRp3758
(dp3759
g72
(dp3760
sg81
g3127
sg74
(lp3761
g67
(g88
g69
NtRp3762
(dp3763
g72
(dp3764
sg81
g3758
sg74
(lp3765
g67
(g68
g69
NtRp3766
(dp3767
g72
(dp3768
g80
I4
ssg81
g3762
sg74
(lp3769
g67
(g76
g69
NtRp3770
(dp3771
g72
(dp3772
g80
I3
ssg81
Nsg74
(lp3773
g67
(g83
g69
NtRp3774
(dp3775
g72
(dp3776
sg81
g3770
sg74
(lp3777
g67
(g88
g69
NtRp3778
(dp3779
g72
(dp3780
sg81
g3774
sg74
(lp3781
g67
(g68
g69
NtRp3782
(dp3783
g72
(dp3784
g80
I3
ssg81
g3778
sg74
(lp3785
g3159
(S't\t\x00\x00\x00Resources'
tRp3786
asbasbasbag67
(g83
g69
NtRp3787
(dp3788
g72
(dp3789
sg81
g3770
sg74
(lp3790
g67
(g88
g69
NtRp3791
(dp3792
g72
(dp3793
sg81
g3787
sg74
(lp3794
g67
(g68
g69
NtRp3795
(dp3796
g72
(dp3797
g80
I3
ssg81
g3791
sg74
(lp3798
g110
asbasbasbag67
(g83
g69
NtRp3799
(dp3800
g72
(dp3801
sg81
g3770
sg74
(lp3802
g67
(g88
g69
NtRp3803
(dp3804
g72
(dp3805
sg81
g3799
sg74
(lp3806
g67
(g68
g69
NtRp3807
(dp3808
g72
(dp3809
g80
I3
ssg81
g3803
sg74
(lp3810
S'None'
p3811
asbasbasbag67
(g83
g69
NtRp3812
(dp3813
g72
(dp3814
sg81
g3770
sg74
(lp3815
g67
(g88
g69
NtRp3816
(dp3817
g72
(dp3818
sg81
g3812
sg74
(lp3819
g67
(g68
g69
NtRp3820
(dp3821
g72
(dp3822
g80
I3
ssg81
g3816
sg74
(lp3823
g67
(g76
g69
NtRp3824
(dp3825
g72
(dp3826
g80
I2
ssg81
Nsg74
(lp3827
g67
(g83
g69
NtRp3828
(dp3829
g72
(dp3830
sg81
g3824
sg74
(lp3831
g67
(g88
g69
NtRp3832
(dp3833
g72
(dp3834
sg81
g3828
sg74
(lp3835
g67
(g68
g69
NtRp3836
(dp3837
g72
(dp3838
g80
I2
ssg81
g3832
sg74
(lp3839
g67
(g76
g69
NtRp3840
(dp3841
g72
(dp3842
g80
I1
ssg81
Nsg74
(lp3843
g67
(g83
g69
NtRp3844
(dp3845
g72
(dp3846
sg81
g3840
sg74
(lp3847
g67
(g88
g69
NtRp3848
(dp3849
g72
(dp3850
sg81
g3844
sg74
(lp3851
g67
(g68
g69
NtRp3852
(dp3853
g72
(dp3854
g80
I1
ssg81
g3848
sg74
(lp3855
g3159
(S't\r\x00\x00\x00Documentation'
tRp3856
asbasbasbag67
(g83
g69
NtRp3857
(dp3858
g72
(dp3859
sg81
g3840
sg74
(lp3860
g67
(g88
g69
NtRp3861
(dp3862
g72
(dp3863
sg81
g3857
sg74
(lp3864
g67
(g68
g69
NtRp3865
(dp3866
g72
(dp3867
g80
I1
ssg81
g3861
sg74
(lp3868
I00
asbasbasbag67
(g83
g69
NtRp3869
(dp3870
g72
(dp3871
sg81
g3840
sg74
(lp3872
g67
(g88
g69
NtRp3873
(dp3874
g72
(dp3875
sg81
g3869
sg74
(lp3876
g67
(g68
g69
NtRp3877
(dp3878
g72
(dp3879
g80
I1
ssg81
g3873
sg74
(lp3880
S'http://www.web2py.com/book'
p3881
asbasbasbag67
(g83
g69
NtRp3882
(dp3883
g72
(dp3884
sg81
g3840
sg74
(lp3885
g67
(g88
g69
NtRp3886
(dp3887
g72
(dp3888
sg81
g3882
sg74
(lp3889
g67
(g68
g69
NtRp3890
(dp3891
g72
(dp3892
g80
I1
ssg81
g3886
sg74
(lp3893
(lp3894
(g3159
(S't\x07\x00\x00\x00Preface'
tRp3895
I00
S'http://www.web2py.com/book/default/chapter/00'
p3896
tp3897
a(g3159
(S't\x0c\x00\x00\x00Introduction'
tRp3898
I00
S'http://www.web2py.com/book/default/chapter/01'
p3899
tp3900
a(g3159
(S't\x06\x00\x00\x00Python'
tRp3901
I00
S'http://www.web2py.com/book/default/chapter/02'
p3902
tp3903
a(g3159
(S't\x08\x00\x00\x00Overview'
tRp3904
I00
S'http://www.web2py.com/book/default/chapter/03'
p3905
tp3906
a(g3159
(S's\x08\x00\x00\x00The Core'
tRp3907
I00
S'http://www.web2py.com/book/default/chapter/04'
p3908
tp3909
a(g3159
(S's\t\x00\x00\x00The Views'
tRp3910
I00
S'http://www.web2py.com/book/default/chapter/05'
p3911
tp3912
a(g3159
(S't\x08\x00\x00\x00Database'
tRp3913
I00
S'http://www.web2py.com/book/default/chapter/06'
p3914
tp3915
a(g3159
(S's\x14\x00\x00\x00Forms and Validators'
tRp3916
I00
S'http://www.web2py.com/book/default/chapter/07'
p3917
tp3918
a(g3159
(S's\x0e\x00\x00\x00Access Control'
tRp3919
I00
S'http://www.web2py.com/book/default/chapter/08'
p3920
tp3921
a(g3159
(S't\x08\x00\x00\x00Services'
tRp3922
I00
S'http://www.web2py.com/book/default/chapter/09'
p3923
tp3924
a(g3159
(S's\x0c\x00\x00\x00Ajax Recipes'
tRp3925
I00
S'http://www.web2py.com/book/default/chapter/10'
p3926
tp3927
a(g3159
(S's\x12\x00\x00\x00Deployment Recipes'
tRp3928
I00
S'http://www.web2py.com/book/default/chapter/11'
p3929
tp3930
a(g3159
(S's\r\x00\x00\x00Other Recipes'
tRp3931
I00
S'http://www.web2py.com/book/default/chapter/12'
p3932
tp3933
a(g3159
(S's\r\x00\x00\x00Buy this book'
tRp3934
I00
S'http://stores.lulu.com/web2py'
p3935
tp3936
aasbasbasbasbasbasbasbag67
(g83
g69
NtRp3937
(dp3938
g72
(dp3939
sg81
g3824
sg74
(lp3940
g67
(g88
g69
NtRp3941
(dp3942
g72
(dp3943
sg81
g3937
sg74
(lp3944
g67
(g68
g69
NtRp3945
(dp3946
g72
(dp3947
g80
I2
ssg81
g3941
sg74
(lp3948
g67
(g76
g69
NtRp3949
(dp3950
g72
(dp3951
g80
I1
ssg81
Nsg74
(lp3952
g67
(g83
g69
NtRp3953
(dp3954
g72
(dp3955
sg81
g3949
sg74
(lp3956
g67
(g88
g69
NtRp3957
(dp3958
g72
(dp3959
sg81
g3953
sg74
(lp3960
g67
(g68
g69
NtRp3961
(dp3962
g72
(dp3963
g80
I1
ssg81
g3957
sg74
(lp3964
g3159
(S't\t\x00\x00\x00Community'
tRp3965
asbasbasbag67
(g83
g69
NtRp3966
(dp3967
g72
(dp3968
sg81
g3949
sg74
(lp3969
g67
(g88
g69
NtRp3970
(dp3971
g72
(dp3972
sg81
g3966
sg74
(lp3973
g67
(g68
g69
NtRp3974
(dp3975
g72
(dp3976
g80
I1
ssg81
g3970
sg74
(lp3977
I00
asbasbasbag67
(g83
g69
NtRp3978
(dp3979
g72
(dp3980
sg81
g3949
sg74
(lp3981
g67
(g88
g69
NtRp3982
(dp3983
g72
(dp3984
sg81
g3978
sg74
(lp3985
g67
(g68
g69
NtRp3986
(dp3987
g72
(dp3988
g80
I1
ssg81
g3982
sg74
(lp3989
Nasbasbasbag67
(g83
g69
NtRp3990
(dp3991
g72
(dp3992
sg81
g3949
sg74
(lp3993
g67
(g88
g69
NtRp3994
(dp3995
g72
(dp3996
sg81
g3990
sg74
(lp3997
g67
(g68
g69
NtRp3998
(dp3999
g72
(dp4000
g80
I1
ssg81
g3994
sg74
(lp4001
(lp4002
(g3159
(S't\x06\x00\x00\x00Groups'
tRp4003
I00
S'http://www.web2py.com/examples/default/usergroups'
p4004
tp4005
a(g3159
(S't\x07\x00\x00\x00Twitter'
tRp4006
I00
S'http://twitter.com/web2py'
p4007
tp4008
a(g3159
(S's\t\x00\x00\x00Live chat'
tRp4009
I00
S'http://mibbit.com/?channel=%23web2py&server=irc.mibbit.net'
p4010
tp4011
a(g3159
(S's\n\x00\x00\x00User Voice'
tRp4012
I00
S'http://web2py.uservoice.com/'
p4013
tp4014
aasbasbasbasbasbasbasbag67
(g83
g69
NtRp4015
(dp4016
g72
(dp4017
sg81
g3824
sg74
(lp4018
g67
(g88
g69
NtRp4019
(dp4020
g72
(dp4021
sg81
g4015
sg74
(lp4022
g67
(g68
g69
NtRp4023
(dp4024
g72
(dp4025
g80
I2
ssg81
g4019
sg74
(lp4026
g67
(g76
g69
NtRp4027
(dp4028
g72
(dp4029
g80
I1
ssg81
Nsg74
(lp4030
g67
(g83
g69
NtRp4031
(dp4032
g72
(dp4033
sg81
g4027
sg74
(lp4034
g67
(g88
g69
NtRp4035
(dp4036
g72
(dp4037
sg81
g4031
sg74
(lp4038
g67
(g68
g69
NtRp4039
(dp4040
g72
(dp4041
g80
I1
ssg81
g4035
sg74
(lp4042
g3159
(S't\x06\x00\x00\x00Web2py'
tRp4043
asbasbasbag67
(g83
g69
NtRp4044
(dp4045
g72
(dp4046
sg81
g4027
sg74
(lp4047
g67
(g88
g69
NtRp4048
(dp4049
g72
(dp4050
sg81
g4044
sg74
(lp4051
g67
(g68
g69
NtRp4052
(dp4053
g72
(dp4054
g80
I1
ssg81
g4048
sg74
(lp4055
I00
asbasbasbag67
(g83
g69
NtRp4056
(dp4057
g72
(dp4058
sg81
g4027
sg74
(lp4059
g67
(g88
g69
NtRp4060
(dp4061
g72
(dp4062
sg81
g4056
sg74
(lp4063
g67
(g68
g69
NtRp4064
(dp4065
g72
(dp4066
g80
I1
ssg81
g4060
sg74
(lp4067
S'http://www.web2py.com'
p4068
asbasbasbag67
(g83
g69
NtRp4069
(dp4070
g72
(dp4071
sg81
g4027
sg74
(lp4072
g67
(g88
g69
NtRp4073
(dp4074
g72
(dp4075
sg81
g4069
sg74
(lp4076
g67
(g68
g69
NtRp4077
(dp4078
g72
(dp4079
g80
I1
ssg81
g4073
sg74
(lp4080
(lp4081
(g3159
(S't\x08\x00\x00\x00Download'
tRp4082
I00
S'http://www.web2py.com/examples/default/download'
p4083
tp4084
a(g3159
(S't\x07\x00\x00\x00Support'
tRp4085
I00
S'http://www.web2py.com/examples/default/support'
p4086
tp4087
a(g3159
(S's\x0e\x00\x00\x00Quick Examples'
tRp4088
I00
S'http://web2py.com/examples/default/examples'
p4089
tp4090
a(g3159
(S't\x03\x00\x00\x00FAQ'
tRp4091
I00
S'http://web2py.com/AlterEgo'
p4092
tp4093
a(g3159
(S's\x11\x00\x00\x00Free Applications'
tRp4094
I00
S'http://web2py.com/appliances'
p4095
tp4096
a(g3159
(S't\x07\x00\x00\x00Plugins'
tRp4097
I00
S'http://web2py.com/plugins'
p4098
tp4099
a(g3159
(S't\x07\x00\x00\x00Recipes'
tRp4100
I00
S'http://web2pyslices.com/'
p4101
tp4102
a(g3159
(S't\x04\x00\x00\x00Demo'
tRp4103
I00
S'http://web2py.com/demo_admin'
p4104
tp4105
a(g3159
(S't\x08\x00\x00\x00Semantic'
tRp4106
I00
S'http://web2py.com/semantic'
p4107
tp4108
a(g3159
(S't\x07\x00\x00\x00Layouts'
tRp4109
I00
S'http://web2py.com/layouts'
p4110
tp4111
a(g3159
(S't\x06\x00\x00\x00Videos'
tRp4112
I00
S'http://www.web2py.com/examples/default/videos/'
p4113
tp4114
aasbasbasbasbasbasbasbasbasbasbasbasbasbasbasbasbasbasbasbag67
(g83
g69
NtRp4115
(dp4116
g72
(dp4117
sg81
g2654
sg74
(lp4118
g67
(g88
g69
NtRp4119
(dp4120
g72
(dp4121
g92
g93
ssg81
g4115
sg74
(lp4122
S'meta'
p4123
asbag67
(g88
g69
NtRp4124
(dp4125
g72
(dp4126
g99
g100
ssg81
g4115
sg74
(lp4127
S':'
asbag67
(g88
g69
NtRp4128
(dp4129
g72
(dp4130
sg81
g4115
sg74
(lp4131
g67
(g68
g69
NtRp4132
(dp4133
g72
(dp4134
g80
I5
ssg81
g4128
sg74
(lp4135
g67
(g76
g69
NtRp4136
(dp4137
g72
(dp4138
g80
I4
ssg81
Nsg74
(lp4139
g67
(g83
g69
NtRp4140
(dp4141
g72
(dp4142
sg81
g4136
sg74
(lp4143
g67
(g88
g69
NtRp4144
(dp4145
g72
(dp4146
g92
g93
ssg81
g4140
sg74
(lp4147
S'author'
p4148
asbag67
(g88
g69
NtRp4149
(dp4150
g72
(dp4151
g99
g100
ssg81
g4140
sg74
(lp4152
S':'
asbag67
(g88
g69
NtRp4153
(dp4154
g72
(dp4155
sg81
g4140
sg74
(lp4156
g67
(g68
g69
NtRp4157
(dp4158
g72
(dp4159
g80
I4
ssg81
g4153
sg74
(lp4160
S'Your Name <you@example.com>'
p4161
asbasbasbag67
(g83
g69
NtRp4162
(dp4163
g72
(dp4164
sg81
g4136
sg74
(lp4165
g67
(g88
g69
NtRp4166
(dp4167
g72
(dp4168
g92
g93
ssg81
g4162
sg74
(lp4169
S'copyright'
p4170
asbag67
(g88
g69
NtRp4171
(dp4172
g72
(dp4173
g99
g100
ssg81
g4162
sg74
(lp4174
S':'
asbag67
(g88
g69
NtRp4175
(dp4176
g72
(dp4177
sg81
g4162
sg74
(lp4178
g67
(g68
g69
NtRp4179
(dp4180
g72
(dp4181
g80
I4
ssg81
g4175
sg74
(lp4182
S'Copyright 2011'
p4183
asbasbasbag67
(g83
g69
NtRp4184
(dp4185
g72
(dp4186
sg81
g4136
sg74
(lp4187
g67
(g88
g69
NtRp4188
(dp4189
g72
(dp4190
g92
g93
ssg81
g4184
sg74
(lp4191
S'description'
p4192
asbag67
(g88
g69
NtRp4193
(dp4194
g72
(dp4195
g99
g100
ssg81
g4184
sg74
(lp4196
S':'
asbag67
(g88
g69
NtRp4197
(dp4198
g72
(dp4199
sg81
g4184
sg74
(lp4200
g67
(g68
g69
NtRp4201
(dp4202
g72
(dp4203
g80
I4
ssg81
g4197
sg74
(lp4204
S'a cool new app'
p4205
asbasbasbag67
(g83
g69
NtRp4206
(dp4207
g72
(dp4208
sg81
g4136
sg74
(lp4209
g67
(g88
g69
NtRp4210
(dp4211
g72
(dp4212
g92
g93
ssg81
g4206
sg74
(lp4213
S'generator'
p4214
asbag67
(g88
g69
NtRp4215
(dp4216
g72
(dp4217
g99
g100
ssg81
g4206
sg74
(lp4218
S':'
asbag67
(g88
g69
NtRp4219
(dp4220
g72
(dp4221
sg81
g4206
sg74
(lp4222
g67
(g68
g69
NtRp4223
(dp4224
g72
(dp4225
g80
I4
ssg81
g4219
sg74
(lp4226
S'Web2py Web Framework'
p4227
asbasbasbag67
(g83
g69
NtRp4228
(dp4229
g72
(dp4230
sg81
g4136
sg74
(lp4231
g67
(g88
g69
NtRp4232
(dp4233
g72
(dp4234
g92
g93
ssg81
g4228
sg74
(lp4235
S'keywords'
p4236
asbag67
(g88
g69
NtRp4237
(dp4238
g72
(dp4239
g99
g100
ssg81
g4228
sg74
(lp4240
S':'
asbag67
(g88
g69
NtRp4241
(dp4242
g72
(dp4243
sg81
g4228
sg74
(lp4244
g67
(g68
g69
NtRp4245
(dp4246
g72
(dp4247
g80
I4
ssg81
g4241
sg74
(lp4248
S'web2py, python, framework'
p4249
asbasbasbasbasbasbasbag67
(g83
g69
NtRp4250
(dp4251
g72
(dp4252
sg81
g2654
sg74
(lp4253
g67
(g88
g69
NtRp4254
(dp4255
g72
(dp4256
g92
g93
ssg81
g4250
sg74
(lp4257
S'postprocessing'
p4258
asbag67
(g88
g69
NtRp4259
(dp4260
g72
(dp4261
g99
g100
ssg81
g4250
sg74
(lp4262
S':'
asbag67
(g88
g69
NtRp4263
(dp4264
g72
(dp4265
sg81
g4250
sg74
(lp4266
g67
(g68
g69
NtRp4267
(dp4268
g72
(dp4269
g80
I5
ssg81
g4263
sg74
(lp4270
g67
(g76
g69
NtRp4271
(dp4272
g72
(dp4273
g80
I4
ssg81
Nsg74
(lp4274
sbasbasbasbag67
(g83
g69
NtRp4275
(dp4276
g72
(dp4277
sg81
g2654
sg74
(lp4278
g67
(g88
g69
NtRp4279
(dp4280
g72
(dp4281
g92
g93
ssg81
g4275
sg74
(lp4282
S'session_filename'
p4283
asbag67
(g88
g69
NtRp4284
(dp4285
g72
(dp4286
g99
g100
ssg81
g4275
sg74
(lp4287
S':'
asbag67
(g88
g69
NtRp4288
(dp4289
g72
(dp4290
sg81
g4275
sg74
(lp4291
g67
(g68
g69
NtRp4292
(dp4293
g72
(dp4294
g80
I5
ssg81
g4288
sg74
(lp4295
S'/home/ian/web2py/applications/places/sessions/127.0.0.1-4a03c851-f28a-4d4c-8d9f-8f10eedc8edd'
p4296
asbasbasbag67
(g83
g69
NtRp4297
(dp4298
g72
(dp4299
sg81
g2654
sg74
(lp4300
g67
(g88
g69
NtRp4301
(dp4302
g72
(dp4303
g92
g93
ssg81
g4297
sg74
(lp4304
S'session_id'
p4305
asbag67
(g88
g69
NtRp4306
(dp4307
g72
(dp4308
g99
g100
ssg81
g4297
sg74
(lp4309
S':'
asbag67
(g88
g69
NtRp4310
(dp4311
g72
(dp4312
sg81
g4297
sg74
(lp4313
g67
(g68
g69
NtRp4314
(dp4315
g72
(dp4316
g80
I5
ssg81
g4310
sg74
(lp4317
S'127.0.0.1-4a03c851-f28a-4d4c-8d9f-8f10eedc8edd'
p4318
asbasbasbag67
(g83
g69
NtRp4319
(dp4320
g72
(dp4321
sg81
g2654
sg74
(lp4322
g67
(g88
g69
NtRp4323
(dp4324
g72
(dp4325
g92
g93
ssg81
g4319
sg74
(lp4326
S'session_id_name'
p4327
asbag67
(g88
g69
NtRp4328
(dp4329
g72
(dp4330
g99
g100
ssg81
g4319
sg74
(lp4331
S':'
asbag67
(g88
g69
NtRp4332
(dp4333
g72
(dp4334
sg81
g4319
sg74
(lp4335
g67
(g68
g69
NtRp4336
(dp4337
g72
(dp4338
g80
I5
ssg81
g4332
sg74
(lp4339
g2711
asbasbasbag67
(g83
g69
NtRp4340
(dp4341
g72
(dp4342
sg81
g2654
sg74
(lp4343
g67
(g88
g69
NtRp4344
(dp4345
g72
(dp4346
g92
g93
ssg81
g4340
sg74
(lp4347
S'session_new'
p4348
asbag67
(g88
g69
NtRp4349
(dp4350
g72
(dp4351
g99
g100
ssg81
g4340
sg74
(lp4352
S':'
asbag67
(g88
g69
NtRp4353
(dp4354
g72
(dp4355
sg81
g4340
sg74
(lp4356
g67
(g68
g69
NtRp4357
(dp4358
g72
(dp4359
g80
I5
ssg81
g4353
sg74
(lp4360
g1275
asbasbasbag67
(g83
g69
NtRp4361
(dp4362
g72
(dp4363
sg81
g2654
sg74
(lp4364
g67
(g88
g69
NtRp4365
(dp4366
g72
(dp4367
g92
g93
ssg81
g4361
sg74
(lp4368
S'status'
p4369
asbag67
(g88
g69
NtRp4370
(dp4371
g72
(dp4372
g99
g100
ssg81
g4361
sg74
(lp4373
S':'
asbag67
(g88
g69
NtRp4374
(dp4375
g72
(dp4376
sg81
g4361
sg74
(lp4377
g67
(g68
g69
NtRp4378
(dp4379
g72
(dp4380
g80
I5
ssg81
g4374
sg74
(lp4381
S'200'
p4382
asbasbasbag67
(g83
g69
NtRp4383
(dp4384
g72
(dp4385
sg81
g2654
sg74
(lp4386
g67
(g88
g69
NtRp4387
(dp4388
g72
(dp4389
g92
g93
ssg81
g4383
sg74
(lp4390
S'subtitle'
p4391
asbag67
(g88
g69
NtRp4392
(dp4393
g72
(dp4394
g99
g100
ssg81
g4383
sg74
(lp4395
S':'
asbag67
(g88
g69
NtRp4396
(dp4397
g72
(dp4398
sg81
g4383
sg74
(lp4399
g67
(g68
g69
NtRp4400
(dp4401
g72
(dp4402
g80
I5
ssg81
g4396
sg74
(lp4403
g3159
(S's\r\x00\x00\x00customize me!'
tRp4404
asbasbasbag67
(g83
g69
NtRp4405
(dp4406
g72
(dp4407
sg81
g2654
sg74
(lp4408
g67
(g88
g69
NtRp4409
(dp4410
g72
(dp4411
g92
g93
ssg81
g4405
sg74
(lp4412
S'title'
p4413
asbag67
(g88
g69
NtRp4414
(dp4415
g72
(dp4416
g99
g100
ssg81
g4405
sg74
(lp4417
S':'
asbag67
(g88
g69
NtRp4418
(dp4419
g72
(dp4420
sg81
g4405
sg74
(lp4421
g67
(g68
g69
NtRp4422
(dp4423
g72
(dp4424
g80
I5
ssg81
g4418
sg74
(lp4425
g132
asbasbasbag67
(g83
g69
NtRp4426
(dp4427
g72
(dp4428
sg81
g2654
sg74
(lp4429
g67
(g88
g69
NtRp4430
(dp4431
g72
(dp4432
g92
g93
ssg81
g4426
sg74
(lp4433
g1919
asbag67
(g88
g69
NtRp4434
(dp4435
g72
(dp4436
g99
g100
ssg81
g4426
sg74
(lp4437
S':'
asbag67
(g88
g69
NtRp4438
(dp4439
g72
(dp4440
sg81
g4426
sg74
(lp4441
g67
(g68
g69
NtRp4442
(dp4443
g72
(dp4444
g80
I5
ssg81
g4438
sg74
(lp4445
g1932
asbasbasbag67
(g83
g69
NtRp4446
(dp4447
g72
(dp4448
sg81
g2654
sg74
(lp4449
g67
(g88
g69
NtRp4450
(dp4451
g72
(dp4452
g92
g93
ssg81
g4446
sg74
(lp4453
S'view'
p4454
asbag67
(g88
g69
NtRp4455
(dp4456
g72
(dp4457
g99
g100
ssg81
g4446
sg74
(lp4458
S':'
asbag67
(g88
g69
NtRp4459
(dp4460
g72
(dp4461
sg81
g4446
sg74
(lp4462
g67
(g68
g69
NtRp4463
(dp4464
g72
(dp4465
g80
I5
ssg81
g4459
sg74
(lp4466
S'default/index.html'
p4467
asbasbasbasbasbsS'locals'
p4468
(dp4469
g3
S"'/home/ian/web2py/applications/places/views/default/index.html'"
p4470
sg5
S'r"left_sidebar_enabled=right_sidebar_enabled=False...    -->    \\n  </body>\\n</html>\\n\', escape=False)"'
p4471
sssS'traceback'
p4472
S'Traceback (most recent call last):\n  File "/home/ian/web2py/gluon/restricted.py", line 193, in restricted\n    ccode = compile2(code,layer)\n  File "/home/ian/web2py/gluon/restricted.py", line 179, in compile2\n    return compile(code.rstrip().replace(\'\\r\\n\',\'\\n\')+\'\\n\', layer, \'exec\')\n  File "/home/ian/web2py/applications/places/views/default/index.html", line 87\n    response.write(\'</li>\\n</ul>\\n\\n<section id="links">\\n\\n\', escape=False)\n           ^\nSyntaxError: invalid syntax\n'
p4473
s.