(dp1
S'output'
p2
S''
sS'layer'
p3
S'/home/ian/Dropbox/Web_Pages/web2py-linux/applications/places/controllers/default.py'
p4
sS'code'
p5
S'# -*- coding: utf-8 -*-\n# this file is released under public domain and you can use without limitations\n\n#########################################################################\n## This is a samples controller\n## - index is the default action of any application\n## - user is required for authentication and authorization\n## - download is for downloading files uploaded in the db (does streaming)\n## - call exposes all registered services (none by default)\n#########################################################################\n\ndef index():\n    """\n    example action using the internationalization operator T and flash\n    rendered by views/default/index.html or views/generic.html\n    """   \n    if not session.tags:\n        session.tags = db(db.tags).select()\n    if session.tag:\n        current = session.tag\n    else:\n        current = tags[0].tag\n\n    links = db(db.links.tags.contains(session.tag)).select()\n    \n    return dict(links = links, current = current)\n\ndef user():\n    """\n    exposes:\n    http://..../[app]/default/user/login\n    http://..../[app]/default/user/logout\n    http://..../[app]/default/user/register\n    http://..../[app]/default/user/profile\n    http://..../[app]/default/user/retrieve_password\n    http://..../[app]/default/user/change_password\n    use @auth.requires_login()\n        @auth.requires_membership(\'group name\')\n        @auth.requires_permission(\'read\',\'table name\',record_id)\n    to decorate functions that need access control\n    """\n    return dict(form=auth())\n\n\ndef download():\n    """\n    allows downloading of uploaded files\n    http://..../[app]/default/download/[filename]\n    """\n    return response.download(request,db)\n\n\ndef call():\n    """\n    exposes services. for example:\n    http://..../[app]/default/call/jsonrpc\n    decorate with @services.jsonrpc the functions to expose\n    supports xml, json, xmlrpc, jsonrpc, amfrpc, rss, csv\n    """\n    return service()\n\n\n@auth.requires_signature()\ndef data():\n    """\n    http://..../[app]/default/data/tables\n    http://..../[app]/default/data/create/[table]\n    http://..../[app]/default/data/read/[table]/[id]\n    http://..../[app]/default/data/update/[table]/[id]\n    http://..../[app]/default/data/delete/[table]/[id]\n    http://..../[app]/default/data/select/[table]\n    http://..../[app]/default/data/search/[table]\n    but URLs bust be signed, i.e. linked with\n      A(\'table\',_href=URL(\'data/tables\',user_signature=True))\n    or with the signed load operator\n      LOAD(\'default\',\'data.load\',args=\'tables\',ajax=True,user_signature=True)\n    """\n    return dict(form=crud())\n\nresponse._vars=response._caller(index)\n'
p6
sS'snapshot'
p7
(dp8
S'exception'
p9
(dp10
S'__hash__'
p11
S"<method-wrapper '__hash__' of exceptions.NameError object>"
p12
sS'__setattr__'
p13
S"<method-wrapper '__setattr__' of exceptions.NameError object>"
p14
sS'__reduce_ex__'
p15
S'<built-in method __reduce_ex__ of exceptions.NameError object>'
p16
sS'__getslice__'
p17
S"<method-wrapper '__getslice__' of exceptions.NameError object>"
p18
sS'__getitem__'
p19
S"<method-wrapper '__getitem__' of exceptions.NameError object>"
p20
sS'__setstate__'
p21
S'<built-in method __setstate__ of exceptions.NameError object>'
p22
sS'args'
p23
S'("global name \'tags\' is not defined",)'
p24
sS'__reduce__'
p25
S'<built-in method __reduce__ of exceptions.NameError object>'
p26
sS'__str__'
p27
S"<method-wrapper '__str__' of exceptions.NameError object>"
p28
sS'__format__'
p29
S'<built-in method __format__ of exceptions.NameError object>'
p30
sS'__getattribute__'
p31
S"<method-wrapper '__getattribute__' of exceptions.NameError object>"
p32
sS'__class__'
p33
S"<type 'exceptions.NameError'>"
p34
sS'__unicode__'
p35
S'<built-in method __unicode__ of exceptions.NameError object>'
p36
sS'__delattr__'
p37
S"<method-wrapper '__delattr__' of exceptions.NameError object>"
p38
sS'__subclasshook__'
p39
S'<built-in method __subclasshook__ of type object>'
p40
sS'__repr__'
p41
S"<method-wrapper '__repr__' of exceptions.NameError object>"
p42
sS'__dict__'
p43
S'{}'
p44
sS'__sizeof__'
p45
S'<built-in method __sizeof__ of exceptions.NameError object>'
p46
sS'__doc__'
p47
S"'Name not found globally.'"
p48
sS'__init__'
p49
S"<method-wrapper '__init__' of exceptions.NameError object>"
p50
sS'__new__'
p51
S'<built-in method __new__ of type object>'
p52
ssS'evalue'
p53
S"global name 'tags' is not defined"
p54
sS'request'
p55
ccopy_reg
_reconstructor
p56
(cgluon.html
BEAUTIFY
p57
c__builtin__
object
p58
NtRp59
(dp60
S'attributes'
p61
(dp62
sS'components'
p63
(lp64
g56
(cgluon.html
TABLE
p65
g58
NtRp66
(dp67
g61
(dp68
S'level'
p69
I5
ssS'parent'
p70
Nsg63
(lp71
g56
(cgluon.html
TR
p72
g58
NtRp73
(dp74
g61
(dp75
sg70
g66
sg63
(lp76
g56
(cgluon.html
TD
p77
g58
NtRp78
(dp79
g61
(dp80
S'_style'
p81
S'font-weight:bold;'
p82
ssg70
g73
sg63
(lp83
S'ajax'
p84
asbag56
(g77
g58
NtRp85
(dp86
g61
(dp87
S'_valign'
p88
S'top'
p89
ssg70
g73
sg63
(lp90
S':'
asbag56
(g77
g58
NtRp91
(dp92
g61
(dp93
sg70
g73
sg63
(lp94
g56
(g57
g58
NtRp95
(dp96
g61
(dp97
g69
I5
ssg70
g91
sg63
(lp98
S'False'
p99
asbasbasbag56
(g72
g58
NtRp100
(dp101
g61
(dp102
sg70
g66
sg63
(lp103
g56
(g77
g58
NtRp104
(dp105
g61
(dp106
g81
g82
ssg70
g100
sg63
(lp107
S'application'
p108
asbag56
(g77
g58
NtRp109
(dp110
g61
(dp111
g88
g89
ssg70
g100
sg63
(lp112
S':'
asbag56
(g77
g58
NtRp113
(dp114
g61
(dp115
sg70
g100
sg63
(lp116
g56
(g57
g58
NtRp117
(dp118
g61
(dp119
g69
I5
ssg70
g113
sg63
(lp120
S'places'
p121
asbasbasbag56
(g72
g58
NtRp122
(dp123
g61
(dp124
sg70
g66
sg63
(lp125
g56
(g77
g58
NtRp126
(dp127
g61
(dp128
g81
g82
ssg70
g122
sg63
(lp129
g23
asbag56
(g77
g58
NtRp130
(dp131
g61
(dp132
g88
g89
ssg70
g122
sg63
(lp133
S':'
asbag56
(g77
g58
NtRp134
(dp135
g61
(dp136
sg70
g122
sg63
(lp137
g56
(g57
g58
NtRp138
(dp139
g61
(dp140
g69
I5
ssg70
g134
sg63
(lp141
g56
(g65
g58
NtRp142
(dp143
g61
(dp144
g69
I4
ssg70
Nsg63
(lp145
sbasbasbasbag56
(g72
g58
NtRp146
(dp147
g61
(dp148
sg70
g66
sg63
(lp149
g56
(g77
g58
NtRp150
(dp151
g61
(dp152
g81
g82
ssg70
g146
sg63
(lp153
S'body'
p154
asbag56
(g77
g58
NtRp155
(dp156
g61
(dp157
g88
g89
ssg70
g146
sg63
(lp158
S':'
asbag56
(g77
g58
NtRp159
(dp160
g61
(dp161
sg70
g146
sg63
(lp162
g56
(g57
g58
NtRp163
(dp164
g61
(dp165
g69
I5
ssg70
g159
sg63
(lp166
S'<cStringIO.StringO object at 0x36d6618>'
p167
asbasbasbag56
(g72
g58
NtRp168
(dp169
g61
(dp170
sg70
g66
sg63
(lp171
g56
(g77
g58
NtRp172
(dp173
g61
(dp174
g81
g82
ssg70
g168
sg63
(lp175
S'client'
p176
asbag56
(g77
g58
NtRp177
(dp178
g61
(dp179
g88
g89
ssg70
g168
sg63
(lp180
S':'
asbag56
(g77
g58
NtRp181
(dp182
g61
(dp183
sg70
g168
sg63
(lp184
g56
(g57
g58
NtRp185
(dp186
g61
(dp187
g69
I5
ssg70
g181
sg63
(lp188
S'127.0.0.1'
p189
asbasbasbag56
(g72
g58
NtRp190
(dp191
g61
(dp192
sg70
g66
sg63
(lp193
g56
(g77
g58
NtRp194
(dp195
g61
(dp196
g81
g82
ssg70
g190
sg63
(lp197
S'controller'
p198
asbag56
(g77
g58
NtRp199
(dp200
g61
(dp201
g88
g89
ssg70
g190
sg63
(lp202
S':'
asbag56
(g77
g58
NtRp203
(dp204
g61
(dp205
sg70
g190
sg63
(lp206
g56
(g57
g58
NtRp207
(dp208
g61
(dp209
g69
I5
ssg70
g203
sg63
(lp210
S'default'
p211
asbasbasbag56
(g72
g58
NtRp212
(dp213
g61
(dp214
sg70
g66
sg63
(lp215
g56
(g77
g58
NtRp216
(dp217
g61
(dp218
g81
g82
ssg70
g212
sg63
(lp219
S'cookies'
p220
asbag56
(g77
g58
NtRp221
(dp222
g61
(dp223
g88
g89
ssg70
g212
sg63
(lp224
S':'
asbag56
(g77
g58
NtRp225
(dp226
g61
(dp227
sg70
g212
sg63
(lp228
g56
(g57
g58
NtRp229
(dp230
g61
(dp231
g69
I5
ssg70
g225
sg63
(lp232
g56
(g65
g58
NtRp233
(dp234
g61
(dp235
g69
I4
ssg70
Nsg63
(lp236
g56
(g72
g58
NtRp237
(dp238
g61
(dp239
sg70
g233
sg63
(lp240
g56
(g77
g58
NtRp241
(dp242
g61
(dp243
g81
g82
ssg70
g237
sg63
(lp244
S'session_id_admin'
p245
asbag56
(g77
g58
NtRp246
(dp247
g61
(dp248
g88
g89
ssg70
g237
sg63
(lp249
S':'
asbag56
(g77
g58
NtRp250
(dp251
g61
(dp252
sg70
g237
sg63
(lp253
g56
(g57
g58
NtRp254
(dp255
g61
(dp256
g69
I4
ssg70
g250
sg63
(lp257
g56
(g65
g58
NtRp258
(dp259
g61
(dp260
g69
I3
ssg70
Nsg63
(lp261
g56
(g72
g58
NtRp262
(dp263
g61
(dp264
sg70
g258
sg63
(lp265
g56
(g77
g58
NtRp266
(dp267
g61
(dp268
g81
g82
ssg70
g262
sg63
(lp269
S'comment'
p270
asbag56
(g77
g58
NtRp271
(dp272
g61
(dp273
g88
g89
ssg70
g262
sg63
(lp274
S':'
asbag56
(g77
g58
NtRp275
(dp276
g61
(dp277
sg70
g262
sg63
(lp278
g56
(g57
g58
NtRp279
(dp280
g61
(dp281
g69
I3
ssg70
g275
sg63
(lp282
S''
asbasbasbag56
(g72
g58
NtRp283
(dp284
g61
(dp285
sg70
g258
sg63
(lp286
g56
(g77
g58
NtRp287
(dp288
g61
(dp289
g81
g82
ssg70
g283
sg63
(lp290
S'domain'
p291
asbag56
(g77
g58
NtRp292
(dp293
g61
(dp294
g88
g89
ssg70
g283
sg63
(lp295
S':'
asbag56
(g77
g58
NtRp296
(dp297
g61
(dp298
sg70
g283
sg63
(lp299
g56
(g57
g58
NtRp300
(dp301
g61
(dp302
g69
I3
ssg70
g296
sg63
(lp303
S''
asbasbasbag56
(g72
g58
NtRp304
(dp305
g61
(dp306
sg70
g258
sg63
(lp307
g56
(g77
g58
NtRp308
(dp309
g61
(dp310
g81
g82
ssg70
g304
sg63
(lp311
S'expires'
p312
asbag56
(g77
g58
NtRp313
(dp314
g61
(dp315
g88
g89
ssg70
g304
sg63
(lp316
S':'
asbag56
(g77
g58
NtRp317
(dp318
g61
(dp319
sg70
g304
sg63
(lp320
g56
(g57
g58
NtRp321
(dp322
g61
(dp323
g69
I3
ssg70
g317
sg63
(lp324
S''
asbasbasbag56
(g72
g58
NtRp325
(dp326
g61
(dp327
sg70
g258
sg63
(lp328
g56
(g77
g58
NtRp329
(dp330
g61
(dp331
g81
g82
ssg70
g325
sg63
(lp332
S'httponly'
p333
asbag56
(g77
g58
NtRp334
(dp335
g61
(dp336
g88
g89
ssg70
g325
sg63
(lp337
S':'
asbag56
(g77
g58
NtRp338
(dp339
g61
(dp340
sg70
g325
sg63
(lp341
g56
(g57
g58
NtRp342
(dp343
g61
(dp344
g69
I3
ssg70
g338
sg63
(lp345
S''
asbasbasbag56
(g72
g58
NtRp346
(dp347
g61
(dp348
sg70
g258
sg63
(lp349
g56
(g77
g58
NtRp350
(dp351
g61
(dp352
g81
g82
ssg70
g346
sg63
(lp353
S'max-age'
p354
asbag56
(g77
g58
NtRp355
(dp356
g61
(dp357
g88
g89
ssg70
g346
sg63
(lp358
S':'
asbag56
(g77
g58
NtRp359
(dp360
g61
(dp361
sg70
g346
sg63
(lp362
g56
(g57
g58
NtRp363
(dp364
g61
(dp365
g69
I3
ssg70
g359
sg63
(lp366
S''
asbasbasbag56
(g72
g58
NtRp367
(dp368
g61
(dp369
sg70
g258
sg63
(lp370
g56
(g77
g58
NtRp371
(dp372
g61
(dp373
g81
g82
ssg70
g367
sg63
(lp374
S'path'
p375
asbag56
(g77
g58
NtRp376
(dp377
g61
(dp378
g88
g89
ssg70
g367
sg63
(lp379
S':'
asbag56
(g77
g58
NtRp380
(dp381
g61
(dp382
sg70
g367
sg63
(lp383
g56
(g57
g58
NtRp384
(dp385
g61
(dp386
g69
I3
ssg70
g380
sg63
(lp387
S''
asbasbasbag56
(g72
g58
NtRp388
(dp389
g61
(dp390
sg70
g258
sg63
(lp391
g56
(g77
g58
NtRp392
(dp393
g61
(dp394
g81
g82
ssg70
g388
sg63
(lp395
S'secure'
p396
asbag56
(g77
g58
NtRp397
(dp398
g61
(dp399
g88
g89
ssg70
g388
sg63
(lp400
S':'
asbag56
(g77
g58
NtRp401
(dp402
g61
(dp403
sg70
g388
sg63
(lp404
g56
(g57
g58
NtRp405
(dp406
g61
(dp407
g69
I3
ssg70
g401
sg63
(lp408
S''
asbasbasbag56
(g72
g58
NtRp409
(dp410
g61
(dp411
sg70
g258
sg63
(lp412
g56
(g77
g58
NtRp413
(dp414
g61
(dp415
g81
g82
ssg70
g409
sg63
(lp416
S'version'
p417
asbag56
(g77
g58
NtRp418
(dp419
g61
(dp420
g88
g89
ssg70
g409
sg63
(lp421
S':'
asbag56
(g77
g58
NtRp422
(dp423
g61
(dp424
sg70
g409
sg63
(lp425
g56
(g57
g58
NtRp426
(dp427
g61
(dp428
g69
I3
ssg70
g422
sg63
(lp429
S''
asbasbasbasbasbasbasbag56
(g72
g58
NtRp430
(dp431
g61
(dp432
sg70
g233
sg63
(lp433
g56
(g77
g58
NtRp434
(dp435
g61
(dp436
g81
g82
ssg70
g430
sg63
(lp437
S'session_id_blog'
p438
asbag56
(g77
g58
NtRp439
(dp440
g61
(dp441
g88
g89
ssg70
g430
sg63
(lp442
S':'
asbag56
(g77
g58
NtRp443
(dp444
g61
(dp445
sg70
g430
sg63
(lp446
g56
(g57
g58
NtRp447
(dp448
g61
(dp449
g69
I4
ssg70
g443
sg63
(lp450
g56
(g65
g58
NtRp451
(dp452
g61
(dp453
g69
I3
ssg70
Nsg63
(lp454
g56
(g72
g58
NtRp455
(dp456
g61
(dp457
sg70
g451
sg63
(lp458
g56
(g77
g58
NtRp459
(dp460
g61
(dp461
g81
g82
ssg70
g455
sg63
(lp462
g270
asbag56
(g77
g58
NtRp463
(dp464
g61
(dp465
g88
g89
ssg70
g455
sg63
(lp466
S':'
asbag56
(g77
g58
NtRp467
(dp468
g61
(dp469
sg70
g455
sg63
(lp470
g56
(g57
g58
NtRp471
(dp472
g61
(dp473
g69
I3
ssg70
g467
sg63
(lp474
S''
asbasbasbag56
(g72
g58
NtRp475
(dp476
g61
(dp477
sg70
g451
sg63
(lp478
g56
(g77
g58
NtRp479
(dp480
g61
(dp481
g81
g82
ssg70
g475
sg63
(lp482
g291
asbag56
(g77
g58
NtRp483
(dp484
g61
(dp485
g88
g89
ssg70
g475
sg63
(lp486
S':'
asbag56
(g77
g58
NtRp487
(dp488
g61
(dp489
sg70
g475
sg63
(lp490
g56
(g57
g58
NtRp491
(dp492
g61
(dp493
g69
I3
ssg70
g487
sg63
(lp494
S''
asbasbasbag56
(g72
g58
NtRp495
(dp496
g61
(dp497
sg70
g451
sg63
(lp498
g56
(g77
g58
NtRp499
(dp500
g61
(dp501
g81
g82
ssg70
g495
sg63
(lp502
g312
asbag56
(g77
g58
NtRp503
(dp504
g61
(dp505
g88
g89
ssg70
g495
sg63
(lp506
S':'
asbag56
(g77
g58
NtRp507
(dp508
g61
(dp509
sg70
g495
sg63
(lp510
g56
(g57
g58
NtRp511
(dp512
g61
(dp513
g69
I3
ssg70
g507
sg63
(lp514
S''
asbasbasbag56
(g72
g58
NtRp515
(dp516
g61
(dp517
sg70
g451
sg63
(lp518
g56
(g77
g58
NtRp519
(dp520
g61
(dp521
g81
g82
ssg70
g515
sg63
(lp522
g333
asbag56
(g77
g58
NtRp523
(dp524
g61
(dp525
g88
g89
ssg70
g515
sg63
(lp526
S':'
asbag56
(g77
g58
NtRp527
(dp528
g61
(dp529
sg70
g515
sg63
(lp530
g56
(g57
g58
NtRp531
(dp532
g61
(dp533
g69
I3
ssg70
g527
sg63
(lp534
S''
asbasbasbag56
(g72
g58
NtRp535
(dp536
g61
(dp537
sg70
g451
sg63
(lp538
g56
(g77
g58
NtRp539
(dp540
g61
(dp541
g81
g82
ssg70
g535
sg63
(lp542
g354
asbag56
(g77
g58
NtRp543
(dp544
g61
(dp545
g88
g89
ssg70
g535
sg63
(lp546
S':'
asbag56
(g77
g58
NtRp547
(dp548
g61
(dp549
sg70
g535
sg63
(lp550
g56
(g57
g58
NtRp551
(dp552
g61
(dp553
g69
I3
ssg70
g547
sg63
(lp554
S''
asbasbasbag56
(g72
g58
NtRp555
(dp556
g61
(dp557
sg70
g451
sg63
(lp558
g56
(g77
g58
NtRp559
(dp560
g61
(dp561
g81
g82
ssg70
g555
sg63
(lp562
g375
asbag56
(g77
g58
NtRp563
(dp564
g61
(dp565
g88
g89
ssg70
g555
sg63
(lp566
S':'
asbag56
(g77
g58
NtRp567
(dp568
g61
(dp569
sg70
g555
sg63
(lp570
g56
(g57
g58
NtRp571
(dp572
g61
(dp573
g69
I3
ssg70
g567
sg63
(lp574
S''
asbasbasbag56
(g72
g58
NtRp575
(dp576
g61
(dp577
sg70
g451
sg63
(lp578
g56
(g77
g58
NtRp579
(dp580
g61
(dp581
g81
g82
ssg70
g575
sg63
(lp582
g396
asbag56
(g77
g58
NtRp583
(dp584
g61
(dp585
g88
g89
ssg70
g575
sg63
(lp586
S':'
asbag56
(g77
g58
NtRp587
(dp588
g61
(dp589
sg70
g575
sg63
(lp590
g56
(g57
g58
NtRp591
(dp592
g61
(dp593
g69
I3
ssg70
g587
sg63
(lp594
S''
asbasbasbag56
(g72
g58
NtRp595
(dp596
g61
(dp597
sg70
g451
sg63
(lp598
g56
(g77
g58
NtRp599
(dp600
g61
(dp601
g81
g82
ssg70
g595
sg63
(lp602
g417
asbag56
(g77
g58
NtRp603
(dp604
g61
(dp605
g88
g89
ssg70
g595
sg63
(lp606
S':'
asbag56
(g77
g58
NtRp607
(dp608
g61
(dp609
sg70
g595
sg63
(lp610
g56
(g57
g58
NtRp611
(dp612
g61
(dp613
g69
I3
ssg70
g607
sg63
(lp614
S''
asbasbasbasbasbasbasbag56
(g72
g58
NtRp615
(dp616
g61
(dp617
sg70
g233
sg63
(lp618
g56
(g77
g58
NtRp619
(dp620
g61
(dp621
g81
g82
ssg70
g615
sg63
(lp622
S'session_id_paideia'
p623
asbag56
(g77
g58
NtRp624
(dp625
g61
(dp626
g88
g89
ssg70
g615
sg63
(lp627
S':'
asbag56
(g77
g58
NtRp628
(dp629
g61
(dp630
sg70
g615
sg63
(lp631
g56
(g57
g58
NtRp632
(dp633
g61
(dp634
g69
I4
ssg70
g628
sg63
(lp635
g56
(g65
g58
NtRp636
(dp637
g61
(dp638
g69
I3
ssg70
Nsg63
(lp639
g56
(g72
g58
NtRp640
(dp641
g61
(dp642
sg70
g636
sg63
(lp643
g56
(g77
g58
NtRp644
(dp645
g61
(dp646
g81
g82
ssg70
g640
sg63
(lp647
g270
asbag56
(g77
g58
NtRp648
(dp649
g61
(dp650
g88
g89
ssg70
g640
sg63
(lp651
S':'
asbag56
(g77
g58
NtRp652
(dp653
g61
(dp654
sg70
g640
sg63
(lp655
g56
(g57
g58
NtRp656
(dp657
g61
(dp658
g69
I3
ssg70
g652
sg63
(lp659
S''
asbasbasbag56
(g72
g58
NtRp660
(dp661
g61
(dp662
sg70
g636
sg63
(lp663
g56
(g77
g58
NtRp664
(dp665
g61
(dp666
g81
g82
ssg70
g660
sg63
(lp667
g291
asbag56
(g77
g58
NtRp668
(dp669
g61
(dp670
g88
g89
ssg70
g660
sg63
(lp671
S':'
asbag56
(g77
g58
NtRp672
(dp673
g61
(dp674
sg70
g660
sg63
(lp675
g56
(g57
g58
NtRp676
(dp677
g61
(dp678
g69
I3
ssg70
g672
sg63
(lp679
S''
asbasbasbag56
(g72
g58
NtRp680
(dp681
g61
(dp682
sg70
g636
sg63
(lp683
g56
(g77
g58
NtRp684
(dp685
g61
(dp686
g81
g82
ssg70
g680
sg63
(lp687
g312
asbag56
(g77
g58
NtRp688
(dp689
g61
(dp690
g88
g89
ssg70
g680
sg63
(lp691
S':'
asbag56
(g77
g58
NtRp692
(dp693
g61
(dp694
sg70
g680
sg63
(lp695
g56
(g57
g58
NtRp696
(dp697
g61
(dp698
g69
I3
ssg70
g692
sg63
(lp699
S''
asbasbasbag56
(g72
g58
NtRp700
(dp701
g61
(dp702
sg70
g636
sg63
(lp703
g56
(g77
g58
NtRp704
(dp705
g61
(dp706
g81
g82
ssg70
g700
sg63
(lp707
g333
asbag56
(g77
g58
NtRp708
(dp709
g61
(dp710
g88
g89
ssg70
g700
sg63
(lp711
S':'
asbag56
(g77
g58
NtRp712
(dp713
g61
(dp714
sg70
g700
sg63
(lp715
g56
(g57
g58
NtRp716
(dp717
g61
(dp718
g69
I3
ssg70
g712
sg63
(lp719
S''
asbasbasbag56
(g72
g58
NtRp720
(dp721
g61
(dp722
sg70
g636
sg63
(lp723
g56
(g77
g58
NtRp724
(dp725
g61
(dp726
g81
g82
ssg70
g720
sg63
(lp727
g354
asbag56
(g77
g58
NtRp728
(dp729
g61
(dp730
g88
g89
ssg70
g720
sg63
(lp731
S':'
asbag56
(g77
g58
NtRp732
(dp733
g61
(dp734
sg70
g720
sg63
(lp735
g56
(g57
g58
NtRp736
(dp737
g61
(dp738
g69
I3
ssg70
g732
sg63
(lp739
S''
asbasbasbag56
(g72
g58
NtRp740
(dp741
g61
(dp742
sg70
g636
sg63
(lp743
g56
(g77
g58
NtRp744
(dp745
g61
(dp746
g81
g82
ssg70
g740
sg63
(lp747
g375
asbag56
(g77
g58
NtRp748
(dp749
g61
(dp750
g88
g89
ssg70
g740
sg63
(lp751
S':'
asbag56
(g77
g58
NtRp752
(dp753
g61
(dp754
sg70
g740
sg63
(lp755
g56
(g57
g58
NtRp756
(dp757
g61
(dp758
g69
I3
ssg70
g752
sg63
(lp759
S''
asbasbasbag56
(g72
g58
NtRp760
(dp761
g61
(dp762
sg70
g636
sg63
(lp763
g56
(g77
g58
NtRp764
(dp765
g61
(dp766
g81
g82
ssg70
g760
sg63
(lp767
g396
asbag56
(g77
g58
NtRp768
(dp769
g61
(dp770
g88
g89
ssg70
g760
sg63
(lp771
S':'
asbag56
(g77
g58
NtRp772
(dp773
g61
(dp774
sg70
g760
sg63
(lp775
g56
(g57
g58
NtRp776
(dp777
g61
(dp778
g69
I3
ssg70
g772
sg63
(lp779
S''
asbasbasbag56
(g72
g58
NtRp780
(dp781
g61
(dp782
sg70
g636
sg63
(lp783
g56
(g77
g58
NtRp784
(dp785
g61
(dp786
g81
g82
ssg70
g780
sg63
(lp787
g417
asbag56
(g77
g58
NtRp788
(dp789
g61
(dp790
g88
g89
ssg70
g780
sg63
(lp791
S':'
asbag56
(g77
g58
NtRp792
(dp793
g61
(dp794
sg70
g780
sg63
(lp795
g56
(g57
g58
NtRp796
(dp797
g61
(dp798
g69
I3
ssg70
g792
sg63
(lp799
S''
asbasbasbasbasbasbasbag56
(g72
g58
NtRp800
(dp801
g61
(dp802
sg70
g233
sg63
(lp803
g56
(g77
g58
NtRp804
(dp805
g61
(dp806
g81
g82
ssg70
g800
sg63
(lp807
S'session_id_places'
p808
asbag56
(g77
g58
NtRp809
(dp810
g61
(dp811
g88
g89
ssg70
g800
sg63
(lp812
S':'
asbag56
(g77
g58
NtRp813
(dp814
g61
(dp815
sg70
g800
sg63
(lp816
g56
(g57
g58
NtRp817
(dp818
g61
(dp819
g69
I4
ssg70
g813
sg63
(lp820
g56
(g65
g58
NtRp821
(dp822
g61
(dp823
g69
I3
ssg70
Nsg63
(lp824
g56
(g72
g58
NtRp825
(dp826
g61
(dp827
sg70
g821
sg63
(lp828
g56
(g77
g58
NtRp829
(dp830
g61
(dp831
g81
g82
ssg70
g825
sg63
(lp832
g270
asbag56
(g77
g58
NtRp833
(dp834
g61
(dp835
g88
g89
ssg70
g825
sg63
(lp836
S':'
asbag56
(g77
g58
NtRp837
(dp838
g61
(dp839
sg70
g825
sg63
(lp840
g56
(g57
g58
NtRp841
(dp842
g61
(dp843
g69
I3
ssg70
g837
sg63
(lp844
S''
asbasbasbag56
(g72
g58
NtRp845
(dp846
g61
(dp847
sg70
g821
sg63
(lp848
g56
(g77
g58
NtRp849
(dp850
g61
(dp851
g81
g82
ssg70
g845
sg63
(lp852
g291
asbag56
(g77
g58
NtRp853
(dp854
g61
(dp855
g88
g89
ssg70
g845
sg63
(lp856
S':'
asbag56
(g77
g58
NtRp857
(dp858
g61
(dp859
sg70
g845
sg63
(lp860
g56
(g57
g58
NtRp861
(dp862
g61
(dp863
g69
I3
ssg70
g857
sg63
(lp864
S''
asbasbasbag56
(g72
g58
NtRp865
(dp866
g61
(dp867
sg70
g821
sg63
(lp868
g56
(g77
g58
NtRp869
(dp870
g61
(dp871
g81
g82
ssg70
g865
sg63
(lp872
g312
asbag56
(g77
g58
NtRp873
(dp874
g61
(dp875
g88
g89
ssg70
g865
sg63
(lp876
S':'
asbag56
(g77
g58
NtRp877
(dp878
g61
(dp879
sg70
g865
sg63
(lp880
g56
(g57
g58
NtRp881
(dp882
g61
(dp883
g69
I3
ssg70
g877
sg63
(lp884
S''
asbasbasbag56
(g72
g58
NtRp885
(dp886
g61
(dp887
sg70
g821
sg63
(lp888
g56
(g77
g58
NtRp889
(dp890
g61
(dp891
g81
g82
ssg70
g885
sg63
(lp892
g333
asbag56
(g77
g58
NtRp893
(dp894
g61
(dp895
g88
g89
ssg70
g885
sg63
(lp896
S':'
asbag56
(g77
g58
NtRp897
(dp898
g61
(dp899
sg70
g885
sg63
(lp900
g56
(g57
g58
NtRp901
(dp902
g61
(dp903
g69
I3
ssg70
g897
sg63
(lp904
S''
asbasbasbag56
(g72
g58
NtRp905
(dp906
g61
(dp907
sg70
g821
sg63
(lp908
g56
(g77
g58
NtRp909
(dp910
g61
(dp911
g81
g82
ssg70
g905
sg63
(lp912
g354
asbag56
(g77
g58
NtRp913
(dp914
g61
(dp915
g88
g89
ssg70
g905
sg63
(lp916
S':'
asbag56
(g77
g58
NtRp917
(dp918
g61
(dp919
sg70
g905
sg63
(lp920
g56
(g57
g58
NtRp921
(dp922
g61
(dp923
g69
I3
ssg70
g917
sg63
(lp924
S''
asbasbasbag56
(g72
g58
NtRp925
(dp926
g61
(dp927
sg70
g821
sg63
(lp928
g56
(g77
g58
NtRp929
(dp930
g61
(dp931
g81
g82
ssg70
g925
sg63
(lp932
g375
asbag56
(g77
g58
NtRp933
(dp934
g61
(dp935
g88
g89
ssg70
g925
sg63
(lp936
S':'
asbag56
(g77
g58
NtRp937
(dp938
g61
(dp939
sg70
g925
sg63
(lp940
g56
(g57
g58
NtRp941
(dp942
g61
(dp943
g69
I3
ssg70
g937
sg63
(lp944
S''
asbasbasbag56
(g72
g58
NtRp945
(dp946
g61
(dp947
sg70
g821
sg63
(lp948
g56
(g77
g58
NtRp949
(dp950
g61
(dp951
g81
g82
ssg70
g945
sg63
(lp952
g396
asbag56
(g77
g58
NtRp953
(dp954
g61
(dp955
g88
g89
ssg70
g945
sg63
(lp956
S':'
asbag56
(g77
g58
NtRp957
(dp958
g61
(dp959
sg70
g945
sg63
(lp960
g56
(g57
g58
NtRp961
(dp962
g61
(dp963
g69
I3
ssg70
g957
sg63
(lp964
S''
asbasbasbag56
(g72
g58
NtRp965
(dp966
g61
(dp967
sg70
g821
sg63
(lp968
g56
(g77
g58
NtRp969
(dp970
g61
(dp971
g81
g82
ssg70
g965
sg63
(lp972
g417
asbag56
(g77
g58
NtRp973
(dp974
g61
(dp975
g88
g89
ssg70
g965
sg63
(lp976
S':'
asbag56
(g77
g58
NtRp977
(dp978
g61
(dp979
sg70
g965
sg63
(lp980
g56
(g57
g58
NtRp981
(dp982
g61
(dp983
g69
I3
ssg70
g977
sg63
(lp984
S''
asbasbasbasbasbasbasbag56
(g72
g58
NtRp985
(dp986
g61
(dp987
sg70
g233
sg63
(lp988
g56
(g77
g58
NtRp989
(dp990
g61
(dp991
g81
g82
ssg70
g985
sg63
(lp992
S'session_id_welcome'
p993
asbag56
(g77
g58
NtRp994
(dp995
g61
(dp996
g88
g89
ssg70
g985
sg63
(lp997
S':'
asbag56
(g77
g58
NtRp998
(dp999
g61
(dp1000
sg70
g985
sg63
(lp1001
g56
(g57
g58
NtRp1002
(dp1003
g61
(dp1004
g69
I4
ssg70
g998
sg63
(lp1005
g56
(g65
g58
NtRp1006
(dp1007
g61
(dp1008
g69
I3
ssg70
Nsg63
(lp1009
g56
(g72
g58
NtRp1010
(dp1011
g61
(dp1012
sg70
g1006
sg63
(lp1013
g56
(g77
g58
NtRp1014
(dp1015
g61
(dp1016
g81
g82
ssg70
g1010
sg63
(lp1017
g270
asbag56
(g77
g58
NtRp1018
(dp1019
g61
(dp1020
g88
g89
ssg70
g1010
sg63
(lp1021
S':'
asbag56
(g77
g58
NtRp1022
(dp1023
g61
(dp1024
sg70
g1010
sg63
(lp1025
g56
(g57
g58
NtRp1026
(dp1027
g61
(dp1028
g69
I3
ssg70
g1022
sg63
(lp1029
S''
asbasbasbag56
(g72
g58
NtRp1030
(dp1031
g61
(dp1032
sg70
g1006
sg63
(lp1033
g56
(g77
g58
NtRp1034
(dp1035
g61
(dp1036
g81
g82
ssg70
g1030
sg63
(lp1037
g291
asbag56
(g77
g58
NtRp1038
(dp1039
g61
(dp1040
g88
g89
ssg70
g1030
sg63
(lp1041
S':'
asbag56
(g77
g58
NtRp1042
(dp1043
g61
(dp1044
sg70
g1030
sg63
(lp1045
g56
(g57
g58
NtRp1046
(dp1047
g61
(dp1048
g69
I3
ssg70
g1042
sg63
(lp1049
S''
asbasbasbag56
(g72
g58
NtRp1050
(dp1051
g61
(dp1052
sg70
g1006
sg63
(lp1053
g56
(g77
g58
NtRp1054
(dp1055
g61
(dp1056
g81
g82
ssg70
g1050
sg63
(lp1057
g312
asbag56
(g77
g58
NtRp1058
(dp1059
g61
(dp1060
g88
g89
ssg70
g1050
sg63
(lp1061
S':'
asbag56
(g77
g58
NtRp1062
(dp1063
g61
(dp1064
sg70
g1050
sg63
(lp1065
g56
(g57
g58
NtRp1066
(dp1067
g61
(dp1068
g69
I3
ssg70
g1062
sg63
(lp1069
S''
asbasbasbag56
(g72
g58
NtRp1070
(dp1071
g61
(dp1072
sg70
g1006
sg63
(lp1073
g56
(g77
g58
NtRp1074
(dp1075
g61
(dp1076
g81
g82
ssg70
g1070
sg63
(lp1077
g333
asbag56
(g77
g58
NtRp1078
(dp1079
g61
(dp1080
g88
g89
ssg70
g1070
sg63
(lp1081
S':'
asbag56
(g77
g58
NtRp1082
(dp1083
g61
(dp1084
sg70
g1070
sg63
(lp1085
g56
(g57
g58
NtRp1086
(dp1087
g61
(dp1088
g69
I3
ssg70
g1082
sg63
(lp1089
S''
asbasbasbag56
(g72
g58
NtRp1090
(dp1091
g61
(dp1092
sg70
g1006
sg63
(lp1093
g56
(g77
g58
NtRp1094
(dp1095
g61
(dp1096
g81
g82
ssg70
g1090
sg63
(lp1097
g354
asbag56
(g77
g58
NtRp1098
(dp1099
g61
(dp1100
g88
g89
ssg70
g1090
sg63
(lp1101
S':'
asbag56
(g77
g58
NtRp1102
(dp1103
g61
(dp1104
sg70
g1090
sg63
(lp1105
g56
(g57
g58
NtRp1106
(dp1107
g61
(dp1108
g69
I3
ssg70
g1102
sg63
(lp1109
S''
asbasbasbag56
(g72
g58
NtRp1110
(dp1111
g61
(dp1112
sg70
g1006
sg63
(lp1113
g56
(g77
g58
NtRp1114
(dp1115
g61
(dp1116
g81
g82
ssg70
g1110
sg63
(lp1117
g375
asbag56
(g77
g58
NtRp1118
(dp1119
g61
(dp1120
g88
g89
ssg70
g1110
sg63
(lp1121
S':'
asbag56
(g77
g58
NtRp1122
(dp1123
g61
(dp1124
sg70
g1110
sg63
(lp1125
g56
(g57
g58
NtRp1126
(dp1127
g61
(dp1128
g69
I3
ssg70
g1122
sg63
(lp1129
S''
asbasbasbag56
(g72
g58
NtRp1130
(dp1131
g61
(dp1132
sg70
g1006
sg63
(lp1133
g56
(g77
g58
NtRp1134
(dp1135
g61
(dp1136
g81
g82
ssg70
g1130
sg63
(lp1137
g396
asbag56
(g77
g58
NtRp1138
(dp1139
g61
(dp1140
g88
g89
ssg70
g1130
sg63
(lp1141
S':'
asbag56
(g77
g58
NtRp1142
(dp1143
g61
(dp1144
sg70
g1130
sg63
(lp1145
g56
(g57
g58
NtRp1146
(dp1147
g61
(dp1148
g69
I3
ssg70
g1142
sg63
(lp1149
S''
asbasbasbag56
(g72
g58
NtRp1150
(dp1151
g61
(dp1152
sg70
g1006
sg63
(lp1153
g56
(g77
g58
NtRp1154
(dp1155
g61
(dp1156
g81
g82
ssg70
g1150
sg63
(lp1157
g417
asbag56
(g77
g58
NtRp1158
(dp1159
g61
(dp1160
g88
g89
ssg70
g1150
sg63
(lp1161
S':'
asbag56
(g77
g58
NtRp1162
(dp1163
g61
(dp1164
sg70
g1150
sg63
(lp1165
g56
(g57
g58
NtRp1166
(dp1167
g61
(dp1168
g69
I3
ssg70
g1162
sg63
(lp1169
S''
asbasbasbasbasbasbasbasbasbasbasbag56
(g72
g58
NtRp1170
(dp1171
g61
(dp1172
sg70
g66
sg63
(lp1173
g56
(g77
g58
NtRp1174
(dp1175
g61
(dp1176
g81
g82
ssg70
g1170
sg63
(lp1177
S'env'
p1178
asbag56
(g77
g58
NtRp1179
(dp1180
g61
(dp1181
g88
g89
ssg70
g1170
sg63
(lp1182
S':'
asbag56
(g77
g58
NtRp1183
(dp1184
g61
(dp1185
sg70
g1170
sg63
(lp1186
g56
(g57
g58
NtRp1187
(dp1188
g61
(dp1189
g69
I5
ssg70
g1183
sg63
(lp1190
g56
(g65
g58
NtRp1191
(dp1192
g61
(dp1193
g69
I4
ssg70
Nsg63
(lp1194
g56
(g72
g58
NtRp1195
(dp1196
g61
(dp1197
sg70
g1191
sg63
(lp1198
g56
(g77
g58
NtRp1199
(dp1200
g61
(dp1201
g81
g82
ssg70
g1195
sg63
(lp1202
S'app_folders'
p1203
asbag56
(g77
g58
NtRp1204
(dp1205
g61
(dp1206
g88
g89
ssg70
g1195
sg63
(lp1207
S':'
asbag56
(g77
g58
NtRp1208
(dp1209
g61
(dp1210
sg70
g1195
sg63
(lp1211
g56
(g57
g58
NtRp1212
(dp1213
g61
(dp1214
g69
I4
ssg70
g1208
sg63
(lp1215
S"set(['/home/ian/Dropbox/Web_Pages/web2py-linux/applications/blog/', '/home/ian/Dropbox/Web_Pages/web2py-linux/applications/places/', '/home/ian/Dropbox/Web_Pages/web2py-linux/applications/Paideia/', '/home/ian/Dropbox/Web_Pages/web2py-linux/applications/admin/', '/home/ian/Dropbox/Web_Pages/web2py-linux/applications/welcome/'])"
p1216
asbasbasbag56
(g72
g58
NtRp1217
(dp1218
g61
(dp1219
sg70
g1191
sg63
(lp1220
g56
(g77
g58
NtRp1221
(dp1222
g61
(dp1223
g81
g82
ssg70
g1217
sg63
(lp1224
S'applications_parent'
p1225
asbag56
(g77
g58
NtRp1226
(dp1227
g61
(dp1228
g88
g89
ssg70
g1217
sg63
(lp1229
S':'
asbag56
(g77
g58
NtRp1230
(dp1231
g61
(dp1232
sg70
g1217
sg63
(lp1233
g56
(g57
g58
NtRp1234
(dp1235
g61
(dp1236
g69
I4
ssg70
g1230
sg63
(lp1237
S'/home/ian/Dropbox/Web_Pages/web2py-linux'
p1238
asbasbasbag56
(g72
g58
NtRp1239
(dp1240
g61
(dp1241
sg70
g1191
sg63
(lp1242
g56
(g77
g58
NtRp1243
(dp1244
g61
(dp1245
g81
g82
ssg70
g1239
sg63
(lp1246
S'cmd_args'
p1247
asbag56
(g77
g58
NtRp1248
(dp1249
g61
(dp1250
g88
g89
ssg70
g1239
sg63
(lp1251
S':'
asbag56
(g77
g58
NtRp1252
(dp1253
g61
(dp1254
sg70
g1239
sg63
(lp1255
g56
(g57
g58
NtRp1256
(dp1257
g61
(dp1258
g69
I4
ssg70
g1252
sg63
(lp1259
g56
(g65
g58
NtRp1260
(dp1261
g61
(dp1262
g69
I3
ssg70
Nsg63
(lp1263
sbasbasbasbag56
(g72
g58
NtRp1264
(dp1265
g61
(dp1266
sg70
g1191
sg63
(lp1267
g56
(g77
g58
NtRp1268
(dp1269
g61
(dp1270
g81
g82
ssg70
g1264
sg63
(lp1271
S'cmd_options'
p1272
asbag56
(g77
g58
NtRp1273
(dp1274
g61
(dp1275
g88
g89
ssg70
g1264
sg63
(lp1276
S':'
asbag56
(g77
g58
NtRp1277
(dp1278
g61
(dp1279
sg70
g1264
sg63
(lp1280
g56
(g57
g58
NtRp1281
(dp1282
g61
(dp1283
g69
I4
ssg70
g1277
sg63
(lp1284
S"<Values at 0x2723170: {'verbose': False, 'ip': '127.0.0.1', 'shutdown_timeout': 5, 'taskbar': False, 'nocron': False, 'pid_filename': 'httpserver.pid', 'maxthreads': None, 'softcron': False, 'server_name': 'uriel', 'bpython': False, 'nogui': False, 'port': 8000, 'extcron': False, 'debuglevel': 30, 'test': None, 'folder': '/home/ian/Dropbox/Web_Pages/web2py-linux', 'config': '', 'import_models': False, 'winservice': '', 'shell': None, 'run': '', 'log_filename': 'httpserver.log', 'args': [''], 'ssl_ca_certificate': None, 'scheduler': None, 'profiler_filename': None, 'ssl_private_key': '', 'password': '<ask>', 'request_queue_size': 5, 'ssl_certificate': '', 'cronjob': False, 'plain': False, 'quiet': False, 'interfaces': None, 'minthreads': None, 'timeout': 10, 'numthreads': None, 'nobanner': False}>"
p1285
asbasbasbag56
(g72
g58
NtRp1286
(dp1287
g61
(dp1288
sg70
g1191
sg63
(lp1289
g56
(g77
g58
NtRp1290
(dp1291
g61
(dp1292
g81
g82
ssg70
g1286
sg63
(lp1293
S'db_sessions'
p1294
asbag56
(g77
g58
NtRp1295
(dp1296
g61
(dp1297
g88
g89
ssg70
g1286
sg63
(lp1298
S':'
asbag56
(g77
g58
NtRp1299
(dp1300
g61
(dp1301
sg70
g1286
sg63
(lp1302
g56
(g57
g58
NtRp1303
(dp1304
g61
(dp1305
g69
I4
ssg70
g1299
sg63
(lp1306
S'set([])'
p1307
asbasbasbag56
(g72
g58
NtRp1308
(dp1309
g61
(dp1310
sg70
g1191
sg63
(lp1311
g56
(g77
g58
NtRp1312
(dp1313
g61
(dp1314
g81
g82
ssg70
g1308
sg63
(lp1315
S'debugging'
p1316
asbag56
(g77
g58
NtRp1317
(dp1318
g61
(dp1319
g88
g89
ssg70
g1308
sg63
(lp1320
S':'
asbag56
(g77
g58
NtRp1321
(dp1322
g61
(dp1323
sg70
g1308
sg63
(lp1324
g56
(g57
g58
NtRp1325
(dp1326
g61
(dp1327
g69
I4
ssg70
g1321
sg63
(lp1328
g99
asbasbasbag56
(g72
g58
NtRp1329
(dp1330
g61
(dp1331
sg70
g1191
sg63
(lp1332
g56
(g77
g58
NtRp1333
(dp1334
g61
(dp1335
g81
g82
ssg70
g1329
sg63
(lp1336
S'gluon_parent'
p1337
asbag56
(g77
g58
NtRp1338
(dp1339
g61
(dp1340
g88
g89
ssg70
g1329
sg63
(lp1341
S':'
asbag56
(g77
g58
NtRp1342
(dp1343
g61
(dp1344
sg70
g1329
sg63
(lp1345
g56
(g57
g58
NtRp1346
(dp1347
g61
(dp1348
g69
I4
ssg70
g1342
sg63
(lp1349
S'/home/ian/Dropbox/Web_Pages/web2py-linux'
p1350
asbasbasbag56
(g72
g58
NtRp1351
(dp1352
g61
(dp1353
sg70
g1191
sg63
(lp1354
g56
(g77
g58
NtRp1355
(dp1356
g61
(dp1357
g81
g82
ssg70
g1351
sg63
(lp1358
S'http_accept'
p1359
asbag56
(g77
g58
NtRp1360
(dp1361
g61
(dp1362
g88
g89
ssg70
g1351
sg63
(lp1363
S':'
asbag56
(g77
g58
NtRp1364
(dp1365
g61
(dp1366
sg70
g1351
sg63
(lp1367
g56
(g57
g58
NtRp1368
(dp1369
g61
(dp1370
g69
I4
ssg70
g1364
sg63
(lp1371
S'text/html,application/xhtml+xml,application/xml;q=0.9,*/*;q=0.8'
p1372
asbasbasbag56
(g72
g58
NtRp1373
(dp1374
g61
(dp1375
sg70
g1191
sg63
(lp1376
g56
(g77
g58
NtRp1377
(dp1378
g61
(dp1379
g81
g82
ssg70
g1373
sg63
(lp1380
S'http_accept_charset'
p1381
asbag56
(g77
g58
NtRp1382
(dp1383
g61
(dp1384
g88
g89
ssg70
g1373
sg63
(lp1385
S':'
asbag56
(g77
g58
NtRp1386
(dp1387
g61
(dp1388
sg70
g1373
sg63
(lp1389
g56
(g57
g58
NtRp1390
(dp1391
g61
(dp1392
g69
I4
ssg70
g1386
sg63
(lp1393
S'UTF-8,*'
p1394
asbasbasbag56
(g72
g58
NtRp1395
(dp1396
g61
(dp1397
sg70
g1191
sg63
(lp1398
g56
(g77
g58
NtRp1399
(dp1400
g61
(dp1401
g81
g82
ssg70
g1395
sg63
(lp1402
S'http_accept_encoding'
p1403
asbag56
(g77
g58
NtRp1404
(dp1405
g61
(dp1406
g88
g89
ssg70
g1395
sg63
(lp1407
S':'
asbag56
(g77
g58
NtRp1408
(dp1409
g61
(dp1410
sg70
g1395
sg63
(lp1411
g56
(g57
g58
NtRp1412
(dp1413
g61
(dp1414
g69
I4
ssg70
g1408
sg63
(lp1415
S'gzip, deflate'
p1416
asbasbasbag56
(g72
g58
NtRp1417
(dp1418
g61
(dp1419
sg70
g1191
sg63
(lp1420
g56
(g77
g58
NtRp1421
(dp1422
g61
(dp1423
g81
g82
ssg70
g1417
sg63
(lp1424
S'http_accept_language'
p1425
asbag56
(g77
g58
NtRp1426
(dp1427
g61
(dp1428
g88
g89
ssg70
g1417
sg63
(lp1429
S':'
asbag56
(g77
g58
NtRp1430
(dp1431
g61
(dp1432
sg70
g1417
sg63
(lp1433
g56
(g57
g58
NtRp1434
(dp1435
g61
(dp1436
g69
I4
ssg70
g1430
sg63
(lp1437
S'en-us,en;q=0.5'
p1438
asbasbasbag56
(g72
g58
NtRp1439
(dp1440
g61
(dp1441
sg70
g1191
sg63
(lp1442
g56
(g77
g58
NtRp1443
(dp1444
g61
(dp1445
g81
g82
ssg70
g1439
sg63
(lp1446
S'http_connection'
p1447
asbag56
(g77
g58
NtRp1448
(dp1449
g61
(dp1450
g88
g89
ssg70
g1439
sg63
(lp1451
S':'
asbag56
(g77
g58
NtRp1452
(dp1453
g61
(dp1454
sg70
g1439
sg63
(lp1455
g56
(g57
g58
NtRp1456
(dp1457
g61
(dp1458
g69
I4
ssg70
g1452
sg63
(lp1459
S'keep-alive'
p1460
asbasbasbag56
(g72
g58
NtRp1461
(dp1462
g61
(dp1463
sg70
g1191
sg63
(lp1464
g56
(g77
g58
NtRp1465
(dp1466
g61
(dp1467
g81
g82
ssg70
g1461
sg63
(lp1468
S'http_cookie'
p1469
asbag56
(g77
g58
NtRp1470
(dp1471
g61
(dp1472
g88
g89
ssg70
g1461
sg63
(lp1473
S':'
asbag56
(g77
g58
NtRp1474
(dp1475
g61
(dp1476
sg70
g1461
sg63
(lp1477
g56
(g57
g58
NtRp1478
(dp1479
g61
(dp1480
g69
I4
ssg70
g1474
sg63
(lp1481
S'session_id_blog=127.0.0.1-f221c588-e499-4b63-9882-f52e2f06907c; session_id_welcome=127.0.0.1-c5e18343-d06e-414a-bb07-23cb8cf7ceb8; session_id_paideia=127.0.0.1-81eff388-1cde-41fb-8887-06f0c09ce763; session_id_admin=127.0.0.1-f8ad7263-b87d-41ed-bbe2-215e5232b6dc; session_id_places=127.0.0.1-ae378f77-b944-4a55-be06-eed4ce913913'
p1482
asbasbasbag56
(g72
g58
NtRp1483
(dp1484
g61
(dp1485
sg70
g1191
sg63
(lp1486
g56
(g77
g58
NtRp1487
(dp1488
g61
(dp1489
g81
g82
ssg70
g1483
sg63
(lp1490
S'http_host'
p1491
asbag56
(g77
g58
NtRp1492
(dp1493
g61
(dp1494
g88
g89
ssg70
g1483
sg63
(lp1495
S':'
asbag56
(g77
g58
NtRp1496
(dp1497
g61
(dp1498
sg70
g1483
sg63
(lp1499
g56
(g57
g58
NtRp1500
(dp1501
g61
(dp1502
g69
I4
ssg70
g1496
sg63
(lp1503
S'127.0.0.1:8000'
p1504
asbasbasbag56
(g72
g58
NtRp1505
(dp1506
g61
(dp1507
sg70
g1191
sg63
(lp1508
g56
(g77
g58
NtRp1509
(dp1510
g61
(dp1511
g81
g82
ssg70
g1505
sg63
(lp1512
S'http_user_agent'
p1513
asbag56
(g77
g58
NtRp1514
(dp1515
g61
(dp1516
g88
g89
ssg70
g1505
sg63
(lp1517
S':'
asbag56
(g77
g58
NtRp1518
(dp1519
g61
(dp1520
sg70
g1505
sg63
(lp1521
g56
(g57
g58
NtRp1522
(dp1523
g61
(dp1524
g69
I4
ssg70
g1518
sg63
(lp1525
S'Mozilla/5.0 (X11; Linux x86_64; rv:7.0.1) Gecko/20100101 Firefox/7.0.1'
p1526
asbasbasbag56
(g72
g58
NtRp1527
(dp1528
g61
(dp1529
sg70
g1191
sg63
(lp1530
g56
(g77
g58
NtRp1531
(dp1532
g61
(dp1533
g81
g82
ssg70
g1527
sg63
(lp1534
S'is_jython'
p1535
asbag56
(g77
g58
NtRp1536
(dp1537
g61
(dp1538
g88
g89
ssg70
g1527
sg63
(lp1539
S':'
asbag56
(g77
g58
NtRp1540
(dp1541
g61
(dp1542
sg70
g1527
sg63
(lp1543
g56
(g57
g58
NtRp1544
(dp1545
g61
(dp1546
g69
I4
ssg70
g1540
sg63
(lp1547
g99
asbasbasbag56
(g72
g58
NtRp1548
(dp1549
g61
(dp1550
sg70
g1191
sg63
(lp1551
g56
(g77
g58
NtRp1552
(dp1553
g61
(dp1554
g81
g82
ssg70
g1548
sg63
(lp1555
S'path_info'
p1556
asbag56
(g77
g58
NtRp1557
(dp1558
g61
(dp1559
g88
g89
ssg70
g1548
sg63
(lp1560
S':'
asbag56
(g77
g58
NtRp1561
(dp1562
g61
(dp1563
sg70
g1548
sg63
(lp1564
g56
(g57
g58
NtRp1565
(dp1566
g61
(dp1567
g69
I4
ssg70
g1561
sg63
(lp1568
S'/places/'
p1569
asbasbasbag56
(g72
g58
NtRp1570
(dp1571
g61
(dp1572
sg70
g1191
sg63
(lp1573
g56
(g77
g58
NtRp1574
(dp1575
g61
(dp1576
g81
g82
ssg70
g1570
sg63
(lp1577
S'query_string'
p1578
asbag56
(g77
g58
NtRp1579
(dp1580
g61
(dp1581
g88
g89
ssg70
g1570
sg63
(lp1582
S':'
asbag56
(g77
g58
NtRp1583
(dp1584
g61
(dp1585
sg70
g1570
sg63
(lp1586
g56
(g57
g58
NtRp1587
(dp1588
g61
(dp1589
g69
I4
ssg70
g1583
sg63
(lp1590
S''
asbasbasbag56
(g72
g58
NtRp1591
(dp1592
g61
(dp1593
sg70
g1191
sg63
(lp1594
g56
(g77
g58
NtRp1595
(dp1596
g61
(dp1597
g81
g82
ssg70
g1591
sg63
(lp1598
S'remote_addr'
p1599
asbag56
(g77
g58
NtRp1600
(dp1601
g61
(dp1602
g88
g89
ssg70
g1591
sg63
(lp1603
S':'
asbag56
(g77
g58
NtRp1604
(dp1605
g61
(dp1606
sg70
g1591
sg63
(lp1607
g56
(g57
g58
NtRp1608
(dp1609
g61
(dp1610
g69
I4
ssg70
g1604
sg63
(lp1611
g189
asbasbasbag56
(g72
g58
NtRp1612
(dp1613
g61
(dp1614
sg70
g1191
sg63
(lp1615
g56
(g77
g58
NtRp1616
(dp1617
g61
(dp1618
g81
g82
ssg70
g1612
sg63
(lp1619
S'remote_port'
p1620
asbag56
(g77
g58
NtRp1621
(dp1622
g61
(dp1623
g88
g89
ssg70
g1612
sg63
(lp1624
S':'
asbag56
(g77
g58
NtRp1625
(dp1626
g61
(dp1627
sg70
g1612
sg63
(lp1628
g56
(g57
g58
NtRp1629
(dp1630
g61
(dp1631
g69
I4
ssg70
g1625
sg63
(lp1632
S'48339'
p1633
asbasbasbag56
(g72
g58
NtRp1634
(dp1635
g61
(dp1636
sg70
g1191
sg63
(lp1637
g56
(g77
g58
NtRp1638
(dp1639
g61
(dp1640
g81
g82
ssg70
g1634
sg63
(lp1641
S'request_method'
p1642
asbag56
(g77
g58
NtRp1643
(dp1644
g61
(dp1645
g88
g89
ssg70
g1634
sg63
(lp1646
S':'
asbag56
(g77
g58
NtRp1647
(dp1648
g61
(dp1649
sg70
g1634
sg63
(lp1650
g56
(g57
g58
NtRp1651
(dp1652
g61
(dp1653
g69
I4
ssg70
g1647
sg63
(lp1654
S'GET'
p1655
asbasbasbag56
(g72
g58
NtRp1656
(dp1657
g61
(dp1658
sg70
g1191
sg63
(lp1659
g56
(g77
g58
NtRp1660
(dp1661
g61
(dp1662
g81
g82
ssg70
g1656
sg63
(lp1663
S'script_name'
p1664
asbag56
(g77
g58
NtRp1665
(dp1666
g61
(dp1667
g88
g89
ssg70
g1656
sg63
(lp1668
S':'
asbag56
(g77
g58
NtRp1669
(dp1670
g61
(dp1671
sg70
g1656
sg63
(lp1672
g56
(g57
g58
NtRp1673
(dp1674
g61
(dp1675
g69
I4
ssg70
g1669
sg63
(lp1676
S''
asbasbasbag56
(g72
g58
NtRp1677
(dp1678
g61
(dp1679
sg70
g1191
sg63
(lp1680
g56
(g77
g58
NtRp1681
(dp1682
g61
(dp1683
g81
g82
ssg70
g1677
sg63
(lp1684
S'server_name'
p1685
asbag56
(g77
g58
NtRp1686
(dp1687
g61
(dp1688
g88
g89
ssg70
g1677
sg63
(lp1689
S':'
asbag56
(g77
g58
NtRp1690
(dp1691
g61
(dp1692
sg70
g1677
sg63
(lp1693
g56
(g57
g58
NtRp1694
(dp1695
g61
(dp1696
g69
I4
ssg70
g1690
sg63
(lp1697
S'uriel'
p1698
asbasbasbag56
(g72
g58
NtRp1699
(dp1700
g61
(dp1701
sg70
g1191
sg63
(lp1702
g56
(g77
g58
NtRp1703
(dp1704
g61
(dp1705
g81
g82
ssg70
g1699
sg63
(lp1706
S'server_port'
p1707
asbag56
(g77
g58
NtRp1708
(dp1709
g61
(dp1710
g88
g89
ssg70
g1699
sg63
(lp1711
S':'
asbag56
(g77
g58
NtRp1712
(dp1713
g61
(dp1714
sg70
g1699
sg63
(lp1715
g56
(g57
g58
NtRp1716
(dp1717
g61
(dp1718
g69
I4
ssg70
g1712
sg63
(lp1719
S'8000'
p1720
asbasbasbag56
(g72
g58
NtRp1721
(dp1722
g61
(dp1723
sg70
g1191
sg63
(lp1724
g56
(g77
g58
NtRp1725
(dp1726
g61
(dp1727
g81
g82
ssg70
g1721
sg63
(lp1728
S'server_protocol'
p1729
asbag56
(g77
g58
NtRp1730
(dp1731
g61
(dp1732
g88
g89
ssg70
g1721
sg63
(lp1733
S':'
asbag56
(g77
g58
NtRp1734
(dp1735
g61
(dp1736
sg70
g1721
sg63
(lp1737
g56
(g57
g58
NtRp1738
(dp1739
g61
(dp1740
g69
I4
ssg70
g1734
sg63
(lp1741
S'HTTP/1.1'
p1742
asbasbasbag56
(g72
g58
NtRp1743
(dp1744
g61
(dp1745
sg70
g1191
sg63
(lp1746
g56
(g77
g58
NtRp1747
(dp1748
g61
(dp1749
g81
g82
ssg70
g1743
sg63
(lp1750
S'server_software'
p1751
asbag56
(g77
g58
NtRp1752
(dp1753
g61
(dp1754
g88
g89
ssg70
g1743
sg63
(lp1755
S':'
asbag56
(g77
g58
NtRp1756
(dp1757
g61
(dp1758
sg70
g1743
sg63
(lp1759
g56
(g57
g58
NtRp1760
(dp1761
g61
(dp1762
g69
I4
ssg70
g1756
sg63
(lp1763
S'Rocket 1.2.4'
p1764
asbasbasbag56
(g72
g58
NtRp1765
(dp1766
g61
(dp1767
sg70
g1191
sg63
(lp1768
g56
(g77
g58
NtRp1769
(dp1770
g61
(dp1771
g81
g82
ssg70
g1765
sg63
(lp1772
S'web2py_crontype'
p1773
asbag56
(g77
g58
NtRp1774
(dp1775
g61
(dp1776
g88
g89
ssg70
g1765
sg63
(lp1777
S':'
asbag56
(g77
g58
NtRp1778
(dp1779
g61
(dp1780
sg70
g1765
sg63
(lp1781
g56
(g57
g58
NtRp1782
(dp1783
g61
(dp1784
g69
I4
ssg70
g1778
sg63
(lp1785
S'hard'
p1786
asbasbasbag56
(g72
g58
NtRp1787
(dp1788
g61
(dp1789
sg70
g1191
sg63
(lp1790
g56
(g77
g58
NtRp1791
(dp1792
g61
(dp1793
g81
g82
ssg70
g1787
sg63
(lp1794
S'web2py_path'
p1795
asbag56
(g77
g58
NtRp1796
(dp1797
g61
(dp1798
g88
g89
ssg70
g1787
sg63
(lp1799
S':'
asbag56
(g77
g58
NtRp1800
(dp1801
g61
(dp1802
sg70
g1787
sg63
(lp1803
g56
(g57
g58
NtRp1804
(dp1805
g61
(dp1806
g69
I4
ssg70
g1800
sg63
(lp1807
g1238
asbasbasbag56
(g72
g58
NtRp1808
(dp1809
g61
(dp1810
sg70
g1191
sg63
(lp1811
g56
(g77
g58
NtRp1812
(dp1813
g61
(dp1814
g81
g82
ssg70
g1808
sg63
(lp1815
S'web2py_version'
p1816
asbag56
(g77
g58
NtRp1817
(dp1818
g61
(dp1819
g88
g89
ssg70
g1808
sg63
(lp1820
S':'
asbag56
(g77
g58
NtRp1821
(dp1822
g61
(dp1823
sg70
g1808
sg63
(lp1824
g56
(g57
g58
NtRp1825
(dp1826
g61
(dp1827
g69
I4
ssg70
g1821
sg63
(lp1828
g56
(g65
g58
NtRp1829
(dp1830
g61
(dp1831
g69
I3
ssg70
Nsg63
(lp1832
g56
(g72
g58
NtRp1833
(dp1834
g61
(dp1835
sg70
g1829
sg63
(lp1836
g56
(g77
g58
NtRp1837
(dp1838
g61
(dp1839
sg70
g1833
sg63
(lp1840
g56
(g57
g58
NtRp1841
(dp1842
g61
(dp1843
g69
I3
ssg70
g1837
sg63
(lp1844
S'1'
asbasbasbag56
(g72
g58
NtRp1845
(dp1846
g61
(dp1847
sg70
g1829
sg63
(lp1848
g56
(g77
g58
NtRp1849
(dp1850
g61
(dp1851
sg70
g1845
sg63
(lp1852
g56
(g57
g58
NtRp1853
(dp1854
g61
(dp1855
g69
I3
ssg70
g1849
sg63
(lp1856
S'99'
p1857
asbasbasbag56
(g72
g58
NtRp1858
(dp1859
g61
(dp1860
sg70
g1829
sg63
(lp1861
g56
(g77
g58
NtRp1862
(dp1863
g61
(dp1864
sg70
g1858
sg63
(lp1865
g56
(g57
g58
NtRp1866
(dp1867
g61
(dp1868
g69
I3
ssg70
g1862
sg63
(lp1869
S'2'
asbasbasbag56
(g72
g58
NtRp1870
(dp1871
g61
(dp1872
sg70
g1829
sg63
(lp1873
g56
(g77
g58
NtRp1874
(dp1875
g61
(dp1876
sg70
g1870
sg63
(lp1877
g56
(g57
g58
NtRp1878
(dp1879
g61
(dp1880
g69
I3
ssg70
g1874
sg63
(lp1881
S'datetime.datetime(2011, 9, 26, 6, 55, 33)'
p1882
asbasbasbag56
(g72
g58
NtRp1883
(dp1884
g61
(dp1885
sg70
g1829
sg63
(lp1886
g56
(g77
g58
NtRp1887
(dp1888
g61
(dp1889
sg70
g1883
sg63
(lp1890
g56
(g57
g58
NtRp1891
(dp1892
g61
(dp1893
g69
I3
ssg70
g1887
sg63
(lp1894
S'stable'
p1895
asbasbasbasbasbasbasbag56
(g72
g58
NtRp1896
(dp1897
g61
(dp1898
sg70
g1191
sg63
(lp1899
g56
(g77
g58
NtRp1900
(dp1901
g61
(dp1902
g81
g82
ssg70
g1896
sg63
(lp1903
S'wsgi_errors'
p1904
asbag56
(g77
g58
NtRp1905
(dp1906
g61
(dp1907
g88
g89
ssg70
g1896
sg63
(lp1908
S':'
asbag56
(g77
g58
NtRp1909
(dp1910
g61
(dp1911
sg70
g1896
sg63
(lp1912
g56
(g57
g58
NtRp1913
(dp1914
g61
(dp1915
g69
I4
ssg70
g1909
sg63
(lp1916
S"<open file '<stderr>', mode 'w' at 0x7f4a416fc270>"
p1917
asbasbasbag56
(g72
g58
NtRp1918
(dp1919
g61
(dp1920
sg70
g1191
sg63
(lp1921
g56
(g77
g58
NtRp1922
(dp1923
g61
(dp1924
g81
g82
ssg70
g1918
sg63
(lp1925
S'wsgi_file_wrapper'
p1926
asbag56
(g77
g58
NtRp1927
(dp1928
g61
(dp1929
g88
g89
ssg70
g1918
sg63
(lp1930
S':'
asbag56
(g77
g58
NtRp1931
(dp1932
g61
(dp1933
sg70
g1918
sg63
(lp1934
g56
(g57
g58
NtRp1935
(dp1936
g61
(dp1937
g69
I4
ssg70
g1931
sg63
(lp1938
S'<class wsgiref.util.FileWrapper at 0x24b4870>'
p1939
asbasbasbag56
(g72
g58
NtRp1940
(dp1941
g61
(dp1942
sg70
g1191
sg63
(lp1943
g56
(g77
g58
NtRp1944
(dp1945
g61
(dp1946
g81
g82
ssg70
g1940
sg63
(lp1947
S'wsgi_input'
p1948
asbag56
(g77
g58
NtRp1949
(dp1950
g61
(dp1951
g88
g89
ssg70
g1940
sg63
(lp1952
S':'
asbag56
(g77
g58
NtRp1953
(dp1954
g61
(dp1955
sg70
g1940
sg63
(lp1956
g56
(g57
g58
NtRp1957
(dp1958
g61
(dp1959
g69
I4
ssg70
g1953
sg63
(lp1960
S'<socket._fileobject object at 0x368b450>'
p1961
asbasbasbag56
(g72
g58
NtRp1962
(dp1963
g61
(dp1964
sg70
g1191
sg63
(lp1965
g56
(g77
g58
NtRp1966
(dp1967
g61
(dp1968
g81
g82
ssg70
g1962
sg63
(lp1969
S'wsgi_multiprocess'
p1970
asbag56
(g77
g58
NtRp1971
(dp1972
g61
(dp1973
g88
g89
ssg70
g1962
sg63
(lp1974
S':'
asbag56
(g77
g58
NtRp1975
(dp1976
g61
(dp1977
sg70
g1962
sg63
(lp1978
g56
(g57
g58
NtRp1979
(dp1980
g61
(dp1981
g69
I4
ssg70
g1975
sg63
(lp1982
g99
asbasbasbag56
(g72
g58
NtRp1983
(dp1984
g61
(dp1985
sg70
g1191
sg63
(lp1986
g56
(g77
g58
NtRp1987
(dp1988
g61
(dp1989
g81
g82
ssg70
g1983
sg63
(lp1990
S'wsgi_multithread'
p1991
asbag56
(g77
g58
NtRp1992
(dp1993
g61
(dp1994
g88
g89
ssg70
g1983
sg63
(lp1995
S':'
asbag56
(g77
g58
NtRp1996
(dp1997
g61
(dp1998
sg70
g1983
sg63
(lp1999
g56
(g57
g58
NtRp2000
(dp2001
g61
(dp2002
g69
I4
ssg70
g1996
sg63
(lp2003
S'True'
p2004
asbasbasbag56
(g72
g58
NtRp2005
(dp2006
g61
(dp2007
sg70
g1191
sg63
(lp2008
g56
(g77
g58
NtRp2009
(dp2010
g61
(dp2011
g81
g82
ssg70
g2005
sg63
(lp2012
S'wsgi_run_once'
p2013
asbag56
(g77
g58
NtRp2014
(dp2015
g61
(dp2016
g88
g89
ssg70
g2005
sg63
(lp2017
S':'
asbag56
(g77
g58
NtRp2018
(dp2019
g61
(dp2020
sg70
g2005
sg63
(lp2021
g56
(g57
g58
NtRp2022
(dp2023
g61
(dp2024
g69
I4
ssg70
g2018
sg63
(lp2025
g99
asbasbasbag56
(g72
g58
NtRp2026
(dp2027
g61
(dp2028
sg70
g1191
sg63
(lp2029
g56
(g77
g58
NtRp2030
(dp2031
g61
(dp2032
g81
g82
ssg70
g2026
sg63
(lp2033
S'wsgi_url_scheme'
p2034
asbag56
(g77
g58
NtRp2035
(dp2036
g61
(dp2037
g88
g89
ssg70
g2026
sg63
(lp2038
S':'
asbag56
(g77
g58
NtRp2039
(dp2040
g61
(dp2041
sg70
g2026
sg63
(lp2042
g56
(g57
g58
NtRp2043
(dp2044
g61
(dp2045
g69
I4
ssg70
g2039
sg63
(lp2046
S'http'
p2047
asbasbasbag56
(g72
g58
NtRp2048
(dp2049
g61
(dp2050
sg70
g1191
sg63
(lp2051
g56
(g77
g58
NtRp2052
(dp2053
g61
(dp2054
g81
g82
ssg70
g2048
sg63
(lp2055
S'wsgi_version'
p2056
asbag56
(g77
g58
NtRp2057
(dp2058
g61
(dp2059
g88
g89
ssg70
g2048
sg63
(lp2060
S':'
asbag56
(g77
g58
NtRp2061
(dp2062
g61
(dp2063
sg70
g2048
sg63
(lp2064
g56
(g57
g58
NtRp2065
(dp2066
g61
(dp2067
g69
I4
ssg70
g2061
sg63
(lp2068
g56
(g65
g58
NtRp2069
(dp2070
g61
(dp2071
g69
I3
ssg70
Nsg63
(lp2072
g56
(g72
g58
NtRp2073
(dp2074
g61
(dp2075
sg70
g2069
sg63
(lp2076
g56
(g77
g58
NtRp2077
(dp2078
g61
(dp2079
sg70
g2073
sg63
(lp2080
g56
(g57
g58
NtRp2081
(dp2082
g61
(dp2083
g69
I3
ssg70
g2077
sg63
(lp2084
S'1'
asbasbasbag56
(g72
g58
NtRp2085
(dp2086
g61
(dp2087
sg70
g2069
sg63
(lp2088
g56
(g77
g58
NtRp2089
(dp2090
g61
(dp2091
sg70
g2085
sg63
(lp2092
g56
(g57
g58
NtRp2093
(dp2094
g61
(dp2095
g69
I3
ssg70
g2089
sg63
(lp2096
S'0'
asbasbasbasbasbasbasbasbasbasbasbag56
(g72
g58
NtRp2097
(dp2098
g61
(dp2099
sg70
g66
sg63
(lp2100
g56
(g77
g58
NtRp2101
(dp2102
g61
(dp2103
g81
g82
ssg70
g2097
sg63
(lp2104
S'extension'
p2105
asbag56
(g77
g58
NtRp2106
(dp2107
g61
(dp2108
g88
g89
ssg70
g2097
sg63
(lp2109
S':'
asbag56
(g77
g58
NtRp2110
(dp2111
g61
(dp2112
sg70
g2097
sg63
(lp2113
g56
(g57
g58
NtRp2114
(dp2115
g61
(dp2116
g69
I5
ssg70
g2110
sg63
(lp2117
S'html'
p2118
asbasbasbag56
(g72
g58
NtRp2119
(dp2120
g61
(dp2121
sg70
g66
sg63
(lp2122
g56
(g77
g58
NtRp2123
(dp2124
g61
(dp2125
g81
g82
ssg70
g2119
sg63
(lp2126
S'folder'
p2127
asbag56
(g77
g58
NtRp2128
(dp2129
g61
(dp2130
g88
g89
ssg70
g2119
sg63
(lp2131
S':'
asbag56
(g77
g58
NtRp2132
(dp2133
g61
(dp2134
sg70
g2119
sg63
(lp2135
g56
(g57
g58
NtRp2136
(dp2137
g61
(dp2138
g69
I5
ssg70
g2132
sg63
(lp2139
S'/home/ian/Dropbox/Web_Pages/web2py-linux/applications/places/'
p2140
asbasbasbag56
(g72
g58
NtRp2141
(dp2142
g61
(dp2143
sg70
g66
sg63
(lp2144
g56
(g77
g58
NtRp2145
(dp2146
g61
(dp2147
g81
g82
ssg70
g2141
sg63
(lp2148
S'function'
p2149
asbag56
(g77
g58
NtRp2150
(dp2151
g61
(dp2152
g88
g89
ssg70
g2141
sg63
(lp2153
S':'
asbag56
(g77
g58
NtRp2154
(dp2155
g61
(dp2156
sg70
g2141
sg63
(lp2157
g56
(g57
g58
NtRp2158
(dp2159
g61
(dp2160
g69
I5
ssg70
g2154
sg63
(lp2161
S'index'
p2162
asbasbasbag56
(g72
g58
NtRp2163
(dp2164
g61
(dp2165
sg70
g66
sg63
(lp2166
g56
(g77
g58
NtRp2167
(dp2168
g61
(dp2169
g81
g82
ssg70
g2163
sg63
(lp2170
S'get_vars'
p2171
asbag56
(g77
g58
NtRp2172
(dp2173
g61
(dp2174
g88
g89
ssg70
g2163
sg63
(lp2175
S':'
asbag56
(g77
g58
NtRp2176
(dp2177
g61
(dp2178
sg70
g2163
sg63
(lp2179
g56
(g57
g58
NtRp2180
(dp2181
g61
(dp2182
g69
I5
ssg70
g2176
sg63
(lp2183
g56
(g65
g58
NtRp2184
(dp2185
g61
(dp2186
g69
I4
ssg70
Nsg63
(lp2187
sbasbasbasbag56
(g72
g58
NtRp2188
(dp2189
g61
(dp2190
sg70
g66
sg63
(lp2191
g56
(g77
g58
NtRp2192
(dp2193
g61
(dp2194
g81
g82
ssg70
g2188
sg63
(lp2195
S'global_settings'
p2196
asbag56
(g77
g58
NtRp2197
(dp2198
g61
(dp2199
g88
g89
ssg70
g2188
sg63
(lp2200
S':'
asbag56
(g77
g58
NtRp2201
(dp2202
g61
(dp2203
sg70
g2188
sg63
(lp2204
g56
(g57
g58
NtRp2205
(dp2206
g61
(dp2207
g69
I5
ssg70
g2201
sg63
(lp2208
g56
(g65
g58
NtRp2209
(dp2210
g61
(dp2211
g69
I4
ssg70
Nsg63
(lp2212
g56
(g72
g58
NtRp2213
(dp2214
g61
(dp2215
sg70
g2209
sg63
(lp2216
g56
(g77
g58
NtRp2217
(dp2218
g61
(dp2219
g81
g82
ssg70
g2213
sg63
(lp2220
g1203
asbag56
(g77
g58
NtRp2221
(dp2222
g61
(dp2223
g88
g89
ssg70
g2213
sg63
(lp2224
S':'
asbag56
(g77
g58
NtRp2225
(dp2226
g61
(dp2227
sg70
g2213
sg63
(lp2228
g56
(g57
g58
NtRp2229
(dp2230
g61
(dp2231
g69
I4
ssg70
g2225
sg63
(lp2232
S"set(['/home/ian/Dropbox/Web_Pages/web2py-linux/applications/blog/', '/home/ian/Dropbox/Web_Pages/web2py-linux/applications/places/', '/home/ian/Dropbox/Web_Pages/web2py-linux/applications/Paideia/', '/home/ian/Dropbox/Web_Pages/web2py-linux/applications/admin/', '/home/ian/Dropbox/Web_Pages/web2py-linux/applications/welcome/'])"
p2233
asbasbasbag56
(g72
g58
NtRp2234
(dp2235
g61
(dp2236
sg70
g2209
sg63
(lp2237
g56
(g77
g58
NtRp2238
(dp2239
g61
(dp2240
g81
g82
ssg70
g2234
sg63
(lp2241
g1225
asbag56
(g77
g58
NtRp2242
(dp2243
g61
(dp2244
g88
g89
ssg70
g2234
sg63
(lp2245
S':'
asbag56
(g77
g58
NtRp2246
(dp2247
g61
(dp2248
sg70
g2234
sg63
(lp2249
g56
(g57
g58
NtRp2250
(dp2251
g61
(dp2252
g69
I4
ssg70
g2246
sg63
(lp2253
g1238
asbasbasbag56
(g72
g58
NtRp2254
(dp2255
g61
(dp2256
sg70
g2209
sg63
(lp2257
g56
(g77
g58
NtRp2258
(dp2259
g61
(dp2260
g81
g82
ssg70
g2254
sg63
(lp2261
g1247
asbag56
(g77
g58
NtRp2262
(dp2263
g61
(dp2264
g88
g89
ssg70
g2254
sg63
(lp2265
S':'
asbag56
(g77
g58
NtRp2266
(dp2267
g61
(dp2268
sg70
g2254
sg63
(lp2269
g56
(g57
g58
NtRp2270
(dp2271
g61
(dp2272
g69
I4
ssg70
g2266
sg63
(lp2273
g56
(g65
g58
NtRp2274
(dp2275
g61
(dp2276
g69
I3
ssg70
Nsg63
(lp2277
sbasbasbasbag56
(g72
g58
NtRp2278
(dp2279
g61
(dp2280
sg70
g2209
sg63
(lp2281
g56
(g77
g58
NtRp2282
(dp2283
g61
(dp2284
g81
g82
ssg70
g2278
sg63
(lp2285
g1272
asbag56
(g77
g58
NtRp2286
(dp2287
g61
(dp2288
g88
g89
ssg70
g2278
sg63
(lp2289
S':'
asbag56
(g77
g58
NtRp2290
(dp2291
g61
(dp2292
sg70
g2278
sg63
(lp2293
g56
(g57
g58
NtRp2294
(dp2295
g61
(dp2296
g69
I4
ssg70
g2290
sg63
(lp2297
S"<Values at 0x2723170: {'verbose': False, 'ip': '127.0.0.1', 'shutdown_timeout': 5, 'taskbar': False, 'nocron': False, 'pid_filename': 'httpserver.pid', 'maxthreads': None, 'softcron': False, 'server_name': 'uriel', 'bpython': False, 'nogui': False, 'port': 8000, 'extcron': False, 'debuglevel': 30, 'test': None, 'folder': '/home/ian/Dropbox/Web_Pages/web2py-linux', 'config': '', 'import_models': False, 'winservice': '', 'shell': None, 'run': '', 'log_filename': 'httpserver.log', 'args': [''], 'ssl_ca_certificate': None, 'scheduler': None, 'profiler_filename': None, 'ssl_private_key': '', 'password': '<ask>', 'request_queue_size': 5, 'ssl_certificate': '', 'cronjob': False, 'plain': False, 'quiet': False, 'interfaces': None, 'minthreads': None, 'timeout': 10, 'numthreads': None, 'nobanner': False}>"
p2298
asbasbasbag56
(g72
g58
NtRp2299
(dp2300
g61
(dp2301
sg70
g2209
sg63
(lp2302
g56
(g77
g58
NtRp2303
(dp2304
g61
(dp2305
g81
g82
ssg70
g2299
sg63
(lp2306
g1294
asbag56
(g77
g58
NtRp2307
(dp2308
g61
(dp2309
g88
g89
ssg70
g2299
sg63
(lp2310
S':'
asbag56
(g77
g58
NtRp2311
(dp2312
g61
(dp2313
sg70
g2299
sg63
(lp2314
g56
(g57
g58
NtRp2315
(dp2316
g61
(dp2317
g69
I4
ssg70
g2311
sg63
(lp2318
S'set([])'
p2319
asbasbasbag56
(g72
g58
NtRp2320
(dp2321
g61
(dp2322
sg70
g2209
sg63
(lp2323
g56
(g77
g58
NtRp2324
(dp2325
g61
(dp2326
g81
g82
ssg70
g2320
sg63
(lp2327
g1316
asbag56
(g77
g58
NtRp2328
(dp2329
g61
(dp2330
g88
g89
ssg70
g2320
sg63
(lp2331
S':'
asbag56
(g77
g58
NtRp2332
(dp2333
g61
(dp2334
sg70
g2320
sg63
(lp2335
g56
(g57
g58
NtRp2336
(dp2337
g61
(dp2338
g69
I4
ssg70
g2332
sg63
(lp2339
g99
asbasbasbag56
(g72
g58
NtRp2340
(dp2341
g61
(dp2342
sg70
g2209
sg63
(lp2343
g56
(g77
g58
NtRp2344
(dp2345
g61
(dp2346
g81
g82
ssg70
g2340
sg63
(lp2347
g1337
asbag56
(g77
g58
NtRp2348
(dp2349
g61
(dp2350
g88
g89
ssg70
g2340
sg63
(lp2351
S':'
asbag56
(g77
g58
NtRp2352
(dp2353
g61
(dp2354
sg70
g2340
sg63
(lp2355
g56
(g57
g58
NtRp2356
(dp2357
g61
(dp2358
g69
I4
ssg70
g2352
sg63
(lp2359
g1350
asbasbasbag56
(g72
g58
NtRp2360
(dp2361
g61
(dp2362
sg70
g2209
sg63
(lp2363
g56
(g77
g58
NtRp2364
(dp2365
g61
(dp2366
g81
g82
ssg70
g2360
sg63
(lp2367
g1535
asbag56
(g77
g58
NtRp2368
(dp2369
g61
(dp2370
g88
g89
ssg70
g2360
sg63
(lp2371
S':'
asbag56
(g77
g58
NtRp2372
(dp2373
g61
(dp2374
sg70
g2360
sg63
(lp2375
g56
(g57
g58
NtRp2376
(dp2377
g61
(dp2378
g69
I4
ssg70
g2372
sg63
(lp2379
g99
asbasbasbag56
(g72
g58
NtRp2380
(dp2381
g61
(dp2382
sg70
g2209
sg63
(lp2383
g56
(g77
g58
NtRp2384
(dp2385
g61
(dp2386
g81
g82
ssg70
g2380
sg63
(lp2387
g1773
asbag56
(g77
g58
NtRp2388
(dp2389
g61
(dp2390
g88
g89
ssg70
g2380
sg63
(lp2391
S':'
asbag56
(g77
g58
NtRp2392
(dp2393
g61
(dp2394
sg70
g2380
sg63
(lp2395
g56
(g57
g58
NtRp2396
(dp2397
g61
(dp2398
g69
I4
ssg70
g2392
sg63
(lp2399
g1786
asbasbasbag56
(g72
g58
NtRp2400
(dp2401
g61
(dp2402
sg70
g2209
sg63
(lp2403
g56
(g77
g58
NtRp2404
(dp2405
g61
(dp2406
g81
g82
ssg70
g2400
sg63
(lp2407
g1816
asbag56
(g77
g58
NtRp2408
(dp2409
g61
(dp2410
g88
g89
ssg70
g2400
sg63
(lp2411
S':'
asbag56
(g77
g58
NtRp2412
(dp2413
g61
(dp2414
sg70
g2400
sg63
(lp2415
g56
(g57
g58
NtRp2416
(dp2417
g61
(dp2418
g69
I4
ssg70
g2412
sg63
(lp2419
g56
(g65
g58
NtRp2420
(dp2421
g61
(dp2422
g69
I3
ssg70
Nsg63
(lp2423
g56
(g72
g58
NtRp2424
(dp2425
g61
(dp2426
sg70
g2420
sg63
(lp2427
g56
(g77
g58
NtRp2428
(dp2429
g61
(dp2430
sg70
g2424
sg63
(lp2431
g56
(g57
g58
NtRp2432
(dp2433
g61
(dp2434
g69
I3
ssg70
g2428
sg63
(lp2435
S'1'
asbasbasbag56
(g72
g58
NtRp2436
(dp2437
g61
(dp2438
sg70
g2420
sg63
(lp2439
g56
(g77
g58
NtRp2440
(dp2441
g61
(dp2442
sg70
g2436
sg63
(lp2443
g56
(g57
g58
NtRp2444
(dp2445
g61
(dp2446
g69
I3
ssg70
g2440
sg63
(lp2447
S'99'
p2448
asbasbasbag56
(g72
g58
NtRp2449
(dp2450
g61
(dp2451
sg70
g2420
sg63
(lp2452
g56
(g77
g58
NtRp2453
(dp2454
g61
(dp2455
sg70
g2449
sg63
(lp2456
g56
(g57
g58
NtRp2457
(dp2458
g61
(dp2459
g69
I3
ssg70
g2453
sg63
(lp2460
S'2'
asbasbasbag56
(g72
g58
NtRp2461
(dp2462
g61
(dp2463
sg70
g2420
sg63
(lp2464
g56
(g77
g58
NtRp2465
(dp2466
g61
(dp2467
sg70
g2461
sg63
(lp2468
g56
(g57
g58
NtRp2469
(dp2470
g61
(dp2471
g69
I3
ssg70
g2465
sg63
(lp2472
S'datetime.datetime(2011, 9, 26, 6, 55, 33)'
p2473
asbasbasbag56
(g72
g58
NtRp2474
(dp2475
g61
(dp2476
sg70
g2420
sg63
(lp2477
g56
(g77
g58
NtRp2478
(dp2479
g61
(dp2480
sg70
g2474
sg63
(lp2481
g56
(g57
g58
NtRp2482
(dp2483
g61
(dp2484
g69
I3
ssg70
g2478
sg63
(lp2485
g1895
asbasbasbasbasbasbasbasbasbasbasbag56
(g72
g58
NtRp2486
(dp2487
g61
(dp2488
sg70
g66
sg63
(lp2489
g56
(g77
g58
NtRp2490
(dp2491
g61
(dp2492
g81
g82
ssg70
g2486
sg63
(lp2493
S'is_https'
p2494
asbag56
(g77
g58
NtRp2495
(dp2496
g61
(dp2497
g88
g89
ssg70
g2486
sg63
(lp2498
S':'
asbag56
(g77
g58
NtRp2499
(dp2500
g61
(dp2501
sg70
g2486
sg63
(lp2502
g56
(g57
g58
NtRp2503
(dp2504
g61
(dp2505
g69
I5
ssg70
g2499
sg63
(lp2506
g99
asbasbasbag56
(g72
g58
NtRp2507
(dp2508
g61
(dp2509
sg70
g66
sg63
(lp2510
g56
(g77
g58
NtRp2511
(dp2512
g61
(dp2513
g81
g82
ssg70
g2507
sg63
(lp2514
S'is_local'
p2515
asbag56
(g77
g58
NtRp2516
(dp2517
g61
(dp2518
g88
g89
ssg70
g2507
sg63
(lp2519
S':'
asbag56
(g77
g58
NtRp2520
(dp2521
g61
(dp2522
sg70
g2507
sg63
(lp2523
g56
(g57
g58
NtRp2524
(dp2525
g61
(dp2526
g69
I5
ssg70
g2520
sg63
(lp2527
g2004
asbasbasbag56
(g72
g58
NtRp2528
(dp2529
g61
(dp2530
sg70
g66
sg63
(lp2531
g56
(g77
g58
NtRp2532
(dp2533
g61
(dp2534
g81
g82
ssg70
g2528
sg63
(lp2535
S'is_restful'
p2536
asbag56
(g77
g58
NtRp2537
(dp2538
g61
(dp2539
g88
g89
ssg70
g2528
sg63
(lp2540
S':'
asbag56
(g77
g58
NtRp2541
(dp2542
g61
(dp2543
sg70
g2528
sg63
(lp2544
g56
(g57
g58
NtRp2545
(dp2546
g61
(dp2547
g69
I5
ssg70
g2541
sg63
(lp2548
g99
asbasbasbag56
(g72
g58
NtRp2549
(dp2550
g61
(dp2551
sg70
g66
sg63
(lp2552
g56
(g77
g58
NtRp2553
(dp2554
g61
(dp2555
g81
g82
ssg70
g2549
sg63
(lp2556
S'now'
p2557
asbag56
(g77
g58
NtRp2558
(dp2559
g61
(dp2560
g88
g89
ssg70
g2549
sg63
(lp2561
S':'
asbag56
(g77
g58
NtRp2562
(dp2563
g61
(dp2564
sg70
g2549
sg63
(lp2565
g56
(g57
g58
NtRp2566
(dp2567
g61
(dp2568
g69
I5
ssg70
g2562
sg63
(lp2569
S'datetime.datetime(2011, 9, 30, 15, 53, 15, 432230)'
p2570
asbasbasbag56
(g72
g58
NtRp2571
(dp2572
g61
(dp2573
sg70
g66
sg63
(lp2574
g56
(g77
g58
NtRp2575
(dp2576
g61
(dp2577
g81
g82
ssg70
g2571
sg63
(lp2578
S'post_vars'
p2579
asbag56
(g77
g58
NtRp2580
(dp2581
g61
(dp2582
g88
g89
ssg70
g2571
sg63
(lp2583
S':'
asbag56
(g77
g58
NtRp2584
(dp2585
g61
(dp2586
sg70
g2571
sg63
(lp2587
g56
(g57
g58
NtRp2588
(dp2589
g61
(dp2590
g69
I5
ssg70
g2584
sg63
(lp2591
g56
(g65
g58
NtRp2592
(dp2593
g61
(dp2594
g69
I4
ssg70
Nsg63
(lp2595
sbasbasbasbag56
(g72
g58
NtRp2596
(dp2597
g61
(dp2598
sg70
g66
sg63
(lp2599
g56
(g77
g58
NtRp2600
(dp2601
g61
(dp2602
g81
g82
ssg70
g2596
sg63
(lp2603
S'url'
p2604
asbag56
(g77
g58
NtRp2605
(dp2606
g61
(dp2607
g88
g89
ssg70
g2596
sg63
(lp2608
S':'
asbag56
(g77
g58
NtRp2609
(dp2610
g61
(dp2611
sg70
g2596
sg63
(lp2612
g56
(g57
g58
NtRp2613
(dp2614
g61
(dp2615
g69
I5
ssg70
g2609
sg63
(lp2616
S'/places/default/index'
p2617
asbasbasbag56
(g72
g58
NtRp2618
(dp2619
g61
(dp2620
sg70
g66
sg63
(lp2621
g56
(g77
g58
NtRp2622
(dp2623
g61
(dp2624
g81
g82
ssg70
g2618
sg63
(lp2625
S'utcnow'
p2626
asbag56
(g77
g58
NtRp2627
(dp2628
g61
(dp2629
g88
g89
ssg70
g2618
sg63
(lp2630
S':'
asbag56
(g77
g58
NtRp2631
(dp2632
g61
(dp2633
sg70
g2618
sg63
(lp2634
g56
(g57
g58
NtRp2635
(dp2636
g61
(dp2637
g69
I5
ssg70
g2631
sg63
(lp2638
S'datetime.datetime(2011, 9, 30, 19, 53, 15, 432286)'
p2639
asbasbasbag56
(g72
g58
NtRp2640
(dp2641
g61
(dp2642
sg70
g66
sg63
(lp2643
g56
(g77
g58
NtRp2644
(dp2645
g61
(dp2646
g81
g82
ssg70
g2640
sg63
(lp2647
S'uuid'
p2648
asbag56
(g77
g58
NtRp2649
(dp2650
g61
(dp2651
g88
g89
ssg70
g2640
sg63
(lp2652
S':'
asbag56
(g77
g58
NtRp2653
(dp2654
g61
(dp2655
sg70
g2640
sg63
(lp2656
g56
(g57
g58
NtRp2657
(dp2658
g61
(dp2659
g69
I5
ssg70
g2653
sg63
(lp2660
S'places/127.0.0.1.2011-09-30.15-53-15.aabc1341-b179-45f3-8e13-95fd9cde19cc'
p2661
asbasbasbag56
(g72
g58
NtRp2662
(dp2663
g61
(dp2664
sg70
g66
sg63
(lp2665
g56
(g77
g58
NtRp2666
(dp2667
g61
(dp2668
g81
g82
ssg70
g2662
sg63
(lp2669
S'vars'
p2670
asbag56
(g77
g58
NtRp2671
(dp2672
g61
(dp2673
g88
g89
ssg70
g2662
sg63
(lp2674
S':'
asbag56
(g77
g58
NtRp2675
(dp2676
g61
(dp2677
sg70
g2662
sg63
(lp2678
g56
(g57
g58
NtRp2679
(dp2680
g61
(dp2681
g69
I5
ssg70
g2675
sg63
(lp2682
g56
(g65
g58
NtRp2683
(dp2684
g61
(dp2685
g69
I4
ssg70
Nsg63
(lp2686
sbasbasbasbag56
(g72
g58
NtRp2687
(dp2688
g61
(dp2689
sg70
g66
sg63
(lp2690
g56
(g77
g58
NtRp2691
(dp2692
g61
(dp2693
g81
g82
ssg70
g2687
sg63
(lp2694
S'wsgi'
p2695
asbag56
(g77
g58
NtRp2696
(dp2697
g61
(dp2698
g88
g89
ssg70
g2687
sg63
(lp2699
S':'
asbag56
(g77
g58
NtRp2700
(dp2701
g61
(dp2702
sg70
g2687
sg63
(lp2703
g56
(g57
g58
NtRp2704
(dp2705
g61
(dp2706
g69
I5
ssg70
g2700
sg63
(lp2707
g56
(g65
g58
NtRp2708
(dp2709
g61
(dp2710
g69
I4
ssg70
Nsg63
(lp2711
g56
(g72
g58
NtRp2712
(dp2713
g61
(dp2714
sg70
g2708
sg63
(lp2715
g56
(g77
g58
NtRp2716
(dp2717
g61
(dp2718
g81
g82
ssg70
g2712
sg63
(lp2719
S'environ'
p2720
asbag56
(g77
g58
NtRp2721
(dp2722
g61
(dp2723
g88
g89
ssg70
g2712
sg63
(lp2724
S':'
asbag56
(g77
g58
NtRp2725
(dp2726
g61
(dp2727
sg70
g2712
sg63
(lp2728
g56
(g57
g58
NtRp2729
(dp2730
g61
(dp2731
g69
I4
ssg70
g2725
sg63
(lp2732
g56
(g65
g58
NtRp2733
(dp2734
g61
(dp2735
g69
I3
ssg70
Nsg63
(lp2736
g56
(g72
g58
NtRp2737
(dp2738
g61
(dp2739
sg70
g2733
sg63
(lp2740
g56
(g77
g58
NtRp2741
(dp2742
g61
(dp2743
g81
g82
ssg70
g2737
sg63
(lp2744
S'HTTP_ACCEPT'
p2745
asbag56
(g77
g58
NtRp2746
(dp2747
g61
(dp2748
g88
g89
ssg70
g2737
sg63
(lp2749
S':'
asbag56
(g77
g58
NtRp2750
(dp2751
g61
(dp2752
sg70
g2737
sg63
(lp2753
g56
(g57
g58
NtRp2754
(dp2755
g61
(dp2756
g69
I3
ssg70
g2750
sg63
(lp2757
g1372
asbasbasbag56
(g72
g58
NtRp2758
(dp2759
g61
(dp2760
sg70
g2733
sg63
(lp2761
g56
(g77
g58
NtRp2762
(dp2763
g61
(dp2764
g81
g82
ssg70
g2758
sg63
(lp2765
S'HTTP_ACCEPT_CHARSET'
p2766
asbag56
(g77
g58
NtRp2767
(dp2768
g61
(dp2769
g88
g89
ssg70
g2758
sg63
(lp2770
S':'
asbag56
(g77
g58
NtRp2771
(dp2772
g61
(dp2773
sg70
g2758
sg63
(lp2774
g56
(g57
g58
NtRp2775
(dp2776
g61
(dp2777
g69
I3
ssg70
g2771
sg63
(lp2778
g1394
asbasbasbag56
(g72
g58
NtRp2779
(dp2780
g61
(dp2781
sg70
g2733
sg63
(lp2782
g56
(g77
g58
NtRp2783
(dp2784
g61
(dp2785
g81
g82
ssg70
g2779
sg63
(lp2786
S'HTTP_ACCEPT_ENCODING'
p2787
asbag56
(g77
g58
NtRp2788
(dp2789
g61
(dp2790
g88
g89
ssg70
g2779
sg63
(lp2791
S':'
asbag56
(g77
g58
NtRp2792
(dp2793
g61
(dp2794
sg70
g2779
sg63
(lp2795
g56
(g57
g58
NtRp2796
(dp2797
g61
(dp2798
g69
I3
ssg70
g2792
sg63
(lp2799
g1416
asbasbasbag56
(g72
g58
NtRp2800
(dp2801
g61
(dp2802
sg70
g2733
sg63
(lp2803
g56
(g77
g58
NtRp2804
(dp2805
g61
(dp2806
g81
g82
ssg70
g2800
sg63
(lp2807
S'HTTP_ACCEPT_LANGUAGE'
p2808
asbag56
(g77
g58
NtRp2809
(dp2810
g61
(dp2811
g88
g89
ssg70
g2800
sg63
(lp2812
S':'
asbag56
(g77
g58
NtRp2813
(dp2814
g61
(dp2815
sg70
g2800
sg63
(lp2816
g56
(g57
g58
NtRp2817
(dp2818
g61
(dp2819
g69
I3
ssg70
g2813
sg63
(lp2820
g1438
asbasbasbag56
(g72
g58
NtRp2821
(dp2822
g61
(dp2823
sg70
g2733
sg63
(lp2824
g56
(g77
g58
NtRp2825
(dp2826
g61
(dp2827
g81
g82
ssg70
g2821
sg63
(lp2828
S'HTTP_CONNECTION'
p2829
asbag56
(g77
g58
NtRp2830
(dp2831
g61
(dp2832
g88
g89
ssg70
g2821
sg63
(lp2833
S':'
asbag56
(g77
g58
NtRp2834
(dp2835
g61
(dp2836
sg70
g2821
sg63
(lp2837
g56
(g57
g58
NtRp2838
(dp2839
g61
(dp2840
g69
I3
ssg70
g2834
sg63
(lp2841
g1460
asbasbasbag56
(g72
g58
NtRp2842
(dp2843
g61
(dp2844
sg70
g2733
sg63
(lp2845
g56
(g77
g58
NtRp2846
(dp2847
g61
(dp2848
g81
g82
ssg70
g2842
sg63
(lp2849
S'HTTP_COOKIE'
p2850
asbag56
(g77
g58
NtRp2851
(dp2852
g61
(dp2853
g88
g89
ssg70
g2842
sg63
(lp2854
S':'
asbag56
(g77
g58
NtRp2855
(dp2856
g61
(dp2857
sg70
g2842
sg63
(lp2858
g56
(g57
g58
NtRp2859
(dp2860
g61
(dp2861
g69
I3
ssg70
g2855
sg63
(lp2862
g1482
asbasbasbag56
(g72
g58
NtRp2863
(dp2864
g61
(dp2865
sg70
g2733
sg63
(lp2866
g56
(g77
g58
NtRp2867
(dp2868
g61
(dp2869
g81
g82
ssg70
g2863
sg63
(lp2870
S'HTTP_HOST'
p2871
asbag56
(g77
g58
NtRp2872
(dp2873
g61
(dp2874
g88
g89
ssg70
g2863
sg63
(lp2875
S':'
asbag56
(g77
g58
NtRp2876
(dp2877
g61
(dp2878
sg70
g2863
sg63
(lp2879
g56
(g57
g58
NtRp2880
(dp2881
g61
(dp2882
g69
I3
ssg70
g2876
sg63
(lp2883
g1504
asbasbasbag56
(g72
g58
NtRp2884
(dp2885
g61
(dp2886
sg70
g2733
sg63
(lp2887
g56
(g77
g58
NtRp2888
(dp2889
g61
(dp2890
g81
g82
ssg70
g2884
sg63
(lp2891
S'HTTP_USER_AGENT'
p2892
asbag56
(g77
g58
NtRp2893
(dp2894
g61
(dp2895
g88
g89
ssg70
g2884
sg63
(lp2896
S':'
asbag56
(g77
g58
NtRp2897
(dp2898
g61
(dp2899
sg70
g2884
sg63
(lp2900
g56
(g57
g58
NtRp2901
(dp2902
g61
(dp2903
g69
I3
ssg70
g2897
sg63
(lp2904
g1526
asbasbasbag56
(g72
g58
NtRp2905
(dp2906
g61
(dp2907
sg70
g2733
sg63
(lp2908
g56
(g77
g58
NtRp2909
(dp2910
g61
(dp2911
g81
g82
ssg70
g2905
sg63
(lp2912
S'PATH_INFO'
p2913
asbag56
(g77
g58
NtRp2914
(dp2915
g61
(dp2916
g88
g89
ssg70
g2905
sg63
(lp2917
S':'
asbag56
(g77
g58
NtRp2918
(dp2919
g61
(dp2920
sg70
g2905
sg63
(lp2921
g56
(g57
g58
NtRp2922
(dp2923
g61
(dp2924
g69
I3
ssg70
g2918
sg63
(lp2925
g1569
asbasbasbag56
(g72
g58
NtRp2926
(dp2927
g61
(dp2928
sg70
g2733
sg63
(lp2929
g56
(g77
g58
NtRp2930
(dp2931
g61
(dp2932
g81
g82
ssg70
g2926
sg63
(lp2933
S'QUERY_STRING'
p2934
asbag56
(g77
g58
NtRp2935
(dp2936
g61
(dp2937
g88
g89
ssg70
g2926
sg63
(lp2938
S':'
asbag56
(g77
g58
NtRp2939
(dp2940
g61
(dp2941
sg70
g2926
sg63
(lp2942
g56
(g57
g58
NtRp2943
(dp2944
g61
(dp2945
g69
I3
ssg70
g2939
sg63
(lp2946
S''
asbasbasbag56
(g72
g58
NtRp2947
(dp2948
g61
(dp2949
sg70
g2733
sg63
(lp2950
g56
(g77
g58
NtRp2951
(dp2952
g61
(dp2953
g81
g82
ssg70
g2947
sg63
(lp2954
S'REMOTE_ADDR'
p2955
asbag56
(g77
g58
NtRp2956
(dp2957
g61
(dp2958
g88
g89
ssg70
g2947
sg63
(lp2959
S':'
asbag56
(g77
g58
NtRp2960
(dp2961
g61
(dp2962
sg70
g2947
sg63
(lp2963
g56
(g57
g58
NtRp2964
(dp2965
g61
(dp2966
g69
I3
ssg70
g2960
sg63
(lp2967
g189
asbasbasbag56
(g72
g58
NtRp2968
(dp2969
g61
(dp2970
sg70
g2733
sg63
(lp2971
g56
(g77
g58
NtRp2972
(dp2973
g61
(dp2974
g81
g82
ssg70
g2968
sg63
(lp2975
S'REMOTE_PORT'
p2976
asbag56
(g77
g58
NtRp2977
(dp2978
g61
(dp2979
g88
g89
ssg70
g2968
sg63
(lp2980
S':'
asbag56
(g77
g58
NtRp2981
(dp2982
g61
(dp2983
sg70
g2968
sg63
(lp2984
g56
(g57
g58
NtRp2985
(dp2986
g61
(dp2987
g69
I3
ssg70
g2981
sg63
(lp2988
g1633
asbasbasbag56
(g72
g58
NtRp2989
(dp2990
g61
(dp2991
sg70
g2733
sg63
(lp2992
g56
(g77
g58
NtRp2993
(dp2994
g61
(dp2995
g81
g82
ssg70
g2989
sg63
(lp2996
S'REQUEST_METHOD'
p2997
asbag56
(g77
g58
NtRp2998
(dp2999
g61
(dp3000
g88
g89
ssg70
g2989
sg63
(lp3001
S':'
asbag56
(g77
g58
NtRp3002
(dp3003
g61
(dp3004
sg70
g2989
sg63
(lp3005
g56
(g57
g58
NtRp3006
(dp3007
g61
(dp3008
g69
I3
ssg70
g3002
sg63
(lp3009
g1655
asbasbasbag56
(g72
g58
NtRp3010
(dp3011
g61
(dp3012
sg70
g2733
sg63
(lp3013
g56
(g77
g58
NtRp3014
(dp3015
g61
(dp3016
g81
g82
ssg70
g3010
sg63
(lp3017
S'SCRIPT_NAME'
p3018
asbag56
(g77
g58
NtRp3019
(dp3020
g61
(dp3021
g88
g89
ssg70
g3010
sg63
(lp3022
S':'
asbag56
(g77
g58
NtRp3023
(dp3024
g61
(dp3025
sg70
g3010
sg63
(lp3026
g56
(g57
g58
NtRp3027
(dp3028
g61
(dp3029
g69
I3
ssg70
g3023
sg63
(lp3030
S''
asbasbasbag56
(g72
g58
NtRp3031
(dp3032
g61
(dp3033
sg70
g2733
sg63
(lp3034
g56
(g77
g58
NtRp3035
(dp3036
g61
(dp3037
g81
g82
ssg70
g3031
sg63
(lp3038
S'SERVER_NAME'
p3039
asbag56
(g77
g58
NtRp3040
(dp3041
g61
(dp3042
g88
g89
ssg70
g3031
sg63
(lp3043
S':'
asbag56
(g77
g58
NtRp3044
(dp3045
g61
(dp3046
sg70
g3031
sg63
(lp3047
g56
(g57
g58
NtRp3048
(dp3049
g61
(dp3050
g69
I3
ssg70
g3044
sg63
(lp3051
g1698
asbasbasbag56
(g72
g58
NtRp3052
(dp3053
g61
(dp3054
sg70
g2733
sg63
(lp3055
g56
(g77
g58
NtRp3056
(dp3057
g61
(dp3058
g81
g82
ssg70
g3052
sg63
(lp3059
S'SERVER_PORT'
p3060
asbag56
(g77
g58
NtRp3061
(dp3062
g61
(dp3063
g88
g89
ssg70
g3052
sg63
(lp3064
S':'
asbag56
(g77
g58
NtRp3065
(dp3066
g61
(dp3067
sg70
g3052
sg63
(lp3068
g56
(g57
g58
NtRp3069
(dp3070
g61
(dp3071
g69
I3
ssg70
g3065
sg63
(lp3072
g1720
asbasbasbag56
(g72
g58
NtRp3073
(dp3074
g61
(dp3075
sg70
g2733
sg63
(lp3076
g56
(g77
g58
NtRp3077
(dp3078
g61
(dp3079
g81
g82
ssg70
g3073
sg63
(lp3080
S'SERVER_PROTOCOL'
p3081
asbag56
(g77
g58
NtRp3082
(dp3083
g61
(dp3084
g88
g89
ssg70
g3073
sg63
(lp3085
S':'
asbag56
(g77
g58
NtRp3086
(dp3087
g61
(dp3088
sg70
g3073
sg63
(lp3089
g56
(g57
g58
NtRp3090
(dp3091
g61
(dp3092
g69
I3
ssg70
g3086
sg63
(lp3093
g1742
asbasbasbag56
(g72
g58
NtRp3094
(dp3095
g61
(dp3096
sg70
g2733
sg63
(lp3097
g56
(g77
g58
NtRp3098
(dp3099
g61
(dp3100
g81
g82
ssg70
g3094
sg63
(lp3101
S'SERVER_SOFTWARE'
p3102
asbag56
(g77
g58
NtRp3103
(dp3104
g61
(dp3105
g88
g89
ssg70
g3094
sg63
(lp3106
S':'
asbag56
(g77
g58
NtRp3107
(dp3108
g61
(dp3109
sg70
g3094
sg63
(lp3110
g56
(g57
g58
NtRp3111
(dp3112
g61
(dp3113
g69
I3
ssg70
g3107
sg63
(lp3114
g1764
asbasbasbag56
(g72
g58
NtRp3115
(dp3116
g61
(dp3117
sg70
g2733
sg63
(lp3118
g56
(g77
g58
NtRp3119
(dp3120
g61
(dp3121
g81
g82
ssg70
g3115
sg63
(lp3122
S'wsgi.errors'
p3123
asbag56
(g77
g58
NtRp3124
(dp3125
g61
(dp3126
g88
g89
ssg70
g3115
sg63
(lp3127
S':'
asbag56
(g77
g58
NtRp3128
(dp3129
g61
(dp3130
sg70
g3115
sg63
(lp3131
g56
(g57
g58
NtRp3132
(dp3133
g61
(dp3134
g69
I3
ssg70
g3128
sg63
(lp3135
S"<open file '<stderr>', mode 'w' at 0x7f4a416fc270>"
p3136
asbasbasbag56
(g72
g58
NtRp3137
(dp3138
g61
(dp3139
sg70
g2733
sg63
(lp3140
g56
(g77
g58
NtRp3141
(dp3142
g61
(dp3143
g81
g82
ssg70
g3137
sg63
(lp3144
S'wsgi.file_wrapper'
p3145
asbag56
(g77
g58
NtRp3146
(dp3147
g61
(dp3148
g88
g89
ssg70
g3137
sg63
(lp3149
S':'
asbag56
(g77
g58
NtRp3150
(dp3151
g61
(dp3152
sg70
g3137
sg63
(lp3153
g56
(g57
g58
NtRp3154
(dp3155
g61
(dp3156
g69
I3
ssg70
g3150
sg63
(lp3157
S'<class wsgiref.util.FileWrapper at 0x24b4870>'
p3158
asbasbasbag56
(g72
g58
NtRp3159
(dp3160
g61
(dp3161
sg70
g2733
sg63
(lp3162
g56
(g77
g58
NtRp3163
(dp3164
g61
(dp3165
g81
g82
ssg70
g3159
sg63
(lp3166
S'wsgi.input'
p3167
asbag56
(g77
g58
NtRp3168
(dp3169
g61
(dp3170
g88
g89
ssg70
g3159
sg63
(lp3171
S':'
asbag56
(g77
g58
NtRp3172
(dp3173
g61
(dp3174
sg70
g3159
sg63
(lp3175
g56
(g57
g58
NtRp3176
(dp3177
g61
(dp3178
g69
I3
ssg70
g3172
sg63
(lp3179
S'<cStringIO.StringO object at 0x36d6618>'
p3180
asbasbasbag56
(g72
g58
NtRp3181
(dp3182
g61
(dp3183
sg70
g2733
sg63
(lp3184
g56
(g77
g58
NtRp3185
(dp3186
g61
(dp3187
g81
g82
ssg70
g3181
sg63
(lp3188
S'wsgi.multiprocess'
p3189
asbag56
(g77
g58
NtRp3190
(dp3191
g61
(dp3192
g88
g89
ssg70
g3181
sg63
(lp3193
S':'
asbag56
(g77
g58
NtRp3194
(dp3195
g61
(dp3196
sg70
g3181
sg63
(lp3197
g56
(g57
g58
NtRp3198
(dp3199
g61
(dp3200
g69
I3
ssg70
g3194
sg63
(lp3201
g99
asbasbasbag56
(g72
g58
NtRp3202
(dp3203
g61
(dp3204
sg70
g2733
sg63
(lp3205
g56
(g77
g58
NtRp3206
(dp3207
g61
(dp3208
g81
g82
ssg70
g3202
sg63
(lp3209
S'wsgi.multithread'
p3210
asbag56
(g77
g58
NtRp3211
(dp3212
g61
(dp3213
g88
g89
ssg70
g3202
sg63
(lp3214
S':'
asbag56
(g77
g58
NtRp3215
(dp3216
g61
(dp3217
sg70
g3202
sg63
(lp3218
g56
(g57
g58
NtRp3219
(dp3220
g61
(dp3221
g69
I3
ssg70
g3215
sg63
(lp3222
g2004
asbasbasbag56
(g72
g58
NtRp3223
(dp3224
g61
(dp3225
sg70
g2733
sg63
(lp3226
g56
(g77
g58
NtRp3227
(dp3228
g61
(dp3229
g81
g82
ssg70
g3223
sg63
(lp3230
S'wsgi.run_once'
p3231
asbag56
(g77
g58
NtRp3232
(dp3233
g61
(dp3234
g88
g89
ssg70
g3223
sg63
(lp3235
S':'
asbag56
(g77
g58
NtRp3236
(dp3237
g61
(dp3238
sg70
g3223
sg63
(lp3239
g56
(g57
g58
NtRp3240
(dp3241
g61
(dp3242
g69
I3
ssg70
g3236
sg63
(lp3243
g99
asbasbasbag56
(g72
g58
NtRp3244
(dp3245
g61
(dp3246
sg70
g2733
sg63
(lp3247
g56
(g77
g58
NtRp3248
(dp3249
g61
(dp3250
g81
g82
ssg70
g3244
sg63
(lp3251
S'wsgi.url_scheme'
p3252
asbag56
(g77
g58
NtRp3253
(dp3254
g61
(dp3255
g88
g89
ssg70
g3244
sg63
(lp3256
S':'
asbag56
(g77
g58
NtRp3257
(dp3258
g61
(dp3259
sg70
g3244
sg63
(lp3260
g56
(g57
g58
NtRp3261
(dp3262
g61
(dp3263
g69
I3
ssg70
g3257
sg63
(lp3264
g2047
asbasbasbag56
(g72
g58
NtRp3265
(dp3266
g61
(dp3267
sg70
g2733
sg63
(lp3268
g56
(g77
g58
NtRp3269
(dp3270
g61
(dp3271
g81
g82
ssg70
g3265
sg63
(lp3272
S'wsgi.version'
p3273
asbag56
(g77
g58
NtRp3274
(dp3275
g61
(dp3276
g88
g89
ssg70
g3265
sg63
(lp3277
S':'
asbag56
(g77
g58
NtRp3278
(dp3279
g61
(dp3280
sg70
g3265
sg63
(lp3281
g56
(g57
g58
NtRp3282
(dp3283
g61
(dp3284
g69
I3
ssg70
g3278
sg63
(lp3285
S'1'
asbasbasbasbasbasbasbasbasbasbasbasbasbsS'frames'
p3286
(lp3287
(dp3288
S'file'
p3289
S'/home/ian/Dropbox/Web_Pages/web2py-linux/gluon/restricted.py'
p3290
sS'dump'
p3291
(dp3292
S'environment'
p3293
S"{'A': <class 'gluon.html.A'>, 'Auth': <class 'gluon.tools.Auth'>, 'B': <class 'gluon.html.B'>, 'BEAUTIFY': <class 'gluon.html.BEAUTIFY'>, 'BODY': <class 'gluon.html.BODY'>, 'BR': <class 'gluon.html.BR'>, 'BUTTON': <class 'gluon.html.BUTTON'>, 'CAT': <class 'gluon.html.CAT'>, 'CENTER': <class 'gluon.html.CENTER'>, 'CLEANUP': <class 'gluon.validators.CLEANUP'>, ...}"
p3294
sS'ccode'
p3295
S'<code object <module> at 0x32be1b0, file "/home/...ications/places/controllers/default.py", line 12>'
p3296
ssS'lnum'
p3297
I194
sS'lines'
p3298
(dp3299
I192
S'        else:'
p3300
sI193
S'            ccode = compile2(code,layer)'
p3301
sI194
S'        exec ccode in environment'
p3302
sI195
S'    except HTTP:'
p3303
sI196
S'        raise'
p3304
sI197
S'    except Exception, error:'
p3305
sI198
S'        # XXX Show exception in Wing IDE if running in debugger'
p3306
sI189
S'    try:'
p3307
sI190
S'        if type(code) == types.CodeType:'
p3308
sI191
S'            ccode = code'
p3309
ssS'call'
p3310
S"(code='# -*- coding: utf-8 -*-\\n# this file is released ...=crud())\\n\\nresponse._vars=response._caller(index)\\n', environment={'A': <class 'gluon.html.A'>, 'Auth': <class 'gluon.tools.Auth'>, 'B': <class 'gluon.html.B'>, 'BEAUTIFY': <class 'gluon.html.BEAUTIFY'>, 'BODY': <class 'gluon.html.BODY'>, 'BR': <class 'gluon.html.BR'>, 'BUTTON': <class 'gluon.html.BUTTON'>, 'CAT': <class 'gluon.html.CAT'>, 'CENTER': <class 'gluon.html.CENTER'>, 'CLEANUP': <class 'gluon.validators.CLEANUP'>, ...}, layer='/home/ian/Dropbox/Web_Pages/web2py-linux/applications/places/controllers/default.py')"
p3311
sS'func'
p3312
S'restricted'
p3313
sa(dp3314
g3289
S'/home/ian/Dropbox/Web_Pages/web2py-linux/applications/places/controllers/default.py'
p3315
sg3291
(dp3316
sg3297
I80
sg3298
(dp3317
I69
S'    http://..../[app]/default/data/update/[table]/[id]'
p3318
sI70
S'    http://..../[app]/default/data/delete/[table]/[id]'
p3319
sI71
S'    http://..../[app]/default/data/select/[table]'
p3320
sI72
S'    http://..../[app]/default/data/search/[table]'
p3321
sI73
S'    but URLs bust be signed, i.e. linked with'
p3322
sI74
S"      A('table',_href=URL('data/tables',user_signature=True))"
p3323
sI75
S'    or with the signed load operator'
p3324
sI76
S"      LOAD('default','data.load',args='tables',ajax=True,user_signature=True)"
p3325
sI77
S'    """'
p3326
sI78
S'    return dict(form=crud())'
p3327
ssg3310
S'()'
p3328
sg3312
S'<module>'
p3329
sa(dp3330
g3289
S'/home/ian/Dropbox/Web_Pages/web2py-linux/gluon/globals.py'
p3331
sg3291
(dp3332
S'self'
p3333
S'undefined'
p3334
sS'f'
S'<function index>'
p3335
ssg3297
I149
sg3298
(dp3336
I144
S'        self.meta = Storage()      # used by web2py_ajax.html'
p3337
sI145
S'        self.menu = []             # used by the default view layout'
p3338
sI146
S'        self.files = []            # used by web2py_ajax.html'
p3339
sI147
S'        self.generic_patterns = [] # patterns to allow generic views'
p3340
sI148
S'        self._vars = None'
p3341
sI149
S'        self._caller = lambda f: f()'
p3342
sI150
S'        self._view_environment = None'
p3343
sI151
S'        self._custom_commit = None'
p3344
sI152
S'        self._custom_rollback = None'
p3345
sI153
S''
ssg3310
S'(f=<function index>)'
p3346
sg3312
S'<lambda>'
p3347
sa(dp3348
g3289
S'/home/ian/Dropbox/Web_Pages/web2py-linux/applications/places/controllers/default.py'
p3349
sg3291
(dp3350
S'current'
p3351
g3334
sS'tags'
p3352
g3334
ssg3297
I22
sg3298
(dp3353
I17
S'    if not session.tags:'
p3354
sI18
S'        session.tags = db(db.tags).select()'
p3355
sI19
S'    if session.tag:'
p3356
sI20
S'        current = session.tag'
p3357
sI21
S'    else:'
p3358
sI22
S'        current = tags[0].tag'
p3359
sI23
S''
sI24
S'    links = db(db.links.tags.contains(session.tag)).select()'
p3360
sI25
S''
sI26
S'    return dict(links = links, current = current)'
p3361
ssg3310
S'()'
p3362
sg3312
g2162
sasS'pyver'
p3363
S'Python 2.7.1+: /usr/bin/python2.7'
p3364
sS'session'
p3365
g56
(g57
g58
NtRp3366
(dp3367
g61
(dp3368
sg63
(lp3369
g56
(g65
g58
NtRp3370
(dp3371
g61
(dp3372
g69
I5
ssg70
Nsg63
(lp3373
g56
(g72
g58
NtRp3374
(dp3375
g61
(dp3376
sg70
g3370
sg63
(lp3377
g56
(g77
g58
NtRp3378
(dp3379
g61
(dp3380
g81
g82
ssg70
g3374
sg63
(lp3381
S'last_query'
p3382
asbag56
(g77
g58
NtRp3383
(dp3384
g61
(dp3385
g88
g89
ssg70
g3374
sg63
(lp3386
S':'
asbag56
(g77
g58
NtRp3387
(dp3388
g61
(dp3389
sg70
g3374
sg63
(lp3390
g56
(g57
g58
NtRp3391
(dp3392
g61
(dp3393
g69
I5
ssg70
g3387
sg63
(lp3394
S'db.tags.id>0'
p3395
asbasbasbag56
(g72
g58
NtRp3396
(dp3397
g61
(dp3398
sg70
g3370
sg63
(lp3399
g56
(g77
g58
NtRp3400
(dp3401
g61
(dp3402
g81
g82
ssg70
g3396
sg63
(lp3403
S'tags'
p3404
asbag56
(g77
g58
NtRp3405
(dp3406
g61
(dp3407
g88
g89
ssg70
g3396
sg63
(lp3408
S':'
asbag56
(g77
g58
NtRp3409
(dp3410
g61
(dp3411
sg70
g3396
sg63
(lp3412
g56
(g57
g58
NtRp3413
(dp3414
g61
(dp3415
g69
I5
ssg70
g3409
sg63
(lp3416
cgluon.dal
Rows_unpickler
p3417
(S"(lp1\n(dp2\nS'tag'\np3\nS'kitchen'\np4\nsS'id'\np5\nI1\nsa(dp6\nS'tag'\np7\nS'kids'\np8\nsS'id'\np9\nI2\nsa(dp10\nS'tag'\np11\nS'research'\np12\nsS'id'\np13\nI3\nsa(dp14\nS'tag'\np15\nS'webdev'\np16\nsS'id'\np17\nI4\nsa(dp18\nS'tag'\np19\nS'photography'\np20\nsS'id'\np21\nI5\nsa(dp22\nS'tag'\np23\nS'entertainment'\np24\nsS'id'\np25\nI6\nsa(dp26\nS'tag'\np27\nS'games'\np28\nsS'id'\np29\nI7\nsa(dp30\nS'tag'\np31\nS'design'\np32\nsS'id'\np33\nI8\nsa(dp34\nS'tag'\np35\nS'research'\np36\nsS'id'\np37\nI9\nsa."
tRp3418
asbasbasbasbasbsS'etype'
p3419
S"<type 'exceptions.NameError'>"
p3420
sS'date'
p3421
S'Fri Sep 30 15:53:15 2011'
p3422
sS'response'
p3423
g56
(g57
g58
NtRp3424
(dp3425
g61
(dp3426
sg63
(lp3427
g56
(g65
g58
NtRp3428
(dp3429
g61
(dp3430
g69
I5
ssg70
Nsg63
(lp3431
g56
(g72
g58
NtRp3432
(dp3433
g61
(dp3434
sg70
g3428
sg63
(lp3435
g56
(g77
g58
NtRp3436
(dp3437
g61
(dp3438
g81
g82
ssg70
g3432
sg63
(lp3439
g154
asbag56
(g77
g58
NtRp3440
(dp3441
g61
(dp3442
g88
g89
ssg70
g3432
sg63
(lp3443
S':'
asbag56
(g77
g58
NtRp3444
(dp3445
g61
(dp3446
sg70
g3432
sg63
(lp3447
g56
(g57
g58
NtRp3448
(dp3449
g61
(dp3450
g69
I5
ssg70
g3444
sg63
(lp3451
S'<cStringIO.StringO object at 0x30177d8>'
p3452
asbasbasbag56
(g72
g58
NtRp3453
(dp3454
g61
(dp3455
sg70
g3428
sg63
(lp3456
g56
(g77
g58
NtRp3457
(dp3458
g61
(dp3459
g81
g82
ssg70
g3453
sg63
(lp3460
g220
asbag56
(g77
g58
NtRp3461
(dp3462
g61
(dp3463
g88
g89
ssg70
g3453
sg63
(lp3464
S':'
asbag56
(g77
g58
NtRp3465
(dp3466
g61
(dp3467
sg70
g3453
sg63
(lp3468
g56
(g57
g58
NtRp3469
(dp3470
g61
(dp3471
g69
I5
ssg70
g3465
sg63
(lp3472
g56
(g65
g58
NtRp3473
(dp3474
g61
(dp3475
g69
I4
ssg70
Nsg63
(lp3476
g56
(g72
g58
NtRp3477
(dp3478
g61
(dp3479
sg70
g3473
sg63
(lp3480
g56
(g77
g58
NtRp3481
(dp3482
g61
(dp3483
g81
g82
ssg70
g3477
sg63
(lp3484
S'session_id_places'
p3485
asbag56
(g77
g58
NtRp3486
(dp3487
g61
(dp3488
g88
g89
ssg70
g3477
sg63
(lp3489
S':'
asbag56
(g77
g58
NtRp3490
(dp3491
g61
(dp3492
sg70
g3477
sg63
(lp3493
g56
(g57
g58
NtRp3494
(dp3495
g61
(dp3496
g69
I4
ssg70
g3490
sg63
(lp3497
g56
(g65
g58
NtRp3498
(dp3499
g61
(dp3500
g69
I3
ssg70
Nsg63
(lp3501
g56
(g72
g58
NtRp3502
(dp3503
g61
(dp3504
sg70
g3498
sg63
(lp3505
g56
(g77
g58
NtRp3506
(dp3507
g61
(dp3508
g81
g82
ssg70
g3502
sg63
(lp3509
g270
asbag56
(g77
g58
NtRp3510
(dp3511
g61
(dp3512
g88
g89
ssg70
g3502
sg63
(lp3513
S':'
asbag56
(g77
g58
NtRp3514
(dp3515
g61
(dp3516
sg70
g3502
sg63
(lp3517
g56
(g57
g58
NtRp3518
(dp3519
g61
(dp3520
g69
I3
ssg70
g3514
sg63
(lp3521
S''
asbasbasbag56
(g72
g58
NtRp3522
(dp3523
g61
(dp3524
sg70
g3498
sg63
(lp3525
g56
(g77
g58
NtRp3526
(dp3527
g61
(dp3528
g81
g82
ssg70
g3522
sg63
(lp3529
g291
asbag56
(g77
g58
NtRp3530
(dp3531
g61
(dp3532
g88
g89
ssg70
g3522
sg63
(lp3533
S':'
asbag56
(g77
g58
NtRp3534
(dp3535
g61
(dp3536
sg70
g3522
sg63
(lp3537
g56
(g57
g58
NtRp3538
(dp3539
g61
(dp3540
g69
I3
ssg70
g3534
sg63
(lp3541
S''
asbasbasbag56
(g72
g58
NtRp3542
(dp3543
g61
(dp3544
sg70
g3498
sg63
(lp3545
g56
(g77
g58
NtRp3546
(dp3547
g61
(dp3548
g81
g82
ssg70
g3542
sg63
(lp3549
g312
asbag56
(g77
g58
NtRp3550
(dp3551
g61
(dp3552
g88
g89
ssg70
g3542
sg63
(lp3553
S':'
asbag56
(g77
g58
NtRp3554
(dp3555
g61
(dp3556
sg70
g3542
sg63
(lp3557
g56
(g57
g58
NtRp3558
(dp3559
g61
(dp3560
g69
I3
ssg70
g3554
sg63
(lp3561
S''
asbasbasbag56
(g72
g58
NtRp3562
(dp3563
g61
(dp3564
sg70
g3498
sg63
(lp3565
g56
(g77
g58
NtRp3566
(dp3567
g61
(dp3568
g81
g82
ssg70
g3562
sg63
(lp3569
g333
asbag56
(g77
g58
NtRp3570
(dp3571
g61
(dp3572
g88
g89
ssg70
g3562
sg63
(lp3573
S':'
asbag56
(g77
g58
NtRp3574
(dp3575
g61
(dp3576
sg70
g3562
sg63
(lp3577
g56
(g57
g58
NtRp3578
(dp3579
g61
(dp3580
g69
I3
ssg70
g3574
sg63
(lp3581
S''
asbasbasbag56
(g72
g58
NtRp3582
(dp3583
g61
(dp3584
sg70
g3498
sg63
(lp3585
g56
(g77
g58
NtRp3586
(dp3587
g61
(dp3588
g81
g82
ssg70
g3582
sg63
(lp3589
g354
asbag56
(g77
g58
NtRp3590
(dp3591
g61
(dp3592
g88
g89
ssg70
g3582
sg63
(lp3593
S':'
asbag56
(g77
g58
NtRp3594
(dp3595
g61
(dp3596
sg70
g3582
sg63
(lp3597
g56
(g57
g58
NtRp3598
(dp3599
g61
(dp3600
g69
I3
ssg70
g3594
sg63
(lp3601
S''
asbasbasbag56
(g72
g58
NtRp3602
(dp3603
g61
(dp3604
sg70
g3498
sg63
(lp3605
g56
(g77
g58
NtRp3606
(dp3607
g61
(dp3608
g81
g82
ssg70
g3602
sg63
(lp3609
g375
asbag56
(g77
g58
NtRp3610
(dp3611
g61
(dp3612
g88
g89
ssg70
g3602
sg63
(lp3613
S':'
asbag56
(g77
g58
NtRp3614
(dp3615
g61
(dp3616
sg70
g3602
sg63
(lp3617
g56
(g57
g58
NtRp3618
(dp3619
g61
(dp3620
g69
I3
ssg70
g3614
sg63
(lp3621
S'/'
asbasbasbag56
(g72
g58
NtRp3622
(dp3623
g61
(dp3624
sg70
g3498
sg63
(lp3625
g56
(g77
g58
NtRp3626
(dp3627
g61
(dp3628
g81
g82
ssg70
g3622
sg63
(lp3629
g396
asbag56
(g77
g58
NtRp3630
(dp3631
g61
(dp3632
g88
g89
ssg70
g3622
sg63
(lp3633
S':'
asbag56
(g77
g58
NtRp3634
(dp3635
g61
(dp3636
sg70
g3622
sg63
(lp3637
g56
(g57
g58
NtRp3638
(dp3639
g61
(dp3640
g69
I3
ssg70
g3634
sg63
(lp3641
S''
asbasbasbag56
(g72
g58
NtRp3642
(dp3643
g61
(dp3644
sg70
g3498
sg63
(lp3645
g56
(g77
g58
NtRp3646
(dp3647
g61
(dp3648
g81
g82
ssg70
g3642
sg63
(lp3649
g417
asbag56
(g77
g58
NtRp3650
(dp3651
g61
(dp3652
g88
g89
ssg70
g3642
sg63
(lp3653
S':'
asbag56
(g77
g58
NtRp3654
(dp3655
g61
(dp3656
sg70
g3642
sg63
(lp3657
g56
(g57
g58
NtRp3658
(dp3659
g61
(dp3660
g69
I3
ssg70
g3654
sg63
(lp3661
S''
asbasbasbasbasbasbasbasbasbasbasbag56
(g72
g58
NtRp3662
(dp3663
g61
(dp3664
sg70
g3428
sg63
(lp3665
g56
(g77
g58
NtRp3666
(dp3667
g61
(dp3668
g81
g82
ssg70
g3662
sg63
(lp3669
S'files'
p3670
asbag56
(g77
g58
NtRp3671
(dp3672
g61
(dp3673
g88
g89
ssg70
g3662
sg63
(lp3674
S':'
asbag56
(g77
g58
NtRp3675
(dp3676
g61
(dp3677
sg70
g3662
sg63
(lp3678
g56
(g57
g58
NtRp3679
(dp3680
g61
(dp3681
g69
I5
ssg70
g3675
sg63
(lp3682
g56
(g65
g58
NtRp3683
(dp3684
g61
(dp3685
g69
I4
ssg70
Nsg63
(lp3686
sbasbasbasbag56
(g72
g58
NtRp3687
(dp3688
g61
(dp3689
sg70
g3428
sg63
(lp3690
g56
(g77
g58
NtRp3691
(dp3692
g61
(dp3693
g81
g82
ssg70
g3687
sg63
(lp3694
S'flash'
p3695
asbag56
(g77
g58
NtRp3696
(dp3697
g61
(dp3698
g88
g89
ssg70
g3687
sg63
(lp3699
S':'
asbag56
(g77
g58
NtRp3700
(dp3701
g61
(dp3702
sg70
g3687
sg63
(lp3703
g56
(g57
g58
NtRp3704
(dp3705
g61
(dp3706
g69
I5
ssg70
g3700
sg63
(lp3707
S''
asbasbasbag56
(g72
g58
NtRp3708
(dp3709
g61
(dp3710
sg70
g3428
sg63
(lp3711
g56
(g77
g58
NtRp3712
(dp3713
g61
(dp3714
g81
g82
ssg70
g3708
sg63
(lp3715
S'generic_patterns'
p3716
asbag56
(g77
g58
NtRp3717
(dp3718
g61
(dp3719
g88
g89
ssg70
g3708
sg63
(lp3720
S':'
asbag56
(g77
g58
NtRp3721
(dp3722
g61
(dp3723
sg70
g3708
sg63
(lp3724
g56
(g57
g58
NtRp3725
(dp3726
g61
(dp3727
g69
I5
ssg70
g3721
sg63
(lp3728
g56
(g65
g58
NtRp3729
(dp3730
g61
(dp3731
g69
I4
ssg70
Nsg63
(lp3732
g56
(g72
g58
NtRp3733
(dp3734
g61
(dp3735
sg70
g3729
sg63
(lp3736
g56
(g77
g58
NtRp3737
(dp3738
g61
(dp3739
sg70
g3733
sg63
(lp3740
g56
(g57
g58
NtRp3741
(dp3742
g61
(dp3743
g69
I4
ssg70
g3737
sg63
(lp3744
S'*'
asbasbasbasbasbasbasbag56
(g72
g58
NtRp3745
(dp3746
g61
(dp3747
sg70
g3428
sg63
(lp3748
g56
(g77
g58
NtRp3749
(dp3750
g61
(dp3751
g81
g82
ssg70
g3745
sg63
(lp3752
S'headers'
p3753
asbag56
(g77
g58
NtRp3754
(dp3755
g61
(dp3756
g88
g89
ssg70
g3745
sg63
(lp3757
S':'
asbag56
(g77
g58
NtRp3758
(dp3759
g61
(dp3760
sg70
g3745
sg63
(lp3761
g56
(g57
g58
NtRp3762
(dp3763
g61
(dp3764
g69
I5
ssg70
g3758
sg63
(lp3765
g56
(g65
g58
NtRp3766
(dp3767
g61
(dp3768
g69
I4
ssg70
Nsg63
(lp3769
g56
(g72
g58
NtRp3770
(dp3771
g61
(dp3772
sg70
g3766
sg63
(lp3773
g56
(g77
g58
NtRp3774
(dp3775
g61
(dp3776
g81
g82
ssg70
g3770
sg63
(lp3777
S'Cache-Control'
p3778
asbag56
(g77
g58
NtRp3779
(dp3780
g61
(dp3781
g88
g89
ssg70
g3770
sg63
(lp3782
S':'
asbag56
(g77
g58
NtRp3783
(dp3784
g61
(dp3785
sg70
g3770
sg63
(lp3786
g56
(g57
g58
NtRp3787
(dp3788
g61
(dp3789
g69
I4
ssg70
g3783
sg63
(lp3790
S'no-store, no-cache, must-revalidate, post-check=0, pre-check=0'
p3791
asbasbasbag56
(g72
g58
NtRp3792
(dp3793
g61
(dp3794
sg70
g3766
sg63
(lp3795
g56
(g77
g58
NtRp3796
(dp3797
g61
(dp3798
g81
g82
ssg70
g3792
sg63
(lp3799
S'Content-Type'
p3800
asbag56
(g77
g58
NtRp3801
(dp3802
g61
(dp3803
g88
g89
ssg70
g3792
sg63
(lp3804
S':'
asbag56
(g77
g58
NtRp3805
(dp3806
g61
(dp3807
sg70
g3792
sg63
(lp3808
g56
(g57
g58
NtRp3809
(dp3810
g61
(dp3811
g69
I4
ssg70
g3805
sg63
(lp3812
S'text/html; charset=utf-8'
p3813
asbasbasbag56
(g72
g58
NtRp3814
(dp3815
g61
(dp3816
sg70
g3766
sg63
(lp3817
g56
(g77
g58
NtRp3818
(dp3819
g61
(dp3820
g81
g82
ssg70
g3814
sg63
(lp3821
S'Expires'
p3822
asbag56
(g77
g58
NtRp3823
(dp3824
g61
(dp3825
g88
g89
ssg70
g3814
sg63
(lp3826
S':'
asbag56
(g77
g58
NtRp3827
(dp3828
g61
(dp3829
sg70
g3814
sg63
(lp3830
g56
(g57
g58
NtRp3831
(dp3832
g61
(dp3833
g69
I4
ssg70
g3827
sg63
(lp3834
S'Fri, 30 Sep 2011 19:53:15 GMT'
p3835
asbasbasbag56
(g72
g58
NtRp3836
(dp3837
g61
(dp3838
sg70
g3766
sg63
(lp3839
g56
(g77
g58
NtRp3840
(dp3841
g61
(dp3842
g81
g82
ssg70
g3836
sg63
(lp3843
S'Pragma'
p3844
asbag56
(g77
g58
NtRp3845
(dp3846
g61
(dp3847
g88
g89
ssg70
g3836
sg63
(lp3848
S':'
asbag56
(g77
g58
NtRp3849
(dp3850
g61
(dp3851
sg70
g3836
sg63
(lp3852
g56
(g57
g58
NtRp3853
(dp3854
g61
(dp3855
g69
I4
ssg70
g3849
sg63
(lp3856
S'no-cache'
p3857
asbasbasbag56
(g72
g58
NtRp3858
(dp3859
g61
(dp3860
sg70
g3766
sg63
(lp3861
g56
(g77
g58
NtRp3862
(dp3863
g61
(dp3864
g81
g82
ssg70
g3858
sg63
(lp3865
S'X-Powered-By'
p3866
asbag56
(g77
g58
NtRp3867
(dp3868
g61
(dp3869
g88
g89
ssg70
g3858
sg63
(lp3870
S':'
asbag56
(g77
g58
NtRp3871
(dp3872
g61
(dp3873
sg70
g3858
sg63
(lp3874
g56
(g57
g58
NtRp3875
(dp3876
g61
(dp3877
g69
I4
ssg70
g3871
sg63
(lp3878
S'web2py'
p3879
asbasbasbasbasbasbasbag56
(g72
g58
NtRp3880
(dp3881
g61
(dp3882
sg70
g3428
sg63
(lp3883
g56
(g77
g58
NtRp3884
(dp3885
g61
(dp3886
g81
g82
ssg70
g3880
sg63
(lp3887
S'menu'
p3888
asbag56
(g77
g58
NtRp3889
(dp3890
g61
(dp3891
g88
g89
ssg70
g3880
sg63
(lp3892
S':'
asbag56
(g77
g58
NtRp3893
(dp3894
g61
(dp3895
sg70
g3880
sg63
(lp3896
g56
(g57
g58
NtRp3897
(dp3898
g61
(dp3899
g69
I5
ssg70
g3893
sg63
(lp3900
g56
(g65
g58
NtRp3901
(dp3902
g61
(dp3903
g69
I4
ssg70
Nsg63
(lp3904
g56
(g72
g58
NtRp3905
(dp3906
g61
(dp3907
sg70
g3901
sg63
(lp3908
g56
(g77
g58
NtRp3909
(dp3910
g61
(dp3911
sg70
g3905
sg63
(lp3912
g56
(g57
g58
NtRp3913
(dp3914
g61
(dp3915
g69
I4
ssg70
g3909
sg63
(lp3916
g56
(g65
g58
NtRp3917
(dp3918
g61
(dp3919
g69
I3
ssg70
Nsg63
(lp3920
g56
(g72
g58
NtRp3921
(dp3922
g61
(dp3923
sg70
g3917
sg63
(lp3924
g56
(g77
g58
NtRp3925
(dp3926
g61
(dp3927
sg70
g3921
sg63
(lp3928
g56
(g57
g58
NtRp3929
(dp3930
g61
(dp3931
g69
I3
ssg70
g3925
sg63
(lp3932
cgluon.languages
lazyT_unpickle
p3933
(S't\x04\x00\x00\x00Home'
tRp3934
asbasbasbag56
(g72
g58
NtRp3935
(dp3936
g61
(dp3937
sg70
g3917
sg63
(lp3938
g56
(g77
g58
NtRp3939
(dp3940
g61
(dp3941
sg70
g3935
sg63
(lp3942
g56
(g57
g58
NtRp3943
(dp3944
g61
(dp3945
g69
I3
ssg70
g3939
sg63
(lp3946
g99
asbasbasbag56
(g72
g58
NtRp3947
(dp3948
g61
(dp3949
sg70
g3917
sg63
(lp3950
g56
(g77
g58
NtRp3951
(dp3952
g61
(dp3953
sg70
g3947
sg63
(lp3954
g56
(g57
g58
NtRp3955
(dp3956
g61
(dp3957
g69
I3
ssg70
g3951
sg63
(lp3958
S'/places/default/index'
p3959
asbasbasbag56
(g72
g58
NtRp3960
(dp3961
g61
(dp3962
sg70
g3917
sg63
(lp3963
g56
(g77
g58
NtRp3964
(dp3965
g61
(dp3966
sg70
g3960
sg63
(lp3967
g56
(g57
g58
NtRp3968
(dp3969
g61
(dp3970
g69
I3
ssg70
g3964
sg63
(lp3971
g56
(g65
g58
NtRp3972
(dp3973
g61
(dp3974
g69
I2
ssg70
Nsg63
(lp3975
sbasbasbasbasbasbasbasbag56
(g72
g58
NtRp3976
(dp3977
g61
(dp3978
sg70
g3901
sg63
(lp3979
g56
(g77
g58
NtRp3980
(dp3981
g61
(dp3982
sg70
g3976
sg63
(lp3983
g56
(g57
g58
NtRp3984
(dp3985
g61
(dp3986
g69
I4
ssg70
g3980
sg63
(lp3987
g56
(g65
g58
NtRp3988
(dp3989
g61
(dp3990
g69
I3
ssg70
Nsg63
(lp3991
g56
(g72
g58
NtRp3992
(dp3993
g61
(dp3994
sg70
g3988
sg63
(lp3995
g56
(g77
g58
NtRp3996
(dp3997
g61
(dp3998
sg70
g3992
sg63
(lp3999
g56
(g57
g58
NtRp4000
(dp4001
g61
(dp4002
g69
I3
ssg70
g3996
sg63
(lp4003
g3933
(S's\x08\x00\x00\x00This App'
tRp4004
asbasbasbag56
(g72
g58
NtRp4005
(dp4006
g61
(dp4007
sg70
g3988
sg63
(lp4008
g56
(g77
g58
NtRp4009
(dp4010
g61
(dp4011
sg70
g4005
sg63
(lp4012
g56
(g57
g58
NtRp4013
(dp4014
g61
(dp4015
g69
I3
ssg70
g4009
sg63
(lp4016
g99
asbasbasbag56
(g72
g58
NtRp4017
(dp4018
g61
(dp4019
sg70
g3988
sg63
(lp4020
g56
(g77
g58
NtRp4021
(dp4022
g61
(dp4023
sg70
g4017
sg63
(lp4024
g56
(g57
g58
NtRp4025
(dp4026
g61
(dp4027
g69
I3
ssg70
g4021
sg63
(lp4028
S'/admin/default/design/places'
p4029
asbasbasbag56
(g72
g58
NtRp4030
(dp4031
g61
(dp4032
sg70
g3988
sg63
(lp4033
g56
(g77
g58
NtRp4034
(dp4035
g61
(dp4036
sg70
g4030
sg63
(lp4037
g56
(g57
g58
NtRp4038
(dp4039
g61
(dp4040
g69
I3
ssg70
g4034
sg63
(lp4041
g56
(g65
g58
NtRp4042
(dp4043
g61
(dp4044
g69
I2
ssg70
Nsg63
(lp4045
g56
(g72
g58
NtRp4046
(dp4047
g61
(dp4048
sg70
g4042
sg63
(lp4049
g56
(g77
g58
NtRp4050
(dp4051
g61
(dp4052
sg70
g4046
sg63
(lp4053
g56
(g57
g58
NtRp4054
(dp4055
g61
(dp4056
g69
I2
ssg70
g4050
sg63
(lp4057
g56
(g65
g58
NtRp4058
(dp4059
g61
(dp4060
g69
I1
ssg70
Nsg63
(lp4061
g56
(g72
g58
NtRp4062
(dp4063
g61
(dp4064
sg70
g4058
sg63
(lp4065
g56
(g77
g58
NtRp4066
(dp4067
g61
(dp4068
sg70
g4062
sg63
(lp4069
g56
(g57
g58
NtRp4070
(dp4071
g61
(dp4072
g69
I1
ssg70
g4066
sg63
(lp4073
g3933
(S't\n\x00\x00\x00Controller'
tRp4074
asbasbasbag56
(g72
g58
NtRp4075
(dp4076
g61
(dp4077
sg70
g4058
sg63
(lp4078
g56
(g77
g58
NtRp4079
(dp4080
g61
(dp4081
sg70
g4075
sg63
(lp4082
g56
(g57
g58
NtRp4083
(dp4084
g61
(dp4085
g69
I1
ssg70
g4079
sg63
(lp4086
I00
asbasbasbag56
(g72
g58
NtRp4087
(dp4088
g61
(dp4089
sg70
g4058
sg63
(lp4090
g56
(g77
g58
NtRp4091
(dp4092
g61
(dp4093
sg70
g4087
sg63
(lp4094
g56
(g57
g58
NtRp4095
(dp4096
g61
(dp4097
g69
I1
ssg70
g4091
sg63
(lp4098
S'/admin/default/edit/places/controllers/default.py'
p4099
asbasbasbasbasbasbasbag56
(g72
g58
NtRp4100
(dp4101
g61
(dp4102
sg70
g4042
sg63
(lp4103
g56
(g77
g58
NtRp4104
(dp4105
g61
(dp4106
sg70
g4100
sg63
(lp4107
g56
(g57
g58
NtRp4108
(dp4109
g61
(dp4110
g69
I2
ssg70
g4104
sg63
(lp4111
g56
(g65
g58
NtRp4112
(dp4113
g61
(dp4114
g69
I1
ssg70
Nsg63
(lp4115
g56
(g72
g58
NtRp4116
(dp4117
g61
(dp4118
sg70
g4112
sg63
(lp4119
g56
(g77
g58
NtRp4120
(dp4121
g61
(dp4122
sg70
g4116
sg63
(lp4123
g56
(g57
g58
NtRp4124
(dp4125
g61
(dp4126
g69
I1
ssg70
g4120
sg63
(lp4127
g3933
(S't\x04\x00\x00\x00View'
tRp4128
asbasbasbag56
(g72
g58
NtRp4129
(dp4130
g61
(dp4131
sg70
g4112
sg63
(lp4132
g56
(g77
g58
NtRp4133
(dp4134
g61
(dp4135
sg70
g4129
sg63
(lp4136
g56
(g57
g58
NtRp4137
(dp4138
g61
(dp4139
g69
I1
ssg70
g4133
sg63
(lp4140
I00
asbasbasbag56
(g72
g58
NtRp4141
(dp4142
g61
(dp4143
sg70
g4112
sg63
(lp4144
g56
(g77
g58
NtRp4145
(dp4146
g61
(dp4147
sg70
g4141
sg63
(lp4148
g56
(g57
g58
NtRp4149
(dp4150
g61
(dp4151
g69
I1
ssg70
g4145
sg63
(lp4152
S'/admin/default/edit/places/views/default/index.html'
p4153
asbasbasbasbasbasbasbag56
(g72
g58
NtRp4154
(dp4155
g61
(dp4156
sg70
g4042
sg63
(lp4157
g56
(g77
g58
NtRp4158
(dp4159
g61
(dp4160
sg70
g4154
sg63
(lp4161
g56
(g57
g58
NtRp4162
(dp4163
g61
(dp4164
g69
I2
ssg70
g4158
sg63
(lp4165
g56
(g65
g58
NtRp4166
(dp4167
g61
(dp4168
g69
I1
ssg70
Nsg63
(lp4169
g56
(g72
g58
NtRp4170
(dp4171
g61
(dp4172
sg70
g4166
sg63
(lp4173
g56
(g77
g58
NtRp4174
(dp4175
g61
(dp4176
sg70
g4170
sg63
(lp4177
g56
(g57
g58
NtRp4178
(dp4179
g61
(dp4180
g69
I1
ssg70
g4174
sg63
(lp4181
g3933
(S't\x06\x00\x00\x00Layout'
tRp4182
asbasbasbag56
(g72
g58
NtRp4183
(dp4184
g61
(dp4185
sg70
g4166
sg63
(lp4186
g56
(g77
g58
NtRp4187
(dp4188
g61
(dp4189
sg70
g4183
sg63
(lp4190
g56
(g57
g58
NtRp4191
(dp4192
g61
(dp4193
g69
I1
ssg70
g4187
sg63
(lp4194
I00
asbasbasbag56
(g72
g58
NtRp4195
(dp4196
g61
(dp4197
sg70
g4166
sg63
(lp4198
g56
(g77
g58
NtRp4199
(dp4200
g61
(dp4201
sg70
g4195
sg63
(lp4202
g56
(g57
g58
NtRp4203
(dp4204
g61
(dp4205
g69
I1
ssg70
g4199
sg63
(lp4206
S'/admin/default/edit/places/views/layout.html'
p4207
asbasbasbasbasbasbasbag56
(g72
g58
NtRp4208
(dp4209
g61
(dp4210
sg70
g4042
sg63
(lp4211
g56
(g77
g58
NtRp4212
(dp4213
g61
(dp4214
sg70
g4208
sg63
(lp4215
g56
(g57
g58
NtRp4216
(dp4217
g61
(dp4218
g69
I2
ssg70
g4212
sg63
(lp4219
g56
(g65
g58
NtRp4220
(dp4221
g61
(dp4222
g69
I1
ssg70
Nsg63
(lp4223
g56
(g72
g58
NtRp4224
(dp4225
g61
(dp4226
sg70
g4220
sg63
(lp4227
g56
(g77
g58
NtRp4228
(dp4229
g61
(dp4230
sg70
g4224
sg63
(lp4231
g56
(g57
g58
NtRp4232
(dp4233
g61
(dp4234
g69
I1
ssg70
g4228
sg63
(lp4235
g3933
(S't\n\x00\x00\x00Stylesheet'
tRp4236
asbasbasbag56
(g72
g58
NtRp4237
(dp4238
g61
(dp4239
sg70
g4220
sg63
(lp4240
g56
(g77
g58
NtRp4241
(dp4242
g61
(dp4243
sg70
g4237
sg63
(lp4244
g56
(g57
g58
NtRp4245
(dp4246
g61
(dp4247
g69
I1
ssg70
g4241
sg63
(lp4248
I00
asbasbasbag56
(g72
g58
NtRp4249
(dp4250
g61
(dp4251
sg70
g4220
sg63
(lp4252
g56
(g77
g58
NtRp4253
(dp4254
g61
(dp4255
sg70
g4249
sg63
(lp4256
g56
(g57
g58
NtRp4257
(dp4258
g61
(dp4259
g69
I1
ssg70
g4253
sg63
(lp4260
S'/admin/default/edit/places/static/base.css'
p4261
asbasbasbasbasbasbasbag56
(g72
g58
NtRp4262
(dp4263
g61
(dp4264
sg70
g4042
sg63
(lp4265
g56
(g77
g58
NtRp4266
(dp4267
g61
(dp4268
sg70
g4262
sg63
(lp4269
g56
(g57
g58
NtRp4270
(dp4271
g61
(dp4272
g69
I2
ssg70
g4266
sg63
(lp4273
g56
(g65
g58
NtRp4274
(dp4275
g61
(dp4276
g69
I1
ssg70
Nsg63
(lp4277
g56
(g72
g58
NtRp4278
(dp4279
g61
(dp4280
sg70
g4274
sg63
(lp4281
g56
(g77
g58
NtRp4282
(dp4283
g61
(dp4284
sg70
g4278
sg63
(lp4285
g56
(g57
g58
NtRp4286
(dp4287
g61
(dp4288
g69
I1
ssg70
g4282
sg63
(lp4289
g3933
(S's\x08\x00\x00\x00DB Model'
tRp4290
asbasbasbag56
(g72
g58
NtRp4291
(dp4292
g61
(dp4293
sg70
g4274
sg63
(lp4294
g56
(g77
g58
NtRp4295
(dp4296
g61
(dp4297
sg70
g4291
sg63
(lp4298
g56
(g57
g58
NtRp4299
(dp4300
g61
(dp4301
g69
I1
ssg70
g4295
sg63
(lp4302
I00
asbasbasbag56
(g72
g58
NtRp4303
(dp4304
g61
(dp4305
sg70
g4274
sg63
(lp4306
g56
(g77
g58
NtRp4307
(dp4308
g61
(dp4309
sg70
g4303
sg63
(lp4310
g56
(g57
g58
NtRp4311
(dp4312
g61
(dp4313
g69
I1
ssg70
g4307
sg63
(lp4314
S'/admin/default/edit/places/models/db.py'
p4315
asbasbasbasbasbasbasbag56
(g72
g58
NtRp4316
(dp4317
g61
(dp4318
sg70
g4042
sg63
(lp4319
g56
(g77
g58
NtRp4320
(dp4321
g61
(dp4322
sg70
g4316
sg63
(lp4323
g56
(g57
g58
NtRp4324
(dp4325
g61
(dp4326
g69
I2
ssg70
g4320
sg63
(lp4327
g56
(g65
g58
NtRp4328
(dp4329
g61
(dp4330
g69
I1
ssg70
Nsg63
(lp4331
g56
(g72
g58
NtRp4332
(dp4333
g61
(dp4334
sg70
g4328
sg63
(lp4335
g56
(g77
g58
NtRp4336
(dp4337
g61
(dp4338
sg70
g4332
sg63
(lp4339
g56
(g57
g58
NtRp4340
(dp4341
g61
(dp4342
g69
I1
ssg70
g4336
sg63
(lp4343
g3933
(S's\n\x00\x00\x00Menu Model'
tRp4344
asbasbasbag56
(g72
g58
NtRp4345
(dp4346
g61
(dp4347
sg70
g4328
sg63
(lp4348
g56
(g77
g58
NtRp4349
(dp4350
g61
(dp4351
sg70
g4345
sg63
(lp4352
g56
(g57
g58
NtRp4353
(dp4354
g61
(dp4355
g69
I1
ssg70
g4349
sg63
(lp4356
I00
asbasbasbag56
(g72
g58
NtRp4357
(dp4358
g61
(dp4359
sg70
g4328
sg63
(lp4360
g56
(g77
g58
NtRp4361
(dp4362
g61
(dp4363
sg70
g4357
sg63
(lp4364
g56
(g57
g58
NtRp4365
(dp4366
g61
(dp4367
g69
I1
ssg70
g4361
sg63
(lp4368
S'/admin/default/edit/places/models/menu.py'
p4369
asbasbasbasbasbasbasbag56
(g72
g58
NtRp4370
(dp4371
g61
(dp4372
sg70
g4042
sg63
(lp4373
g56
(g77
g58
NtRp4374
(dp4375
g61
(dp4376
sg70
g4370
sg63
(lp4377
g56
(g57
g58
NtRp4378
(dp4379
g61
(dp4380
g69
I2
ssg70
g4374
sg63
(lp4381
g56
(g65
g58
NtRp4382
(dp4383
g61
(dp4384
g69
I1
ssg70
Nsg63
(lp4385
g56
(g72
g58
NtRp4386
(dp4387
g61
(dp4388
sg70
g4382
sg63
(lp4389
g56
(g77
g58
NtRp4390
(dp4391
g61
(dp4392
sg70
g4386
sg63
(lp4393
g56
(g57
g58
NtRp4394
(dp4395
g61
(dp4396
g69
I1
ssg70
g4390
sg63
(lp4397
g3933
(S't\x08\x00\x00\x00Database'
tRp4398
asbasbasbag56
(g72
g58
NtRp4399
(dp4400
g61
(dp4401
sg70
g4382
sg63
(lp4402
g56
(g77
g58
NtRp4403
(dp4404
g61
(dp4405
sg70
g4399
sg63
(lp4406
g56
(g57
g58
NtRp4407
(dp4408
g61
(dp4409
g69
I1
ssg70
g4403
sg63
(lp4410
I00
asbasbasbag56
(g72
g58
NtRp4411
(dp4412
g61
(dp4413
sg70
g4382
sg63
(lp4414
g56
(g77
g58
NtRp4415
(dp4416
g61
(dp4417
sg70
g4411
sg63
(lp4418
g56
(g57
g58
NtRp4419
(dp4420
g61
(dp4421
g69
I1
ssg70
g4415
sg63
(lp4422
S'/places/appadmin/index'
p4423
asbasbasbasbasbasbasbag56
(g72
g58
NtRp4424
(dp4425
g61
(dp4426
sg70
g4042
sg63
(lp4427
g56
(g77
g58
NtRp4428
(dp4429
g61
(dp4430
sg70
g4424
sg63
(lp4431
g56
(g57
g58
NtRp4432
(dp4433
g61
(dp4434
g69
I2
ssg70
g4428
sg63
(lp4435
g56
(g65
g58
NtRp4436
(dp4437
g61
(dp4438
g69
I1
ssg70
Nsg63
(lp4439
g56
(g72
g58
NtRp4440
(dp4441
g61
(dp4442
sg70
g4436
sg63
(lp4443
g56
(g77
g58
NtRp4444
(dp4445
g61
(dp4446
sg70
g4440
sg63
(lp4447
g56
(g57
g58
NtRp4448
(dp4449
g61
(dp4450
g69
I1
ssg70
g4444
sg63
(lp4451
g3933
(S't\x06\x00\x00\x00Errors'
tRp4452
asbasbasbag56
(g72
g58
NtRp4453
(dp4454
g61
(dp4455
sg70
g4436
sg63
(lp4456
g56
(g77
g58
NtRp4457
(dp4458
g61
(dp4459
sg70
g4453
sg63
(lp4460
g56
(g57
g58
NtRp4461
(dp4462
g61
(dp4463
g69
I1
ssg70
g4457
sg63
(lp4464
I00
asbasbasbag56
(g72
g58
NtRp4465
(dp4466
g61
(dp4467
sg70
g4436
sg63
(lp4468
g56
(g77
g58
NtRp4469
(dp4470
g61
(dp4471
sg70
g4465
sg63
(lp4472
g56
(g57
g58
NtRp4473
(dp4474
g61
(dp4475
g69
I1
ssg70
g4469
sg63
(lp4476
S'/admin/default/errors/places'
p4477
asbasbasbasbasbasbasbag56
(g72
g58
NtRp4478
(dp4479
g61
(dp4480
sg70
g4042
sg63
(lp4481
g56
(g77
g58
NtRp4482
(dp4483
g61
(dp4484
sg70
g4478
sg63
(lp4485
g56
(g57
g58
NtRp4486
(dp4487
g61
(dp4488
g69
I2
ssg70
g4482
sg63
(lp4489
g56
(g65
g58
NtRp4490
(dp4491
g61
(dp4492
g69
I1
ssg70
Nsg63
(lp4493
g56
(g72
g58
NtRp4494
(dp4495
g61
(dp4496
sg70
g4490
sg63
(lp4497
g56
(g77
g58
NtRp4498
(dp4499
g61
(dp4500
sg70
g4494
sg63
(lp4501
g56
(g57
g58
NtRp4502
(dp4503
g61
(dp4504
g69
I1
ssg70
g4498
sg63
(lp4505
g3933
(S't\x05\x00\x00\x00About'
tRp4506
asbasbasbag56
(g72
g58
NtRp4507
(dp4508
g61
(dp4509
sg70
g4490
sg63
(lp4510
g56
(g77
g58
NtRp4511
(dp4512
g61
(dp4513
sg70
g4507
sg63
(lp4514
g56
(g57
g58
NtRp4515
(dp4516
g61
(dp4517
g69
I1
ssg70
g4511
sg63
(lp4518
I00
asbasbasbag56
(g72
g58
NtRp4519
(dp4520
g61
(dp4521
sg70
g4490
sg63
(lp4522
g56
(g77
g58
NtRp4523
(dp4524
g61
(dp4525
sg70
g4519
sg63
(lp4526
g56
(g57
g58
NtRp4527
(dp4528
g61
(dp4529
g69
I1
ssg70
g4523
sg63
(lp4530
S'/admin/default/about/places'
p4531
asbasbasbasbasbasbasbasbasbasbasbasbasbasbasbag56
(g72
g58
NtRp4532
(dp4533
g61
(dp4534
sg70
g3901
sg63
(lp4535
g56
(g77
g58
NtRp4536
(dp4537
g61
(dp4538
sg70
g4532
sg63
(lp4539
g56
(g57
g58
NtRp4540
(dp4541
g61
(dp4542
g69
I4
ssg70
g4536
sg63
(lp4543
g56
(g65
g58
NtRp4544
(dp4545
g61
(dp4546
g69
I3
ssg70
Nsg63
(lp4547
g56
(g72
g58
NtRp4548
(dp4549
g61
(dp4550
sg70
g4544
sg63
(lp4551
g56
(g77
g58
NtRp4552
(dp4553
g61
(dp4554
sg70
g4548
sg63
(lp4555
g56
(g57
g58
NtRp4556
(dp4557
g61
(dp4558
g69
I3
ssg70
g4552
sg63
(lp4559
g3933
(S't\t\x00\x00\x00Resources'
tRp4560
asbasbasbag56
(g72
g58
NtRp4561
(dp4562
g61
(dp4563
sg70
g4544
sg63
(lp4564
g56
(g77
g58
NtRp4565
(dp4566
g61
(dp4567
sg70
g4561
sg63
(lp4568
g56
(g57
g58
NtRp4569
(dp4570
g61
(dp4571
g69
I3
ssg70
g4565
sg63
(lp4572
g99
asbasbasbag56
(g72
g58
NtRp4573
(dp4574
g61
(dp4575
sg70
g4544
sg63
(lp4576
g56
(g77
g58
NtRp4577
(dp4578
g61
(dp4579
sg70
g4573
sg63
(lp4580
g56
(g57
g58
NtRp4581
(dp4582
g61
(dp4583
g69
I3
ssg70
g4577
sg63
(lp4584
S'None'
p4585
asbasbasbag56
(g72
g58
NtRp4586
(dp4587
g61
(dp4588
sg70
g4544
sg63
(lp4589
g56
(g77
g58
NtRp4590
(dp4591
g61
(dp4592
sg70
g4586
sg63
(lp4593
g56
(g57
g58
NtRp4594
(dp4595
g61
(dp4596
g69
I3
ssg70
g4590
sg63
(lp4597
g56
(g65
g58
NtRp4598
(dp4599
g61
(dp4600
g69
I2
ssg70
Nsg63
(lp4601
g56
(g72
g58
NtRp4602
(dp4603
g61
(dp4604
sg70
g4598
sg63
(lp4605
g56
(g77
g58
NtRp4606
(dp4607
g61
(dp4608
sg70
g4602
sg63
(lp4609
g56
(g57
g58
NtRp4610
(dp4611
g61
(dp4612
g69
I2
ssg70
g4606
sg63
(lp4613
g56
(g65
g58
NtRp4614
(dp4615
g61
(dp4616
g69
I1
ssg70
Nsg63
(lp4617
g56
(g72
g58
NtRp4618
(dp4619
g61
(dp4620
sg70
g4614
sg63
(lp4621
g56
(g77
g58
NtRp4622
(dp4623
g61
(dp4624
sg70
g4618
sg63
(lp4625
g56
(g57
g58
NtRp4626
(dp4627
g61
(dp4628
g69
I1
ssg70
g4622
sg63
(lp4629
g3933
(S't\r\x00\x00\x00Documentation'
tRp4630
asbasbasbag56
(g72
g58
NtRp4631
(dp4632
g61
(dp4633
sg70
g4614
sg63
(lp4634
g56
(g77
g58
NtRp4635
(dp4636
g61
(dp4637
sg70
g4631
sg63
(lp4638
g56
(g57
g58
NtRp4639
(dp4640
g61
(dp4641
g69
I1
ssg70
g4635
sg63
(lp4642
I00
asbasbasbag56
(g72
g58
NtRp4643
(dp4644
g61
(dp4645
sg70
g4614
sg63
(lp4646
g56
(g77
g58
NtRp4647
(dp4648
g61
(dp4649
sg70
g4643
sg63
(lp4650
g56
(g57
g58
NtRp4651
(dp4652
g61
(dp4653
g69
I1
ssg70
g4647
sg63
(lp4654
S'http://www.web2py.com/book'
p4655
asbasbasbag56
(g72
g58
NtRp4656
(dp4657
g61
(dp4658
sg70
g4614
sg63
(lp4659
g56
(g77
g58
NtRp4660
(dp4661
g61
(dp4662
sg70
g4656
sg63
(lp4663
g56
(g57
g58
NtRp4664
(dp4665
g61
(dp4666
g69
I1
ssg70
g4660
sg63
(lp4667
(lp4668
(g3933
(S't\x07\x00\x00\x00Preface'
tRp4669
I00
S'http://www.web2py.com/book/default/chapter/00'
p4670
tp4671
a(g3933
(S't\x0c\x00\x00\x00Introduction'
tRp4672
I00
S'http://www.web2py.com/book/default/chapter/01'
p4673
tp4674
a(g3933
(S't\x06\x00\x00\x00Python'
tRp4675
I00
S'http://www.web2py.com/book/default/chapter/02'
p4676
tp4677
a(g3933
(S't\x08\x00\x00\x00Overview'
tRp4678
I00
S'http://www.web2py.com/book/default/chapter/03'
p4679
tp4680
a(g3933
(S's\x08\x00\x00\x00The Core'
tRp4681
I00
S'http://www.web2py.com/book/default/chapter/04'
p4682
tp4683
a(g3933
(S's\t\x00\x00\x00The Views'
tRp4684
I00
S'http://www.web2py.com/book/default/chapter/05'
p4685
tp4686
a(g3933
(S't\x08\x00\x00\x00Database'
tRp4687
I00
S'http://www.web2py.com/book/default/chapter/06'
p4688
tp4689
a(g3933
(S's\x14\x00\x00\x00Forms and Validators'
tRp4690
I00
S'http://www.web2py.com/book/default/chapter/07'
p4691
tp4692
a(g3933
(S's\x0e\x00\x00\x00Access Control'
tRp4693
I00
S'http://www.web2py.com/book/default/chapter/08'
p4694
tp4695
a(g3933
(S't\x08\x00\x00\x00Services'
tRp4696
I00
S'http://www.web2py.com/book/default/chapter/09'
p4697
tp4698
a(g3933
(S's\x0c\x00\x00\x00Ajax Recipes'
tRp4699
I00
S'http://www.web2py.com/book/default/chapter/10'
p4700
tp4701
a(g3933
(S's\x12\x00\x00\x00Deployment Recipes'
tRp4702
I00
S'http://www.web2py.com/book/default/chapter/11'
p4703
tp4704
a(g3933
(S's\r\x00\x00\x00Other Recipes'
tRp4705
I00
S'http://www.web2py.com/book/default/chapter/12'
p4706
tp4707
a(g3933
(S's\r\x00\x00\x00Buy this book'
tRp4708
I00
S'http://stores.lulu.com/web2py'
p4709
tp4710
aasbasbasbasbasbasbasbag56
(g72
g58
NtRp4711
(dp4712
g61
(dp4713
sg70
g4598
sg63
(lp4714
g56
(g77
g58
NtRp4715
(dp4716
g61
(dp4717
sg70
g4711
sg63
(lp4718
g56
(g57
g58
NtRp4719
(dp4720
g61
(dp4721
g69
I2
ssg70
g4715
sg63
(lp4722
g56
(g65
g58
NtRp4723
(dp4724
g61
(dp4725
g69
I1
ssg70
Nsg63
(lp4726
g56
(g72
g58
NtRp4727
(dp4728
g61
(dp4729
sg70
g4723
sg63
(lp4730
g56
(g77
g58
NtRp4731
(dp4732
g61
(dp4733
sg70
g4727
sg63
(lp4734
g56
(g57
g58
NtRp4735
(dp4736
g61
(dp4737
g69
I1
ssg70
g4731
sg63
(lp4738
g3933
(S't\t\x00\x00\x00Community'
tRp4739
asbasbasbag56
(g72
g58
NtRp4740
(dp4741
g61
(dp4742
sg70
g4723
sg63
(lp4743
g56
(g77
g58
NtRp4744
(dp4745
g61
(dp4746
sg70
g4740
sg63
(lp4747
g56
(g57
g58
NtRp4748
(dp4749
g61
(dp4750
g69
I1
ssg70
g4744
sg63
(lp4751
I00
asbasbasbag56
(g72
g58
NtRp4752
(dp4753
g61
(dp4754
sg70
g4723
sg63
(lp4755
g56
(g77
g58
NtRp4756
(dp4757
g61
(dp4758
sg70
g4752
sg63
(lp4759
g56
(g57
g58
NtRp4760
(dp4761
g61
(dp4762
g69
I1
ssg70
g4756
sg63
(lp4763
Nasbasbasbag56
(g72
g58
NtRp4764
(dp4765
g61
(dp4766
sg70
g4723
sg63
(lp4767
g56
(g77
g58
NtRp4768
(dp4769
g61
(dp4770
sg70
g4764
sg63
(lp4771
g56
(g57
g58
NtRp4772
(dp4773
g61
(dp4774
g69
I1
ssg70
g4768
sg63
(lp4775
(lp4776
(g3933
(S't\x06\x00\x00\x00Groups'
tRp4777
I00
S'http://www.web2py.com/examples/default/usergroups'
p4778
tp4779
a(g3933
(S't\x07\x00\x00\x00Twitter'
tRp4780
I00
S'http://twitter.com/web2py'
p4781
tp4782
a(g3933
(S's\t\x00\x00\x00Live chat'
tRp4783
I00
S'http://mibbit.com/?channel=%23web2py&server=irc.mibbit.net'
p4784
tp4785
a(g3933
(S's\n\x00\x00\x00User Voice'
tRp4786
I00
S'http://web2py.uservoice.com/'
p4787
tp4788
aasbasbasbasbasbasbasbag56
(g72
g58
NtRp4789
(dp4790
g61
(dp4791
sg70
g4598
sg63
(lp4792
g56
(g77
g58
NtRp4793
(dp4794
g61
(dp4795
sg70
g4789
sg63
(lp4796
g56
(g57
g58
NtRp4797
(dp4798
g61
(dp4799
g69
I2
ssg70
g4793
sg63
(lp4800
g56
(g65
g58
NtRp4801
(dp4802
g61
(dp4803
g69
I1
ssg70
Nsg63
(lp4804
g56
(g72
g58
NtRp4805
(dp4806
g61
(dp4807
sg70
g4801
sg63
(lp4808
g56
(g77
g58
NtRp4809
(dp4810
g61
(dp4811
sg70
g4805
sg63
(lp4812
g56
(g57
g58
NtRp4813
(dp4814
g61
(dp4815
g69
I1
ssg70
g4809
sg63
(lp4816
g3933
(S't\x06\x00\x00\x00Web2py'
tRp4817
asbasbasbag56
(g72
g58
NtRp4818
(dp4819
g61
(dp4820
sg70
g4801
sg63
(lp4821
g56
(g77
g58
NtRp4822
(dp4823
g61
(dp4824
sg70
g4818
sg63
(lp4825
g56
(g57
g58
NtRp4826
(dp4827
g61
(dp4828
g69
I1
ssg70
g4822
sg63
(lp4829
I00
asbasbasbag56
(g72
g58
NtRp4830
(dp4831
g61
(dp4832
sg70
g4801
sg63
(lp4833
g56
(g77
g58
NtRp4834
(dp4835
g61
(dp4836
sg70
g4830
sg63
(lp4837
g56
(g57
g58
NtRp4838
(dp4839
g61
(dp4840
g69
I1
ssg70
g4834
sg63
(lp4841
S'http://www.web2py.com'
p4842
asbasbasbag56
(g72
g58
NtRp4843
(dp4844
g61
(dp4845
sg70
g4801
sg63
(lp4846
g56
(g77
g58
NtRp4847
(dp4848
g61
(dp4849
sg70
g4843
sg63
(lp4850
g56
(g57
g58
NtRp4851
(dp4852
g61
(dp4853
g69
I1
ssg70
g4847
sg63
(lp4854
(lp4855
(g3933
(S't\x08\x00\x00\x00Download'
tRp4856
I00
S'http://www.web2py.com/examples/default/download'
p4857
tp4858
a(g3933
(S't\x07\x00\x00\x00Support'
tRp4859
I00
S'http://www.web2py.com/examples/default/support'
p4860
tp4861
a(g3933
(S's\x0e\x00\x00\x00Quick Examples'
tRp4862
I00
S'http://web2py.com/examples/default/examples'
p4863
tp4864
a(g3933
(S't\x03\x00\x00\x00FAQ'
tRp4865
I00
S'http://web2py.com/AlterEgo'
p4866
tp4867
a(g3933
(S's\x11\x00\x00\x00Free Applications'
tRp4868
I00
S'http://web2py.com/appliances'
p4869
tp4870
a(g3933
(S't\x07\x00\x00\x00Plugins'
tRp4871
I00
S'http://web2py.com/plugins'
p4872
tp4873
a(g3933
(S't\x07\x00\x00\x00Recipes'
tRp4874
I00
S'http://web2pyslices.com/'
p4875
tp4876
a(g3933
(S't\x04\x00\x00\x00Demo'
tRp4877
I00
S'http://web2py.com/demo_admin'
p4878
tp4879
a(g3933
(S't\x08\x00\x00\x00Semantic'
tRp4880
I00
S'http://web2py.com/semantic'
p4881
tp4882
a(g3933
(S't\x07\x00\x00\x00Layouts'
tRp4883
I00
S'http://web2py.com/layouts'
p4884
tp4885
a(g3933
(S't\x06\x00\x00\x00Videos'
tRp4886
I00
S'http://www.web2py.com/examples/default/videos/'
p4887
tp4888
aasbasbasbasbasbasbasbasbasbasbasbasbasbasbasbasbasbasbasbag56
(g72
g58
NtRp4889
(dp4890
g61
(dp4891
sg70
g3428
sg63
(lp4892
g56
(g77
g58
NtRp4893
(dp4894
g61
(dp4895
g81
g82
ssg70
g4889
sg63
(lp4896
S'meta'
p4897
asbag56
(g77
g58
NtRp4898
(dp4899
g61
(dp4900
g88
g89
ssg70
g4889
sg63
(lp4901
S':'
asbag56
(g77
g58
NtRp4902
(dp4903
g61
(dp4904
sg70
g4889
sg63
(lp4905
g56
(g57
g58
NtRp4906
(dp4907
g61
(dp4908
g69
I5
ssg70
g4902
sg63
(lp4909
g56
(g65
g58
NtRp4910
(dp4911
g61
(dp4912
g69
I4
ssg70
Nsg63
(lp4913
g56
(g72
g58
NtRp4914
(dp4915
g61
(dp4916
sg70
g4910
sg63
(lp4917
g56
(g77
g58
NtRp4918
(dp4919
g61
(dp4920
g81
g82
ssg70
g4914
sg63
(lp4921
S'author'
p4922
asbag56
(g77
g58
NtRp4923
(dp4924
g61
(dp4925
g88
g89
ssg70
g4914
sg63
(lp4926
S':'
asbag56
(g77
g58
NtRp4927
(dp4928
g61
(dp4929
sg70
g4914
sg63
(lp4930
g56
(g57
g58
NtRp4931
(dp4932
g61
(dp4933
g69
I4
ssg70
g4927
sg63
(lp4934
S'Your Name <you@example.com>'
p4935
asbasbasbag56
(g72
g58
NtRp4936
(dp4937
g61
(dp4938
sg70
g4910
sg63
(lp4939
g56
(g77
g58
NtRp4940
(dp4941
g61
(dp4942
g81
g82
ssg70
g4936
sg63
(lp4943
S'copyright'
p4944
asbag56
(g77
g58
NtRp4945
(dp4946
g61
(dp4947
g88
g89
ssg70
g4936
sg63
(lp4948
S':'
asbag56
(g77
g58
NtRp4949
(dp4950
g61
(dp4951
sg70
g4936
sg63
(lp4952
g56
(g57
g58
NtRp4953
(dp4954
g61
(dp4955
g69
I4
ssg70
g4949
sg63
(lp4956
S'Copyright 2011'
p4957
asbasbasbag56
(g72
g58
NtRp4958
(dp4959
g61
(dp4960
sg70
g4910
sg63
(lp4961
g56
(g77
g58
NtRp4962
(dp4963
g61
(dp4964
g81
g82
ssg70
g4958
sg63
(lp4965
S'description'
p4966
asbag56
(g77
g58
NtRp4967
(dp4968
g61
(dp4969
g88
g89
ssg70
g4958
sg63
(lp4970
S':'
asbag56
(g77
g58
NtRp4971
(dp4972
g61
(dp4973
sg70
g4958
sg63
(lp4974
g56
(g57
g58
NtRp4975
(dp4976
g61
(dp4977
g69
I4
ssg70
g4971
sg63
(lp4978
S'a cool new app'
p4979
asbasbasbag56
(g72
g58
NtRp4980
(dp4981
g61
(dp4982
sg70
g4910
sg63
(lp4983
g56
(g77
g58
NtRp4984
(dp4985
g61
(dp4986
g81
g82
ssg70
g4980
sg63
(lp4987
S'generator'
p4988
asbag56
(g77
g58
NtRp4989
(dp4990
g61
(dp4991
g88
g89
ssg70
g4980
sg63
(lp4992
S':'
asbag56
(g77
g58
NtRp4993
(dp4994
g61
(dp4995
sg70
g4980
sg63
(lp4996
g56
(g57
g58
NtRp4997
(dp4998
g61
(dp4999
g69
I4
ssg70
g4993
sg63
(lp5000
S'Web2py Web Framework'
p5001
asbasbasbag56
(g72
g58
NtRp5002
(dp5003
g61
(dp5004
sg70
g4910
sg63
(lp5005
g56
(g77
g58
NtRp5006
(dp5007
g61
(dp5008
g81
g82
ssg70
g5002
sg63
(lp5009
S'keywords'
p5010
asbag56
(g77
g58
NtRp5011
(dp5012
g61
(dp5013
g88
g89
ssg70
g5002
sg63
(lp5014
S':'
asbag56
(g77
g58
NtRp5015
(dp5016
g61
(dp5017
sg70
g5002
sg63
(lp5018
g56
(g57
g58
NtRp5019
(dp5020
g61
(dp5021
g69
I4
ssg70
g5015
sg63
(lp5022
S'web2py, python, framework'
p5023
asbasbasbasbasbasbasbag56
(g72
g58
NtRp5024
(dp5025
g61
(dp5026
sg70
g3428
sg63
(lp5027
g56
(g77
g58
NtRp5028
(dp5029
g61
(dp5030
g81
g82
ssg70
g5024
sg63
(lp5031
S'postprocessing'
p5032
asbag56
(g77
g58
NtRp5033
(dp5034
g61
(dp5035
g88
g89
ssg70
g5024
sg63
(lp5036
S':'
asbag56
(g77
g58
NtRp5037
(dp5038
g61
(dp5039
sg70
g5024
sg63
(lp5040
g56
(g57
g58
NtRp5041
(dp5042
g61
(dp5043
g69
I5
ssg70
g5037
sg63
(lp5044
g56
(g65
g58
NtRp5045
(dp5046
g61
(dp5047
g69
I4
ssg70
Nsg63
(lp5048
sbasbasbasbag56
(g72
g58
NtRp5049
(dp5050
g61
(dp5051
sg70
g3428
sg63
(lp5052
g56
(g77
g58
NtRp5053
(dp5054
g61
(dp5055
g81
g82
ssg70
g5049
sg63
(lp5056
S'session_file'
p5057
asbag56
(g77
g58
NtRp5058
(dp5059
g61
(dp5060
g88
g89
ssg70
g5049
sg63
(lp5061
S':'
asbag56
(g77
g58
NtRp5062
(dp5063
g61
(dp5064
sg70
g5049
sg63
(lp5065
g56
(g57
g58
NtRp5066
(dp5067
g61
(dp5068
g69
I5
ssg70
g5062
sg63
(lp5069
S"<open file '/home/ian/Dropbox/Web_Pages/web2py-linux/applications/places/sessions/127.0.0.1-ae378f77-b944-4a55-be06-eed4ce913913', mode 'rb+' at 0x36bee40>"
p5070
asbasbasbag56
(g72
g58
NtRp5071
(dp5072
g61
(dp5073
sg70
g3428
sg63
(lp5074
g56
(g77
g58
NtRp5075
(dp5076
g61
(dp5077
g81
g82
ssg70
g5071
sg63
(lp5078
S'session_filename'
p5079
asbag56
(g77
g58
NtRp5080
(dp5081
g61
(dp5082
g88
g89
ssg70
g5071
sg63
(lp5083
S':'
asbag56
(g77
g58
NtRp5084
(dp5085
g61
(dp5086
sg70
g5071
sg63
(lp5087
g56
(g57
g58
NtRp5088
(dp5089
g61
(dp5090
g69
I5
ssg70
g5084
sg63
(lp5091
S'/home/ian/Dropbox/Web_Pages/web2py-linux/applications/places/sessions/127.0.0.1-ae378f77-b944-4a55-be06-eed4ce913913'
p5092
asbasbasbag56
(g72
g58
NtRp5093
(dp5094
g61
(dp5095
sg70
g3428
sg63
(lp5096
g56
(g77
g58
NtRp5097
(dp5098
g61
(dp5099
g81
g82
ssg70
g5093
sg63
(lp5100
S'session_id'
p5101
asbag56
(g77
g58
NtRp5102
(dp5103
g61
(dp5104
g88
g89
ssg70
g5093
sg63
(lp5105
S':'
asbag56
(g77
g58
NtRp5106
(dp5107
g61
(dp5108
sg70
g5093
sg63
(lp5109
g56
(g57
g58
NtRp5110
(dp5111
g61
(dp5112
g69
I5
ssg70
g5106
sg63
(lp5113
S'127.0.0.1-ae378f77-b944-4a55-be06-eed4ce913913'
p5114
asbasbasbag56
(g72
g58
NtRp5115
(dp5116
g61
(dp5117
sg70
g3428
sg63
(lp5118
g56
(g77
g58
NtRp5119
(dp5120
g61
(dp5121
g81
g82
ssg70
g5115
sg63
(lp5122
S'session_id_name'
p5123
asbag56
(g77
g58
NtRp5124
(dp5125
g61
(dp5126
g88
g89
ssg70
g5115
sg63
(lp5127
S':'
asbag56
(g77
g58
NtRp5128
(dp5129
g61
(dp5130
sg70
g5115
sg63
(lp5131
g56
(g57
g58
NtRp5132
(dp5133
g61
(dp5134
g69
I5
ssg70
g5128
sg63
(lp5135
g3485
asbasbasbag56
(g72
g58
NtRp5136
(dp5137
g61
(dp5138
sg70
g3428
sg63
(lp5139
g56
(g77
g58
NtRp5140
(dp5141
g61
(dp5142
g81
g82
ssg70
g5136
sg63
(lp5143
S'session_locked'
p5144
asbag56
(g77
g58
NtRp5145
(dp5146
g61
(dp5147
g88
g89
ssg70
g5136
sg63
(lp5148
S':'
asbag56
(g77
g58
NtRp5149
(dp5150
g61
(dp5151
sg70
g5136
sg63
(lp5152
g56
(g57
g58
NtRp5153
(dp5154
g61
(dp5155
g69
I5
ssg70
g5149
sg63
(lp5156
g2004
asbasbasbag56
(g72
g58
NtRp5157
(dp5158
g61
(dp5159
sg70
g3428
sg63
(lp5160
g56
(g77
g58
NtRp5161
(dp5162
g61
(dp5163
g81
g82
ssg70
g5157
sg63
(lp5164
S'session_new'
p5165
asbag56
(g77
g58
NtRp5166
(dp5167
g61
(dp5168
g88
g89
ssg70
g5157
sg63
(lp5169
S':'
asbag56
(g77
g58
NtRp5170
(dp5171
g61
(dp5172
sg70
g5157
sg63
(lp5173
g56
(g57
g58
NtRp5174
(dp5175
g61
(dp5176
g69
I5
ssg70
g5170
sg63
(lp5177
g99
asbasbasbag56
(g72
g58
NtRp5178
(dp5179
g61
(dp5180
sg70
g3428
sg63
(lp5181
g56
(g77
g58
NtRp5182
(dp5183
g61
(dp5184
g81
g82
ssg70
g5178
sg63
(lp5185
S'status'
p5186
asbag56
(g77
g58
NtRp5187
(dp5188
g61
(dp5189
g88
g89
ssg70
g5178
sg63
(lp5190
S':'
asbag56
(g77
g58
NtRp5191
(dp5192
g61
(dp5193
sg70
g5178
sg63
(lp5194
g56
(g57
g58
NtRp5195
(dp5196
g61
(dp5197
g69
I5
ssg70
g5191
sg63
(lp5198
S'200'
p5199
asbasbasbag56
(g72
g58
NtRp5200
(dp5201
g61
(dp5202
sg70
g3428
sg63
(lp5203
g56
(g77
g58
NtRp5204
(dp5205
g61
(dp5206
g81
g82
ssg70
g5200
sg63
(lp5207
S'subtitle'
p5208
asbag56
(g77
g58
NtRp5209
(dp5210
g61
(dp5211
g88
g89
ssg70
g5200
sg63
(lp5212
S':'
asbag56
(g77
g58
NtRp5213
(dp5214
g61
(dp5215
sg70
g5200
sg63
(lp5216
g56
(g57
g58
NtRp5217
(dp5218
g61
(dp5219
g69
I5
ssg70
g5213
sg63
(lp5220
g3933
(S's\r\x00\x00\x00customize me!'
tRp5221
asbasbasbag56
(g72
g58
NtRp5222
(dp5223
g61
(dp5224
sg70
g3428
sg63
(lp5225
g56
(g77
g58
NtRp5226
(dp5227
g61
(dp5228
g81
g82
ssg70
g5222
sg63
(lp5229
S'title'
p5230
asbag56
(g77
g58
NtRp5231
(dp5232
g61
(dp5233
g88
g89
ssg70
g5222
sg63
(lp5234
S':'
asbag56
(g77
g58
NtRp5235
(dp5236
g61
(dp5237
sg70
g5222
sg63
(lp5238
g56
(g57
g58
NtRp5239
(dp5240
g61
(dp5241
g69
I5
ssg70
g5235
sg63
(lp5242
g121
asbasbasbag56
(g72
g58
NtRp5243
(dp5244
g61
(dp5245
sg70
g3428
sg63
(lp5246
g56
(g77
g58
NtRp5247
(dp5248
g61
(dp5249
g81
g82
ssg70
g5243
sg63
(lp5250
g2648
asbag56
(g77
g58
NtRp5251
(dp5252
g61
(dp5253
g88
g89
ssg70
g5243
sg63
(lp5254
S':'
asbag56
(g77
g58
NtRp5255
(dp5256
g61
(dp5257
sg70
g5243
sg63
(lp5258
g56
(g57
g58
NtRp5259
(dp5260
g61
(dp5261
g69
I5
ssg70
g5255
sg63
(lp5262
g2661
asbasbasbag56
(g72
g58
NtRp5263
(dp5264
g61
(dp5265
sg70
g3428
sg63
(lp5266
g56
(g77
g58
NtRp5267
(dp5268
g61
(dp5269
g81
g82
ssg70
g5263
sg63
(lp5270
S'view'
p5271
asbag56
(g77
g58
NtRp5272
(dp5273
g61
(dp5274
g88
g89
ssg70
g5263
sg63
(lp5275
S':'
asbag56
(g77
g58
NtRp5276
(dp5277
g61
(dp5278
sg70
g5263
sg63
(lp5279
g56
(g57
g58
NtRp5280
(dp5281
g61
(dp5282
g69
I5
ssg70
g5276
sg63
(lp5283
S'default/index.html'
p5284
asbasbasbasbasbsS'locals'
p5285
(dp5286
ssS'traceback'
p5287
S'Traceback (most recent call last):\n  File "/home/ian/Dropbox/Web_Pages/web2py-linux/gluon/restricted.py", line 194, in restricted\n    exec ccode in environment\n  File "/home/ian/Dropbox/Web_Pages/web2py-linux/applications/places/controllers/default.py", line 80, in <module>\n  File "/home/ian/Dropbox/Web_Pages/web2py-linux/gluon/globals.py", line 149, in <lambda>\n    self._caller = lambda f: f()\n  File "/home/ian/Dropbox/Web_Pages/web2py-linux/applications/places/controllers/default.py", line 22, in index\n    current = tags[0].tag\nNameError: global name \'tags\' is not defined\n'
p5288
s.