(dp1
S'output'
p2
S''
sS'layer'
p3
S'/home/ian/web2py/applications/places/views/default/index.load'
p4
sS'code'
p5
S"for link in links:\n    response.write('\\n<li>\\n', escape=False)\n    response.write(A(IMG('uploads'+link.link_image), _href=link.link_url, _title=link.link_name, _alt=link.link_name))\n    response.write('\\n', escape=False)\n    response.write(A('edit', _href=URL('edit.load', args=[link.id]), cid='modal_frame', _class='edit_link'))\n    response.write('\\n</li>\\n', escape=False)\n    pass\nresponse.write('\\n\\n', escape=False)\n#=BEAUTIFY(response._vars)\nresponse.write('\\n', escape=False)"
p6
sS'snapshot'
p7
(dp8
S'exception'
p9
(dp10
S'__hash__'
p11
S"<method-wrapper '__hash__' of exceptions.TypeError object>"
p12
sS'__setattr__'
p13
S"<method-wrapper '__setattr__' of exceptions.TypeError object>"
p14
sS'__reduce_ex__'
p15
S'<built-in method __reduce_ex__ of exceptions.TypeError object>'
p16
sS'__getslice__'
p17
S"<method-wrapper '__getslice__' of exceptions.TypeError object>"
p18
sS'__getitem__'
p19
S"<method-wrapper '__getitem__' of exceptions.TypeError object>"
p20
sS'__setstate__'
p21
S'<built-in method __setstate__ of exceptions.TypeError object>'
p22
sS'args'
p23
S'("cannot concatenate \'str\' and \'NoneType\' objects",)'
p24
sS'__reduce__'
p25
S'<built-in method __reduce__ of exceptions.TypeError object>'
p26
sS'__str__'
p27
S"<method-wrapper '__str__' of exceptions.TypeError object>"
p28
sS'__format__'
p29
S'<built-in method __format__ of exceptions.TypeError object>'
p30
sS'__getattribute__'
p31
S"<method-wrapper '__getattribute__' of exceptions.TypeError object>"
p32
sS'__class__'
p33
S"<type 'exceptions.TypeError'>"
p34
sS'__unicode__'
p35
S'<built-in method __unicode__ of exceptions.TypeError object>'
p36
sS'__delattr__'
p37
S"<method-wrapper '__delattr__' of exceptions.TypeError object>"
p38
sS'__subclasshook__'
p39
S'<built-in method __subclasshook__ of type object>'
p40
sS'__repr__'
p41
S"<method-wrapper '__repr__' of exceptions.TypeError object>"
p42
sS'__dict__'
p43
S'{}'
p44
sS'__sizeof__'
p45
S'<built-in method __sizeof__ of exceptions.TypeError object>'
p46
sS'__doc__'
p47
S"'Inappropriate argument type.'"
p48
sS'__init__'
p49
S"<method-wrapper '__init__' of exceptions.TypeError object>"
p50
sS'__new__'
p51
S'<built-in method __new__ of type object>'
p52
ssS'evalue'
p53
S"cannot concatenate 'str' and 'NoneType' objects"
p54
sS'request'
p55
ccopy_reg
_reconstructor
p56
(cgluon.html
BEAUTIFY
p57
c__builtin__
object
p58
NtRp59
(dp60
S'attributes'
p61
(dp62
sS'components'
p63
(lp64
g56
(cgluon.html
TABLE
p65
g58
NtRp66
(dp67
g61
(dp68
S'level'
p69
I5
ssS'parent'
p70
Nsg63
(lp71
g56
(cgluon.html
TR
p72
g58
NtRp73
(dp74
g61
(dp75
sg70
g66
sg63
(lp76
g56
(cgluon.html
TD
p77
g58
NtRp78
(dp79
g61
(dp80
S'_style'
p81
S'font-weight:bold;'
p82
ssg70
g73
sg63
(lp83
S'ajax'
p84
asbag56
(g77
g58
NtRp85
(dp86
g61
(dp87
S'_valign'
p88
S'top'
p89
ssg70
g73
sg63
(lp90
S':'
asbag56
(g77
g58
NtRp91
(dp92
g61
(dp93
sg70
g73
sg63
(lp94
g56
(g57
g58
NtRp95
(dp96
g61
(dp97
g69
I5
ssg70
g91
sg63
(lp98
S'True'
p99
asbasbasbag56
(g72
g58
NtRp100
(dp101
g61
(dp102
sg70
g66
sg63
(lp103
g56
(g77
g58
NtRp104
(dp105
g61
(dp106
g81
g82
ssg70
g100
sg63
(lp107
S'application'
p108
asbag56
(g77
g58
NtRp109
(dp110
g61
(dp111
g88
g89
ssg70
g100
sg63
(lp112
S':'
asbag56
(g77
g58
NtRp113
(dp114
g61
(dp115
sg70
g100
sg63
(lp116
g56
(g57
g58
NtRp117
(dp118
g61
(dp119
g69
I5
ssg70
g113
sg63
(lp120
S'places'
p121
asbasbasbag56
(g72
g58
NtRp122
(dp123
g61
(dp124
sg70
g66
sg63
(lp125
g56
(g77
g58
NtRp126
(dp127
g61
(dp128
g81
g82
ssg70
g122
sg63
(lp129
g23
asbag56
(g77
g58
NtRp130
(dp131
g61
(dp132
g88
g89
ssg70
g122
sg63
(lp133
S':'
asbag56
(g77
g58
NtRp134
(dp135
g61
(dp136
sg70
g122
sg63
(lp137
g56
(g57
g58
NtRp138
(dp139
g61
(dp140
g69
I5
ssg70
g134
sg63
(lp141
g56
(g65
g58
NtRp142
(dp143
g61
(dp144
g69
I4
ssg70
Nsg63
(lp145
sbasbasbasbag56
(g72
g58
NtRp146
(dp147
g61
(dp148
sg70
g66
sg63
(lp149
g56
(g77
g58
NtRp150
(dp151
g61
(dp152
g81
g82
ssg70
g146
sg63
(lp153
S'body'
p154
asbag56
(g77
g58
NtRp155
(dp156
g61
(dp157
g88
g89
ssg70
g146
sg63
(lp158
S':'
asbag56
(g77
g58
NtRp159
(dp160
g61
(dp161
sg70
g146
sg63
(lp162
g56
(g57
g58
NtRp163
(dp164
g61
(dp165
g69
I5
ssg70
g159
sg63
(lp166
S'<cStringIO.StringO object at 0x3aa45a8>'
p167
asbasbasbag56
(g72
g58
NtRp168
(dp169
g61
(dp170
sg70
g66
sg63
(lp171
g56
(g77
g58
NtRp172
(dp173
g61
(dp174
g81
g82
ssg70
g168
sg63
(lp175
S'cid'
p176
asbag56
(g77
g58
NtRp177
(dp178
g61
(dp179
g88
g89
ssg70
g168
sg63
(lp180
S':'
asbag56
(g77
g58
NtRp181
(dp182
g61
(dp183
sg70
g168
sg63
(lp184
g56
(g57
g58
NtRp185
(dp186
g61
(dp187
g69
I5
ssg70
g181
sg63
(lp188
S'links'
p189
asbasbasbag56
(g72
g58
NtRp190
(dp191
g61
(dp192
sg70
g66
sg63
(lp193
g56
(g77
g58
NtRp194
(dp195
g61
(dp196
g81
g82
ssg70
g190
sg63
(lp197
S'client'
p198
asbag56
(g77
g58
NtRp199
(dp200
g61
(dp201
g88
g89
ssg70
g190
sg63
(lp202
S':'
asbag56
(g77
g58
NtRp203
(dp204
g61
(dp205
sg70
g190
sg63
(lp206
g56
(g57
g58
NtRp207
(dp208
g61
(dp209
g69
I5
ssg70
g203
sg63
(lp210
S'127.0.0.1'
p211
asbasbasbag56
(g72
g58
NtRp212
(dp213
g61
(dp214
sg70
g66
sg63
(lp215
g56
(g77
g58
NtRp216
(dp217
g61
(dp218
g81
g82
ssg70
g212
sg63
(lp219
S'controller'
p220
asbag56
(g77
g58
NtRp221
(dp222
g61
(dp223
g88
g89
ssg70
g212
sg63
(lp224
S':'
asbag56
(g77
g58
NtRp225
(dp226
g61
(dp227
sg70
g212
sg63
(lp228
g56
(g57
g58
NtRp229
(dp230
g61
(dp231
g69
I5
ssg70
g225
sg63
(lp232
S'default'
p233
asbasbasbag56
(g72
g58
NtRp234
(dp235
g61
(dp236
sg70
g66
sg63
(lp237
g56
(g77
g58
NtRp238
(dp239
g61
(dp240
g81
g82
ssg70
g234
sg63
(lp241
S'cookies'
p242
asbag56
(g77
g58
NtRp243
(dp244
g61
(dp245
g88
g89
ssg70
g234
sg63
(lp246
S':'
asbag56
(g77
g58
NtRp247
(dp248
g61
(dp249
sg70
g234
sg63
(lp250
g56
(g57
g58
NtRp251
(dp252
g61
(dp253
g69
I5
ssg70
g247
sg63
(lp254
g56
(g65
g58
NtRp255
(dp256
g61
(dp257
g69
I4
ssg70
Nsg63
(lp258
g56
(g72
g58
NtRp259
(dp260
g61
(dp261
sg70
g255
sg63
(lp262
g56
(g77
g58
NtRp263
(dp264
g61
(dp265
g81
g82
ssg70
g259
sg63
(lp266
S'session_id_admin'
p267
asbag56
(g77
g58
NtRp268
(dp269
g61
(dp270
g88
g89
ssg70
g259
sg63
(lp271
S':'
asbag56
(g77
g58
NtRp272
(dp273
g61
(dp274
sg70
g259
sg63
(lp275
g56
(g57
g58
NtRp276
(dp277
g61
(dp278
g69
I4
ssg70
g272
sg63
(lp279
g56
(g65
g58
NtRp280
(dp281
g61
(dp282
g69
I3
ssg70
Nsg63
(lp283
g56
(g72
g58
NtRp284
(dp285
g61
(dp286
sg70
g280
sg63
(lp287
g56
(g77
g58
NtRp288
(dp289
g61
(dp290
g81
g82
ssg70
g284
sg63
(lp291
S'comment'
p292
asbag56
(g77
g58
NtRp293
(dp294
g61
(dp295
g88
g89
ssg70
g284
sg63
(lp296
S':'
asbag56
(g77
g58
NtRp297
(dp298
g61
(dp299
sg70
g284
sg63
(lp300
g56
(g57
g58
NtRp301
(dp302
g61
(dp303
g69
I3
ssg70
g297
sg63
(lp304
S''
asbasbasbag56
(g72
g58
NtRp305
(dp306
g61
(dp307
sg70
g280
sg63
(lp308
g56
(g77
g58
NtRp309
(dp310
g61
(dp311
g81
g82
ssg70
g305
sg63
(lp312
S'domain'
p313
asbag56
(g77
g58
NtRp314
(dp315
g61
(dp316
g88
g89
ssg70
g305
sg63
(lp317
S':'
asbag56
(g77
g58
NtRp318
(dp319
g61
(dp320
sg70
g305
sg63
(lp321
g56
(g57
g58
NtRp322
(dp323
g61
(dp324
g69
I3
ssg70
g318
sg63
(lp325
S''
asbasbasbag56
(g72
g58
NtRp326
(dp327
g61
(dp328
sg70
g280
sg63
(lp329
g56
(g77
g58
NtRp330
(dp331
g61
(dp332
g81
g82
ssg70
g326
sg63
(lp333
S'expires'
p334
asbag56
(g77
g58
NtRp335
(dp336
g61
(dp337
g88
g89
ssg70
g326
sg63
(lp338
S':'
asbag56
(g77
g58
NtRp339
(dp340
g61
(dp341
sg70
g326
sg63
(lp342
g56
(g57
g58
NtRp343
(dp344
g61
(dp345
g69
I3
ssg70
g339
sg63
(lp346
S''
asbasbasbag56
(g72
g58
NtRp347
(dp348
g61
(dp349
sg70
g280
sg63
(lp350
g56
(g77
g58
NtRp351
(dp352
g61
(dp353
g81
g82
ssg70
g347
sg63
(lp354
S'httponly'
p355
asbag56
(g77
g58
NtRp356
(dp357
g61
(dp358
g88
g89
ssg70
g347
sg63
(lp359
S':'
asbag56
(g77
g58
NtRp360
(dp361
g61
(dp362
sg70
g347
sg63
(lp363
g56
(g57
g58
NtRp364
(dp365
g61
(dp366
g69
I3
ssg70
g360
sg63
(lp367
S''
asbasbasbag56
(g72
g58
NtRp368
(dp369
g61
(dp370
sg70
g280
sg63
(lp371
g56
(g77
g58
NtRp372
(dp373
g61
(dp374
g81
g82
ssg70
g368
sg63
(lp375
S'max-age'
p376
asbag56
(g77
g58
NtRp377
(dp378
g61
(dp379
g88
g89
ssg70
g368
sg63
(lp380
S':'
asbag56
(g77
g58
NtRp381
(dp382
g61
(dp383
sg70
g368
sg63
(lp384
g56
(g57
g58
NtRp385
(dp386
g61
(dp387
g69
I3
ssg70
g381
sg63
(lp388
S''
asbasbasbag56
(g72
g58
NtRp389
(dp390
g61
(dp391
sg70
g280
sg63
(lp392
g56
(g77
g58
NtRp393
(dp394
g61
(dp395
g81
g82
ssg70
g389
sg63
(lp396
S'path'
p397
asbag56
(g77
g58
NtRp398
(dp399
g61
(dp400
g88
g89
ssg70
g389
sg63
(lp401
S':'
asbag56
(g77
g58
NtRp402
(dp403
g61
(dp404
sg70
g389
sg63
(lp405
g56
(g57
g58
NtRp406
(dp407
g61
(dp408
g69
I3
ssg70
g402
sg63
(lp409
S''
asbasbasbag56
(g72
g58
NtRp410
(dp411
g61
(dp412
sg70
g280
sg63
(lp413
g56
(g77
g58
NtRp414
(dp415
g61
(dp416
g81
g82
ssg70
g410
sg63
(lp417
S'secure'
p418
asbag56
(g77
g58
NtRp419
(dp420
g61
(dp421
g88
g89
ssg70
g410
sg63
(lp422
S':'
asbag56
(g77
g58
NtRp423
(dp424
g61
(dp425
sg70
g410
sg63
(lp426
g56
(g57
g58
NtRp427
(dp428
g61
(dp429
g69
I3
ssg70
g423
sg63
(lp430
S''
asbasbasbag56
(g72
g58
NtRp431
(dp432
g61
(dp433
sg70
g280
sg63
(lp434
g56
(g77
g58
NtRp435
(dp436
g61
(dp437
g81
g82
ssg70
g431
sg63
(lp438
S'version'
p439
asbag56
(g77
g58
NtRp440
(dp441
g61
(dp442
g88
g89
ssg70
g431
sg63
(lp443
S':'
asbag56
(g77
g58
NtRp444
(dp445
g61
(dp446
sg70
g431
sg63
(lp447
g56
(g57
g58
NtRp448
(dp449
g61
(dp450
g69
I3
ssg70
g444
sg63
(lp451
S''
asbasbasbasbasbasbasbag56
(g72
g58
NtRp452
(dp453
g61
(dp454
sg70
g255
sg63
(lp455
g56
(g77
g58
NtRp456
(dp457
g61
(dp458
g81
g82
ssg70
g452
sg63
(lp459
S'session_id_places'
p460
asbag56
(g77
g58
NtRp461
(dp462
g61
(dp463
g88
g89
ssg70
g452
sg63
(lp464
S':'
asbag56
(g77
g58
NtRp465
(dp466
g61
(dp467
sg70
g452
sg63
(lp468
g56
(g57
g58
NtRp469
(dp470
g61
(dp471
g69
I4
ssg70
g465
sg63
(lp472
g56
(g65
g58
NtRp473
(dp474
g61
(dp475
g69
I3
ssg70
Nsg63
(lp476
g56
(g72
g58
NtRp477
(dp478
g61
(dp479
sg70
g473
sg63
(lp480
g56
(g77
g58
NtRp481
(dp482
g61
(dp483
g81
g82
ssg70
g477
sg63
(lp484
g292
asbag56
(g77
g58
NtRp485
(dp486
g61
(dp487
g88
g89
ssg70
g477
sg63
(lp488
S':'
asbag56
(g77
g58
NtRp489
(dp490
g61
(dp491
sg70
g477
sg63
(lp492
g56
(g57
g58
NtRp493
(dp494
g61
(dp495
g69
I3
ssg70
g489
sg63
(lp496
S''
asbasbasbag56
(g72
g58
NtRp497
(dp498
g61
(dp499
sg70
g473
sg63
(lp500
g56
(g77
g58
NtRp501
(dp502
g61
(dp503
g81
g82
ssg70
g497
sg63
(lp504
g313
asbag56
(g77
g58
NtRp505
(dp506
g61
(dp507
g88
g89
ssg70
g497
sg63
(lp508
S':'
asbag56
(g77
g58
NtRp509
(dp510
g61
(dp511
sg70
g497
sg63
(lp512
g56
(g57
g58
NtRp513
(dp514
g61
(dp515
g69
I3
ssg70
g509
sg63
(lp516
S''
asbasbasbag56
(g72
g58
NtRp517
(dp518
g61
(dp519
sg70
g473
sg63
(lp520
g56
(g77
g58
NtRp521
(dp522
g61
(dp523
g81
g82
ssg70
g517
sg63
(lp524
g334
asbag56
(g77
g58
NtRp525
(dp526
g61
(dp527
g88
g89
ssg70
g517
sg63
(lp528
S':'
asbag56
(g77
g58
NtRp529
(dp530
g61
(dp531
sg70
g517
sg63
(lp532
g56
(g57
g58
NtRp533
(dp534
g61
(dp535
g69
I3
ssg70
g529
sg63
(lp536
S''
asbasbasbag56
(g72
g58
NtRp537
(dp538
g61
(dp539
sg70
g473
sg63
(lp540
g56
(g77
g58
NtRp541
(dp542
g61
(dp543
g81
g82
ssg70
g537
sg63
(lp544
g355
asbag56
(g77
g58
NtRp545
(dp546
g61
(dp547
g88
g89
ssg70
g537
sg63
(lp548
S':'
asbag56
(g77
g58
NtRp549
(dp550
g61
(dp551
sg70
g537
sg63
(lp552
g56
(g57
g58
NtRp553
(dp554
g61
(dp555
g69
I3
ssg70
g549
sg63
(lp556
S''
asbasbasbag56
(g72
g58
NtRp557
(dp558
g61
(dp559
sg70
g473
sg63
(lp560
g56
(g77
g58
NtRp561
(dp562
g61
(dp563
g81
g82
ssg70
g557
sg63
(lp564
g376
asbag56
(g77
g58
NtRp565
(dp566
g61
(dp567
g88
g89
ssg70
g557
sg63
(lp568
S':'
asbag56
(g77
g58
NtRp569
(dp570
g61
(dp571
sg70
g557
sg63
(lp572
g56
(g57
g58
NtRp573
(dp574
g61
(dp575
g69
I3
ssg70
g569
sg63
(lp576
S''
asbasbasbag56
(g72
g58
NtRp577
(dp578
g61
(dp579
sg70
g473
sg63
(lp580
g56
(g77
g58
NtRp581
(dp582
g61
(dp583
g81
g82
ssg70
g577
sg63
(lp584
g397
asbag56
(g77
g58
NtRp585
(dp586
g61
(dp587
g88
g89
ssg70
g577
sg63
(lp588
S':'
asbag56
(g77
g58
NtRp589
(dp590
g61
(dp591
sg70
g577
sg63
(lp592
g56
(g57
g58
NtRp593
(dp594
g61
(dp595
g69
I3
ssg70
g589
sg63
(lp596
S''
asbasbasbag56
(g72
g58
NtRp597
(dp598
g61
(dp599
sg70
g473
sg63
(lp600
g56
(g77
g58
NtRp601
(dp602
g61
(dp603
g81
g82
ssg70
g597
sg63
(lp604
g418
asbag56
(g77
g58
NtRp605
(dp606
g61
(dp607
g88
g89
ssg70
g597
sg63
(lp608
S':'
asbag56
(g77
g58
NtRp609
(dp610
g61
(dp611
sg70
g597
sg63
(lp612
g56
(g57
g58
NtRp613
(dp614
g61
(dp615
g69
I3
ssg70
g609
sg63
(lp616
S''
asbasbasbag56
(g72
g58
NtRp617
(dp618
g61
(dp619
sg70
g473
sg63
(lp620
g56
(g77
g58
NtRp621
(dp622
g61
(dp623
g81
g82
ssg70
g617
sg63
(lp624
g439
asbag56
(g77
g58
NtRp625
(dp626
g61
(dp627
g88
g89
ssg70
g617
sg63
(lp628
S':'
asbag56
(g77
g58
NtRp629
(dp630
g61
(dp631
sg70
g617
sg63
(lp632
g56
(g57
g58
NtRp633
(dp634
g61
(dp635
g69
I3
ssg70
g629
sg63
(lp636
S''
asbasbasbasbasbasbasbag56
(g72
g58
NtRp637
(dp638
g61
(dp639
sg70
g255
sg63
(lp640
g56
(g77
g58
NtRp641
(dp642
g61
(dp643
g81
g82
ssg70
g637
sg63
(lp644
S'session_id_welcome'
p645
asbag56
(g77
g58
NtRp646
(dp647
g61
(dp648
g88
g89
ssg70
g637
sg63
(lp649
S':'
asbag56
(g77
g58
NtRp650
(dp651
g61
(dp652
sg70
g637
sg63
(lp653
g56
(g57
g58
NtRp654
(dp655
g61
(dp656
g69
I4
ssg70
g650
sg63
(lp657
g56
(g65
g58
NtRp658
(dp659
g61
(dp660
g69
I3
ssg70
Nsg63
(lp661
g56
(g72
g58
NtRp662
(dp663
g61
(dp664
sg70
g658
sg63
(lp665
g56
(g77
g58
NtRp666
(dp667
g61
(dp668
g81
g82
ssg70
g662
sg63
(lp669
g292
asbag56
(g77
g58
NtRp670
(dp671
g61
(dp672
g88
g89
ssg70
g662
sg63
(lp673
S':'
asbag56
(g77
g58
NtRp674
(dp675
g61
(dp676
sg70
g662
sg63
(lp677
g56
(g57
g58
NtRp678
(dp679
g61
(dp680
g69
I3
ssg70
g674
sg63
(lp681
S''
asbasbasbag56
(g72
g58
NtRp682
(dp683
g61
(dp684
sg70
g658
sg63
(lp685
g56
(g77
g58
NtRp686
(dp687
g61
(dp688
g81
g82
ssg70
g682
sg63
(lp689
g313
asbag56
(g77
g58
NtRp690
(dp691
g61
(dp692
g88
g89
ssg70
g682
sg63
(lp693
S':'
asbag56
(g77
g58
NtRp694
(dp695
g61
(dp696
sg70
g682
sg63
(lp697
g56
(g57
g58
NtRp698
(dp699
g61
(dp700
g69
I3
ssg70
g694
sg63
(lp701
S''
asbasbasbag56
(g72
g58
NtRp702
(dp703
g61
(dp704
sg70
g658
sg63
(lp705
g56
(g77
g58
NtRp706
(dp707
g61
(dp708
g81
g82
ssg70
g702
sg63
(lp709
g334
asbag56
(g77
g58
NtRp710
(dp711
g61
(dp712
g88
g89
ssg70
g702
sg63
(lp713
S':'
asbag56
(g77
g58
NtRp714
(dp715
g61
(dp716
sg70
g702
sg63
(lp717
g56
(g57
g58
NtRp718
(dp719
g61
(dp720
g69
I3
ssg70
g714
sg63
(lp721
S''
asbasbasbag56
(g72
g58
NtRp722
(dp723
g61
(dp724
sg70
g658
sg63
(lp725
g56
(g77
g58
NtRp726
(dp727
g61
(dp728
g81
g82
ssg70
g722
sg63
(lp729
g355
asbag56
(g77
g58
NtRp730
(dp731
g61
(dp732
g88
g89
ssg70
g722
sg63
(lp733
S':'
asbag56
(g77
g58
NtRp734
(dp735
g61
(dp736
sg70
g722
sg63
(lp737
g56
(g57
g58
NtRp738
(dp739
g61
(dp740
g69
I3
ssg70
g734
sg63
(lp741
S''
asbasbasbag56
(g72
g58
NtRp742
(dp743
g61
(dp744
sg70
g658
sg63
(lp745
g56
(g77
g58
NtRp746
(dp747
g61
(dp748
g81
g82
ssg70
g742
sg63
(lp749
g376
asbag56
(g77
g58
NtRp750
(dp751
g61
(dp752
g88
g89
ssg70
g742
sg63
(lp753
S':'
asbag56
(g77
g58
NtRp754
(dp755
g61
(dp756
sg70
g742
sg63
(lp757
g56
(g57
g58
NtRp758
(dp759
g61
(dp760
g69
I3
ssg70
g754
sg63
(lp761
S''
asbasbasbag56
(g72
g58
NtRp762
(dp763
g61
(dp764
sg70
g658
sg63
(lp765
g56
(g77
g58
NtRp766
(dp767
g61
(dp768
g81
g82
ssg70
g762
sg63
(lp769
g397
asbag56
(g77
g58
NtRp770
(dp771
g61
(dp772
g88
g89
ssg70
g762
sg63
(lp773
S':'
asbag56
(g77
g58
NtRp774
(dp775
g61
(dp776
sg70
g762
sg63
(lp777
g56
(g57
g58
NtRp778
(dp779
g61
(dp780
g69
I3
ssg70
g774
sg63
(lp781
S''
asbasbasbag56
(g72
g58
NtRp782
(dp783
g61
(dp784
sg70
g658
sg63
(lp785
g56
(g77
g58
NtRp786
(dp787
g61
(dp788
g81
g82
ssg70
g782
sg63
(lp789
g418
asbag56
(g77
g58
NtRp790
(dp791
g61
(dp792
g88
g89
ssg70
g782
sg63
(lp793
S':'
asbag56
(g77
g58
NtRp794
(dp795
g61
(dp796
sg70
g782
sg63
(lp797
g56
(g57
g58
NtRp798
(dp799
g61
(dp800
g69
I3
ssg70
g794
sg63
(lp801
S''
asbasbasbag56
(g72
g58
NtRp802
(dp803
g61
(dp804
sg70
g658
sg63
(lp805
g56
(g77
g58
NtRp806
(dp807
g61
(dp808
g81
g82
ssg70
g802
sg63
(lp809
g439
asbag56
(g77
g58
NtRp810
(dp811
g61
(dp812
g88
g89
ssg70
g802
sg63
(lp813
S':'
asbag56
(g77
g58
NtRp814
(dp815
g61
(dp816
sg70
g802
sg63
(lp817
g56
(g57
g58
NtRp818
(dp819
g61
(dp820
g69
I3
ssg70
g814
sg63
(lp821
S''
asbasbasbasbasbasbasbasbasbasbasbag56
(g72
g58
NtRp822
(dp823
g61
(dp824
sg70
g66
sg63
(lp825
g56
(g77
g58
NtRp826
(dp827
g61
(dp828
g81
g82
ssg70
g822
sg63
(lp829
S'env'
p830
asbag56
(g77
g58
NtRp831
(dp832
g61
(dp833
g88
g89
ssg70
g822
sg63
(lp834
S':'
asbag56
(g77
g58
NtRp835
(dp836
g61
(dp837
sg70
g822
sg63
(lp838
g56
(g57
g58
NtRp839
(dp840
g61
(dp841
g69
I5
ssg70
g835
sg63
(lp842
g56
(g65
g58
NtRp843
(dp844
g61
(dp845
g69
I4
ssg70
Nsg63
(lp846
g56
(g72
g58
NtRp847
(dp848
g61
(dp849
sg70
g843
sg63
(lp850
g56
(g77
g58
NtRp851
(dp852
g61
(dp853
g81
g82
ssg70
g847
sg63
(lp854
S'app_folders'
p855
asbag56
(g77
g58
NtRp856
(dp857
g61
(dp858
g88
g89
ssg70
g847
sg63
(lp859
S':'
asbag56
(g77
g58
NtRp860
(dp861
g61
(dp862
sg70
g847
sg63
(lp863
g56
(g57
g58
NtRp864
(dp865
g61
(dp866
g69
I4
ssg70
g860
sg63
(lp867
S"set(['/home/ian/web2py/applications/welcome/', '/home/ian/web2py/applications/places/', '/home/ian/web2py/applications/admin/'])"
p868
asbasbasbag56
(g72
g58
NtRp869
(dp870
g61
(dp871
sg70
g843
sg63
(lp872
g56
(g77
g58
NtRp873
(dp874
g61
(dp875
g81
g82
ssg70
g869
sg63
(lp876
S'applications_parent'
p877
asbag56
(g77
g58
NtRp878
(dp879
g61
(dp880
g88
g89
ssg70
g869
sg63
(lp881
S':'
asbag56
(g77
g58
NtRp882
(dp883
g61
(dp884
sg70
g869
sg63
(lp885
g56
(g57
g58
NtRp886
(dp887
g61
(dp888
g69
I4
ssg70
g882
sg63
(lp889
S'/home/ian/web2py'
p890
asbasbasbag56
(g72
g58
NtRp891
(dp892
g61
(dp893
sg70
g843
sg63
(lp894
g56
(g77
g58
NtRp895
(dp896
g61
(dp897
g81
g82
ssg70
g891
sg63
(lp898
S'cmd_args'
p899
asbag56
(g77
g58
NtRp900
(dp901
g61
(dp902
g88
g89
ssg70
g891
sg63
(lp903
S':'
asbag56
(g77
g58
NtRp904
(dp905
g61
(dp906
sg70
g891
sg63
(lp907
g56
(g57
g58
NtRp908
(dp909
g61
(dp910
g69
I4
ssg70
g904
sg63
(lp911
g56
(g65
g58
NtRp912
(dp913
g61
(dp914
g69
I3
ssg70
Nsg63
(lp915
sbasbasbasbag56
(g72
g58
NtRp916
(dp917
g61
(dp918
sg70
g843
sg63
(lp919
g56
(g77
g58
NtRp920
(dp921
g61
(dp922
g81
g82
ssg70
g916
sg63
(lp923
S'cmd_options'
p924
asbag56
(g77
g58
NtRp925
(dp926
g61
(dp927
g88
g89
ssg70
g916
sg63
(lp928
S':'
asbag56
(g77
g58
NtRp929
(dp930
g61
(dp931
sg70
g916
sg63
(lp932
g56
(g57
g58
NtRp933
(dp934
g61
(dp935
g69
I4
ssg70
g929
sg63
(lp936
S"<Values at 0x26ccbd8: {'verbose': False, 'ip': '127.0.0.1', 'shutdown_timeout': 5, 'taskbar': False, 'nocron': False, 'pid_filename': 'httpserver.pid', 'maxthreads': None, 'softcron': False, 'server_name': 'Ariel-ubuntu', 'bpython': False, 'nogui': False, 'port': 8000, 'extcron': False, 'debuglevel': 30, 'test': None, 'folder': '/home/ian/web2py', 'config': '', 'import_models': False, 'winservice': '', 'shell': None, 'run': '', 'log_filename': 'httpserver.log', 'args': [''], 'ssl_ca_certificate': None, 'scheduler': None, 'profiler_filename': None, 'ssl_private_key': '', 'password': '<ask>', 'request_queue_size': 5, 'ssl_certificate': '', 'cronjob': False, 'plain': False, 'quiet': False, 'interfaces': None, 'minthreads': None, 'timeout': 10, 'numthreads': None, 'nobanner': False}>"
p937
asbasbasbag56
(g72
g58
NtRp938
(dp939
g61
(dp940
sg70
g843
sg63
(lp941
g56
(g77
g58
NtRp942
(dp943
g61
(dp944
g81
g82
ssg70
g938
sg63
(lp945
S'db_sessions'
p946
asbag56
(g77
g58
NtRp947
(dp948
g61
(dp949
g88
g89
ssg70
g938
sg63
(lp950
S':'
asbag56
(g77
g58
NtRp951
(dp952
g61
(dp953
sg70
g938
sg63
(lp954
g56
(g57
g58
NtRp955
(dp956
g61
(dp957
g69
I4
ssg70
g951
sg63
(lp958
S'set([])'
p959
asbasbasbag56
(g72
g58
NtRp960
(dp961
g61
(dp962
sg70
g843
sg63
(lp963
g56
(g77
g58
NtRp964
(dp965
g61
(dp966
g81
g82
ssg70
g960
sg63
(lp967
S'debugging'
p968
asbag56
(g77
g58
NtRp969
(dp970
g61
(dp971
g88
g89
ssg70
g960
sg63
(lp972
S':'
asbag56
(g77
g58
NtRp973
(dp974
g61
(dp975
sg70
g960
sg63
(lp976
g56
(g57
g58
NtRp977
(dp978
g61
(dp979
g69
I4
ssg70
g973
sg63
(lp980
S'False'
p981
asbasbasbag56
(g72
g58
NtRp982
(dp983
g61
(dp984
sg70
g843
sg63
(lp985
g56
(g77
g58
NtRp986
(dp987
g61
(dp988
g81
g82
ssg70
g982
sg63
(lp989
S'gluon_parent'
p990
asbag56
(g77
g58
NtRp991
(dp992
g61
(dp993
g88
g89
ssg70
g982
sg63
(lp994
S':'
asbag56
(g77
g58
NtRp995
(dp996
g61
(dp997
sg70
g982
sg63
(lp998
g56
(g57
g58
NtRp999
(dp1000
g61
(dp1001
g69
I4
ssg70
g995
sg63
(lp1002
S'/home/ian/web2py'
p1003
asbasbasbag56
(g72
g58
NtRp1004
(dp1005
g61
(dp1006
sg70
g843
sg63
(lp1007
g56
(g77
g58
NtRp1008
(dp1009
g61
(dp1010
g81
g82
ssg70
g1004
sg63
(lp1011
S'http_accept'
p1012
asbag56
(g77
g58
NtRp1013
(dp1014
g61
(dp1015
g88
g89
ssg70
g1004
sg63
(lp1016
S':'
asbag56
(g77
g58
NtRp1017
(dp1018
g61
(dp1019
sg70
g1004
sg63
(lp1020
g56
(g57
g58
NtRp1021
(dp1022
g61
(dp1023
g69
I4
ssg70
g1017
sg63
(lp1024
S'*/*'
p1025
asbasbasbag56
(g72
g58
NtRp1026
(dp1027
g61
(dp1028
sg70
g843
sg63
(lp1029
g56
(g77
g58
NtRp1030
(dp1031
g61
(dp1032
g81
g82
ssg70
g1026
sg63
(lp1033
S'http_accept_charset'
p1034
asbag56
(g77
g58
NtRp1035
(dp1036
g61
(dp1037
g88
g89
ssg70
g1026
sg63
(lp1038
S':'
asbag56
(g77
g58
NtRp1039
(dp1040
g61
(dp1041
sg70
g1026
sg63
(lp1042
g56
(g57
g58
NtRp1043
(dp1044
g61
(dp1045
g69
I4
ssg70
g1039
sg63
(lp1046
S'ISO-8859-1,utf-8;q=0.7,*;q=0.7'
p1047
asbasbasbag56
(g72
g58
NtRp1048
(dp1049
g61
(dp1050
sg70
g843
sg63
(lp1051
g56
(g77
g58
NtRp1052
(dp1053
g61
(dp1054
g81
g82
ssg70
g1048
sg63
(lp1055
S'http_accept_encoding'
p1056
asbag56
(g77
g58
NtRp1057
(dp1058
g61
(dp1059
g88
g89
ssg70
g1048
sg63
(lp1060
S':'
asbag56
(g77
g58
NtRp1061
(dp1062
g61
(dp1063
sg70
g1048
sg63
(lp1064
g56
(g57
g58
NtRp1065
(dp1066
g61
(dp1067
g69
I4
ssg70
g1061
sg63
(lp1068
S'gzip, deflate'
p1069
asbasbasbag56
(g72
g58
NtRp1070
(dp1071
g61
(dp1072
sg70
g843
sg63
(lp1073
g56
(g77
g58
NtRp1074
(dp1075
g61
(dp1076
g81
g82
ssg70
g1070
sg63
(lp1077
S'http_accept_language'
p1078
asbag56
(g77
g58
NtRp1079
(dp1080
g61
(dp1081
g88
g89
ssg70
g1070
sg63
(lp1082
S':'
asbag56
(g77
g58
NtRp1083
(dp1084
g61
(dp1085
sg70
g1070
sg63
(lp1086
g56
(g57
g58
NtRp1087
(dp1088
g61
(dp1089
g69
I4
ssg70
g1083
sg63
(lp1090
S'en-us,en;q=0.5'
p1091
asbasbasbag56
(g72
g58
NtRp1092
(dp1093
g61
(dp1094
sg70
g843
sg63
(lp1095
g56
(g77
g58
NtRp1096
(dp1097
g61
(dp1098
g81
g82
ssg70
g1092
sg63
(lp1099
S'http_connection'
p1100
asbag56
(g77
g58
NtRp1101
(dp1102
g61
(dp1103
g88
g89
ssg70
g1092
sg63
(lp1104
S':'
asbag56
(g77
g58
NtRp1105
(dp1106
g61
(dp1107
sg70
g1092
sg63
(lp1108
g56
(g57
g58
NtRp1109
(dp1110
g61
(dp1111
g69
I4
ssg70
g1105
sg63
(lp1112
S'keep-alive'
p1113
asbasbasbag56
(g72
g58
NtRp1114
(dp1115
g61
(dp1116
sg70
g843
sg63
(lp1117
g56
(g77
g58
NtRp1118
(dp1119
g61
(dp1120
g81
g82
ssg70
g1114
sg63
(lp1121
S'http_cookie'
p1122
asbag56
(g77
g58
NtRp1123
(dp1124
g61
(dp1125
g88
g89
ssg70
g1114
sg63
(lp1126
S':'
asbag56
(g77
g58
NtRp1127
(dp1128
g61
(dp1129
sg70
g1114
sg63
(lp1130
g56
(g57
g58
NtRp1131
(dp1132
g61
(dp1133
g69
I4
ssg70
g1127
sg63
(lp1134
S'session_id_welcome=127.0.0.1-f0e6d08e-4585-488a-91e0-180c6c7f25a8; session_id_admin=127.0.0.1-dac11dfe-be99-4fb0-a78e-57512c9f5790; session_id_places=127.0.0.1-9bd70a00-d029-4b6e-8bcc-a423c3a61399'
p1135
asbasbasbag56
(g72
g58
NtRp1136
(dp1137
g61
(dp1138
sg70
g843
sg63
(lp1139
g56
(g77
g58
NtRp1140
(dp1141
g61
(dp1142
g81
g82
ssg70
g1136
sg63
(lp1143
S'http_host'
p1144
asbag56
(g77
g58
NtRp1145
(dp1146
g61
(dp1147
g88
g89
ssg70
g1136
sg63
(lp1148
S':'
asbag56
(g77
g58
NtRp1149
(dp1150
g61
(dp1151
sg70
g1136
sg63
(lp1152
g56
(g57
g58
NtRp1153
(dp1154
g61
(dp1155
g69
I4
ssg70
g1149
sg63
(lp1156
S'127.0.0.1:8000'
p1157
asbasbasbag56
(g72
g58
NtRp1158
(dp1159
g61
(dp1160
sg70
g843
sg63
(lp1161
g56
(g77
g58
NtRp1162
(dp1163
g61
(dp1164
g81
g82
ssg70
g1158
sg63
(lp1165
S'http_referer'
p1166
asbag56
(g77
g58
NtRp1167
(dp1168
g61
(dp1169
g88
g89
ssg70
g1158
sg63
(lp1170
S':'
asbag56
(g77
g58
NtRp1171
(dp1172
g61
(dp1173
sg70
g1158
sg63
(lp1174
g56
(g57
g58
NtRp1175
(dp1176
g61
(dp1177
g69
I4
ssg70
g1171
sg63
(lp1178
S'http://127.0.0.1:8000/places/default/index'
p1179
asbasbasbag56
(g72
g58
NtRp1180
(dp1181
g61
(dp1182
sg70
g843
sg63
(lp1183
g56
(g77
g58
NtRp1184
(dp1185
g61
(dp1186
g81
g82
ssg70
g1180
sg63
(lp1187
S'http_user_agent'
p1188
asbag56
(g77
g58
NtRp1189
(dp1190
g61
(dp1191
g88
g89
ssg70
g1180
sg63
(lp1192
S':'
asbag56
(g77
g58
NtRp1193
(dp1194
g61
(dp1195
sg70
g1180
sg63
(lp1196
g56
(g57
g58
NtRp1197
(dp1198
g61
(dp1199
g69
I4
ssg70
g1193
sg63
(lp1200
S'Mozilla/5.0 (X11; Linux x86_64; rv:7.0.1) Gecko/20100101 Firefox/7.0.1'
p1201
asbasbasbag56
(g72
g58
NtRp1202
(dp1203
g61
(dp1204
sg70
g843
sg63
(lp1205
g56
(g77
g58
NtRp1206
(dp1207
g61
(dp1208
g81
g82
ssg70
g1202
sg63
(lp1209
S'http_web2py_component_element'
p1210
asbag56
(g77
g58
NtRp1211
(dp1212
g61
(dp1213
g88
g89
ssg70
g1202
sg63
(lp1214
S':'
asbag56
(g77
g58
NtRp1215
(dp1216
g61
(dp1217
sg70
g1202
sg63
(lp1218
g56
(g57
g58
NtRp1219
(dp1220
g61
(dp1221
g69
I4
ssg70
g1215
sg63
(lp1222
g189
asbasbasbag56
(g72
g58
NtRp1223
(dp1224
g61
(dp1225
sg70
g843
sg63
(lp1226
g56
(g77
g58
NtRp1227
(dp1228
g61
(dp1229
g81
g82
ssg70
g1223
sg63
(lp1230
S'http_web2py_component_location'
p1231
asbag56
(g77
g58
NtRp1232
(dp1233
g61
(dp1234
g88
g89
ssg70
g1223
sg63
(lp1235
S':'
asbag56
(g77
g58
NtRp1236
(dp1237
g61
(dp1238
sg70
g1223
sg63
(lp1239
g56
(g57
g58
NtRp1240
(dp1241
g61
(dp1242
g69
I4
ssg70
g1236
sg63
(lp1243
S'http://127.0.0.1:8000/places/default/index'
p1244
asbasbasbag56
(g72
g58
NtRp1245
(dp1246
g61
(dp1247
sg70
g843
sg63
(lp1248
g56
(g77
g58
NtRp1249
(dp1250
g61
(dp1251
g81
g82
ssg70
g1245
sg63
(lp1252
S'http_x_requested_with'
p1253
asbag56
(g77
g58
NtRp1254
(dp1255
g61
(dp1256
g88
g89
ssg70
g1245
sg63
(lp1257
S':'
asbag56
(g77
g58
NtRp1258
(dp1259
g61
(dp1260
sg70
g1245
sg63
(lp1261
g56
(g57
g58
NtRp1262
(dp1263
g61
(dp1264
g69
I4
ssg70
g1258
sg63
(lp1265
S'XMLHttpRequest'
p1266
asbasbasbag56
(g72
g58
NtRp1267
(dp1268
g61
(dp1269
sg70
g843
sg63
(lp1270
g56
(g77
g58
NtRp1271
(dp1272
g61
(dp1273
g81
g82
ssg70
g1267
sg63
(lp1274
S'is_jython'
p1275
asbag56
(g77
g58
NtRp1276
(dp1277
g61
(dp1278
g88
g89
ssg70
g1267
sg63
(lp1279
S':'
asbag56
(g77
g58
NtRp1280
(dp1281
g61
(dp1282
sg70
g1267
sg63
(lp1283
g56
(g57
g58
NtRp1284
(dp1285
g61
(dp1286
g69
I4
ssg70
g1280
sg63
(lp1287
g981
asbasbasbag56
(g72
g58
NtRp1288
(dp1289
g61
(dp1290
sg70
g843
sg63
(lp1291
g56
(g77
g58
NtRp1292
(dp1293
g61
(dp1294
g81
g82
ssg70
g1288
sg63
(lp1295
S'path_info'
p1296
asbag56
(g77
g58
NtRp1297
(dp1298
g61
(dp1299
g88
g89
ssg70
g1288
sg63
(lp1300
S':'
asbag56
(g77
g58
NtRp1301
(dp1302
g61
(dp1303
sg70
g1288
sg63
(lp1304
g56
(g57
g58
NtRp1305
(dp1306
g61
(dp1307
g69
I4
ssg70
g1301
sg63
(lp1308
S'/places/default/index.load'
p1309
asbasbasbag56
(g72
g58
NtRp1310
(dp1311
g61
(dp1312
sg70
g843
sg63
(lp1313
g56
(g77
g58
NtRp1314
(dp1315
g61
(dp1316
g81
g82
ssg70
g1310
sg63
(lp1317
S'query_string'
p1318
asbag56
(g77
g58
NtRp1319
(dp1320
g61
(dp1321
g88
g89
ssg70
g1310
sg63
(lp1322
S':'
asbag56
(g77
g58
NtRp1323
(dp1324
g61
(dp1325
sg70
g1310
sg63
(lp1326
g56
(g57
g58
NtRp1327
(dp1328
g61
(dp1329
g69
I4
ssg70
g1323
sg63
(lp1330
S'the_view=kitchen'
p1331
asbasbasbag56
(g72
g58
NtRp1332
(dp1333
g61
(dp1334
sg70
g843
sg63
(lp1335
g56
(g77
g58
NtRp1336
(dp1337
g61
(dp1338
g81
g82
ssg70
g1332
sg63
(lp1339
S'remote_addr'
p1340
asbag56
(g77
g58
NtRp1341
(dp1342
g61
(dp1343
g88
g89
ssg70
g1332
sg63
(lp1344
S':'
asbag56
(g77
g58
NtRp1345
(dp1346
g61
(dp1347
sg70
g1332
sg63
(lp1348
g56
(g57
g58
NtRp1349
(dp1350
g61
(dp1351
g69
I4
ssg70
g1345
sg63
(lp1352
g211
asbasbasbag56
(g72
g58
NtRp1353
(dp1354
g61
(dp1355
sg70
g843
sg63
(lp1356
g56
(g77
g58
NtRp1357
(dp1358
g61
(dp1359
g81
g82
ssg70
g1353
sg63
(lp1360
S'remote_port'
p1361
asbag56
(g77
g58
NtRp1362
(dp1363
g61
(dp1364
g88
g89
ssg70
g1353
sg63
(lp1365
S':'
asbag56
(g77
g58
NtRp1366
(dp1367
g61
(dp1368
sg70
g1353
sg63
(lp1369
g56
(g57
g58
NtRp1370
(dp1371
g61
(dp1372
g69
I4
ssg70
g1366
sg63
(lp1373
S'46120'
p1374
asbasbasbag56
(g72
g58
NtRp1375
(dp1376
g61
(dp1377
sg70
g843
sg63
(lp1378
g56
(g77
g58
NtRp1379
(dp1380
g61
(dp1381
g81
g82
ssg70
g1375
sg63
(lp1382
S'request_method'
p1383
asbag56
(g77
g58
NtRp1384
(dp1385
g61
(dp1386
g88
g89
ssg70
g1375
sg63
(lp1387
S':'
asbag56
(g77
g58
NtRp1388
(dp1389
g61
(dp1390
sg70
g1375
sg63
(lp1391
g56
(g57
g58
NtRp1392
(dp1393
g61
(dp1394
g69
I4
ssg70
g1388
sg63
(lp1395
S'GET'
p1396
asbasbasbag56
(g72
g58
NtRp1397
(dp1398
g61
(dp1399
sg70
g843
sg63
(lp1400
g56
(g77
g58
NtRp1401
(dp1402
g61
(dp1403
g81
g82
ssg70
g1397
sg63
(lp1404
S'script_name'
p1405
asbag56
(g77
g58
NtRp1406
(dp1407
g61
(dp1408
g88
g89
ssg70
g1397
sg63
(lp1409
S':'
asbag56
(g77
g58
NtRp1410
(dp1411
g61
(dp1412
sg70
g1397
sg63
(lp1413
g56
(g57
g58
NtRp1414
(dp1415
g61
(dp1416
g69
I4
ssg70
g1410
sg63
(lp1417
S''
asbasbasbag56
(g72
g58
NtRp1418
(dp1419
g61
(dp1420
sg70
g843
sg63
(lp1421
g56
(g77
g58
NtRp1422
(dp1423
g61
(dp1424
g81
g82
ssg70
g1418
sg63
(lp1425
S'server_name'
p1426
asbag56
(g77
g58
NtRp1427
(dp1428
g61
(dp1429
g88
g89
ssg70
g1418
sg63
(lp1430
S':'
asbag56
(g77
g58
NtRp1431
(dp1432
g61
(dp1433
sg70
g1418
sg63
(lp1434
g56
(g57
g58
NtRp1435
(dp1436
g61
(dp1437
g69
I4
ssg70
g1431
sg63
(lp1438
S'Ariel-ubuntu'
p1439
asbasbasbag56
(g72
g58
NtRp1440
(dp1441
g61
(dp1442
sg70
g843
sg63
(lp1443
g56
(g77
g58
NtRp1444
(dp1445
g61
(dp1446
g81
g82
ssg70
g1440
sg63
(lp1447
S'server_port'
p1448
asbag56
(g77
g58
NtRp1449
(dp1450
g61
(dp1451
g88
g89
ssg70
g1440
sg63
(lp1452
S':'
asbag56
(g77
g58
NtRp1453
(dp1454
g61
(dp1455
sg70
g1440
sg63
(lp1456
g56
(g57
g58
NtRp1457
(dp1458
g61
(dp1459
g69
I4
ssg70
g1453
sg63
(lp1460
S'8000'
p1461
asbasbasbag56
(g72
g58
NtRp1462
(dp1463
g61
(dp1464
sg70
g843
sg63
(lp1465
g56
(g77
g58
NtRp1466
(dp1467
g61
(dp1468
g81
g82
ssg70
g1462
sg63
(lp1469
S'server_protocol'
p1470
asbag56
(g77
g58
NtRp1471
(dp1472
g61
(dp1473
g88
g89
ssg70
g1462
sg63
(lp1474
S':'
asbag56
(g77
g58
NtRp1475
(dp1476
g61
(dp1477
sg70
g1462
sg63
(lp1478
g56
(g57
g58
NtRp1479
(dp1480
g61
(dp1481
g69
I4
ssg70
g1475
sg63
(lp1482
S'HTTP/1.1'
p1483
asbasbasbag56
(g72
g58
NtRp1484
(dp1485
g61
(dp1486
sg70
g843
sg63
(lp1487
g56
(g77
g58
NtRp1488
(dp1489
g61
(dp1490
g81
g82
ssg70
g1484
sg63
(lp1491
S'server_software'
p1492
asbag56
(g77
g58
NtRp1493
(dp1494
g61
(dp1495
g88
g89
ssg70
g1484
sg63
(lp1496
S':'
asbag56
(g77
g58
NtRp1497
(dp1498
g61
(dp1499
sg70
g1484
sg63
(lp1500
g56
(g57
g58
NtRp1501
(dp1502
g61
(dp1503
g69
I4
ssg70
g1497
sg63
(lp1504
S'Rocket 1.2.4'
p1505
asbasbasbag56
(g72
g58
NtRp1506
(dp1507
g61
(dp1508
sg70
g843
sg63
(lp1509
g56
(g77
g58
NtRp1510
(dp1511
g61
(dp1512
g81
g82
ssg70
g1506
sg63
(lp1513
S'web2py_crontype'
p1514
asbag56
(g77
g58
NtRp1515
(dp1516
g61
(dp1517
g88
g89
ssg70
g1506
sg63
(lp1518
S':'
asbag56
(g77
g58
NtRp1519
(dp1520
g61
(dp1521
sg70
g1506
sg63
(lp1522
g56
(g57
g58
NtRp1523
(dp1524
g61
(dp1525
g69
I4
ssg70
g1519
sg63
(lp1526
S'hard'
p1527
asbasbasbag56
(g72
g58
NtRp1528
(dp1529
g61
(dp1530
sg70
g843
sg63
(lp1531
g56
(g77
g58
NtRp1532
(dp1533
g61
(dp1534
g81
g82
ssg70
g1528
sg63
(lp1535
S'web2py_path'
p1536
asbag56
(g77
g58
NtRp1537
(dp1538
g61
(dp1539
g88
g89
ssg70
g1528
sg63
(lp1540
S':'
asbag56
(g77
g58
NtRp1541
(dp1542
g61
(dp1543
sg70
g1528
sg63
(lp1544
g56
(g57
g58
NtRp1545
(dp1546
g61
(dp1547
g69
I4
ssg70
g1541
sg63
(lp1548
g890
asbasbasbag56
(g72
g58
NtRp1549
(dp1550
g61
(dp1551
sg70
g843
sg63
(lp1552
g56
(g77
g58
NtRp1553
(dp1554
g61
(dp1555
g81
g82
ssg70
g1549
sg63
(lp1556
S'web2py_version'
p1557
asbag56
(g77
g58
NtRp1558
(dp1559
g61
(dp1560
g88
g89
ssg70
g1549
sg63
(lp1561
S':'
asbag56
(g77
g58
NtRp1562
(dp1563
g61
(dp1564
sg70
g1549
sg63
(lp1565
g56
(g57
g58
NtRp1566
(dp1567
g61
(dp1568
g69
I4
ssg70
g1562
sg63
(lp1569
g56
(g65
g58
NtRp1570
(dp1571
g61
(dp1572
g69
I3
ssg70
Nsg63
(lp1573
g56
(g72
g58
NtRp1574
(dp1575
g61
(dp1576
sg70
g1570
sg63
(lp1577
g56
(g77
g58
NtRp1578
(dp1579
g61
(dp1580
sg70
g1574
sg63
(lp1581
g56
(g57
g58
NtRp1582
(dp1583
g61
(dp1584
g69
I3
ssg70
g1578
sg63
(lp1585
S'1'
asbasbasbag56
(g72
g58
NtRp1586
(dp1587
g61
(dp1588
sg70
g1570
sg63
(lp1589
g56
(g77
g58
NtRp1590
(dp1591
g61
(dp1592
sg70
g1586
sg63
(lp1593
g56
(g57
g58
NtRp1594
(dp1595
g61
(dp1596
g69
I3
ssg70
g1590
sg63
(lp1597
S'99'
p1598
asbasbasbag56
(g72
g58
NtRp1599
(dp1600
g61
(dp1601
sg70
g1570
sg63
(lp1602
g56
(g77
g58
NtRp1603
(dp1604
g61
(dp1605
sg70
g1599
sg63
(lp1606
g56
(g57
g58
NtRp1607
(dp1608
g61
(dp1609
g69
I3
ssg70
g1603
sg63
(lp1610
S'2'
asbasbasbag56
(g72
g58
NtRp1611
(dp1612
g61
(dp1613
sg70
g1570
sg63
(lp1614
g56
(g77
g58
NtRp1615
(dp1616
g61
(dp1617
sg70
g1611
sg63
(lp1618
g56
(g57
g58
NtRp1619
(dp1620
g61
(dp1621
g69
I3
ssg70
g1615
sg63
(lp1622
S'datetime.datetime(2011, 9, 26, 6, 55, 33)'
p1623
asbasbasbag56
(g72
g58
NtRp1624
(dp1625
g61
(dp1626
sg70
g1570
sg63
(lp1627
g56
(g77
g58
NtRp1628
(dp1629
g61
(dp1630
sg70
g1624
sg63
(lp1631
g56
(g57
g58
NtRp1632
(dp1633
g61
(dp1634
g69
I3
ssg70
g1628
sg63
(lp1635
S'stable'
p1636
asbasbasbasbasbasbasbag56
(g72
g58
NtRp1637
(dp1638
g61
(dp1639
sg70
g843
sg63
(lp1640
g56
(g77
g58
NtRp1641
(dp1642
g61
(dp1643
g81
g82
ssg70
g1637
sg63
(lp1644
S'wsgi_errors'
p1645
asbag56
(g77
g58
NtRp1646
(dp1647
g61
(dp1648
g88
g89
ssg70
g1637
sg63
(lp1649
S':'
asbag56
(g77
g58
NtRp1650
(dp1651
g61
(dp1652
sg70
g1637
sg63
(lp1653
g56
(g57
g58
NtRp1654
(dp1655
g61
(dp1656
g69
I4
ssg70
g1650
sg63
(lp1657
S"<open file '<stderr>', mode 'w' at 0x7f6d3a48b270>"
p1658
asbasbasbag56
(g72
g58
NtRp1659
(dp1660
g61
(dp1661
sg70
g843
sg63
(lp1662
g56
(g77
g58
NtRp1663
(dp1664
g61
(dp1665
g81
g82
ssg70
g1659
sg63
(lp1666
S'wsgi_file_wrapper'
p1667
asbag56
(g77
g58
NtRp1668
(dp1669
g61
(dp1670
g88
g89
ssg70
g1659
sg63
(lp1671
S':'
asbag56
(g77
g58
NtRp1672
(dp1673
g61
(dp1674
sg70
g1659
sg63
(lp1675
g56
(g57
g58
NtRp1676
(dp1677
g61
(dp1678
g69
I4
ssg70
g1672
sg63
(lp1679
S'<class wsgiref.util.FileWrapper at 0x25957a0>'
p1680
asbasbasbag56
(g72
g58
NtRp1681
(dp1682
g61
(dp1683
sg70
g843
sg63
(lp1684
g56
(g77
g58
NtRp1685
(dp1686
g61
(dp1687
g81
g82
ssg70
g1681
sg63
(lp1688
S'wsgi_input'
p1689
asbag56
(g77
g58
NtRp1690
(dp1691
g61
(dp1692
g88
g89
ssg70
g1681
sg63
(lp1693
S':'
asbag56
(g77
g58
NtRp1694
(dp1695
g61
(dp1696
sg70
g1681
sg63
(lp1697
g56
(g57
g58
NtRp1698
(dp1699
g61
(dp1700
g69
I4
ssg70
g1694
sg63
(lp1701
S'<socket._fileobject object at 0x2c01950>'
p1702
asbasbasbag56
(g72
g58
NtRp1703
(dp1704
g61
(dp1705
sg70
g843
sg63
(lp1706
g56
(g77
g58
NtRp1707
(dp1708
g61
(dp1709
g81
g82
ssg70
g1703
sg63
(lp1710
S'wsgi_multiprocess'
p1711
asbag56
(g77
g58
NtRp1712
(dp1713
g61
(dp1714
g88
g89
ssg70
g1703
sg63
(lp1715
S':'
asbag56
(g77
g58
NtRp1716
(dp1717
g61
(dp1718
sg70
g1703
sg63
(lp1719
g56
(g57
g58
NtRp1720
(dp1721
g61
(dp1722
g69
I4
ssg70
g1716
sg63
(lp1723
g981
asbasbasbag56
(g72
g58
NtRp1724
(dp1725
g61
(dp1726
sg70
g843
sg63
(lp1727
g56
(g77
g58
NtRp1728
(dp1729
g61
(dp1730
g81
g82
ssg70
g1724
sg63
(lp1731
S'wsgi_multithread'
p1732
asbag56
(g77
g58
NtRp1733
(dp1734
g61
(dp1735
g88
g89
ssg70
g1724
sg63
(lp1736
S':'
asbag56
(g77
g58
NtRp1737
(dp1738
g61
(dp1739
sg70
g1724
sg63
(lp1740
g56
(g57
g58
NtRp1741
(dp1742
g61
(dp1743
g69
I4
ssg70
g1737
sg63
(lp1744
g99
asbasbasbag56
(g72
g58
NtRp1745
(dp1746
g61
(dp1747
sg70
g843
sg63
(lp1748
g56
(g77
g58
NtRp1749
(dp1750
g61
(dp1751
g81
g82
ssg70
g1745
sg63
(lp1752
S'wsgi_run_once'
p1753
asbag56
(g77
g58
NtRp1754
(dp1755
g61
(dp1756
g88
g89
ssg70
g1745
sg63
(lp1757
S':'
asbag56
(g77
g58
NtRp1758
(dp1759
g61
(dp1760
sg70
g1745
sg63
(lp1761
g56
(g57
g58
NtRp1762
(dp1763
g61
(dp1764
g69
I4
ssg70
g1758
sg63
(lp1765
g981
asbasbasbag56
(g72
g58
NtRp1766
(dp1767
g61
(dp1768
sg70
g843
sg63
(lp1769
g56
(g77
g58
NtRp1770
(dp1771
g61
(dp1772
g81
g82
ssg70
g1766
sg63
(lp1773
S'wsgi_url_scheme'
p1774
asbag56
(g77
g58
NtRp1775
(dp1776
g61
(dp1777
g88
g89
ssg70
g1766
sg63
(lp1778
S':'
asbag56
(g77
g58
NtRp1779
(dp1780
g61
(dp1781
sg70
g1766
sg63
(lp1782
g56
(g57
g58
NtRp1783
(dp1784
g61
(dp1785
g69
I4
ssg70
g1779
sg63
(lp1786
S'http'
p1787
asbasbasbag56
(g72
g58
NtRp1788
(dp1789
g61
(dp1790
sg70
g843
sg63
(lp1791
g56
(g77
g58
NtRp1792
(dp1793
g61
(dp1794
g81
g82
ssg70
g1788
sg63
(lp1795
S'wsgi_version'
p1796
asbag56
(g77
g58
NtRp1797
(dp1798
g61
(dp1799
g88
g89
ssg70
g1788
sg63
(lp1800
S':'
asbag56
(g77
g58
NtRp1801
(dp1802
g61
(dp1803
sg70
g1788
sg63
(lp1804
g56
(g57
g58
NtRp1805
(dp1806
g61
(dp1807
g69
I4
ssg70
g1801
sg63
(lp1808
g56
(g65
g58
NtRp1809
(dp1810
g61
(dp1811
g69
I3
ssg70
Nsg63
(lp1812
g56
(g72
g58
NtRp1813
(dp1814
g61
(dp1815
sg70
g1809
sg63
(lp1816
g56
(g77
g58
NtRp1817
(dp1818
g61
(dp1819
sg70
g1813
sg63
(lp1820
g56
(g57
g58
NtRp1821
(dp1822
g61
(dp1823
g69
I3
ssg70
g1817
sg63
(lp1824
S'1'
asbasbasbag56
(g72
g58
NtRp1825
(dp1826
g61
(dp1827
sg70
g1809
sg63
(lp1828
g56
(g77
g58
NtRp1829
(dp1830
g61
(dp1831
sg70
g1825
sg63
(lp1832
g56
(g57
g58
NtRp1833
(dp1834
g61
(dp1835
g69
I3
ssg70
g1829
sg63
(lp1836
S'0'
asbasbasbasbasbasbasbasbasbasbasbag56
(g72
g58
NtRp1837
(dp1838
g61
(dp1839
sg70
g66
sg63
(lp1840
g56
(g77
g58
NtRp1841
(dp1842
g61
(dp1843
g81
g82
ssg70
g1837
sg63
(lp1844
S'extension'
p1845
asbag56
(g77
g58
NtRp1846
(dp1847
g61
(dp1848
g88
g89
ssg70
g1837
sg63
(lp1849
S':'
asbag56
(g77
g58
NtRp1850
(dp1851
g61
(dp1852
sg70
g1837
sg63
(lp1853
g56
(g57
g58
NtRp1854
(dp1855
g61
(dp1856
g69
I5
ssg70
g1850
sg63
(lp1857
S'load'
p1858
asbasbasbag56
(g72
g58
NtRp1859
(dp1860
g61
(dp1861
sg70
g66
sg63
(lp1862
g56
(g77
g58
NtRp1863
(dp1864
g61
(dp1865
g81
g82
ssg70
g1859
sg63
(lp1866
S'folder'
p1867
asbag56
(g77
g58
NtRp1868
(dp1869
g61
(dp1870
g88
g89
ssg70
g1859
sg63
(lp1871
S':'
asbag56
(g77
g58
NtRp1872
(dp1873
g61
(dp1874
sg70
g1859
sg63
(lp1875
g56
(g57
g58
NtRp1876
(dp1877
g61
(dp1878
g69
I5
ssg70
g1872
sg63
(lp1879
S'/home/ian/web2py/applications/places/'
p1880
asbasbasbag56
(g72
g58
NtRp1881
(dp1882
g61
(dp1883
sg70
g66
sg63
(lp1884
g56
(g77
g58
NtRp1885
(dp1886
g61
(dp1887
g81
g82
ssg70
g1881
sg63
(lp1888
S'function'
p1889
asbag56
(g77
g58
NtRp1890
(dp1891
g61
(dp1892
g88
g89
ssg70
g1881
sg63
(lp1893
S':'
asbag56
(g77
g58
NtRp1894
(dp1895
g61
(dp1896
sg70
g1881
sg63
(lp1897
g56
(g57
g58
NtRp1898
(dp1899
g61
(dp1900
g69
I5
ssg70
g1894
sg63
(lp1901
S'index'
p1902
asbasbasbag56
(g72
g58
NtRp1903
(dp1904
g61
(dp1905
sg70
g66
sg63
(lp1906
g56
(g77
g58
NtRp1907
(dp1908
g61
(dp1909
g81
g82
ssg70
g1903
sg63
(lp1910
S'get_vars'
p1911
asbag56
(g77
g58
NtRp1912
(dp1913
g61
(dp1914
g88
g89
ssg70
g1903
sg63
(lp1915
S':'
asbag56
(g77
g58
NtRp1916
(dp1917
g61
(dp1918
sg70
g1903
sg63
(lp1919
g56
(g57
g58
NtRp1920
(dp1921
g61
(dp1922
g69
I5
ssg70
g1916
sg63
(lp1923
g56
(g65
g58
NtRp1924
(dp1925
g61
(dp1926
g69
I4
ssg70
Nsg63
(lp1927
g56
(g72
g58
NtRp1928
(dp1929
g61
(dp1930
sg70
g1924
sg63
(lp1931
g56
(g77
g58
NtRp1932
(dp1933
g61
(dp1934
g81
g82
ssg70
g1928
sg63
(lp1935
S'the_view'
p1936
asbag56
(g77
g58
NtRp1937
(dp1938
g61
(dp1939
g88
g89
ssg70
g1928
sg63
(lp1940
S':'
asbag56
(g77
g58
NtRp1941
(dp1942
g61
(dp1943
sg70
g1928
sg63
(lp1944
g56
(g57
g58
NtRp1945
(dp1946
g61
(dp1947
g69
I4
ssg70
g1941
sg63
(lp1948
S'kitchen'
p1949
asbasbasbasbasbasbasbag56
(g72
g58
NtRp1950
(dp1951
g61
(dp1952
sg70
g66
sg63
(lp1953
g56
(g77
g58
NtRp1954
(dp1955
g61
(dp1956
g81
g82
ssg70
g1950
sg63
(lp1957
S'global_settings'
p1958
asbag56
(g77
g58
NtRp1959
(dp1960
g61
(dp1961
g88
g89
ssg70
g1950
sg63
(lp1962
S':'
asbag56
(g77
g58
NtRp1963
(dp1964
g61
(dp1965
sg70
g1950
sg63
(lp1966
g56
(g57
g58
NtRp1967
(dp1968
g61
(dp1969
g69
I5
ssg70
g1963
sg63
(lp1970
g56
(g65
g58
NtRp1971
(dp1972
g61
(dp1973
g69
I4
ssg70
Nsg63
(lp1974
g56
(g72
g58
NtRp1975
(dp1976
g61
(dp1977
sg70
g1971
sg63
(lp1978
g56
(g77
g58
NtRp1979
(dp1980
g61
(dp1981
g81
g82
ssg70
g1975
sg63
(lp1982
g855
asbag56
(g77
g58
NtRp1983
(dp1984
g61
(dp1985
g88
g89
ssg70
g1975
sg63
(lp1986
S':'
asbag56
(g77
g58
NtRp1987
(dp1988
g61
(dp1989
sg70
g1975
sg63
(lp1990
g56
(g57
g58
NtRp1991
(dp1992
g61
(dp1993
g69
I4
ssg70
g1987
sg63
(lp1994
S"set(['/home/ian/web2py/applications/welcome/', '/home/ian/web2py/applications/places/', '/home/ian/web2py/applications/admin/'])"
p1995
asbasbasbag56
(g72
g58
NtRp1996
(dp1997
g61
(dp1998
sg70
g1971
sg63
(lp1999
g56
(g77
g58
NtRp2000
(dp2001
g61
(dp2002
g81
g82
ssg70
g1996
sg63
(lp2003
g877
asbag56
(g77
g58
NtRp2004
(dp2005
g61
(dp2006
g88
g89
ssg70
g1996
sg63
(lp2007
S':'
asbag56
(g77
g58
NtRp2008
(dp2009
g61
(dp2010
sg70
g1996
sg63
(lp2011
g56
(g57
g58
NtRp2012
(dp2013
g61
(dp2014
g69
I4
ssg70
g2008
sg63
(lp2015
g890
asbasbasbag56
(g72
g58
NtRp2016
(dp2017
g61
(dp2018
sg70
g1971
sg63
(lp2019
g56
(g77
g58
NtRp2020
(dp2021
g61
(dp2022
g81
g82
ssg70
g2016
sg63
(lp2023
g899
asbag56
(g77
g58
NtRp2024
(dp2025
g61
(dp2026
g88
g89
ssg70
g2016
sg63
(lp2027
S':'
asbag56
(g77
g58
NtRp2028
(dp2029
g61
(dp2030
sg70
g2016
sg63
(lp2031
g56
(g57
g58
NtRp2032
(dp2033
g61
(dp2034
g69
I4
ssg70
g2028
sg63
(lp2035
g56
(g65
g58
NtRp2036
(dp2037
g61
(dp2038
g69
I3
ssg70
Nsg63
(lp2039
sbasbasbasbag56
(g72
g58
NtRp2040
(dp2041
g61
(dp2042
sg70
g1971
sg63
(lp2043
g56
(g77
g58
NtRp2044
(dp2045
g61
(dp2046
g81
g82
ssg70
g2040
sg63
(lp2047
g924
asbag56
(g77
g58
NtRp2048
(dp2049
g61
(dp2050
g88
g89
ssg70
g2040
sg63
(lp2051
S':'
asbag56
(g77
g58
NtRp2052
(dp2053
g61
(dp2054
sg70
g2040
sg63
(lp2055
g56
(g57
g58
NtRp2056
(dp2057
g61
(dp2058
g69
I4
ssg70
g2052
sg63
(lp2059
S"<Values at 0x26ccbd8: {'verbose': False, 'ip': '127.0.0.1', 'shutdown_timeout': 5, 'taskbar': False, 'nocron': False, 'pid_filename': 'httpserver.pid', 'maxthreads': None, 'softcron': False, 'server_name': 'Ariel-ubuntu', 'bpython': False, 'nogui': False, 'port': 8000, 'extcron': False, 'debuglevel': 30, 'test': None, 'folder': '/home/ian/web2py', 'config': '', 'import_models': False, 'winservice': '', 'shell': None, 'run': '', 'log_filename': 'httpserver.log', 'args': [''], 'ssl_ca_certificate': None, 'scheduler': None, 'profiler_filename': None, 'ssl_private_key': '', 'password': '<ask>', 'request_queue_size': 5, 'ssl_certificate': '', 'cronjob': False, 'plain': False, 'quiet': False, 'interfaces': None, 'minthreads': None, 'timeout': 10, 'numthreads': None, 'nobanner': False}>"
p2060
asbasbasbag56
(g72
g58
NtRp2061
(dp2062
g61
(dp2063
sg70
g1971
sg63
(lp2064
g56
(g77
g58
NtRp2065
(dp2066
g61
(dp2067
g81
g82
ssg70
g2061
sg63
(lp2068
g946
asbag56
(g77
g58
NtRp2069
(dp2070
g61
(dp2071
g88
g89
ssg70
g2061
sg63
(lp2072
S':'
asbag56
(g77
g58
NtRp2073
(dp2074
g61
(dp2075
sg70
g2061
sg63
(lp2076
g56
(g57
g58
NtRp2077
(dp2078
g61
(dp2079
g69
I4
ssg70
g2073
sg63
(lp2080
S'set([])'
p2081
asbasbasbag56
(g72
g58
NtRp2082
(dp2083
g61
(dp2084
sg70
g1971
sg63
(lp2085
g56
(g77
g58
NtRp2086
(dp2087
g61
(dp2088
g81
g82
ssg70
g2082
sg63
(lp2089
g968
asbag56
(g77
g58
NtRp2090
(dp2091
g61
(dp2092
g88
g89
ssg70
g2082
sg63
(lp2093
S':'
asbag56
(g77
g58
NtRp2094
(dp2095
g61
(dp2096
sg70
g2082
sg63
(lp2097
g56
(g57
g58
NtRp2098
(dp2099
g61
(dp2100
g69
I4
ssg70
g2094
sg63
(lp2101
g981
asbasbasbag56
(g72
g58
NtRp2102
(dp2103
g61
(dp2104
sg70
g1971
sg63
(lp2105
g56
(g77
g58
NtRp2106
(dp2107
g61
(dp2108
g81
g82
ssg70
g2102
sg63
(lp2109
g990
asbag56
(g77
g58
NtRp2110
(dp2111
g61
(dp2112
g88
g89
ssg70
g2102
sg63
(lp2113
S':'
asbag56
(g77
g58
NtRp2114
(dp2115
g61
(dp2116
sg70
g2102
sg63
(lp2117
g56
(g57
g58
NtRp2118
(dp2119
g61
(dp2120
g69
I4
ssg70
g2114
sg63
(lp2121
g1003
asbasbasbag56
(g72
g58
NtRp2122
(dp2123
g61
(dp2124
sg70
g1971
sg63
(lp2125
g56
(g77
g58
NtRp2126
(dp2127
g61
(dp2128
g81
g82
ssg70
g2122
sg63
(lp2129
g1275
asbag56
(g77
g58
NtRp2130
(dp2131
g61
(dp2132
g88
g89
ssg70
g2122
sg63
(lp2133
S':'
asbag56
(g77
g58
NtRp2134
(dp2135
g61
(dp2136
sg70
g2122
sg63
(lp2137
g56
(g57
g58
NtRp2138
(dp2139
g61
(dp2140
g69
I4
ssg70
g2134
sg63
(lp2141
g981
asbasbasbag56
(g72
g58
NtRp2142
(dp2143
g61
(dp2144
sg70
g1971
sg63
(lp2145
g56
(g77
g58
NtRp2146
(dp2147
g61
(dp2148
g81
g82
ssg70
g2142
sg63
(lp2149
g1514
asbag56
(g77
g58
NtRp2150
(dp2151
g61
(dp2152
g88
g89
ssg70
g2142
sg63
(lp2153
S':'
asbag56
(g77
g58
NtRp2154
(dp2155
g61
(dp2156
sg70
g2142
sg63
(lp2157
g56
(g57
g58
NtRp2158
(dp2159
g61
(dp2160
g69
I4
ssg70
g2154
sg63
(lp2161
g1527
asbasbasbag56
(g72
g58
NtRp2162
(dp2163
g61
(dp2164
sg70
g1971
sg63
(lp2165
g56
(g77
g58
NtRp2166
(dp2167
g61
(dp2168
g81
g82
ssg70
g2162
sg63
(lp2169
g1557
asbag56
(g77
g58
NtRp2170
(dp2171
g61
(dp2172
g88
g89
ssg70
g2162
sg63
(lp2173
S':'
asbag56
(g77
g58
NtRp2174
(dp2175
g61
(dp2176
sg70
g2162
sg63
(lp2177
g56
(g57
g58
NtRp2178
(dp2179
g61
(dp2180
g69
I4
ssg70
g2174
sg63
(lp2181
g56
(g65
g58
NtRp2182
(dp2183
g61
(dp2184
g69
I3
ssg70
Nsg63
(lp2185
g56
(g72
g58
NtRp2186
(dp2187
g61
(dp2188
sg70
g2182
sg63
(lp2189
g56
(g77
g58
NtRp2190
(dp2191
g61
(dp2192
sg70
g2186
sg63
(lp2193
g56
(g57
g58
NtRp2194
(dp2195
g61
(dp2196
g69
I3
ssg70
g2190
sg63
(lp2197
S'1'
asbasbasbag56
(g72
g58
NtRp2198
(dp2199
g61
(dp2200
sg70
g2182
sg63
(lp2201
g56
(g77
g58
NtRp2202
(dp2203
g61
(dp2204
sg70
g2198
sg63
(lp2205
g56
(g57
g58
NtRp2206
(dp2207
g61
(dp2208
g69
I3
ssg70
g2202
sg63
(lp2209
S'99'
p2210
asbasbasbag56
(g72
g58
NtRp2211
(dp2212
g61
(dp2213
sg70
g2182
sg63
(lp2214
g56
(g77
g58
NtRp2215
(dp2216
g61
(dp2217
sg70
g2211
sg63
(lp2218
g56
(g57
g58
NtRp2219
(dp2220
g61
(dp2221
g69
I3
ssg70
g2215
sg63
(lp2222
S'2'
asbasbasbag56
(g72
g58
NtRp2223
(dp2224
g61
(dp2225
sg70
g2182
sg63
(lp2226
g56
(g77
g58
NtRp2227
(dp2228
g61
(dp2229
sg70
g2223
sg63
(lp2230
g56
(g57
g58
NtRp2231
(dp2232
g61
(dp2233
g69
I3
ssg70
g2227
sg63
(lp2234
S'datetime.datetime(2011, 9, 26, 6, 55, 33)'
p2235
asbasbasbag56
(g72
g58
NtRp2236
(dp2237
g61
(dp2238
sg70
g2182
sg63
(lp2239
g56
(g77
g58
NtRp2240
(dp2241
g61
(dp2242
sg70
g2236
sg63
(lp2243
g56
(g57
g58
NtRp2244
(dp2245
g61
(dp2246
g69
I3
ssg70
g2240
sg63
(lp2247
g1636
asbasbasbasbasbasbasbasbasbasbasbag56
(g72
g58
NtRp2248
(dp2249
g61
(dp2250
sg70
g66
sg63
(lp2251
g56
(g77
g58
NtRp2252
(dp2253
g61
(dp2254
g81
g82
ssg70
g2248
sg63
(lp2255
S'is_https'
p2256
asbag56
(g77
g58
NtRp2257
(dp2258
g61
(dp2259
g88
g89
ssg70
g2248
sg63
(lp2260
S':'
asbag56
(g77
g58
NtRp2261
(dp2262
g61
(dp2263
sg70
g2248
sg63
(lp2264
g56
(g57
g58
NtRp2265
(dp2266
g61
(dp2267
g69
I5
ssg70
g2261
sg63
(lp2268
g981
asbasbasbag56
(g72
g58
NtRp2269
(dp2270
g61
(dp2271
sg70
g66
sg63
(lp2272
g56
(g77
g58
NtRp2273
(dp2274
g61
(dp2275
g81
g82
ssg70
g2269
sg63
(lp2276
S'is_local'
p2277
asbag56
(g77
g58
NtRp2278
(dp2279
g61
(dp2280
g88
g89
ssg70
g2269
sg63
(lp2281
S':'
asbag56
(g77
g58
NtRp2282
(dp2283
g61
(dp2284
sg70
g2269
sg63
(lp2285
g56
(g57
g58
NtRp2286
(dp2287
g61
(dp2288
g69
I5
ssg70
g2282
sg63
(lp2289
g99
asbasbasbag56
(g72
g58
NtRp2290
(dp2291
g61
(dp2292
sg70
g66
sg63
(lp2293
g56
(g77
g58
NtRp2294
(dp2295
g61
(dp2296
g81
g82
ssg70
g2290
sg63
(lp2297
S'is_restful'
p2298
asbag56
(g77
g58
NtRp2299
(dp2300
g61
(dp2301
g88
g89
ssg70
g2290
sg63
(lp2302
S':'
asbag56
(g77
g58
NtRp2303
(dp2304
g61
(dp2305
sg70
g2290
sg63
(lp2306
g56
(g57
g58
NtRp2307
(dp2308
g61
(dp2309
g69
I5
ssg70
g2303
sg63
(lp2310
g981
asbasbasbag56
(g72
g58
NtRp2311
(dp2312
g61
(dp2313
sg70
g66
sg63
(lp2314
g56
(g77
g58
NtRp2315
(dp2316
g61
(dp2317
g81
g82
ssg70
g2311
sg63
(lp2318
S'now'
p2319
asbag56
(g77
g58
NtRp2320
(dp2321
g61
(dp2322
g88
g89
ssg70
g2311
sg63
(lp2323
S':'
asbag56
(g77
g58
NtRp2324
(dp2325
g61
(dp2326
sg70
g2311
sg63
(lp2327
g56
(g57
g58
NtRp2328
(dp2329
g61
(dp2330
g69
I5
ssg70
g2324
sg63
(lp2331
S'datetime.datetime(2011, 10, 2, 21, 8, 13, 485854)'
p2332
asbasbasbag56
(g72
g58
NtRp2333
(dp2334
g61
(dp2335
sg70
g66
sg63
(lp2336
g56
(g77
g58
NtRp2337
(dp2338
g61
(dp2339
g81
g82
ssg70
g2333
sg63
(lp2340
S'post_vars'
p2341
asbag56
(g77
g58
NtRp2342
(dp2343
g61
(dp2344
g88
g89
ssg70
g2333
sg63
(lp2345
S':'
asbag56
(g77
g58
NtRp2346
(dp2347
g61
(dp2348
sg70
g2333
sg63
(lp2349
g56
(g57
g58
NtRp2350
(dp2351
g61
(dp2352
g69
I5
ssg70
g2346
sg63
(lp2353
g56
(g65
g58
NtRp2354
(dp2355
g61
(dp2356
g69
I4
ssg70
Nsg63
(lp2357
sbasbasbasbag56
(g72
g58
NtRp2358
(dp2359
g61
(dp2360
sg70
g66
sg63
(lp2361
g56
(g77
g58
NtRp2362
(dp2363
g61
(dp2364
g81
g82
ssg70
g2358
sg63
(lp2365
S'raw_extension'
p2366
asbag56
(g77
g58
NtRp2367
(dp2368
g61
(dp2369
g88
g89
ssg70
g2358
sg63
(lp2370
S':'
asbag56
(g77
g58
NtRp2371
(dp2372
g61
(dp2373
sg70
g2358
sg63
(lp2374
g56
(g57
g58
NtRp2375
(dp2376
g61
(dp2377
g69
I5
ssg70
g2371
sg63
(lp2378
g1858
asbasbasbag56
(g72
g58
NtRp2379
(dp2380
g61
(dp2381
sg70
g66
sg63
(lp2382
g56
(g77
g58
NtRp2383
(dp2384
g61
(dp2385
g81
g82
ssg70
g2379
sg63
(lp2386
S'url'
p2387
asbag56
(g77
g58
NtRp2388
(dp2389
g61
(dp2390
g88
g89
ssg70
g2379
sg63
(lp2391
S':'
asbag56
(g77
g58
NtRp2392
(dp2393
g61
(dp2394
sg70
g2379
sg63
(lp2395
g56
(g57
g58
NtRp2396
(dp2397
g61
(dp2398
g69
I5
ssg70
g2392
sg63
(lp2399
S'/places/default/index.load'
p2400
asbasbasbag56
(g72
g58
NtRp2401
(dp2402
g61
(dp2403
sg70
g66
sg63
(lp2404
g56
(g77
g58
NtRp2405
(dp2406
g61
(dp2407
g81
g82
ssg70
g2401
sg63
(lp2408
S'utcnow'
p2409
asbag56
(g77
g58
NtRp2410
(dp2411
g61
(dp2412
g88
g89
ssg70
g2401
sg63
(lp2413
S':'
asbag56
(g77
g58
NtRp2414
(dp2415
g61
(dp2416
sg70
g2401
sg63
(lp2417
g56
(g57
g58
NtRp2418
(dp2419
g61
(dp2420
g69
I5
ssg70
g2414
sg63
(lp2421
S'datetime.datetime(2011, 10, 3, 1, 8, 13, 485904)'
p2422
asbasbasbag56
(g72
g58
NtRp2423
(dp2424
g61
(dp2425
sg70
g66
sg63
(lp2426
g56
(g77
g58
NtRp2427
(dp2428
g61
(dp2429
g81
g82
ssg70
g2423
sg63
(lp2430
S'uuid'
p2431
asbag56
(g77
g58
NtRp2432
(dp2433
g61
(dp2434
g88
g89
ssg70
g2423
sg63
(lp2435
S':'
asbag56
(g77
g58
NtRp2436
(dp2437
g61
(dp2438
sg70
g2423
sg63
(lp2439
g56
(g57
g58
NtRp2440
(dp2441
g61
(dp2442
g69
I5
ssg70
g2436
sg63
(lp2443
S'places/127.0.0.1.2011-10-02.21-08-13.5874eb73-422c-469c-8a76-d8711cdbbe60'
p2444
asbasbasbag56
(g72
g58
NtRp2445
(dp2446
g61
(dp2447
sg70
g66
sg63
(lp2448
g56
(g77
g58
NtRp2449
(dp2450
g61
(dp2451
g81
g82
ssg70
g2445
sg63
(lp2452
S'vars'
p2453
asbag56
(g77
g58
NtRp2454
(dp2455
g61
(dp2456
g88
g89
ssg70
g2445
sg63
(lp2457
S':'
asbag56
(g77
g58
NtRp2458
(dp2459
g61
(dp2460
sg70
g2445
sg63
(lp2461
g56
(g57
g58
NtRp2462
(dp2463
g61
(dp2464
g69
I5
ssg70
g2458
sg63
(lp2465
g56
(g65
g58
NtRp2466
(dp2467
g61
(dp2468
g69
I4
ssg70
Nsg63
(lp2469
g56
(g72
g58
NtRp2470
(dp2471
g61
(dp2472
sg70
g2466
sg63
(lp2473
g56
(g77
g58
NtRp2474
(dp2475
g61
(dp2476
g81
g82
ssg70
g2470
sg63
(lp2477
g1936
asbag56
(g77
g58
NtRp2478
(dp2479
g61
(dp2480
g88
g89
ssg70
g2470
sg63
(lp2481
S':'
asbag56
(g77
g58
NtRp2482
(dp2483
g61
(dp2484
sg70
g2470
sg63
(lp2485
g56
(g57
g58
NtRp2486
(dp2487
g61
(dp2488
g69
I4
ssg70
g2482
sg63
(lp2489
g1949
asbasbasbasbasbasbasbag56
(g72
g58
NtRp2490
(dp2491
g61
(dp2492
sg70
g66
sg63
(lp2493
g56
(g77
g58
NtRp2494
(dp2495
g61
(dp2496
g81
g82
ssg70
g2490
sg63
(lp2497
S'wsgi'
p2498
asbag56
(g77
g58
NtRp2499
(dp2500
g61
(dp2501
g88
g89
ssg70
g2490
sg63
(lp2502
S':'
asbag56
(g77
g58
NtRp2503
(dp2504
g61
(dp2505
sg70
g2490
sg63
(lp2506
g56
(g57
g58
NtRp2507
(dp2508
g61
(dp2509
g69
I5
ssg70
g2503
sg63
(lp2510
g56
(g65
g58
NtRp2511
(dp2512
g61
(dp2513
g69
I4
ssg70
Nsg63
(lp2514
g56
(g72
g58
NtRp2515
(dp2516
g61
(dp2517
sg70
g2511
sg63
(lp2518
g56
(g77
g58
NtRp2519
(dp2520
g61
(dp2521
g81
g82
ssg70
g2515
sg63
(lp2522
S'environ'
p2523
asbag56
(g77
g58
NtRp2524
(dp2525
g61
(dp2526
g88
g89
ssg70
g2515
sg63
(lp2527
S':'
asbag56
(g77
g58
NtRp2528
(dp2529
g61
(dp2530
sg70
g2515
sg63
(lp2531
g56
(g57
g58
NtRp2532
(dp2533
g61
(dp2534
g69
I4
ssg70
g2528
sg63
(lp2535
g56
(g65
g58
NtRp2536
(dp2537
g61
(dp2538
g69
I3
ssg70
Nsg63
(lp2539
g56
(g72
g58
NtRp2540
(dp2541
g61
(dp2542
sg70
g2536
sg63
(lp2543
g56
(g77
g58
NtRp2544
(dp2545
g61
(dp2546
g81
g82
ssg70
g2540
sg63
(lp2547
S'HTTP_ACCEPT'
p2548
asbag56
(g77
g58
NtRp2549
(dp2550
g61
(dp2551
g88
g89
ssg70
g2540
sg63
(lp2552
S':'
asbag56
(g77
g58
NtRp2553
(dp2554
g61
(dp2555
sg70
g2540
sg63
(lp2556
g56
(g57
g58
NtRp2557
(dp2558
g61
(dp2559
g69
I3
ssg70
g2553
sg63
(lp2560
g1025
asbasbasbag56
(g72
g58
NtRp2561
(dp2562
g61
(dp2563
sg70
g2536
sg63
(lp2564
g56
(g77
g58
NtRp2565
(dp2566
g61
(dp2567
g81
g82
ssg70
g2561
sg63
(lp2568
S'HTTP_ACCEPT_CHARSET'
p2569
asbag56
(g77
g58
NtRp2570
(dp2571
g61
(dp2572
g88
g89
ssg70
g2561
sg63
(lp2573
S':'
asbag56
(g77
g58
NtRp2574
(dp2575
g61
(dp2576
sg70
g2561
sg63
(lp2577
g56
(g57
g58
NtRp2578
(dp2579
g61
(dp2580
g69
I3
ssg70
g2574
sg63
(lp2581
g1047
asbasbasbag56
(g72
g58
NtRp2582
(dp2583
g61
(dp2584
sg70
g2536
sg63
(lp2585
g56
(g77
g58
NtRp2586
(dp2587
g61
(dp2588
g81
g82
ssg70
g2582
sg63
(lp2589
S'HTTP_ACCEPT_ENCODING'
p2590
asbag56
(g77
g58
NtRp2591
(dp2592
g61
(dp2593
g88
g89
ssg70
g2582
sg63
(lp2594
S':'
asbag56
(g77
g58
NtRp2595
(dp2596
g61
(dp2597
sg70
g2582
sg63
(lp2598
g56
(g57
g58
NtRp2599
(dp2600
g61
(dp2601
g69
I3
ssg70
g2595
sg63
(lp2602
g1069
asbasbasbag56
(g72
g58
NtRp2603
(dp2604
g61
(dp2605
sg70
g2536
sg63
(lp2606
g56
(g77
g58
NtRp2607
(dp2608
g61
(dp2609
g81
g82
ssg70
g2603
sg63
(lp2610
S'HTTP_ACCEPT_LANGUAGE'
p2611
asbag56
(g77
g58
NtRp2612
(dp2613
g61
(dp2614
g88
g89
ssg70
g2603
sg63
(lp2615
S':'
asbag56
(g77
g58
NtRp2616
(dp2617
g61
(dp2618
sg70
g2603
sg63
(lp2619
g56
(g57
g58
NtRp2620
(dp2621
g61
(dp2622
g69
I3
ssg70
g2616
sg63
(lp2623
g1091
asbasbasbag56
(g72
g58
NtRp2624
(dp2625
g61
(dp2626
sg70
g2536
sg63
(lp2627
g56
(g77
g58
NtRp2628
(dp2629
g61
(dp2630
g81
g82
ssg70
g2624
sg63
(lp2631
S'HTTP_CONNECTION'
p2632
asbag56
(g77
g58
NtRp2633
(dp2634
g61
(dp2635
g88
g89
ssg70
g2624
sg63
(lp2636
S':'
asbag56
(g77
g58
NtRp2637
(dp2638
g61
(dp2639
sg70
g2624
sg63
(lp2640
g56
(g57
g58
NtRp2641
(dp2642
g61
(dp2643
g69
I3
ssg70
g2637
sg63
(lp2644
g1113
asbasbasbag56
(g72
g58
NtRp2645
(dp2646
g61
(dp2647
sg70
g2536
sg63
(lp2648
g56
(g77
g58
NtRp2649
(dp2650
g61
(dp2651
g81
g82
ssg70
g2645
sg63
(lp2652
S'HTTP_COOKIE'
p2653
asbag56
(g77
g58
NtRp2654
(dp2655
g61
(dp2656
g88
g89
ssg70
g2645
sg63
(lp2657
S':'
asbag56
(g77
g58
NtRp2658
(dp2659
g61
(dp2660
sg70
g2645
sg63
(lp2661
g56
(g57
g58
NtRp2662
(dp2663
g61
(dp2664
g69
I3
ssg70
g2658
sg63
(lp2665
g1135
asbasbasbag56
(g72
g58
NtRp2666
(dp2667
g61
(dp2668
sg70
g2536
sg63
(lp2669
g56
(g77
g58
NtRp2670
(dp2671
g61
(dp2672
g81
g82
ssg70
g2666
sg63
(lp2673
S'HTTP_HOST'
p2674
asbag56
(g77
g58
NtRp2675
(dp2676
g61
(dp2677
g88
g89
ssg70
g2666
sg63
(lp2678
S':'
asbag56
(g77
g58
NtRp2679
(dp2680
g61
(dp2681
sg70
g2666
sg63
(lp2682
g56
(g57
g58
NtRp2683
(dp2684
g61
(dp2685
g69
I3
ssg70
g2679
sg63
(lp2686
g1157
asbasbasbag56
(g72
g58
NtRp2687
(dp2688
g61
(dp2689
sg70
g2536
sg63
(lp2690
g56
(g77
g58
NtRp2691
(dp2692
g61
(dp2693
g81
g82
ssg70
g2687
sg63
(lp2694
S'HTTP_REFERER'
p2695
asbag56
(g77
g58
NtRp2696
(dp2697
g61
(dp2698
g88
g89
ssg70
g2687
sg63
(lp2699
S':'
asbag56
(g77
g58
NtRp2700
(dp2701
g61
(dp2702
sg70
g2687
sg63
(lp2703
g56
(g57
g58
NtRp2704
(dp2705
g61
(dp2706
g69
I3
ssg70
g2700
sg63
(lp2707
g1179
asbasbasbag56
(g72
g58
NtRp2708
(dp2709
g61
(dp2710
sg70
g2536
sg63
(lp2711
g56
(g77
g58
NtRp2712
(dp2713
g61
(dp2714
g81
g82
ssg70
g2708
sg63
(lp2715
S'HTTP_USER_AGENT'
p2716
asbag56
(g77
g58
NtRp2717
(dp2718
g61
(dp2719
g88
g89
ssg70
g2708
sg63
(lp2720
S':'
asbag56
(g77
g58
NtRp2721
(dp2722
g61
(dp2723
sg70
g2708
sg63
(lp2724
g56
(g57
g58
NtRp2725
(dp2726
g61
(dp2727
g69
I3
ssg70
g2721
sg63
(lp2728
g1201
asbasbasbag56
(g72
g58
NtRp2729
(dp2730
g61
(dp2731
sg70
g2536
sg63
(lp2732
g56
(g77
g58
NtRp2733
(dp2734
g61
(dp2735
g81
g82
ssg70
g2729
sg63
(lp2736
S'HTTP_WEB2PY_COMPONENT_ELEMENT'
p2737
asbag56
(g77
g58
NtRp2738
(dp2739
g61
(dp2740
g88
g89
ssg70
g2729
sg63
(lp2741
S':'
asbag56
(g77
g58
NtRp2742
(dp2743
g61
(dp2744
sg70
g2729
sg63
(lp2745
g56
(g57
g58
NtRp2746
(dp2747
g61
(dp2748
g69
I3
ssg70
g2742
sg63
(lp2749
g189
asbasbasbag56
(g72
g58
NtRp2750
(dp2751
g61
(dp2752
sg70
g2536
sg63
(lp2753
g56
(g77
g58
NtRp2754
(dp2755
g61
(dp2756
g81
g82
ssg70
g2750
sg63
(lp2757
S'HTTP_WEB2PY_COMPONENT_LOCATION'
p2758
asbag56
(g77
g58
NtRp2759
(dp2760
g61
(dp2761
g88
g89
ssg70
g2750
sg63
(lp2762
S':'
asbag56
(g77
g58
NtRp2763
(dp2764
g61
(dp2765
sg70
g2750
sg63
(lp2766
g56
(g57
g58
NtRp2767
(dp2768
g61
(dp2769
g69
I3
ssg70
g2763
sg63
(lp2770
g1244
asbasbasbag56
(g72
g58
NtRp2771
(dp2772
g61
(dp2773
sg70
g2536
sg63
(lp2774
g56
(g77
g58
NtRp2775
(dp2776
g61
(dp2777
g81
g82
ssg70
g2771
sg63
(lp2778
S'HTTP_X_REQUESTED_WITH'
p2779
asbag56
(g77
g58
NtRp2780
(dp2781
g61
(dp2782
g88
g89
ssg70
g2771
sg63
(lp2783
S':'
asbag56
(g77
g58
NtRp2784
(dp2785
g61
(dp2786
sg70
g2771
sg63
(lp2787
g56
(g57
g58
NtRp2788
(dp2789
g61
(dp2790
g69
I3
ssg70
g2784
sg63
(lp2791
g1266
asbasbasbag56
(g72
g58
NtRp2792
(dp2793
g61
(dp2794
sg70
g2536
sg63
(lp2795
g56
(g77
g58
NtRp2796
(dp2797
g61
(dp2798
g81
g82
ssg70
g2792
sg63
(lp2799
S'PATH_INFO'
p2800
asbag56
(g77
g58
NtRp2801
(dp2802
g61
(dp2803
g88
g89
ssg70
g2792
sg63
(lp2804
S':'
asbag56
(g77
g58
NtRp2805
(dp2806
g61
(dp2807
sg70
g2792
sg63
(lp2808
g56
(g57
g58
NtRp2809
(dp2810
g61
(dp2811
g69
I3
ssg70
g2805
sg63
(lp2812
g1309
asbasbasbag56
(g72
g58
NtRp2813
(dp2814
g61
(dp2815
sg70
g2536
sg63
(lp2816
g56
(g77
g58
NtRp2817
(dp2818
g61
(dp2819
g81
g82
ssg70
g2813
sg63
(lp2820
S'QUERY_STRING'
p2821
asbag56
(g77
g58
NtRp2822
(dp2823
g61
(dp2824
g88
g89
ssg70
g2813
sg63
(lp2825
S':'
asbag56
(g77
g58
NtRp2826
(dp2827
g61
(dp2828
sg70
g2813
sg63
(lp2829
g56
(g57
g58
NtRp2830
(dp2831
g61
(dp2832
g69
I3
ssg70
g2826
sg63
(lp2833
g1331
asbasbasbag56
(g72
g58
NtRp2834
(dp2835
g61
(dp2836
sg70
g2536
sg63
(lp2837
g56
(g77
g58
NtRp2838
(dp2839
g61
(dp2840
g81
g82
ssg70
g2834
sg63
(lp2841
S'REMOTE_ADDR'
p2842
asbag56
(g77
g58
NtRp2843
(dp2844
g61
(dp2845
g88
g89
ssg70
g2834
sg63
(lp2846
S':'
asbag56
(g77
g58
NtRp2847
(dp2848
g61
(dp2849
sg70
g2834
sg63
(lp2850
g56
(g57
g58
NtRp2851
(dp2852
g61
(dp2853
g69
I3
ssg70
g2847
sg63
(lp2854
g211
asbasbasbag56
(g72
g58
NtRp2855
(dp2856
g61
(dp2857
sg70
g2536
sg63
(lp2858
g56
(g77
g58
NtRp2859
(dp2860
g61
(dp2861
g81
g82
ssg70
g2855
sg63
(lp2862
S'REMOTE_PORT'
p2863
asbag56
(g77
g58
NtRp2864
(dp2865
g61
(dp2866
g88
g89
ssg70
g2855
sg63
(lp2867
S':'
asbag56
(g77
g58
NtRp2868
(dp2869
g61
(dp2870
sg70
g2855
sg63
(lp2871
g56
(g57
g58
NtRp2872
(dp2873
g61
(dp2874
g69
I3
ssg70
g2868
sg63
(lp2875
g1374
asbasbasbag56
(g72
g58
NtRp2876
(dp2877
g61
(dp2878
sg70
g2536
sg63
(lp2879
g56
(g77
g58
NtRp2880
(dp2881
g61
(dp2882
g81
g82
ssg70
g2876
sg63
(lp2883
S'REQUEST_METHOD'
p2884
asbag56
(g77
g58
NtRp2885
(dp2886
g61
(dp2887
g88
g89
ssg70
g2876
sg63
(lp2888
S':'
asbag56
(g77
g58
NtRp2889
(dp2890
g61
(dp2891
sg70
g2876
sg63
(lp2892
g56
(g57
g58
NtRp2893
(dp2894
g61
(dp2895
g69
I3
ssg70
g2889
sg63
(lp2896
g1396
asbasbasbag56
(g72
g58
NtRp2897
(dp2898
g61
(dp2899
sg70
g2536
sg63
(lp2900
g56
(g77
g58
NtRp2901
(dp2902
g61
(dp2903
g81
g82
ssg70
g2897
sg63
(lp2904
S'SCRIPT_NAME'
p2905
asbag56
(g77
g58
NtRp2906
(dp2907
g61
(dp2908
g88
g89
ssg70
g2897
sg63
(lp2909
S':'
asbag56
(g77
g58
NtRp2910
(dp2911
g61
(dp2912
sg70
g2897
sg63
(lp2913
g56
(g57
g58
NtRp2914
(dp2915
g61
(dp2916
g69
I3
ssg70
g2910
sg63
(lp2917
S''
asbasbasbag56
(g72
g58
NtRp2918
(dp2919
g61
(dp2920
sg70
g2536
sg63
(lp2921
g56
(g77
g58
NtRp2922
(dp2923
g61
(dp2924
g81
g82
ssg70
g2918
sg63
(lp2925
S'SERVER_NAME'
p2926
asbag56
(g77
g58
NtRp2927
(dp2928
g61
(dp2929
g88
g89
ssg70
g2918
sg63
(lp2930
S':'
asbag56
(g77
g58
NtRp2931
(dp2932
g61
(dp2933
sg70
g2918
sg63
(lp2934
g56
(g57
g58
NtRp2935
(dp2936
g61
(dp2937
g69
I3
ssg70
g2931
sg63
(lp2938
g1439
asbasbasbag56
(g72
g58
NtRp2939
(dp2940
g61
(dp2941
sg70
g2536
sg63
(lp2942
g56
(g77
g58
NtRp2943
(dp2944
g61
(dp2945
g81
g82
ssg70
g2939
sg63
(lp2946
S'SERVER_PORT'
p2947
asbag56
(g77
g58
NtRp2948
(dp2949
g61
(dp2950
g88
g89
ssg70
g2939
sg63
(lp2951
S':'
asbag56
(g77
g58
NtRp2952
(dp2953
g61
(dp2954
sg70
g2939
sg63
(lp2955
g56
(g57
g58
NtRp2956
(dp2957
g61
(dp2958
g69
I3
ssg70
g2952
sg63
(lp2959
g1461
asbasbasbag56
(g72
g58
NtRp2960
(dp2961
g61
(dp2962
sg70
g2536
sg63
(lp2963
g56
(g77
g58
NtRp2964
(dp2965
g61
(dp2966
g81
g82
ssg70
g2960
sg63
(lp2967
S'SERVER_PROTOCOL'
p2968
asbag56
(g77
g58
NtRp2969
(dp2970
g61
(dp2971
g88
g89
ssg70
g2960
sg63
(lp2972
S':'
asbag56
(g77
g58
NtRp2973
(dp2974
g61
(dp2975
sg70
g2960
sg63
(lp2976
g56
(g57
g58
NtRp2977
(dp2978
g61
(dp2979
g69
I3
ssg70
g2973
sg63
(lp2980
g1483
asbasbasbag56
(g72
g58
NtRp2981
(dp2982
g61
(dp2983
sg70
g2536
sg63
(lp2984
g56
(g77
g58
NtRp2985
(dp2986
g61
(dp2987
g81
g82
ssg70
g2981
sg63
(lp2988
S'SERVER_SOFTWARE'
p2989
asbag56
(g77
g58
NtRp2990
(dp2991
g61
(dp2992
g88
g89
ssg70
g2981
sg63
(lp2993
S':'
asbag56
(g77
g58
NtRp2994
(dp2995
g61
(dp2996
sg70
g2981
sg63
(lp2997
g56
(g57
g58
NtRp2998
(dp2999
g61
(dp3000
g69
I3
ssg70
g2994
sg63
(lp3001
g1505
asbasbasbag56
(g72
g58
NtRp3002
(dp3003
g61
(dp3004
sg70
g2536
sg63
(lp3005
g56
(g77
g58
NtRp3006
(dp3007
g61
(dp3008
g81
g82
ssg70
g3002
sg63
(lp3009
S'wsgi.errors'
p3010
asbag56
(g77
g58
NtRp3011
(dp3012
g61
(dp3013
g88
g89
ssg70
g3002
sg63
(lp3014
S':'
asbag56
(g77
g58
NtRp3015
(dp3016
g61
(dp3017
sg70
g3002
sg63
(lp3018
g56
(g57
g58
NtRp3019
(dp3020
g61
(dp3021
g69
I3
ssg70
g3015
sg63
(lp3022
S"<open file '<stderr>', mode 'w' at 0x7f6d3a48b270>"
p3023
asbasbasbag56
(g72
g58
NtRp3024
(dp3025
g61
(dp3026
sg70
g2536
sg63
(lp3027
g56
(g77
g58
NtRp3028
(dp3029
g61
(dp3030
g81
g82
ssg70
g3024
sg63
(lp3031
S'wsgi.file_wrapper'
p3032
asbag56
(g77
g58
NtRp3033
(dp3034
g61
(dp3035
g88
g89
ssg70
g3024
sg63
(lp3036
S':'
asbag56
(g77
g58
NtRp3037
(dp3038
g61
(dp3039
sg70
g3024
sg63
(lp3040
g56
(g57
g58
NtRp3041
(dp3042
g61
(dp3043
g69
I3
ssg70
g3037
sg63
(lp3044
S'<class wsgiref.util.FileWrapper at 0x25957a0>'
p3045
asbasbasbag56
(g72
g58
NtRp3046
(dp3047
g61
(dp3048
sg70
g2536
sg63
(lp3049
g56
(g77
g58
NtRp3050
(dp3051
g61
(dp3052
g81
g82
ssg70
g3046
sg63
(lp3053
S'wsgi.input'
p3054
asbag56
(g77
g58
NtRp3055
(dp3056
g61
(dp3057
g88
g89
ssg70
g3046
sg63
(lp3058
S':'
asbag56
(g77
g58
NtRp3059
(dp3060
g61
(dp3061
sg70
g3046
sg63
(lp3062
g56
(g57
g58
NtRp3063
(dp3064
g61
(dp3065
g69
I3
ssg70
g3059
sg63
(lp3066
S'<cStringIO.StringO object at 0x3aa45a8>'
p3067
asbasbasbag56
(g72
g58
NtRp3068
(dp3069
g61
(dp3070
sg70
g2536
sg63
(lp3071
g56
(g77
g58
NtRp3072
(dp3073
g61
(dp3074
g81
g82
ssg70
g3068
sg63
(lp3075
S'wsgi.multiprocess'
p3076
asbag56
(g77
g58
NtRp3077
(dp3078
g61
(dp3079
g88
g89
ssg70
g3068
sg63
(lp3080
S':'
asbag56
(g77
g58
NtRp3081
(dp3082
g61
(dp3083
sg70
g3068
sg63
(lp3084
g56
(g57
g58
NtRp3085
(dp3086
g61
(dp3087
g69
I3
ssg70
g3081
sg63
(lp3088
g981
asbasbasbag56
(g72
g58
NtRp3089
(dp3090
g61
(dp3091
sg70
g2536
sg63
(lp3092
g56
(g77
g58
NtRp3093
(dp3094
g61
(dp3095
g81
g82
ssg70
g3089
sg63
(lp3096
S'wsgi.multithread'
p3097
asbag56
(g77
g58
NtRp3098
(dp3099
g61
(dp3100
g88
g89
ssg70
g3089
sg63
(lp3101
S':'
asbag56
(g77
g58
NtRp3102
(dp3103
g61
(dp3104
sg70
g3089
sg63
(lp3105
g56
(g57
g58
NtRp3106
(dp3107
g61
(dp3108
g69
I3
ssg70
g3102
sg63
(lp3109
g99
asbasbasbag56
(g72
g58
NtRp3110
(dp3111
g61
(dp3112
sg70
g2536
sg63
(lp3113
g56
(g77
g58
NtRp3114
(dp3115
g61
(dp3116
g81
g82
ssg70
g3110
sg63
(lp3117
S'wsgi.run_once'
p3118
asbag56
(g77
g58
NtRp3119
(dp3120
g61
(dp3121
g88
g89
ssg70
g3110
sg63
(lp3122
S':'
asbag56
(g77
g58
NtRp3123
(dp3124
g61
(dp3125
sg70
g3110
sg63
(lp3126
g56
(g57
g58
NtRp3127
(dp3128
g61
(dp3129
g69
I3
ssg70
g3123
sg63
(lp3130
g981
asbasbasbag56
(g72
g58
NtRp3131
(dp3132
g61
(dp3133
sg70
g2536
sg63
(lp3134
g56
(g77
g58
NtRp3135
(dp3136
g61
(dp3137
g81
g82
ssg70
g3131
sg63
(lp3138
S'wsgi.url_scheme'
p3139
asbag56
(g77
g58
NtRp3140
(dp3141
g61
(dp3142
g88
g89
ssg70
g3131
sg63
(lp3143
S':'
asbag56
(g77
g58
NtRp3144
(dp3145
g61
(dp3146
sg70
g3131
sg63
(lp3147
g56
(g57
g58
NtRp3148
(dp3149
g61
(dp3150
g69
I3
ssg70
g3144
sg63
(lp3151
g1787
asbasbasbag56
(g72
g58
NtRp3152
(dp3153
g61
(dp3154
sg70
g2536
sg63
(lp3155
g56
(g77
g58
NtRp3156
(dp3157
g61
(dp3158
g81
g82
ssg70
g3152
sg63
(lp3159
S'wsgi.version'
p3160
asbag56
(g77
g58
NtRp3161
(dp3162
g61
(dp3163
g88
g89
ssg70
g3152
sg63
(lp3164
S':'
asbag56
(g77
g58
NtRp3165
(dp3166
g61
(dp3167
sg70
g3152
sg63
(lp3168
g56
(g57
g58
NtRp3169
(dp3170
g61
(dp3171
g69
I3
ssg70
g3165
sg63
(lp3172
S'1'
asbasbasbasbasbasbasbasbasbasbasbasbasbsS'frames'
p3173
(lp3174
(dp3175
S'file'
p3176
S'/home/ian/web2py/gluon/restricted.py'
p3177
sS'dump'
p3178
(dp3179
S'environment'
p3180
S"{'A': <class 'gluon.html.A'>, 'Auth': <class 'gluon.tools.Auth'>, 'B': <class 'gluon.html.B'>, 'BEAUTIFY': <class 'gluon.html.BEAUTIFY'>, 'BODY': <class 'gluon.html.BODY'>, 'BR': <class 'gluon.html.BR'>, 'BUTTON': <class 'gluon.html.BUTTON'>, 'CAT': <class 'gluon.html.CAT'>, 'CENTER': <class 'gluon.html.CENTER'>, 'CLEANUP': <class 'gluon.validators.CLEANUP'>, ...}"
p3181
sS'ccode'
p3182
S'<code object <module> at 0x3274b30, file "/home/...cations/places/views/default/index.load", line 1>'
p3183
ssS'lnum'
p3184
I194
sS'lines'
p3185
(dp3186
I192
S'        else:'
p3187
sI193
S'            ccode = compile2(code,layer)'
p3188
sI194
S'        exec ccode in environment'
p3189
sI195
S'    except HTTP:'
p3190
sI196
S'        raise'
p3191
sI197
S'    except Exception, error:'
p3192
sI198
S'        # XXX Show exception in Wing IDE if running in debugger'
p3193
sI189
S'    try:'
p3194
sI190
S'        if type(code) == types.CodeType:'
p3195
sI191
S'            ccode = code'
p3196
ssS'call'
p3197
S'(code="for link in links:\\n    response.write(\'\\\\n<li>\\\\n\'...esponse._vars)\\nresponse.write(\'\\\\n\', escape=False)", environment={\'A\': <class \'gluon.html.A\'>, \'Auth\': <class \'gluon.tools.Auth\'>, \'B\': <class \'gluon.html.B\'>, \'BEAUTIFY\': <class \'gluon.html.BEAUTIFY\'>, \'BODY\': <class \'gluon.html.BODY\'>, \'BR\': <class \'gluon.html.BR\'>, \'BUTTON\': <class \'gluon.html.BUTTON\'>, \'CAT\': <class \'gluon.html.CAT\'>, \'CENTER\': <class \'gluon.html.CENTER\'>, \'CLEANUP\': <class \'gluon.validators.CLEANUP\'>, ...}, layer=\'/home/ian/web2py/applications/places/views/default/index.load\')'
p3198
sS'func'
p3199
S'restricted'
p3200
sa(dp3201
g3176
S'/home/ian/web2py/applications/places/views/default/index.load'
p3202
sg3178
(dp3203
S'A'
S"<class 'gluon.html.A'>"
p3204
sS'link.link_name'
p3205
S"'GMail'"
p3206
sS'_href'
p3207
S'undefined'
p3208
sS'IMG'
p3209
S"<class 'gluon.html.IMG'>"
p3210
sS'link.link_url'
p3211
S"'http://mail.google.com'"
p3212
sS'link'
p3213
S"<Row {'tags': [1], 'update_record': <function <l...elete_record': <function <lambda> at 0x3b43e60>}>"
p3214
sS'_alt'
p3215
g3208
sS'link.link_image'
p3216
S'None'
p3217
sS'_title'
p3218
g3208
ssg3184
I3
sg3185
(dp3219
I1
S'{{for link in links:}}'
p3220
sI2
S'<li>'
p3221
sI3
S"{{=A(IMG('uploads'+link.link_image), _href=link.link_url, _title=link.link_name, _alt=link.link_name)}}"
p3222
sI4
S"{{=A('edit', _href=URL('edit.load', args=[link.id]), cid='modal_frame', _class='edit_link')}}"
p3223
sI5
S'</li>'
p3224
sI6
S'{{pass}}'
p3225
sI7
S''
sI8
S'{{#=BEAUTIFY(response._vars)}}'
p3226
ssg3197
S'()'
p3227
sg3199
S'<module>'
p3228
sasS'pyver'
p3229
S'Python 2.7.1+: /usr/bin/python2.7'
p3230
sS'session'
p3231
g56
(g57
g58
NtRp3232
(dp3233
g61
(dp3234
sg63
(lp3235
g56
(g65
g58
NtRp3236
(dp3237
g61
(dp3238
g69
I5
ssg70
Nsg63
(lp3239
g56
(g72
g58
NtRp3240
(dp3241
g61
(dp3242
sg70
g3236
sg63
(lp3243
g56
(g77
g58
NtRp3244
(dp3245
g61
(dp3246
g81
g82
ssg70
g3240
sg63
(lp3247
S'auth'
p3248
asbag56
(g77
g58
NtRp3249
(dp3250
g61
(dp3251
g88
g89
ssg70
g3240
sg63
(lp3252
S':'
asbag56
(g77
g58
NtRp3253
(dp3254
g61
(dp3255
sg70
g3240
sg63
(lp3256
g56
(g57
g58
NtRp3257
(dp3258
g61
(dp3259
g69
I5
ssg70
g3253
sg63
(lp3260
g56
(g65
g58
NtRp3261
(dp3262
g61
(dp3263
g69
I4
ssg70
Nsg63
(lp3264
g56
(g72
g58
NtRp3265
(dp3266
g61
(dp3267
sg70
g3261
sg63
(lp3268
g56
(g77
g58
NtRp3269
(dp3270
g61
(dp3271
g81
g82
ssg70
g3265
sg63
(lp3272
S'expiration'
p3273
asbag56
(g77
g58
NtRp3274
(dp3275
g61
(dp3276
g88
g89
ssg70
g3265
sg63
(lp3277
S':'
asbag56
(g77
g58
NtRp3278
(dp3279
g61
(dp3280
sg70
g3265
sg63
(lp3281
g56
(g57
g58
NtRp3282
(dp3283
g61
(dp3284
g69
I4
ssg70
g3278
sg63
(lp3285
S'3600'
p3286
asbasbasbag56
(g72
g58
NtRp3287
(dp3288
g61
(dp3289
sg70
g3261
sg63
(lp3290
g56
(g77
g58
NtRp3291
(dp3292
g61
(dp3293
g81
g82
ssg70
g3287
sg63
(lp3294
S'hmac_key'
p3295
asbag56
(g77
g58
NtRp3296
(dp3297
g61
(dp3298
g88
g89
ssg70
g3287
sg63
(lp3299
S':'
asbag56
(g77
g58
NtRp3300
(dp3301
g61
(dp3302
sg70
g3287
sg63
(lp3303
g56
(g57
g58
NtRp3304
(dp3305
g61
(dp3306
g69
I4
ssg70
g3300
sg63
(lp3307
S'a79b254e-91c1-46e1-8d2c-9794b856cc93'
p3308
asbasbasbag56
(g72
g58
NtRp3309
(dp3310
g61
(dp3311
sg70
g3261
sg63
(lp3312
g56
(g77
g58
NtRp3313
(dp3314
g61
(dp3315
g81
g82
ssg70
g3309
sg63
(lp3316
S'last_visit'
p3317
asbag56
(g77
g58
NtRp3318
(dp3319
g61
(dp3320
g88
g89
ssg70
g3309
sg63
(lp3321
S':'
asbag56
(g77
g58
NtRp3322
(dp3323
g61
(dp3324
sg70
g3309
sg63
(lp3325
g56
(g57
g58
NtRp3326
(dp3327
g61
(dp3328
g69
I4
ssg70
g3322
sg63
(lp3329
S'datetime.datetime(2011, 10, 2, 21, 4, 48, 165807)'
p3330
asbasbasbag56
(g72
g58
NtRp3331
(dp3332
g61
(dp3333
sg70
g3261
sg63
(lp3334
g56
(g77
g58
NtRp3335
(dp3336
g61
(dp3337
g81
g82
ssg70
g3331
sg63
(lp3338
S'user'
p3339
asbag56
(g77
g58
NtRp3340
(dp3341
g61
(dp3342
g88
g89
ssg70
g3331
sg63
(lp3343
S':'
asbag56
(g77
g58
NtRp3344
(dp3345
g61
(dp3346
sg70
g3331
sg63
(lp3347
g56
(g57
g58
NtRp3348
(dp3349
g61
(dp3350
g69
I4
ssg70
g3344
sg63
(lp3351
g56
(g65
g58
NtRp3352
(dp3353
g61
(dp3354
g69
I3
ssg70
Nsg63
(lp3355
g56
(g72
g58
NtRp3356
(dp3357
g61
(dp3358
sg70
g3352
sg63
(lp3359
g56
(g77
g58
NtRp3360
(dp3361
g61
(dp3362
g81
g82
ssg70
g3356
sg63
(lp3363
S'email'
p3364
asbag56
(g77
g58
NtRp3365
(dp3366
g61
(dp3367
g88
g89
ssg70
g3356
sg63
(lp3368
S':'
asbag56
(g77
g58
NtRp3369
(dp3370
g61
(dp3371
sg70
g3356
sg63
(lp3372
g56
(g57
g58
NtRp3373
(dp3374
g61
(dp3375
g69
I3
ssg70
g3369
sg63
(lp3376
S'scottianw@gmail.com'
p3377
asbasbasbag56
(g72
g58
NtRp3378
(dp3379
g61
(dp3380
sg70
g3352
sg63
(lp3381
g56
(g77
g58
NtRp3382
(dp3383
g61
(dp3384
g81
g82
ssg70
g3378
sg63
(lp3385
S'first_name'
p3386
asbag56
(g77
g58
NtRp3387
(dp3388
g61
(dp3389
g88
g89
ssg70
g3378
sg63
(lp3390
S':'
asbag56
(g77
g58
NtRp3391
(dp3392
g61
(dp3393
sg70
g3378
sg63
(lp3394
g56
(g57
g58
NtRp3395
(dp3396
g61
(dp3397
g69
I3
ssg70
g3391
sg63
(lp3398
S'Ian'
p3399
asbasbasbag56
(g72
g58
NtRp3400
(dp3401
g61
(dp3402
sg70
g3352
sg63
(lp3403
g56
(g77
g58
NtRp3404
(dp3405
g61
(dp3406
g81
g82
ssg70
g3400
sg63
(lp3407
S'id'
p3408
asbag56
(g77
g58
NtRp3409
(dp3410
g61
(dp3411
g88
g89
ssg70
g3400
sg63
(lp3412
S':'
asbag56
(g77
g58
NtRp3413
(dp3414
g61
(dp3415
sg70
g3400
sg63
(lp3416
g56
(g57
g58
NtRp3417
(dp3418
g61
(dp3419
g69
I3
ssg70
g3413
sg63
(lp3420
S'1'
asbasbasbag56
(g72
g58
NtRp3421
(dp3422
g61
(dp3423
sg70
g3352
sg63
(lp3424
g56
(g77
g58
NtRp3425
(dp3426
g61
(dp3427
g81
g82
ssg70
g3421
sg63
(lp3428
S'last_name'
p3429
asbag56
(g77
g58
NtRp3430
(dp3431
g61
(dp3432
g88
g89
ssg70
g3421
sg63
(lp3433
S':'
asbag56
(g77
g58
NtRp3434
(dp3435
g61
(dp3436
sg70
g3421
sg63
(lp3437
g56
(g57
g58
NtRp3438
(dp3439
g61
(dp3440
g69
I3
ssg70
g3434
sg63
(lp3441
S'Scott'
p3442
asbasbasbag56
(g72
g58
NtRp3443
(dp3444
g61
(dp3445
sg70
g3352
sg63
(lp3446
g56
(g77
g58
NtRp3447
(dp3448
g61
(dp3449
g81
g82
ssg70
g3443
sg63
(lp3450
S'password'
p3451
asbag56
(g77
g58
NtRp3452
(dp3453
g61
(dp3454
g88
g89
ssg70
g3443
sg63
(lp3455
S':'
asbag56
(g77
g58
NtRp3456
(dp3457
g61
(dp3458
sg70
g3443
sg63
(lp3459
g56
(g57
g58
NtRp3460
(dp3461
g61
(dp3462
g69
I3
ssg70
g3456
sg63
(lp3463
S'351bc855a8ae4839e89ee60d2f279ed9'
p3464
asbasbasbag56
(g72
g58
NtRp3465
(dp3466
g61
(dp3467
sg70
g3352
sg63
(lp3468
g56
(g77
g58
NtRp3469
(dp3470
g61
(dp3471
g81
g82
ssg70
g3465
sg63
(lp3472
S'registration_key'
p3473
asbag56
(g77
g58
NtRp3474
(dp3475
g61
(dp3476
g88
g89
ssg70
g3465
sg63
(lp3477
S':'
asbag56
(g77
g58
NtRp3478
(dp3479
g61
(dp3480
sg70
g3465
sg63
(lp3481
g56
(g57
g58
NtRp3482
(dp3483
g61
(dp3484
g69
I3
ssg70
g3478
sg63
(lp3485
S''
asbasbasbag56
(g72
g58
NtRp3486
(dp3487
g61
(dp3488
sg70
g3352
sg63
(lp3489
g56
(g77
g58
NtRp3490
(dp3491
g61
(dp3492
g81
g82
ssg70
g3486
sg63
(lp3493
S'reset_password_key'
p3494
asbag56
(g77
g58
NtRp3495
(dp3496
g61
(dp3497
g88
g89
ssg70
g3486
sg63
(lp3498
S':'
asbag56
(g77
g58
NtRp3499
(dp3500
g61
(dp3501
sg70
g3486
sg63
(lp3502
g56
(g57
g58
NtRp3503
(dp3504
g61
(dp3505
g69
I3
ssg70
g3499
sg63
(lp3506
S''
asbasbasbasbasbasbasbasbasbasbasbag56
(g72
g58
NtRp3507
(dp3508
g61
(dp3509
sg70
g3236
sg63
(lp3510
g56
(g77
g58
NtRp3511
(dp3512
g61
(dp3513
g81
g82
ssg70
g3507
sg63
(lp3514
S'current'
p3515
asbag56
(g77
g58
NtRp3516
(dp3517
g61
(dp3518
g88
g89
ssg70
g3507
sg63
(lp3519
S':'
asbag56
(g77
g58
NtRp3520
(dp3521
g61
(dp3522
sg70
g3507
sg63
(lp3523
g56
(g57
g58
NtRp3524
(dp3525
g61
(dp3526
g69
I5
ssg70
g3520
sg63
(lp3527
S'kitchen'
p3528
asbasbasbag56
(g72
g58
NtRp3529
(dp3530
g61
(dp3531
sg70
g3236
sg63
(lp3532
g56
(g77
g58
NtRp3533
(dp3534
g61
(dp3535
g81
g82
ssg70
g3529
sg63
(lp3536
S'current_view'
p3537
asbag56
(g77
g58
NtRp3538
(dp3539
g61
(dp3540
g88
g89
ssg70
g3529
sg63
(lp3541
S':'
asbag56
(g77
g58
NtRp3542
(dp3543
g61
(dp3544
sg70
g3529
sg63
(lp3545
g56
(g57
g58
NtRp3546
(dp3547
g61
(dp3548
g69
I5
ssg70
g3542
sg63
(lp3549
S'kitchen'
p3550
asbasbasbag56
(g72
g58
NtRp3551
(dp3552
g61
(dp3553
sg70
g3236
sg63
(lp3554
g56
(g77
g58
NtRp3555
(dp3556
g61
(dp3557
g81
g82
ssg70
g3551
sg63
(lp3558
S'the_view'
p3559
asbag56
(g77
g58
NtRp3560
(dp3561
g61
(dp3562
g88
g89
ssg70
g3551
sg63
(lp3563
S':'
asbag56
(g77
g58
NtRp3564
(dp3565
g61
(dp3566
sg70
g3551
sg63
(lp3567
g56
(g57
g58
NtRp3568
(dp3569
g61
(dp3570
g69
I5
ssg70
g3564
sg63
(lp3571
S'kitchen'
p3572
asbasbasbasbasbsS'etype'
p3573
S"<type 'exceptions.TypeError'>"
p3574
sS'date'
p3575
S'Sun Oct  2 21:08:13 2011'
p3576
sS'response'
p3577
g56
(g57
g58
NtRp3578
(dp3579
g61
(dp3580
sg63
(lp3581
g56
(g65
g58
NtRp3582
(dp3583
g61
(dp3584
g69
I5
ssg70
Nsg63
(lp3585
g56
(g72
g58
NtRp3586
(dp3587
g61
(dp3588
sg70
g3582
sg63
(lp3589
g56
(g77
g58
NtRp3590
(dp3591
g61
(dp3592
g81
g82
ssg70
g3586
sg63
(lp3593
g154
asbag56
(g77
g58
NtRp3594
(dp3595
g61
(dp3596
g88
g89
ssg70
g3586
sg63
(lp3597
S':'
asbag56
(g77
g58
NtRp3598
(dp3599
g61
(dp3600
sg70
g3586
sg63
(lp3601
g56
(g57
g58
NtRp3602
(dp3603
g61
(dp3604
g69
I5
ssg70
g3598
sg63
(lp3605
S'<cStringIO.StringO object at 0x2bfec38>'
p3606
asbasbasbag56
(g72
g58
NtRp3607
(dp3608
g61
(dp3609
sg70
g3582
sg63
(lp3610
g56
(g77
g58
NtRp3611
(dp3612
g61
(dp3613
g81
g82
ssg70
g3607
sg63
(lp3614
g242
asbag56
(g77
g58
NtRp3615
(dp3616
g61
(dp3617
g88
g89
ssg70
g3607
sg63
(lp3618
S':'
asbag56
(g77
g58
NtRp3619
(dp3620
g61
(dp3621
sg70
g3607
sg63
(lp3622
g56
(g57
g58
NtRp3623
(dp3624
g61
(dp3625
g69
I5
ssg70
g3619
sg63
(lp3626
g56
(g65
g58
NtRp3627
(dp3628
g61
(dp3629
g69
I4
ssg70
Nsg63
(lp3630
g56
(g72
g58
NtRp3631
(dp3632
g61
(dp3633
sg70
g3627
sg63
(lp3634
g56
(g77
g58
NtRp3635
(dp3636
g61
(dp3637
g81
g82
ssg70
g3631
sg63
(lp3638
S'session_id_places'
p3639
asbag56
(g77
g58
NtRp3640
(dp3641
g61
(dp3642
g88
g89
ssg70
g3631
sg63
(lp3643
S':'
asbag56
(g77
g58
NtRp3644
(dp3645
g61
(dp3646
sg70
g3631
sg63
(lp3647
g56
(g57
g58
NtRp3648
(dp3649
g61
(dp3650
g69
I4
ssg70
g3644
sg63
(lp3651
g56
(g65
g58
NtRp3652
(dp3653
g61
(dp3654
g69
I3
ssg70
Nsg63
(lp3655
g56
(g72
g58
NtRp3656
(dp3657
g61
(dp3658
sg70
g3652
sg63
(lp3659
g56
(g77
g58
NtRp3660
(dp3661
g61
(dp3662
g81
g82
ssg70
g3656
sg63
(lp3663
g292
asbag56
(g77
g58
NtRp3664
(dp3665
g61
(dp3666
g88
g89
ssg70
g3656
sg63
(lp3667
S':'
asbag56
(g77
g58
NtRp3668
(dp3669
g61
(dp3670
sg70
g3656
sg63
(lp3671
g56
(g57
g58
NtRp3672
(dp3673
g61
(dp3674
g69
I3
ssg70
g3668
sg63
(lp3675
S''
asbasbasbag56
(g72
g58
NtRp3676
(dp3677
g61
(dp3678
sg70
g3652
sg63
(lp3679
g56
(g77
g58
NtRp3680
(dp3681
g61
(dp3682
g81
g82
ssg70
g3676
sg63
(lp3683
g313
asbag56
(g77
g58
NtRp3684
(dp3685
g61
(dp3686
g88
g89
ssg70
g3676
sg63
(lp3687
S':'
asbag56
(g77
g58
NtRp3688
(dp3689
g61
(dp3690
sg70
g3676
sg63
(lp3691
g56
(g57
g58
NtRp3692
(dp3693
g61
(dp3694
g69
I3
ssg70
g3688
sg63
(lp3695
S''
asbasbasbag56
(g72
g58
NtRp3696
(dp3697
g61
(dp3698
sg70
g3652
sg63
(lp3699
g56
(g77
g58
NtRp3700
(dp3701
g61
(dp3702
g81
g82
ssg70
g3696
sg63
(lp3703
g334
asbag56
(g77
g58
NtRp3704
(dp3705
g61
(dp3706
g88
g89
ssg70
g3696
sg63
(lp3707
S':'
asbag56
(g77
g58
NtRp3708
(dp3709
g61
(dp3710
sg70
g3696
sg63
(lp3711
g56
(g57
g58
NtRp3712
(dp3713
g61
(dp3714
g69
I3
ssg70
g3708
sg63
(lp3715
S''
asbasbasbag56
(g72
g58
NtRp3716
(dp3717
g61
(dp3718
sg70
g3652
sg63
(lp3719
g56
(g77
g58
NtRp3720
(dp3721
g61
(dp3722
g81
g82
ssg70
g3716
sg63
(lp3723
g355
asbag56
(g77
g58
NtRp3724
(dp3725
g61
(dp3726
g88
g89
ssg70
g3716
sg63
(lp3727
S':'
asbag56
(g77
g58
NtRp3728
(dp3729
g61
(dp3730
sg70
g3716
sg63
(lp3731
g56
(g57
g58
NtRp3732
(dp3733
g61
(dp3734
g69
I3
ssg70
g3728
sg63
(lp3735
S''
asbasbasbag56
(g72
g58
NtRp3736
(dp3737
g61
(dp3738
sg70
g3652
sg63
(lp3739
g56
(g77
g58
NtRp3740
(dp3741
g61
(dp3742
g81
g82
ssg70
g3736
sg63
(lp3743
g376
asbag56
(g77
g58
NtRp3744
(dp3745
g61
(dp3746
g88
g89
ssg70
g3736
sg63
(lp3747
S':'
asbag56
(g77
g58
NtRp3748
(dp3749
g61
(dp3750
sg70
g3736
sg63
(lp3751
g56
(g57
g58
NtRp3752
(dp3753
g61
(dp3754
g69
I3
ssg70
g3748
sg63
(lp3755
S''
asbasbasbag56
(g72
g58
NtRp3756
(dp3757
g61
(dp3758
sg70
g3652
sg63
(lp3759
g56
(g77
g58
NtRp3760
(dp3761
g61
(dp3762
g81
g82
ssg70
g3756
sg63
(lp3763
g397
asbag56
(g77
g58
NtRp3764
(dp3765
g61
(dp3766
g88
g89
ssg70
g3756
sg63
(lp3767
S':'
asbag56
(g77
g58
NtRp3768
(dp3769
g61
(dp3770
sg70
g3756
sg63
(lp3771
g56
(g57
g58
NtRp3772
(dp3773
g61
(dp3774
g69
I3
ssg70
g3768
sg63
(lp3775
S'/'
asbasbasbag56
(g72
g58
NtRp3776
(dp3777
g61
(dp3778
sg70
g3652
sg63
(lp3779
g56
(g77
g58
NtRp3780
(dp3781
g61
(dp3782
g81
g82
ssg70
g3776
sg63
(lp3783
g418
asbag56
(g77
g58
NtRp3784
(dp3785
g61
(dp3786
g88
g89
ssg70
g3776
sg63
(lp3787
S':'
asbag56
(g77
g58
NtRp3788
(dp3789
g61
(dp3790
sg70
g3776
sg63
(lp3791
g56
(g57
g58
NtRp3792
(dp3793
g61
(dp3794
g69
I3
ssg70
g3788
sg63
(lp3795
S''
asbasbasbag56
(g72
g58
NtRp3796
(dp3797
g61
(dp3798
sg70
g3652
sg63
(lp3799
g56
(g77
g58
NtRp3800
(dp3801
g61
(dp3802
g81
g82
ssg70
g3796
sg63
(lp3803
g439
asbag56
(g77
g58
NtRp3804
(dp3805
g61
(dp3806
g88
g89
ssg70
g3796
sg63
(lp3807
S':'
asbag56
(g77
g58
NtRp3808
(dp3809
g61
(dp3810
sg70
g3796
sg63
(lp3811
g56
(g57
g58
NtRp3812
(dp3813
g61
(dp3814
g69
I3
ssg70
g3808
sg63
(lp3815
S''
asbasbasbasbasbasbasbasbasbasbasbag56
(g72
g58
NtRp3816
(dp3817
g61
(dp3818
sg70
g3582
sg63
(lp3819
g56
(g77
g58
NtRp3820
(dp3821
g61
(dp3822
g81
g82
ssg70
g3816
sg63
(lp3823
S'files'
p3824
asbag56
(g77
g58
NtRp3825
(dp3826
g61
(dp3827
g88
g89
ssg70
g3816
sg63
(lp3828
S':'
asbag56
(g77
g58
NtRp3829
(dp3830
g61
(dp3831
sg70
g3816
sg63
(lp3832
g56
(g57
g58
NtRp3833
(dp3834
g61
(dp3835
g69
I5
ssg70
g3829
sg63
(lp3836
g56
(g65
g58
NtRp3837
(dp3838
g61
(dp3839
g69
I4
ssg70
Nsg63
(lp3840
sbasbasbasbag56
(g72
g58
NtRp3841
(dp3842
g61
(dp3843
sg70
g3582
sg63
(lp3844
g56
(g77
g58
NtRp3845
(dp3846
g61
(dp3847
g81
g82
ssg70
g3841
sg63
(lp3848
S'flash'
p3849
asbag56
(g77
g58
NtRp3850
(dp3851
g61
(dp3852
g88
g89
ssg70
g3841
sg63
(lp3853
S':'
asbag56
(g77
g58
NtRp3854
(dp3855
g61
(dp3856
sg70
g3841
sg63
(lp3857
g56
(g57
g58
NtRp3858
(dp3859
g61
(dp3860
g69
I5
ssg70
g3854
sg63
(lp3861
S''
asbasbasbag56
(g72
g58
NtRp3862
(dp3863
g61
(dp3864
sg70
g3582
sg63
(lp3865
g56
(g77
g58
NtRp3866
(dp3867
g61
(dp3868
g81
g82
ssg70
g3862
sg63
(lp3869
S'generic_patterns'
p3870
asbag56
(g77
g58
NtRp3871
(dp3872
g61
(dp3873
g88
g89
ssg70
g3862
sg63
(lp3874
S':'
asbag56
(g77
g58
NtRp3875
(dp3876
g61
(dp3877
sg70
g3862
sg63
(lp3878
g56
(g57
g58
NtRp3879
(dp3880
g61
(dp3881
g69
I5
ssg70
g3875
sg63
(lp3882
g56
(g65
g58
NtRp3883
(dp3884
g61
(dp3885
g69
I4
ssg70
Nsg63
(lp3886
g56
(g72
g58
NtRp3887
(dp3888
g61
(dp3889
sg70
g3883
sg63
(lp3890
g56
(g77
g58
NtRp3891
(dp3892
g61
(dp3893
sg70
g3887
sg63
(lp3894
g56
(g57
g58
NtRp3895
(dp3896
g61
(dp3897
g69
I4
ssg70
g3891
sg63
(lp3898
S'*'
asbasbasbasbasbasbasbag56
(g72
g58
NtRp3899
(dp3900
g61
(dp3901
sg70
g3582
sg63
(lp3902
g56
(g77
g58
NtRp3903
(dp3904
g61
(dp3905
g81
g82
ssg70
g3899
sg63
(lp3906
S'headers'
p3907
asbag56
(g77
g58
NtRp3908
(dp3909
g61
(dp3910
g88
g89
ssg70
g3899
sg63
(lp3911
S':'
asbag56
(g77
g58
NtRp3912
(dp3913
g61
(dp3914
sg70
g3899
sg63
(lp3915
g56
(g57
g58
NtRp3916
(dp3917
g61
(dp3918
g69
I5
ssg70
g3912
sg63
(lp3919
g56
(g65
g58
NtRp3920
(dp3921
g61
(dp3922
g69
I4
ssg70
Nsg63
(lp3923
g56
(g72
g58
NtRp3924
(dp3925
g61
(dp3926
sg70
g3920
sg63
(lp3927
g56
(g77
g58
NtRp3928
(dp3929
g61
(dp3930
g81
g82
ssg70
g3924
sg63
(lp3931
S'Cache-Control'
p3932
asbag56
(g77
g58
NtRp3933
(dp3934
g61
(dp3935
g88
g89
ssg70
g3924
sg63
(lp3936
S':'
asbag56
(g77
g58
NtRp3937
(dp3938
g61
(dp3939
sg70
g3924
sg63
(lp3940
g56
(g57
g58
NtRp3941
(dp3942
g61
(dp3943
g69
I4
ssg70
g3937
sg63
(lp3944
S'no-store, no-cache, must-revalidate, post-check=0, pre-check=0'
p3945
asbasbasbag56
(g72
g58
NtRp3946
(dp3947
g61
(dp3948
sg70
g3920
sg63
(lp3949
g56
(g77
g58
NtRp3950
(dp3951
g61
(dp3952
g81
g82
ssg70
g3946
sg63
(lp3953
S'Content-Type'
p3954
asbag56
(g77
g58
NtRp3955
(dp3956
g61
(dp3957
g88
g89
ssg70
g3946
sg63
(lp3958
S':'
asbag56
(g77
g58
NtRp3959
(dp3960
g61
(dp3961
sg70
g3946
sg63
(lp3962
g56
(g57
g58
NtRp3963
(dp3964
g61
(dp3965
g69
I4
ssg70
g3959
sg63
(lp3966
S'text/html; charset=utf-8'
p3967
asbasbasbag56
(g72
g58
NtRp3968
(dp3969
g61
(dp3970
sg70
g3920
sg63
(lp3971
g56
(g77
g58
NtRp3972
(dp3973
g61
(dp3974
g81
g82
ssg70
g3968
sg63
(lp3975
S'Expires'
p3976
asbag56
(g77
g58
NtRp3977
(dp3978
g61
(dp3979
g88
g89
ssg70
g3968
sg63
(lp3980
S':'
asbag56
(g77
g58
NtRp3981
(dp3982
g61
(dp3983
sg70
g3968
sg63
(lp3984
g56
(g57
g58
NtRp3985
(dp3986
g61
(dp3987
g69
I4
ssg70
g3981
sg63
(lp3988
S'Mon, 03 Oct 2011 01:08:13 GMT'
p3989
asbasbasbag56
(g72
g58
NtRp3990
(dp3991
g61
(dp3992
sg70
g3920
sg63
(lp3993
g56
(g77
g58
NtRp3994
(dp3995
g61
(dp3996
g81
g82
ssg70
g3990
sg63
(lp3997
S'Pragma'
p3998
asbag56
(g77
g58
NtRp3999
(dp4000
g61
(dp4001
g88
g89
ssg70
g3990
sg63
(lp4002
S':'
asbag56
(g77
g58
NtRp4003
(dp4004
g61
(dp4005
sg70
g3990
sg63
(lp4006
g56
(g57
g58
NtRp4007
(dp4008
g61
(dp4009
g69
I4
ssg70
g4003
sg63
(lp4010
S'no-cache'
p4011
asbasbasbag56
(g72
g58
NtRp4012
(dp4013
g61
(dp4014
sg70
g3920
sg63
(lp4015
g56
(g77
g58
NtRp4016
(dp4017
g61
(dp4018
g81
g82
ssg70
g4012
sg63
(lp4019
S'X-Powered-By'
p4020
asbag56
(g77
g58
NtRp4021
(dp4022
g61
(dp4023
g88
g89
ssg70
g4012
sg63
(lp4024
S':'
asbag56
(g77
g58
NtRp4025
(dp4026
g61
(dp4027
sg70
g4012
sg63
(lp4028
g56
(g57
g58
NtRp4029
(dp4030
g61
(dp4031
g69
I4
ssg70
g4025
sg63
(lp4032
S'web2py'
p4033
asbasbasbasbasbasbasbag56
(g72
g58
NtRp4034
(dp4035
g61
(dp4036
sg70
g3582
sg63
(lp4037
g56
(g77
g58
NtRp4038
(dp4039
g61
(dp4040
g81
g82
ssg70
g4034
sg63
(lp4041
S'menu'
p4042
asbag56
(g77
g58
NtRp4043
(dp4044
g61
(dp4045
g88
g89
ssg70
g4034
sg63
(lp4046
S':'
asbag56
(g77
g58
NtRp4047
(dp4048
g61
(dp4049
sg70
g4034
sg63
(lp4050
g56
(g57
g58
NtRp4051
(dp4052
g61
(dp4053
g69
I5
ssg70
g4047
sg63
(lp4054
g56
(g65
g58
NtRp4055
(dp4056
g61
(dp4057
g69
I4
ssg70
Nsg63
(lp4058
g56
(g72
g58
NtRp4059
(dp4060
g61
(dp4061
sg70
g4055
sg63
(lp4062
g56
(g77
g58
NtRp4063
(dp4064
g61
(dp4065
sg70
g4059
sg63
(lp4066
g56
(g57
g58
NtRp4067
(dp4068
g61
(dp4069
g69
I4
ssg70
g4063
sg63
(lp4070
g56
(g65
g58
NtRp4071
(dp4072
g61
(dp4073
g69
I3
ssg70
Nsg63
(lp4074
g56
(g72
g58
NtRp4075
(dp4076
g61
(dp4077
sg70
g4071
sg63
(lp4078
g56
(g77
g58
NtRp4079
(dp4080
g61
(dp4081
sg70
g4075
sg63
(lp4082
g56
(g57
g58
NtRp4083
(dp4084
g61
(dp4085
g69
I3
ssg70
g4079
sg63
(lp4086
cgluon.languages
lazyT_unpickle
p4087
(S't\x04\x00\x00\x00Home'
tRp4088
asbasbasbag56
(g72
g58
NtRp4089
(dp4090
g61
(dp4091
sg70
g4071
sg63
(lp4092
g56
(g77
g58
NtRp4093
(dp4094
g61
(dp4095
sg70
g4089
sg63
(lp4096
g56
(g57
g58
NtRp4097
(dp4098
g61
(dp4099
g69
I3
ssg70
g4093
sg63
(lp4100
g981
asbasbasbag56
(g72
g58
NtRp4101
(dp4102
g61
(dp4103
sg70
g4071
sg63
(lp4104
g56
(g77
g58
NtRp4105
(dp4106
g61
(dp4107
sg70
g4101
sg63
(lp4108
g56
(g57
g58
NtRp4109
(dp4110
g61
(dp4111
g69
I3
ssg70
g4105
sg63
(lp4112
S'/places/default/index.load'
p4113
asbasbasbag56
(g72
g58
NtRp4114
(dp4115
g61
(dp4116
sg70
g4071
sg63
(lp4117
g56
(g77
g58
NtRp4118
(dp4119
g61
(dp4120
sg70
g4114
sg63
(lp4121
g56
(g57
g58
NtRp4122
(dp4123
g61
(dp4124
g69
I3
ssg70
g4118
sg63
(lp4125
g56
(g65
g58
NtRp4126
(dp4127
g61
(dp4128
g69
I2
ssg70
Nsg63
(lp4129
sbasbasbasbasbasbasbasbag56
(g72
g58
NtRp4130
(dp4131
g61
(dp4132
sg70
g4055
sg63
(lp4133
g56
(g77
g58
NtRp4134
(dp4135
g61
(dp4136
sg70
g4130
sg63
(lp4137
g56
(g57
g58
NtRp4138
(dp4139
g61
(dp4140
g69
I4
ssg70
g4134
sg63
(lp4141
g56
(g65
g58
NtRp4142
(dp4143
g61
(dp4144
g69
I3
ssg70
Nsg63
(lp4145
g56
(g72
g58
NtRp4146
(dp4147
g61
(dp4148
sg70
g4142
sg63
(lp4149
g56
(g77
g58
NtRp4150
(dp4151
g61
(dp4152
sg70
g4146
sg63
(lp4153
g56
(g57
g58
NtRp4154
(dp4155
g61
(dp4156
g69
I3
ssg70
g4150
sg63
(lp4157
g4087
(S's\x08\x00\x00\x00This App'
tRp4158
asbasbasbag56
(g72
g58
NtRp4159
(dp4160
g61
(dp4161
sg70
g4142
sg63
(lp4162
g56
(g77
g58
NtRp4163
(dp4164
g61
(dp4165
sg70
g4159
sg63
(lp4166
g56
(g57
g58
NtRp4167
(dp4168
g61
(dp4169
g69
I3
ssg70
g4163
sg63
(lp4170
g981
asbasbasbag56
(g72
g58
NtRp4171
(dp4172
g61
(dp4173
sg70
g4142
sg63
(lp4174
g56
(g77
g58
NtRp4175
(dp4176
g61
(dp4177
sg70
g4171
sg63
(lp4178
g56
(g57
g58
NtRp4179
(dp4180
g61
(dp4181
g69
I3
ssg70
g4175
sg63
(lp4182
S'/admin/default/design/places.load'
p4183
asbasbasbag56
(g72
g58
NtRp4184
(dp4185
g61
(dp4186
sg70
g4142
sg63
(lp4187
g56
(g77
g58
NtRp4188
(dp4189
g61
(dp4190
sg70
g4184
sg63
(lp4191
g56
(g57
g58
NtRp4192
(dp4193
g61
(dp4194
g69
I3
ssg70
g4188
sg63
(lp4195
g56
(g65
g58
NtRp4196
(dp4197
g61
(dp4198
g69
I2
ssg70
Nsg63
(lp4199
g56
(g72
g58
NtRp4200
(dp4201
g61
(dp4202
sg70
g4196
sg63
(lp4203
g56
(g77
g58
NtRp4204
(dp4205
g61
(dp4206
sg70
g4200
sg63
(lp4207
g56
(g57
g58
NtRp4208
(dp4209
g61
(dp4210
g69
I2
ssg70
g4204
sg63
(lp4211
g56
(g65
g58
NtRp4212
(dp4213
g61
(dp4214
g69
I1
ssg70
Nsg63
(lp4215
g56
(g72
g58
NtRp4216
(dp4217
g61
(dp4218
sg70
g4212
sg63
(lp4219
g56
(g77
g58
NtRp4220
(dp4221
g61
(dp4222
sg70
g4216
sg63
(lp4223
g56
(g57
g58
NtRp4224
(dp4225
g61
(dp4226
g69
I1
ssg70
g4220
sg63
(lp4227
g4087
(S't\n\x00\x00\x00Controller'
tRp4228
asbasbasbag56
(g72
g58
NtRp4229
(dp4230
g61
(dp4231
sg70
g4212
sg63
(lp4232
g56
(g77
g58
NtRp4233
(dp4234
g61
(dp4235
sg70
g4229
sg63
(lp4236
g56
(g57
g58
NtRp4237
(dp4238
g61
(dp4239
g69
I1
ssg70
g4233
sg63
(lp4240
I00
asbasbasbag56
(g72
g58
NtRp4241
(dp4242
g61
(dp4243
sg70
g4212
sg63
(lp4244
g56
(g77
g58
NtRp4245
(dp4246
g61
(dp4247
sg70
g4241
sg63
(lp4248
g56
(g57
g58
NtRp4249
(dp4250
g61
(dp4251
g69
I1
ssg70
g4245
sg63
(lp4252
S'/admin/default/edit/places/controllers/default.py'
p4253
asbasbasbasbasbasbasbag56
(g72
g58
NtRp4254
(dp4255
g61
(dp4256
sg70
g4196
sg63
(lp4257
g56
(g77
g58
NtRp4258
(dp4259
g61
(dp4260
sg70
g4254
sg63
(lp4261
g56
(g57
g58
NtRp4262
(dp4263
g61
(dp4264
g69
I2
ssg70
g4258
sg63
(lp4265
g56
(g65
g58
NtRp4266
(dp4267
g61
(dp4268
g69
I1
ssg70
Nsg63
(lp4269
g56
(g72
g58
NtRp4270
(dp4271
g61
(dp4272
sg70
g4266
sg63
(lp4273
g56
(g77
g58
NtRp4274
(dp4275
g61
(dp4276
sg70
g4270
sg63
(lp4277
g56
(g57
g58
NtRp4278
(dp4279
g61
(dp4280
g69
I1
ssg70
g4274
sg63
(lp4281
g4087
(S't\x04\x00\x00\x00View'
tRp4282
asbasbasbag56
(g72
g58
NtRp4283
(dp4284
g61
(dp4285
sg70
g4266
sg63
(lp4286
g56
(g77
g58
NtRp4287
(dp4288
g61
(dp4289
sg70
g4283
sg63
(lp4290
g56
(g57
g58
NtRp4291
(dp4292
g61
(dp4293
g69
I1
ssg70
g4287
sg63
(lp4294
I00
asbasbasbag56
(g72
g58
NtRp4295
(dp4296
g61
(dp4297
sg70
g4266
sg63
(lp4298
g56
(g77
g58
NtRp4299
(dp4300
g61
(dp4301
sg70
g4295
sg63
(lp4302
g56
(g57
g58
NtRp4303
(dp4304
g61
(dp4305
g69
I1
ssg70
g4299
sg63
(lp4306
S'/admin/default/edit/places/views/default/index.load'
p4307
asbasbasbasbasbasbasbag56
(g72
g58
NtRp4308
(dp4309
g61
(dp4310
sg70
g4196
sg63
(lp4311
g56
(g77
g58
NtRp4312
(dp4313
g61
(dp4314
sg70
g4308
sg63
(lp4315
g56
(g57
g58
NtRp4316
(dp4317
g61
(dp4318
g69
I2
ssg70
g4312
sg63
(lp4319
g56
(g65
g58
NtRp4320
(dp4321
g61
(dp4322
g69
I1
ssg70
Nsg63
(lp4323
g56
(g72
g58
NtRp4324
(dp4325
g61
(dp4326
sg70
g4320
sg63
(lp4327
g56
(g77
g58
NtRp4328
(dp4329
g61
(dp4330
sg70
g4324
sg63
(lp4331
g56
(g57
g58
NtRp4332
(dp4333
g61
(dp4334
g69
I1
ssg70
g4328
sg63
(lp4335
g4087
(S't\x06\x00\x00\x00Layout'
tRp4336
asbasbasbag56
(g72
g58
NtRp4337
(dp4338
g61
(dp4339
sg70
g4320
sg63
(lp4340
g56
(g77
g58
NtRp4341
(dp4342
g61
(dp4343
sg70
g4337
sg63
(lp4344
g56
(g57
g58
NtRp4345
(dp4346
g61
(dp4347
g69
I1
ssg70
g4341
sg63
(lp4348
I00
asbasbasbag56
(g72
g58
NtRp4349
(dp4350
g61
(dp4351
sg70
g4320
sg63
(lp4352
g56
(g77
g58
NtRp4353
(dp4354
g61
(dp4355
sg70
g4349
sg63
(lp4356
g56
(g57
g58
NtRp4357
(dp4358
g61
(dp4359
g69
I1
ssg70
g4353
sg63
(lp4360
S'/admin/default/edit/places/views/layout.html'
p4361
asbasbasbasbasbasbasbag56
(g72
g58
NtRp4362
(dp4363
g61
(dp4364
sg70
g4196
sg63
(lp4365
g56
(g77
g58
NtRp4366
(dp4367
g61
(dp4368
sg70
g4362
sg63
(lp4369
g56
(g57
g58
NtRp4370
(dp4371
g61
(dp4372
g69
I2
ssg70
g4366
sg63
(lp4373
g56
(g65
g58
NtRp4374
(dp4375
g61
(dp4376
g69
I1
ssg70
Nsg63
(lp4377
g56
(g72
g58
NtRp4378
(dp4379
g61
(dp4380
sg70
g4374
sg63
(lp4381
g56
(g77
g58
NtRp4382
(dp4383
g61
(dp4384
sg70
g4378
sg63
(lp4385
g56
(g57
g58
NtRp4386
(dp4387
g61
(dp4388
g69
I1
ssg70
g4382
sg63
(lp4389
g4087
(S't\n\x00\x00\x00Stylesheet'
tRp4390
asbasbasbag56
(g72
g58
NtRp4391
(dp4392
g61
(dp4393
sg70
g4374
sg63
(lp4394
g56
(g77
g58
NtRp4395
(dp4396
g61
(dp4397
sg70
g4391
sg63
(lp4398
g56
(g57
g58
NtRp4399
(dp4400
g61
(dp4401
g69
I1
ssg70
g4395
sg63
(lp4402
I00
asbasbasbag56
(g72
g58
NtRp4403
(dp4404
g61
(dp4405
sg70
g4374
sg63
(lp4406
g56
(g77
g58
NtRp4407
(dp4408
g61
(dp4409
sg70
g4403
sg63
(lp4410
g56
(g57
g58
NtRp4411
(dp4412
g61
(dp4413
g69
I1
ssg70
g4407
sg63
(lp4414
S'/admin/default/edit/places/static/base.css'
p4415
asbasbasbasbasbasbasbag56
(g72
g58
NtRp4416
(dp4417
g61
(dp4418
sg70
g4196
sg63
(lp4419
g56
(g77
g58
NtRp4420
(dp4421
g61
(dp4422
sg70
g4416
sg63
(lp4423
g56
(g57
g58
NtRp4424
(dp4425
g61
(dp4426
g69
I2
ssg70
g4420
sg63
(lp4427
g56
(g65
g58
NtRp4428
(dp4429
g61
(dp4430
g69
I1
ssg70
Nsg63
(lp4431
g56
(g72
g58
NtRp4432
(dp4433
g61
(dp4434
sg70
g4428
sg63
(lp4435
g56
(g77
g58
NtRp4436
(dp4437
g61
(dp4438
sg70
g4432
sg63
(lp4439
g56
(g57
g58
NtRp4440
(dp4441
g61
(dp4442
g69
I1
ssg70
g4436
sg63
(lp4443
g4087
(S's\x08\x00\x00\x00DB Model'
tRp4444
asbasbasbag56
(g72
g58
NtRp4445
(dp4446
g61
(dp4447
sg70
g4428
sg63
(lp4448
g56
(g77
g58
NtRp4449
(dp4450
g61
(dp4451
sg70
g4445
sg63
(lp4452
g56
(g57
g58
NtRp4453
(dp4454
g61
(dp4455
g69
I1
ssg70
g4449
sg63
(lp4456
I00
asbasbasbag56
(g72
g58
NtRp4457
(dp4458
g61
(dp4459
sg70
g4428
sg63
(lp4460
g56
(g77
g58
NtRp4461
(dp4462
g61
(dp4463
sg70
g4457
sg63
(lp4464
g56
(g57
g58
NtRp4465
(dp4466
g61
(dp4467
g69
I1
ssg70
g4461
sg63
(lp4468
S'/admin/default/edit/places/models/db.py'
p4469
asbasbasbasbasbasbasbag56
(g72
g58
NtRp4470
(dp4471
g61
(dp4472
sg70
g4196
sg63
(lp4473
g56
(g77
g58
NtRp4474
(dp4475
g61
(dp4476
sg70
g4470
sg63
(lp4477
g56
(g57
g58
NtRp4478
(dp4479
g61
(dp4480
g69
I2
ssg70
g4474
sg63
(lp4481
g56
(g65
g58
NtRp4482
(dp4483
g61
(dp4484
g69
I1
ssg70
Nsg63
(lp4485
g56
(g72
g58
NtRp4486
(dp4487
g61
(dp4488
sg70
g4482
sg63
(lp4489
g56
(g77
g58
NtRp4490
(dp4491
g61
(dp4492
sg70
g4486
sg63
(lp4493
g56
(g57
g58
NtRp4494
(dp4495
g61
(dp4496
g69
I1
ssg70
g4490
sg63
(lp4497
g4087
(S's\n\x00\x00\x00Menu Model'
tRp4498
asbasbasbag56
(g72
g58
NtRp4499
(dp4500
g61
(dp4501
sg70
g4482
sg63
(lp4502
g56
(g77
g58
NtRp4503
(dp4504
g61
(dp4505
sg70
g4499
sg63
(lp4506
g56
(g57
g58
NtRp4507
(dp4508
g61
(dp4509
g69
I1
ssg70
g4503
sg63
(lp4510
I00
asbasbasbag56
(g72
g58
NtRp4511
(dp4512
g61
(dp4513
sg70
g4482
sg63
(lp4514
g56
(g77
g58
NtRp4515
(dp4516
g61
(dp4517
sg70
g4511
sg63
(lp4518
g56
(g57
g58
NtRp4519
(dp4520
g61
(dp4521
g69
I1
ssg70
g4515
sg63
(lp4522
S'/admin/default/edit/places/models/menu.py'
p4523
asbasbasbasbasbasbasbag56
(g72
g58
NtRp4524
(dp4525
g61
(dp4526
sg70
g4196
sg63
(lp4527
g56
(g77
g58
NtRp4528
(dp4529
g61
(dp4530
sg70
g4524
sg63
(lp4531
g56
(g57
g58
NtRp4532
(dp4533
g61
(dp4534
g69
I2
ssg70
g4528
sg63
(lp4535
g56
(g65
g58
NtRp4536
(dp4537
g61
(dp4538
g69
I1
ssg70
Nsg63
(lp4539
g56
(g72
g58
NtRp4540
(dp4541
g61
(dp4542
sg70
g4536
sg63
(lp4543
g56
(g77
g58
NtRp4544
(dp4545
g61
(dp4546
sg70
g4540
sg63
(lp4547
g56
(g57
g58
NtRp4548
(dp4549
g61
(dp4550
g69
I1
ssg70
g4544
sg63
(lp4551
g4087
(S't\x08\x00\x00\x00Database'
tRp4552
asbasbasbag56
(g72
g58
NtRp4553
(dp4554
g61
(dp4555
sg70
g4536
sg63
(lp4556
g56
(g77
g58
NtRp4557
(dp4558
g61
(dp4559
sg70
g4553
sg63
(lp4560
g56
(g57
g58
NtRp4561
(dp4562
g61
(dp4563
g69
I1
ssg70
g4557
sg63
(lp4564
I00
asbasbasbag56
(g72
g58
NtRp4565
(dp4566
g61
(dp4567
sg70
g4536
sg63
(lp4568
g56
(g77
g58
NtRp4569
(dp4570
g61
(dp4571
sg70
g4565
sg63
(lp4572
g56
(g57
g58
NtRp4573
(dp4574
g61
(dp4575
g69
I1
ssg70
g4569
sg63
(lp4576
S'/places/appadmin/index.load'
p4577
asbasbasbasbasbasbasbag56
(g72
g58
NtRp4578
(dp4579
g61
(dp4580
sg70
g4196
sg63
(lp4581
g56
(g77
g58
NtRp4582
(dp4583
g61
(dp4584
sg70
g4578
sg63
(lp4585
g56
(g57
g58
NtRp4586
(dp4587
g61
(dp4588
g69
I2
ssg70
g4582
sg63
(lp4589
g56
(g65
g58
NtRp4590
(dp4591
g61
(dp4592
g69
I1
ssg70
Nsg63
(lp4593
g56
(g72
g58
NtRp4594
(dp4595
g61
(dp4596
sg70
g4590
sg63
(lp4597
g56
(g77
g58
NtRp4598
(dp4599
g61
(dp4600
sg70
g4594
sg63
(lp4601
g56
(g57
g58
NtRp4602
(dp4603
g61
(dp4604
g69
I1
ssg70
g4598
sg63
(lp4605
g4087
(S't\x06\x00\x00\x00Errors'
tRp4606
asbasbasbag56
(g72
g58
NtRp4607
(dp4608
g61
(dp4609
sg70
g4590
sg63
(lp4610
g56
(g77
g58
NtRp4611
(dp4612
g61
(dp4613
sg70
g4607
sg63
(lp4614
g56
(g57
g58
NtRp4615
(dp4616
g61
(dp4617
g69
I1
ssg70
g4611
sg63
(lp4618
I00
asbasbasbag56
(g72
g58
NtRp4619
(dp4620
g61
(dp4621
sg70
g4590
sg63
(lp4622
g56
(g77
g58
NtRp4623
(dp4624
g61
(dp4625
sg70
g4619
sg63
(lp4626
g56
(g57
g58
NtRp4627
(dp4628
g61
(dp4629
g69
I1
ssg70
g4623
sg63
(lp4630
S'/admin/default/errors/places.load'
p4631
asbasbasbasbasbasbasbag56
(g72
g58
NtRp4632
(dp4633
g61
(dp4634
sg70
g4196
sg63
(lp4635
g56
(g77
g58
NtRp4636
(dp4637
g61
(dp4638
sg70
g4632
sg63
(lp4639
g56
(g57
g58
NtRp4640
(dp4641
g61
(dp4642
g69
I2
ssg70
g4636
sg63
(lp4643
g56
(g65
g58
NtRp4644
(dp4645
g61
(dp4646
g69
I1
ssg70
Nsg63
(lp4647
g56
(g72
g58
NtRp4648
(dp4649
g61
(dp4650
sg70
g4644
sg63
(lp4651
g56
(g77
g58
NtRp4652
(dp4653
g61
(dp4654
sg70
g4648
sg63
(lp4655
g56
(g57
g58
NtRp4656
(dp4657
g61
(dp4658
g69
I1
ssg70
g4652
sg63
(lp4659
g4087
(S't\x05\x00\x00\x00About'
tRp4660
asbasbasbag56
(g72
g58
NtRp4661
(dp4662
g61
(dp4663
sg70
g4644
sg63
(lp4664
g56
(g77
g58
NtRp4665
(dp4666
g61
(dp4667
sg70
g4661
sg63
(lp4668
g56
(g57
g58
NtRp4669
(dp4670
g61
(dp4671
g69
I1
ssg70
g4665
sg63
(lp4672
I00
asbasbasbag56
(g72
g58
NtRp4673
(dp4674
g61
(dp4675
sg70
g4644
sg63
(lp4676
g56
(g77
g58
NtRp4677
(dp4678
g61
(dp4679
sg70
g4673
sg63
(lp4680
g56
(g57
g58
NtRp4681
(dp4682
g61
(dp4683
g69
I1
ssg70
g4677
sg63
(lp4684
S'/admin/default/about/places.load'
p4685
asbasbasbasbasbasbasbasbasbasbasbasbasbasbasbag56
(g72
g58
NtRp4686
(dp4687
g61
(dp4688
sg70
g4055
sg63
(lp4689
g56
(g77
g58
NtRp4690
(dp4691
g61
(dp4692
sg70
g4686
sg63
(lp4693
g56
(g57
g58
NtRp4694
(dp4695
g61
(dp4696
g69
I4
ssg70
g4690
sg63
(lp4697
g56
(g65
g58
NtRp4698
(dp4699
g61
(dp4700
g69
I3
ssg70
Nsg63
(lp4701
g56
(g72
g58
NtRp4702
(dp4703
g61
(dp4704
sg70
g4698
sg63
(lp4705
g56
(g77
g58
NtRp4706
(dp4707
g61
(dp4708
sg70
g4702
sg63
(lp4709
g56
(g57
g58
NtRp4710
(dp4711
g61
(dp4712
g69
I3
ssg70
g4706
sg63
(lp4713
g4087
(S't\t\x00\x00\x00Resources'
tRp4714
asbasbasbag56
(g72
g58
NtRp4715
(dp4716
g61
(dp4717
sg70
g4698
sg63
(lp4718
g56
(g77
g58
NtRp4719
(dp4720
g61
(dp4721
sg70
g4715
sg63
(lp4722
g56
(g57
g58
NtRp4723
(dp4724
g61
(dp4725
g69
I3
ssg70
g4719
sg63
(lp4726
g981
asbasbasbag56
(g72
g58
NtRp4727
(dp4728
g61
(dp4729
sg70
g4698
sg63
(lp4730
g56
(g77
g58
NtRp4731
(dp4732
g61
(dp4733
sg70
g4727
sg63
(lp4734
g56
(g57
g58
NtRp4735
(dp4736
g61
(dp4737
g69
I3
ssg70
g4731
sg63
(lp4738
S'None'
p4739
asbasbasbag56
(g72
g58
NtRp4740
(dp4741
g61
(dp4742
sg70
g4698
sg63
(lp4743
g56
(g77
g58
NtRp4744
(dp4745
g61
(dp4746
sg70
g4740
sg63
(lp4747
g56
(g57
g58
NtRp4748
(dp4749
g61
(dp4750
g69
I3
ssg70
g4744
sg63
(lp4751
g56
(g65
g58
NtRp4752
(dp4753
g61
(dp4754
g69
I2
ssg70
Nsg63
(lp4755
g56
(g72
g58
NtRp4756
(dp4757
g61
(dp4758
sg70
g4752
sg63
(lp4759
g56
(g77
g58
NtRp4760
(dp4761
g61
(dp4762
sg70
g4756
sg63
(lp4763
g56
(g57
g58
NtRp4764
(dp4765
g61
(dp4766
g69
I2
ssg70
g4760
sg63
(lp4767
g56
(g65
g58
NtRp4768
(dp4769
g61
(dp4770
g69
I1
ssg70
Nsg63
(lp4771
g56
(g72
g58
NtRp4772
(dp4773
g61
(dp4774
sg70
g4768
sg63
(lp4775
g56
(g77
g58
NtRp4776
(dp4777
g61
(dp4778
sg70
g4772
sg63
(lp4779
g56
(g57
g58
NtRp4780
(dp4781
g61
(dp4782
g69
I1
ssg70
g4776
sg63
(lp4783
g4087
(S't\r\x00\x00\x00Documentation'
tRp4784
asbasbasbag56
(g72
g58
NtRp4785
(dp4786
g61
(dp4787
sg70
g4768
sg63
(lp4788
g56
(g77
g58
NtRp4789
(dp4790
g61
(dp4791
sg70
g4785
sg63
(lp4792
g56
(g57
g58
NtRp4793
(dp4794
g61
(dp4795
g69
I1
ssg70
g4789
sg63
(lp4796
I00
asbasbasbag56
(g72
g58
NtRp4797
(dp4798
g61
(dp4799
sg70
g4768
sg63
(lp4800
g56
(g77
g58
NtRp4801
(dp4802
g61
(dp4803
sg70
g4797
sg63
(lp4804
g56
(g57
g58
NtRp4805
(dp4806
g61
(dp4807
g69
I1
ssg70
g4801
sg63
(lp4808
S'http://www.web2py.com/book'
p4809
asbasbasbag56
(g72
g58
NtRp4810
(dp4811
g61
(dp4812
sg70
g4768
sg63
(lp4813
g56
(g77
g58
NtRp4814
(dp4815
g61
(dp4816
sg70
g4810
sg63
(lp4817
g56
(g57
g58
NtRp4818
(dp4819
g61
(dp4820
g69
I1
ssg70
g4814
sg63
(lp4821
(lp4822
(g4087
(S't\x07\x00\x00\x00Preface'
tRp4823
I00
S'http://www.web2py.com/book/default/chapter/00'
p4824
tp4825
a(g4087
(S't\x0c\x00\x00\x00Introduction'
tRp4826
I00
S'http://www.web2py.com/book/default/chapter/01'
p4827
tp4828
a(g4087
(S't\x06\x00\x00\x00Python'
tRp4829
I00
S'http://www.web2py.com/book/default/chapter/02'
p4830
tp4831
a(g4087
(S't\x08\x00\x00\x00Overview'
tRp4832
I00
S'http://www.web2py.com/book/default/chapter/03'
p4833
tp4834
a(g4087
(S's\x08\x00\x00\x00The Core'
tRp4835
I00
S'http://www.web2py.com/book/default/chapter/04'
p4836
tp4837
a(g4087
(S's\t\x00\x00\x00The Views'
tRp4838
I00
S'http://www.web2py.com/book/default/chapter/05'
p4839
tp4840
a(g4087
(S't\x08\x00\x00\x00Database'
tRp4841
I00
S'http://www.web2py.com/book/default/chapter/06'
p4842
tp4843
a(g4087
(S's\x14\x00\x00\x00Forms and Validators'
tRp4844
I00
S'http://www.web2py.com/book/default/chapter/07'
p4845
tp4846
a(g4087
(S's\x0e\x00\x00\x00Access Control'
tRp4847
I00
S'http://www.web2py.com/book/default/chapter/08'
p4848
tp4849
a(g4087
(S't\x08\x00\x00\x00Services'
tRp4850
I00
S'http://www.web2py.com/book/default/chapter/09'
p4851
tp4852
a(g4087
(S's\x0c\x00\x00\x00Ajax Recipes'
tRp4853
I00
S'http://www.web2py.com/book/default/chapter/10'
p4854
tp4855
a(g4087
(S's\x12\x00\x00\x00Deployment Recipes'
tRp4856
I00
S'http://www.web2py.com/book/default/chapter/11'
p4857
tp4858
a(g4087
(S's\r\x00\x00\x00Other Recipes'
tRp4859
I00
S'http://www.web2py.com/book/default/chapter/12'
p4860
tp4861
a(g4087
(S's\r\x00\x00\x00Buy this book'
tRp4862
I00
S'http://stores.lulu.com/web2py'
p4863
tp4864
aasbasbasbasbasbasbasbag56
(g72
g58
NtRp4865
(dp4866
g61
(dp4867
sg70
g4752
sg63
(lp4868
g56
(g77
g58
NtRp4869
(dp4870
g61
(dp4871
sg70
g4865
sg63
(lp4872
g56
(g57
g58
NtRp4873
(dp4874
g61
(dp4875
g69
I2
ssg70
g4869
sg63
(lp4876
g56
(g65
g58
NtRp4877
(dp4878
g61
(dp4879
g69
I1
ssg70
Nsg63
(lp4880
g56
(g72
g58
NtRp4881
(dp4882
g61
(dp4883
sg70
g4877
sg63
(lp4884
g56
(g77
g58
NtRp4885
(dp4886
g61
(dp4887
sg70
g4881
sg63
(lp4888
g56
(g57
g58
NtRp4889
(dp4890
g61
(dp4891
g69
I1
ssg70
g4885
sg63
(lp4892
g4087
(S't\t\x00\x00\x00Community'
tRp4893
asbasbasbag56
(g72
g58
NtRp4894
(dp4895
g61
(dp4896
sg70
g4877
sg63
(lp4897
g56
(g77
g58
NtRp4898
(dp4899
g61
(dp4900
sg70
g4894
sg63
(lp4901
g56
(g57
g58
NtRp4902
(dp4903
g61
(dp4904
g69
I1
ssg70
g4898
sg63
(lp4905
I00
asbasbasbag56
(g72
g58
NtRp4906
(dp4907
g61
(dp4908
sg70
g4877
sg63
(lp4909
g56
(g77
g58
NtRp4910
(dp4911
g61
(dp4912
sg70
g4906
sg63
(lp4913
g56
(g57
g58
NtRp4914
(dp4915
g61
(dp4916
g69
I1
ssg70
g4910
sg63
(lp4917
Nasbasbasbag56
(g72
g58
NtRp4918
(dp4919
g61
(dp4920
sg70
g4877
sg63
(lp4921
g56
(g77
g58
NtRp4922
(dp4923
g61
(dp4924
sg70
g4918
sg63
(lp4925
g56
(g57
g58
NtRp4926
(dp4927
g61
(dp4928
g69
I1
ssg70
g4922
sg63
(lp4929
(lp4930
(g4087
(S't\x06\x00\x00\x00Groups'
tRp4931
I00
S'http://www.web2py.com/examples/default/usergroups'
p4932
tp4933
a(g4087
(S't\x07\x00\x00\x00Twitter'
tRp4934
I00
S'http://twitter.com/web2py'
p4935
tp4936
a(g4087
(S's\t\x00\x00\x00Live chat'
tRp4937
I00
S'http://mibbit.com/?channel=%23web2py&server=irc.mibbit.net'
p4938
tp4939
a(g4087
(S's\n\x00\x00\x00User Voice'
tRp4940
I00
S'http://web2py.uservoice.com/'
p4941
tp4942
aasbasbasbasbasbasbasbag56
(g72
g58
NtRp4943
(dp4944
g61
(dp4945
sg70
g4752
sg63
(lp4946
g56
(g77
g58
NtRp4947
(dp4948
g61
(dp4949
sg70
g4943
sg63
(lp4950
g56
(g57
g58
NtRp4951
(dp4952
g61
(dp4953
g69
I2
ssg70
g4947
sg63
(lp4954
g56
(g65
g58
NtRp4955
(dp4956
g61
(dp4957
g69
I1
ssg70
Nsg63
(lp4958
g56
(g72
g58
NtRp4959
(dp4960
g61
(dp4961
sg70
g4955
sg63
(lp4962
g56
(g77
g58
NtRp4963
(dp4964
g61
(dp4965
sg70
g4959
sg63
(lp4966
g56
(g57
g58
NtRp4967
(dp4968
g61
(dp4969
g69
I1
ssg70
g4963
sg63
(lp4970
g4087
(S't\x06\x00\x00\x00Web2py'
tRp4971
asbasbasbag56
(g72
g58
NtRp4972
(dp4973
g61
(dp4974
sg70
g4955
sg63
(lp4975
g56
(g77
g58
NtRp4976
(dp4977
g61
(dp4978
sg70
g4972
sg63
(lp4979
g56
(g57
g58
NtRp4980
(dp4981
g61
(dp4982
g69
I1
ssg70
g4976
sg63
(lp4983
I00
asbasbasbag56
(g72
g58
NtRp4984
(dp4985
g61
(dp4986
sg70
g4955
sg63
(lp4987
g56
(g77
g58
NtRp4988
(dp4989
g61
(dp4990
sg70
g4984
sg63
(lp4991
g56
(g57
g58
NtRp4992
(dp4993
g61
(dp4994
g69
I1
ssg70
g4988
sg63
(lp4995
S'http://www.web2py.com'
p4996
asbasbasbag56
(g72
g58
NtRp4997
(dp4998
g61
(dp4999
sg70
g4955
sg63
(lp5000
g56
(g77
g58
NtRp5001
(dp5002
g61
(dp5003
sg70
g4997
sg63
(lp5004
g56
(g57
g58
NtRp5005
(dp5006
g61
(dp5007
g69
I1
ssg70
g5001
sg63
(lp5008
(lp5009
(g4087
(S't\x08\x00\x00\x00Download'
tRp5010
I00
S'http://www.web2py.com/examples/default/download'
p5011
tp5012
a(g4087
(S't\x07\x00\x00\x00Support'
tRp5013
I00
S'http://www.web2py.com/examples/default/support'
p5014
tp5015
a(g4087
(S's\x0e\x00\x00\x00Quick Examples'
tRp5016
I00
S'http://web2py.com/examples/default/examples'
p5017
tp5018
a(g4087
(S't\x03\x00\x00\x00FAQ'
tRp5019
I00
S'http://web2py.com/AlterEgo'
p5020
tp5021
a(g4087
(S's\x11\x00\x00\x00Free Applications'
tRp5022
I00
S'http://web2py.com/appliances'
p5023
tp5024
a(g4087
(S't\x07\x00\x00\x00Plugins'
tRp5025
I00
S'http://web2py.com/plugins'
p5026
tp5027
a(g4087
(S't\x07\x00\x00\x00Recipes'
tRp5028
I00
S'http://web2pyslices.com/'
p5029
tp5030
a(g4087
(S't\x04\x00\x00\x00Demo'
tRp5031
I00
S'http://web2py.com/demo_admin'
p5032
tp5033
a(g4087
(S't\x08\x00\x00\x00Semantic'
tRp5034
I00
S'http://web2py.com/semantic'
p5035
tp5036
a(g4087
(S't\x07\x00\x00\x00Layouts'
tRp5037
I00
S'http://web2py.com/layouts'
p5038
tp5039
a(g4087
(S't\x06\x00\x00\x00Videos'
tRp5040
I00
S'http://www.web2py.com/examples/default/videos/'
p5041
tp5042
aasbasbasbasbasbasbasbasbasbasbasbasbasbasbasbasbasbasbasbag56
(g72
g58
NtRp5043
(dp5044
g61
(dp5045
sg70
g3582
sg63
(lp5046
g56
(g77
g58
NtRp5047
(dp5048
g61
(dp5049
g81
g82
ssg70
g5043
sg63
(lp5050
S'meta'
p5051
asbag56
(g77
g58
NtRp5052
(dp5053
g61
(dp5054
g88
g89
ssg70
g5043
sg63
(lp5055
S':'
asbag56
(g77
g58
NtRp5056
(dp5057
g61
(dp5058
sg70
g5043
sg63
(lp5059
g56
(g57
g58
NtRp5060
(dp5061
g61
(dp5062
g69
I5
ssg70
g5056
sg63
(lp5063
g56
(g65
g58
NtRp5064
(dp5065
g61
(dp5066
g69
I4
ssg70
Nsg63
(lp5067
g56
(g72
g58
NtRp5068
(dp5069
g61
(dp5070
sg70
g5064
sg63
(lp5071
g56
(g77
g58
NtRp5072
(dp5073
g61
(dp5074
g81
g82
ssg70
g5068
sg63
(lp5075
S'author'
p5076
asbag56
(g77
g58
NtRp5077
(dp5078
g61
(dp5079
g88
g89
ssg70
g5068
sg63
(lp5080
S':'
asbag56
(g77
g58
NtRp5081
(dp5082
g61
(dp5083
sg70
g5068
sg63
(lp5084
g56
(g57
g58
NtRp5085
(dp5086
g61
(dp5087
g69
I4
ssg70
g5081
sg63
(lp5088
S'Your Name <you@example.com>'
p5089
asbasbasbag56
(g72
g58
NtRp5090
(dp5091
g61
(dp5092
sg70
g5064
sg63
(lp5093
g56
(g77
g58
NtRp5094
(dp5095
g61
(dp5096
g81
g82
ssg70
g5090
sg63
(lp5097
S'copyright'
p5098
asbag56
(g77
g58
NtRp5099
(dp5100
g61
(dp5101
g88
g89
ssg70
g5090
sg63
(lp5102
S':'
asbag56
(g77
g58
NtRp5103
(dp5104
g61
(dp5105
sg70
g5090
sg63
(lp5106
g56
(g57
g58
NtRp5107
(dp5108
g61
(dp5109
g69
I4
ssg70
g5103
sg63
(lp5110
S'Copyright 2011'
p5111
asbasbasbag56
(g72
g58
NtRp5112
(dp5113
g61
(dp5114
sg70
g5064
sg63
(lp5115
g56
(g77
g58
NtRp5116
(dp5117
g61
(dp5118
g81
g82
ssg70
g5112
sg63
(lp5119
S'description'
p5120
asbag56
(g77
g58
NtRp5121
(dp5122
g61
(dp5123
g88
g89
ssg70
g5112
sg63
(lp5124
S':'
asbag56
(g77
g58
NtRp5125
(dp5126
g61
(dp5127
sg70
g5112
sg63
(lp5128
g56
(g57
g58
NtRp5129
(dp5130
g61
(dp5131
g69
I4
ssg70
g5125
sg63
(lp5132
S'a cool new app'
p5133
asbasbasbag56
(g72
g58
NtRp5134
(dp5135
g61
(dp5136
sg70
g5064
sg63
(lp5137
g56
(g77
g58
NtRp5138
(dp5139
g61
(dp5140
g81
g82
ssg70
g5134
sg63
(lp5141
S'generator'
p5142
asbag56
(g77
g58
NtRp5143
(dp5144
g61
(dp5145
g88
g89
ssg70
g5134
sg63
(lp5146
S':'
asbag56
(g77
g58
NtRp5147
(dp5148
g61
(dp5149
sg70
g5134
sg63
(lp5150
g56
(g57
g58
NtRp5151
(dp5152
g61
(dp5153
g69
I4
ssg70
g5147
sg63
(lp5154
S'Web2py Web Framework'
p5155
asbasbasbag56
(g72
g58
NtRp5156
(dp5157
g61
(dp5158
sg70
g5064
sg63
(lp5159
g56
(g77
g58
NtRp5160
(dp5161
g61
(dp5162
g81
g82
ssg70
g5156
sg63
(lp5163
S'keywords'
p5164
asbag56
(g77
g58
NtRp5165
(dp5166
g61
(dp5167
g88
g89
ssg70
g5156
sg63
(lp5168
S':'
asbag56
(g77
g58
NtRp5169
(dp5170
g61
(dp5171
sg70
g5156
sg63
(lp5172
g56
(g57
g58
NtRp5173
(dp5174
g61
(dp5175
g69
I4
ssg70
g5169
sg63
(lp5176
S'web2py, python, framework'
p5177
asbasbasbasbasbasbasbag56
(g72
g58
NtRp5178
(dp5179
g61
(dp5180
sg70
g3582
sg63
(lp5181
g56
(g77
g58
NtRp5182
(dp5183
g61
(dp5184
g81
g82
ssg70
g5178
sg63
(lp5185
S'postprocessing'
p5186
asbag56
(g77
g58
NtRp5187
(dp5188
g61
(dp5189
g88
g89
ssg70
g5178
sg63
(lp5190
S':'
asbag56
(g77
g58
NtRp5191
(dp5192
g61
(dp5193
sg70
g5178
sg63
(lp5194
g56
(g57
g58
NtRp5195
(dp5196
g61
(dp5197
g69
I5
ssg70
g5191
sg63
(lp5198
g56
(g65
g58
NtRp5199
(dp5200
g61
(dp5201
g69
I4
ssg70
Nsg63
(lp5202
sbasbasbasbag56
(g72
g58
NtRp5203
(dp5204
g61
(dp5205
sg70
g3582
sg63
(lp5206
g56
(g77
g58
NtRp5207
(dp5208
g61
(dp5209
g81
g82
ssg70
g5203
sg63
(lp5210
S'session_file'
p5211
asbag56
(g77
g58
NtRp5212
(dp5213
g61
(dp5214
g88
g89
ssg70
g5203
sg63
(lp5215
S':'
asbag56
(g77
g58
NtRp5216
(dp5217
g61
(dp5218
sg70
g5203
sg63
(lp5219
g56
(g57
g58
NtRp5220
(dp5221
g61
(dp5222
g69
I5
ssg70
g5216
sg63
(lp5223
S"<open file '/home/ian/web2py/applications/places/sessions/127.0.0.1-9bd70a00-d029-4b6e-8bcc-a423c3a61399', mode 'rb+' at 0x3eb7390>"
p5224
asbasbasbag56
(g72
g58
NtRp5225
(dp5226
g61
(dp5227
sg70
g3582
sg63
(lp5228
g56
(g77
g58
NtRp5229
(dp5230
g61
(dp5231
g81
g82
ssg70
g5225
sg63
(lp5232
S'session_filename'
p5233
asbag56
(g77
g58
NtRp5234
(dp5235
g61
(dp5236
g88
g89
ssg70
g5225
sg63
(lp5237
S':'
asbag56
(g77
g58
NtRp5238
(dp5239
g61
(dp5240
sg70
g5225
sg63
(lp5241
g56
(g57
g58
NtRp5242
(dp5243
g61
(dp5244
g69
I5
ssg70
g5238
sg63
(lp5245
S'/home/ian/web2py/applications/places/sessions/127.0.0.1-9bd70a00-d029-4b6e-8bcc-a423c3a61399'
p5246
asbasbasbag56
(g72
g58
NtRp5247
(dp5248
g61
(dp5249
sg70
g3582
sg63
(lp5250
g56
(g77
g58
NtRp5251
(dp5252
g61
(dp5253
g81
g82
ssg70
g5247
sg63
(lp5254
S'session_id'
p5255
asbag56
(g77
g58
NtRp5256
(dp5257
g61
(dp5258
g88
g89
ssg70
g5247
sg63
(lp5259
S':'
asbag56
(g77
g58
NtRp5260
(dp5261
g61
(dp5262
sg70
g5247
sg63
(lp5263
g56
(g57
g58
NtRp5264
(dp5265
g61
(dp5266
g69
I5
ssg70
g5260
sg63
(lp5267
S'127.0.0.1-9bd70a00-d029-4b6e-8bcc-a423c3a61399'
p5268
asbasbasbag56
(g72
g58
NtRp5269
(dp5270
g61
(dp5271
sg70
g3582
sg63
(lp5272
g56
(g77
g58
NtRp5273
(dp5274
g61
(dp5275
g81
g82
ssg70
g5269
sg63
(lp5276
S'session_id_name'
p5277
asbag56
(g77
g58
NtRp5278
(dp5279
g61
(dp5280
g88
g89
ssg70
g5269
sg63
(lp5281
S':'
asbag56
(g77
g58
NtRp5282
(dp5283
g61
(dp5284
sg70
g5269
sg63
(lp5285
g56
(g57
g58
NtRp5286
(dp5287
g61
(dp5288
g69
I5
ssg70
g5282
sg63
(lp5289
g3639
asbasbasbag56
(g72
g58
NtRp5290
(dp5291
g61
(dp5292
sg70
g3582
sg63
(lp5293
g56
(g77
g58
NtRp5294
(dp5295
g61
(dp5296
g81
g82
ssg70
g5290
sg63
(lp5297
S'session_locked'
p5298
asbag56
(g77
g58
NtRp5299
(dp5300
g61
(dp5301
g88
g89
ssg70
g5290
sg63
(lp5302
S':'
asbag56
(g77
g58
NtRp5303
(dp5304
g61
(dp5305
sg70
g5290
sg63
(lp5306
g56
(g57
g58
NtRp5307
(dp5308
g61
(dp5309
g69
I5
ssg70
g5303
sg63
(lp5310
g99
asbasbasbag56
(g72
g58
NtRp5311
(dp5312
g61
(dp5313
sg70
g3582
sg63
(lp5314
g56
(g77
g58
NtRp5315
(dp5316
g61
(dp5317
g81
g82
ssg70
g5311
sg63
(lp5318
S'session_new'
p5319
asbag56
(g77
g58
NtRp5320
(dp5321
g61
(dp5322
g88
g89
ssg70
g5311
sg63
(lp5323
S':'
asbag56
(g77
g58
NtRp5324
(dp5325
g61
(dp5326
sg70
g5311
sg63
(lp5327
g56
(g57
g58
NtRp5328
(dp5329
g61
(dp5330
g69
I5
ssg70
g5324
sg63
(lp5331
g981
asbasbasbag56
(g72
g58
NtRp5332
(dp5333
g61
(dp5334
sg70
g3582
sg63
(lp5335
g56
(g77
g58
NtRp5336
(dp5337
g61
(dp5338
g81
g82
ssg70
g5332
sg63
(lp5339
S'status'
p5340
asbag56
(g77
g58
NtRp5341
(dp5342
g61
(dp5343
g88
g89
ssg70
g5332
sg63
(lp5344
S':'
asbag56
(g77
g58
NtRp5345
(dp5346
g61
(dp5347
sg70
g5332
sg63
(lp5348
g56
(g57
g58
NtRp5349
(dp5350
g61
(dp5351
g69
I5
ssg70
g5345
sg63
(lp5352
S'200'
p5353
asbasbasbag56
(g72
g58
NtRp5354
(dp5355
g61
(dp5356
sg70
g3582
sg63
(lp5357
g56
(g77
g58
NtRp5358
(dp5359
g61
(dp5360
g81
g82
ssg70
g5354
sg63
(lp5361
S'subtitle'
p5362
asbag56
(g77
g58
NtRp5363
(dp5364
g61
(dp5365
g88
g89
ssg70
g5354
sg63
(lp5366
S':'
asbag56
(g77
g58
NtRp5367
(dp5368
g61
(dp5369
sg70
g5354
sg63
(lp5370
g56
(g57
g58
NtRp5371
(dp5372
g61
(dp5373
g69
I5
ssg70
g5367
sg63
(lp5374
g4087
(S's\r\x00\x00\x00customize me!'
tRp5375
asbasbasbag56
(g72
g58
NtRp5376
(dp5377
g61
(dp5378
sg70
g3582
sg63
(lp5379
g56
(g77
g58
NtRp5380
(dp5381
g61
(dp5382
g81
g82
ssg70
g5376
sg63
(lp5383
S'title'
p5384
asbag56
(g77
g58
NtRp5385
(dp5386
g61
(dp5387
g88
g89
ssg70
g5376
sg63
(lp5388
S':'
asbag56
(g77
g58
NtRp5389
(dp5390
g61
(dp5391
sg70
g5376
sg63
(lp5392
g56
(g57
g58
NtRp5393
(dp5394
g61
(dp5395
g69
I5
ssg70
g5389
sg63
(lp5396
g121
asbasbasbag56
(g72
g58
NtRp5397
(dp5398
g61
(dp5399
sg70
g3582
sg63
(lp5400
g56
(g77
g58
NtRp5401
(dp5402
g61
(dp5403
g81
g82
ssg70
g5397
sg63
(lp5404
g2431
asbag56
(g77
g58
NtRp5405
(dp5406
g61
(dp5407
g88
g89
ssg70
g5397
sg63
(lp5408
S':'
asbag56
(g77
g58
NtRp5409
(dp5410
g61
(dp5411
sg70
g5397
sg63
(lp5412
g56
(g57
g58
NtRp5413
(dp5414
g61
(dp5415
g69
I5
ssg70
g5409
sg63
(lp5416
g2444
asbasbasbag56
(g72
g58
NtRp5417
(dp5418
g61
(dp5419
sg70
g3582
sg63
(lp5420
g56
(g77
g58
NtRp5421
(dp5422
g61
(dp5423
g81
g82
ssg70
g5417
sg63
(lp5424
S'view'
p5425
asbag56
(g77
g58
NtRp5426
(dp5427
g61
(dp5428
g88
g89
ssg70
g5417
sg63
(lp5429
S':'
asbag56
(g77
g58
NtRp5430
(dp5431
g61
(dp5432
sg70
g5417
sg63
(lp5433
g56
(g57
g58
NtRp5434
(dp5435
g61
(dp5436
g69
I5
ssg70
g5430
sg63
(lp5437
S'default/index.load'
p5438
asbasbasbasbasbsS'locals'
p5439
(dp5440
S'Service'
p5441
S"<class 'gluon.tools.Service'>"
p5442
sS'OBJECT'
p5443
S"<class 'gluon.html.OBJECT'>"
p5444
sS'SQLDB'
p5445
S"<class 'gluon.dal.DAL'>"
p5446
sg3231
S"<Storage {'current': 'kitchen', '_formkey[auth_g...@gmail.com', 'id': 1}>}>, 'the_view': 'kitchen'}>"
p5447
sS'LINK'
p5448
S"<class 'gluon.html.LINK'>"
p5449
sS'BR'
p5450
S"<class 'gluon.html.BR'>"
p5451
sS'local_import'
p5452
S'<function <lambda>>'
p5453
sS'OPTGROUP'
p5454
S"<class 'gluon.html.OPTGROUP'>"
p5455
sS'PRE'
p5456
S"<class 'gluon.html.PRE'>"
p5457
sS'IS_INT_IN_RANGE'
p5458
S"<class 'gluon.validators.IS_INT_IN_RANGE'>"
p5459
sS'IS_LOWER'
p5460
S"<class 'gluon.validators.IS_LOWER'>"
p5461
sS'IS_STRONG'
p5462
S"<class 'gluon.validators.IS_STRONG'>"
p5463
sS'cache'
p5464
S'<gluon.cache.Cache object>'
p5465
sS'IS_IN_DB'
p5466
S"<class 'gluon.validators.IS_IN_DB'>"
p5467
sS'TAG'
p5468
S'<gluon.html.__TAG__ object>'
p5469
sS'SQLField'
p5470
S"<class 'gluon.dal.Field'>"
p5471
sS'mail'
p5472
S'<gluon.tools.Mail object>'
p5473
sS'BODY'
p5474
S"<class 'gluon.html.BODY'>"
p5475
sS'IS_DATE_IN_RANGE'
p5476
S"<class 'gluon.validators.IS_DATE_IN_RANGE'>"
p5477
sS'TH'
p5478
S"<class 'gluon.html.TH'>"
p5479
sS'URL'
p5480
S'<function URL>'
p5481
sS'__file__'
p5482
S"'/home/ian/web2py/applications/places/views/default/index.load'"
p5483
sS'db'
p5484
S"<DAL {'auth_event': <Table {'origin': <gluon.dal..., 'id': <gluon.dal.Field object at 0x3b44490>}>}>"
p5485
sS'auth'
p5486
S'<gluon.tools.Auth object>'
p5487
sS'P'
S"<class 'gluon.html.P'>"
p5488
sS'TFOOT'
p5489
S"<class 'gluon.html.TFOOT'>"
p5490
sS'XHTML'
p5491
S"<class 'gluon.html.XHTML'>"
p5492
sS'ON'
p5493
g99
sS'OL'
p5494
S"<class 'gluon.html.OL'>"
p5495
sS'TEXTAREA'
p5496
S"<class 'gluon.html.TEXTAREA'>"
p5497
sS'MENU'
p5498
S"<class 'gluon.html.MENU'>"
p5499
sS'LOAD'
p5500
S'<gluon.compileapp.LoadFactory object>'
p5501
sS'CODE'
p5502
S"<class 'gluon.html.CODE'>"
p5503
sS'HTTP'
p5504
S"<class 'gluon.http.HTTP'>"
p5505
sS'HR'
p5506
S"<class 'gluon.html.HR'>"
p5507
sS'IS_DATETIME'
p5508
S"<class 'gluon.validators.IS_DATETIME'>"
p5509
sS'HEAD'
p5510
S"<class 'gluon.html.HEAD'>"
p5511
sS'LABEL'
p5512
S"<class 'gluon.html.LABEL'>"
p5513
sS'CLEANUP'
p5514
S"<class 'gluon.validators.CLEANUP'>"
p5515
sS'plugins'
p5516
S'<gluon.tools.PluginManager object>'
p5517
sS'SELECT'
p5518
S"<class 'gluon.html.SELECT'>"
p5519
sS'use_janrain'
p5520
S'<function use_janrain>'
p5521
sS'CENTER'
p5522
S"<class 'gluon.html.CENTER'>"
p5523
sS'prettydate'
p5524
S'<function prettydate>'
p5525
sS'Crud'
p5526
S"<class 'gluon.tools.Crud'>"
p5527
sS'Auth'
p5528
S"<class 'gluon.tools.Auth'>"
p5529
sS'__builtins__'
p5530
S"{'ArithmeticError': <type 'exceptions.ArithmeticError'>, 'AssertionError': <type 'exceptions.AssertionError'>, 'AttributeError': <type 'exceptions.AttributeError'>, 'BaseException': <type 'exceptions.BaseException'>, 'BufferError': <type 'exceptions.BufferError'>, 'BytesWarning': <type 'exceptions.BytesWarning'>, 'DeprecationWarning': <type 'exceptions.DeprecationWarning'>, 'EOFError': <type 'exceptions.EOFError'>, 'Ellipsis': Ellipsis, 'EnvironmentError': <type 'exceptions.EnvironmentError'>, ...}"
p5531
sS'HTML'
p5532
S"<class 'gluon.html.HTML'>"
p5533
sS'SQLFORM'
p5534
S"<class 'gluon.sqlhtml.SQLFORM'>"
p5535
sS'EM'
p5536
S"<class 'gluon.html.EM'>"
p5537
sS'redirect'
p5538
S'<function redirect>'
p5539
sS'FIELDSET'
p5540
S"<class 'gluon.html.FIELDSET'>"
p5541
sS'IS_EQUAL_TO'
p5542
S"<class 'gluon.validators.IS_EQUAL_TO'>"
p5543
sS'embed64'
p5544
S'<function embed64>'
p5545
sS'IS_LIST_OF'
p5546
S"<class 'gluon.validators.IS_LIST_OF'>"
p5547
sS'INPUT'
p5548
S"<class 'gluon.html.INPUT'>"
p5549
sS'EMBED'
p5550
S"<class 'gluon.html.EMBED'>"
p5551
sS'_'
S'<function _>'
p5552
sS'FORM'
p5553
S"<class 'gluon.html.FORM'>"
p5554
sS'H2'
p5555
S"<class 'gluon.html.H2'>"
p5556
sS'H3'
p5557
S"<class 'gluon.html.H3'>"
p5558
sS'BUTTON'
p5559
S"<class 'gluon.html.BUTTON'>"
p5560
sS'H1'
p5561
S"<class 'gluon.html.H1'>"
p5562
sS'H6'
p5563
S"<class 'gluon.html.H6'>"
p5564
sS'H4'
p5565
S"<class 'gluon.html.H4'>"
p5566
sS'H5'
p5567
S"<class 'gluon.html.H5'>"
p5568
sS'UL'
p5569
S"<class 'gluon.html.UL'>"
p5570
sS'IS_UPPER'
p5571
S"<class 'gluon.validators.IS_UPPER'>"
p5572
sS'xmlescape'
p5573
S'<function xmlescape>'
p5574
sS'IS_TIME'
p5575
S"<class 'gluon.validators.IS_TIME'>"
p5576
sS'OPTION'
p5577
S"<class 'gluon.html.OPTION'>"
p5578
sS'TITLE'
p5579
S"<class 'gluon.html.TITLE'>"
p5580
sS'CRYPT'
p5581
S"<class 'gluon.validators.CRYPT'>"
p5582
sS'IS_EMPTY_OR'
p5583
S"<class 'gluon.validators.IS_EMPTY_OR'>"
p5584
sS'MARKMIN'
p5585
S"<class 'gluon.html.MARKMIN'>"
p5586
sS'COL'
p5587
S"<class 'gluon.html.COL'>"
p5588
sS'service'
p5589
S'<gluon.tools.Service object>'
p5590
sS'SCRIPT'
p5591
S"<class 'gluon.html.SCRIPT'>"
p5592
sS'TABLE'
p5593
S"<class 'gluon.html.TABLE'>"
p5594
sS'IS_IPV4'
p5595
S"<class 'gluon.validators.IS_IPV4'>"
p5596
sS'IS_LENGTH'
p5597
S"<class 'gluon.validators.IS_LENGTH'>"
p5598
sS'XML'
p5599
S"<class 'gluon.html.XML'>"
p5600
sS'B'
S"<class 'gluon.html.B'>"
p5601
sS'IMG'
p5602
S"<class 'gluon.html.IMG'>"
p5603
sS'SQLTABLE'
p5604
S"<class 'gluon.sqlhtml.SQLTABLE'>"
p5605
sS'IS_MATCH'
p5606
S"<class 'gluon.validators.IS_MATCH'>"
p5607
sS'IS_ALPHANUMERIC'
p5608
S"<class 'gluon.validators.IS_ALPHANUMERIC'>"
p5609
sS'link'
p5610
S"<Row {'tags': [1], 'update_record': <function <l...elete_record': <function <lambda> at 0x3b43e60>}>"
p5611
sS'SPAN'
p5612
S"<class 'gluon.html.SPAN'>"
p5613
sS'IS_SLUG'
p5614
S"<class 'gluon.validators.IS_SLUG'>"
p5615
sS'BEAUTIFY'
p5616
S"<class 'gluon.html.BEAUTIFY'>"
p5617
sS'META'
p5618
S"<class 'gluon.html.META'>"
p5619
sS'IS_DATE'
p5620
S"<class 'gluon.validators.IS_DATE'>"
p5621
sS'IS_EMAIL'
p5622
S"<class 'gluon.validators.IS_EMAIL'>"
p5623
sS'links'
p5624
S'<gluon.dal.Rows object>'
p5625
sS'IS_NOT_EMPTY'
p5626
S"<class 'gluon.validators.IS_NOT_EMPTY'>"
p5627
sS'IS_FLOAT_IN_RANGE'
p5628
S"<class 'gluon.validators.IS_FLOAT_IN_RANGE'>"
p5629
sS'TBODY'
p5630
S"<class 'gluon.html.TBODY'>"
p5631
sS'CAT'
p5632
S"<class 'gluon.html.CAT'>"
p5633
sS'Field'
p5634
S"<class 'gluon.dal.Field'>"
p5635
sS'DIV'
p5636
S"<class 'gluon.html.DIV'>"
p5637
sS'LEGEND'
p5638
S"<class 'gluon.html.LEGEND'>"
p5639
sS'COLGROUP'
p5640
S"<class 'gluon.html.COLGROUP'>"
p5641
sS'DAL'
p5642
S"<class 'gluon.dal.DAL'>"
p5643
sS'TT'
p5644
S"<class 'gluon.html.TT'>"
p5645
sS'TR'
p5646
S"<class 'gluon.html.TR'>"
p5647
sS'LI'
p5648
S"<class 'gluon.html.LI'>"
p5649
sS'IFRAME'
p5650
S"<class 'gluon.html.IFRAME'>"
p5651
sS'TD'
p5652
S"<class 'gluon.html.TD'>"
p5653
sS'PluginManager'
p5654
S"<class 'gluon.tools.PluginManager'>"
p5655
sS'IS_URL'
p5656
S"<class 'gluon.validators.IS_URL'>"
p5657
sS'A'
S"<class 'gluon.html.A'>"
p5658
sS'STYLE'
p5659
S"<class 'gluon.html.STYLE'>"
p5660
sS'IS_DATETIME_IN_RANGE'
p5661
S"<class 'gluon.validators.IS_DATETIME_IN_RANGE'>"
p5662
sS'IS_IMAGE'
p5663
S"<class 'gluon.validators.IS_IMAGE'>"
p5664
sS'I'
S"<class 'gluon.html.I'>"
p5665
sS'crud'
p5666
S'<gluon.tools.Crud object>'
p5667
sS'IS_NOT_IN_DB'
p5668
S"<class 'gluon.validators.IS_NOT_IN_DB'>"
p5669
sg3577
S"<Storage {'body': <cStringIO.StringO object at 0...da> at 0x35a4cf8>, 'view': 'default/index.load'}>"
p5670
sS'THEAD'
p5671
S"<class 'gluon.html.THEAD'>"
p5672
sS'IS_NULL_OR'
p5673
S"<class 'gluon.validators.IS_EMPTY_OR'>"
p5674
sg55
S"<Storage {'body': <cStringIO.StringO object at 0...e_view': 'kitchen'}>, 'post_vars': <Storage {}>}>"
p5675
sS'IS_EXPR'
p5676
S"<class 'gluon.validators.IS_EXPR'>"
p5677
sS'T'
S'<gluon.languages.translator object>'
p5678
sS'IS_IN_SET'
p5679
S"<class 'gluon.validators.IS_IN_SET'>"
p5680
sS'IS_UPLOAD_FILENAME'
p5681
S"<class 'gluon.validators.IS_UPLOAD_FILENAME'>"
p5682
sS'IS_DECIMAL_IN_RANGE'
p5683
S"<class 'gluon.validators.IS_DECIMAL_IN_RANGE'>"
p5684
sssS'traceback'
p5685
S'Traceback (most recent call last):\n  File "/home/ian/web2py/gluon/restricted.py", line 194, in restricted\n    exec ccode in environment\n  File "/home/ian/web2py/applications/places/views/default/index.load", line 3, in <module>\n    {{=A(IMG(\'uploads\'+link.link_image), _href=link.link_url, _title=link.link_name, _alt=link.link_name)}}\nTypeError: cannot concatenate \'str\' and \'NoneType\' objects\n'
p5686
s.