(dp1
S'output'
p2
S''
sS'layer'
p3
S'/home/ian/web2py/applications/places/views/default/create.load'
p4
sS'code'
p5
S"response.write(closer)\nresponse.write('\\n', escape=False)\nresponse.write(title)\nresponse.write('\\n', escape=False)\nresponse.write(form)\nresponse.write('\\n', escape=False)"
p6
sS'snapshot'
p7
(dp8
S'exception'
p9
(dp10
S'__hash__'
p11
S"<method-wrapper '__hash__' of exceptions.NameError object>"
p12
sS'__setattr__'
p13
S"<method-wrapper '__setattr__' of exceptions.NameError object>"
p14
sS'__reduce_ex__'
p15
S'<built-in method __reduce_ex__ of exceptions.NameError object>'
p16
sS'__getslice__'
p17
S"<method-wrapper '__getslice__' of exceptions.NameError object>"
p18
sS'__getitem__'
p19
S"<method-wrapper '__getitem__' of exceptions.NameError object>"
p20
sS'__setstate__'
p21
S'<built-in method __setstate__ of exceptions.NameError object>'
p22
sS'args'
p23
S'("name \'title\' is not defined",)'
p24
sS'__reduce__'
p25
S'<built-in method __reduce__ of exceptions.NameError object>'
p26
sS'__str__'
p27
S"<method-wrapper '__str__' of exceptions.NameError object>"
p28
sS'__format__'
p29
S'<built-in method __format__ of exceptions.NameError object>'
p30
sS'__getattribute__'
p31
S"<method-wrapper '__getattribute__' of exceptions.NameError object>"
p32
sS'__class__'
p33
S"<type 'exceptions.NameError'>"
p34
sS'__unicode__'
p35
S'<built-in method __unicode__ of exceptions.NameError object>'
p36
sS'__delattr__'
p37
S"<method-wrapper '__delattr__' of exceptions.NameError object>"
p38
sS'__subclasshook__'
p39
S'<built-in method __subclasshook__ of type object>'
p40
sS'__repr__'
p41
S"<method-wrapper '__repr__' of exceptions.NameError object>"
p42
sS'__dict__'
p43
S'{}'
p44
sS'__sizeof__'
p45
S'<built-in method __sizeof__ of exceptions.NameError object>'
p46
sS'__doc__'
p47
S"'Name not found globally.'"
p48
sS'__init__'
p49
S"<method-wrapper '__init__' of exceptions.NameError object>"
p50
sS'__new__'
p51
S'<built-in method __new__ of type object>'
p52
ssS'evalue'
p53
S"name 'title' is not defined"
p54
sS'request'
p55
ccopy_reg
_reconstructor
p56
(cgluon.html
BEAUTIFY
p57
c__builtin__
object
p58
NtRp59
(dp60
S'attributes'
p61
(dp62
sS'components'
p63
(lp64
g56
(cgluon.html
TABLE
p65
g58
NtRp66
(dp67
g61
(dp68
S'level'
p69
I5
ssS'parent'
p70
Nsg63
(lp71
g56
(cgluon.html
TR
p72
g58
NtRp73
(dp74
g61
(dp75
sg70
g66
sg63
(lp76
g56
(cgluon.html
TD
p77
g58
NtRp78
(dp79
g61
(dp80
S'_style'
p81
S'font-weight:bold;'
p82
ssg70
g73
sg63
(lp83
S'ajax'
p84
asbag56
(g77
g58
NtRp85
(dp86
g61
(dp87
S'_valign'
p88
S'top'
p89
ssg70
g73
sg63
(lp90
S':'
asbag56
(g77
g58
NtRp91
(dp92
g61
(dp93
sg70
g73
sg63
(lp94
g56
(g57
g58
NtRp95
(dp96
g61
(dp97
g69
I5
ssg70
g91
sg63
(lp98
S'True'
p99
asbasbasbag56
(g72
g58
NtRp100
(dp101
g61
(dp102
sg70
g66
sg63
(lp103
g56
(g77
g58
NtRp104
(dp105
g61
(dp106
g81
g82
ssg70
g100
sg63
(lp107
S'application'
p108
asbag56
(g77
g58
NtRp109
(dp110
g61
(dp111
g88
g89
ssg70
g100
sg63
(lp112
S':'
asbag56
(g77
g58
NtRp113
(dp114
g61
(dp115
sg70
g100
sg63
(lp116
g56
(g57
g58
NtRp117
(dp118
g61
(dp119
g69
I5
ssg70
g113
sg63
(lp120
S'places'
p121
asbasbasbag56
(g72
g58
NtRp122
(dp123
g61
(dp124
sg70
g66
sg63
(lp125
g56
(g77
g58
NtRp126
(dp127
g61
(dp128
g81
g82
ssg70
g122
sg63
(lp129
g23
asbag56
(g77
g58
NtRp130
(dp131
g61
(dp132
g88
g89
ssg70
g122
sg63
(lp133
S':'
asbag56
(g77
g58
NtRp134
(dp135
g61
(dp136
sg70
g122
sg63
(lp137
g56
(g57
g58
NtRp138
(dp139
g61
(dp140
g69
I5
ssg70
g134
sg63
(lp141
g56
(g65
g58
NtRp142
(dp143
g61
(dp144
g69
I4
ssg70
Nsg63
(lp145
sbasbasbasbag56
(g72
g58
NtRp146
(dp147
g61
(dp148
sg70
g66
sg63
(lp149
g56
(g77
g58
NtRp150
(dp151
g61
(dp152
g81
g82
ssg70
g146
sg63
(lp153
S'body'
p154
asbag56
(g77
g58
NtRp155
(dp156
g61
(dp157
g88
g89
ssg70
g146
sg63
(lp158
S':'
asbag56
(g77
g58
NtRp159
(dp160
g61
(dp161
sg70
g146
sg63
(lp162
g56
(g57
g58
NtRp163
(dp164
g61
(dp165
g69
I5
ssg70
g159
sg63
(lp166
S'<cStringIO.StringO object at 0x3eb4ca8>'
p167
asbasbasbag56
(g72
g58
NtRp168
(dp169
g61
(dp170
sg70
g66
sg63
(lp171
g56
(g77
g58
NtRp172
(dp173
g61
(dp174
g81
g82
ssg70
g168
sg63
(lp175
S'cid'
p176
asbag56
(g77
g58
NtRp177
(dp178
g61
(dp179
g88
g89
ssg70
g168
sg63
(lp180
S':'
asbag56
(g77
g58
NtRp181
(dp182
g61
(dp183
sg70
g168
sg63
(lp184
g56
(g57
g58
NtRp185
(dp186
g61
(dp187
g69
I5
ssg70
g181
sg63
(lp188
S'modal_frame'
p189
asbasbasbag56
(g72
g58
NtRp190
(dp191
g61
(dp192
sg70
g66
sg63
(lp193
g56
(g77
g58
NtRp194
(dp195
g61
(dp196
g81
g82
ssg70
g190
sg63
(lp197
S'client'
p198
asbag56
(g77
g58
NtRp199
(dp200
g61
(dp201
g88
g89
ssg70
g190
sg63
(lp202
S':'
asbag56
(g77
g58
NtRp203
(dp204
g61
(dp205
sg70
g190
sg63
(lp206
g56
(g57
g58
NtRp207
(dp208
g61
(dp209
g69
I5
ssg70
g203
sg63
(lp210
S'127.0.0.1'
p211
asbasbasbag56
(g72
g58
NtRp212
(dp213
g61
(dp214
sg70
g66
sg63
(lp215
g56
(g77
g58
NtRp216
(dp217
g61
(dp218
g81
g82
ssg70
g212
sg63
(lp219
S'controller'
p220
asbag56
(g77
g58
NtRp221
(dp222
g61
(dp223
g88
g89
ssg70
g212
sg63
(lp224
S':'
asbag56
(g77
g58
NtRp225
(dp226
g61
(dp227
sg70
g212
sg63
(lp228
g56
(g57
g58
NtRp229
(dp230
g61
(dp231
g69
I5
ssg70
g225
sg63
(lp232
S'default'
p233
asbasbasbag56
(g72
g58
NtRp234
(dp235
g61
(dp236
sg70
g66
sg63
(lp237
g56
(g77
g58
NtRp238
(dp239
g61
(dp240
g81
g82
ssg70
g234
sg63
(lp241
S'cookies'
p242
asbag56
(g77
g58
NtRp243
(dp244
g61
(dp245
g88
g89
ssg70
g234
sg63
(lp246
S':'
asbag56
(g77
g58
NtRp247
(dp248
g61
(dp249
sg70
g234
sg63
(lp250
g56
(g57
g58
NtRp251
(dp252
g61
(dp253
g69
I5
ssg70
g247
sg63
(lp254
g56
(g65
g58
NtRp255
(dp256
g61
(dp257
g69
I4
ssg70
Nsg63
(lp258
g56
(g72
g58
NtRp259
(dp260
g61
(dp261
sg70
g255
sg63
(lp262
g56
(g77
g58
NtRp263
(dp264
g61
(dp265
g81
g82
ssg70
g259
sg63
(lp266
S'session_id_admin'
p267
asbag56
(g77
g58
NtRp268
(dp269
g61
(dp270
g88
g89
ssg70
g259
sg63
(lp271
S':'
asbag56
(g77
g58
NtRp272
(dp273
g61
(dp274
sg70
g259
sg63
(lp275
g56
(g57
g58
NtRp276
(dp277
g61
(dp278
g69
I4
ssg70
g272
sg63
(lp279
g56
(g65
g58
NtRp280
(dp281
g61
(dp282
g69
I3
ssg70
Nsg63
(lp283
g56
(g72
g58
NtRp284
(dp285
g61
(dp286
sg70
g280
sg63
(lp287
g56
(g77
g58
NtRp288
(dp289
g61
(dp290
g81
g82
ssg70
g284
sg63
(lp291
S'comment'
p292
asbag56
(g77
g58
NtRp293
(dp294
g61
(dp295
g88
g89
ssg70
g284
sg63
(lp296
S':'
asbag56
(g77
g58
NtRp297
(dp298
g61
(dp299
sg70
g284
sg63
(lp300
g56
(g57
g58
NtRp301
(dp302
g61
(dp303
g69
I3
ssg70
g297
sg63
(lp304
S''
asbasbasbag56
(g72
g58
NtRp305
(dp306
g61
(dp307
sg70
g280
sg63
(lp308
g56
(g77
g58
NtRp309
(dp310
g61
(dp311
g81
g82
ssg70
g305
sg63
(lp312
S'domain'
p313
asbag56
(g77
g58
NtRp314
(dp315
g61
(dp316
g88
g89
ssg70
g305
sg63
(lp317
S':'
asbag56
(g77
g58
NtRp318
(dp319
g61
(dp320
sg70
g305
sg63
(lp321
g56
(g57
g58
NtRp322
(dp323
g61
(dp324
g69
I3
ssg70
g318
sg63
(lp325
S''
asbasbasbag56
(g72
g58
NtRp326
(dp327
g61
(dp328
sg70
g280
sg63
(lp329
g56
(g77
g58
NtRp330
(dp331
g61
(dp332
g81
g82
ssg70
g326
sg63
(lp333
S'expires'
p334
asbag56
(g77
g58
NtRp335
(dp336
g61
(dp337
g88
g89
ssg70
g326
sg63
(lp338
S':'
asbag56
(g77
g58
NtRp339
(dp340
g61
(dp341
sg70
g326
sg63
(lp342
g56
(g57
g58
NtRp343
(dp344
g61
(dp345
g69
I3
ssg70
g339
sg63
(lp346
S''
asbasbasbag56
(g72
g58
NtRp347
(dp348
g61
(dp349
sg70
g280
sg63
(lp350
g56
(g77
g58
NtRp351
(dp352
g61
(dp353
g81
g82
ssg70
g347
sg63
(lp354
S'httponly'
p355
asbag56
(g77
g58
NtRp356
(dp357
g61
(dp358
g88
g89
ssg70
g347
sg63
(lp359
S':'
asbag56
(g77
g58
NtRp360
(dp361
g61
(dp362
sg70
g347
sg63
(lp363
g56
(g57
g58
NtRp364
(dp365
g61
(dp366
g69
I3
ssg70
g360
sg63
(lp367
S''
asbasbasbag56
(g72
g58
NtRp368
(dp369
g61
(dp370
sg70
g280
sg63
(lp371
g56
(g77
g58
NtRp372
(dp373
g61
(dp374
g81
g82
ssg70
g368
sg63
(lp375
S'max-age'
p376
asbag56
(g77
g58
NtRp377
(dp378
g61
(dp379
g88
g89
ssg70
g368
sg63
(lp380
S':'
asbag56
(g77
g58
NtRp381
(dp382
g61
(dp383
sg70
g368
sg63
(lp384
g56
(g57
g58
NtRp385
(dp386
g61
(dp387
g69
I3
ssg70
g381
sg63
(lp388
S''
asbasbasbag56
(g72
g58
NtRp389
(dp390
g61
(dp391
sg70
g280
sg63
(lp392
g56
(g77
g58
NtRp393
(dp394
g61
(dp395
g81
g82
ssg70
g389
sg63
(lp396
S'path'
p397
asbag56
(g77
g58
NtRp398
(dp399
g61
(dp400
g88
g89
ssg70
g389
sg63
(lp401
S':'
asbag56
(g77
g58
NtRp402
(dp403
g61
(dp404
sg70
g389
sg63
(lp405
g56
(g57
g58
NtRp406
(dp407
g61
(dp408
g69
I3
ssg70
g402
sg63
(lp409
S''
asbasbasbag56
(g72
g58
NtRp410
(dp411
g61
(dp412
sg70
g280
sg63
(lp413
g56
(g77
g58
NtRp414
(dp415
g61
(dp416
g81
g82
ssg70
g410
sg63
(lp417
S'secure'
p418
asbag56
(g77
g58
NtRp419
(dp420
g61
(dp421
g88
g89
ssg70
g410
sg63
(lp422
S':'
asbag56
(g77
g58
NtRp423
(dp424
g61
(dp425
sg70
g410
sg63
(lp426
g56
(g57
g58
NtRp427
(dp428
g61
(dp429
g69
I3
ssg70
g423
sg63
(lp430
S''
asbasbasbag56
(g72
g58
NtRp431
(dp432
g61
(dp433
sg70
g280
sg63
(lp434
g56
(g77
g58
NtRp435
(dp436
g61
(dp437
g81
g82
ssg70
g431
sg63
(lp438
S'version'
p439
asbag56
(g77
g58
NtRp440
(dp441
g61
(dp442
g88
g89
ssg70
g431
sg63
(lp443
S':'
asbag56
(g77
g58
NtRp444
(dp445
g61
(dp446
sg70
g431
sg63
(lp447
g56
(g57
g58
NtRp448
(dp449
g61
(dp450
g69
I3
ssg70
g444
sg63
(lp451
S''
asbasbasbasbasbasbasbag56
(g72
g58
NtRp452
(dp453
g61
(dp454
sg70
g255
sg63
(lp455
g56
(g77
g58
NtRp456
(dp457
g61
(dp458
g81
g82
ssg70
g452
sg63
(lp459
S'session_id_places'
p460
asbag56
(g77
g58
NtRp461
(dp462
g61
(dp463
g88
g89
ssg70
g452
sg63
(lp464
S':'
asbag56
(g77
g58
NtRp465
(dp466
g61
(dp467
sg70
g452
sg63
(lp468
g56
(g57
g58
NtRp469
(dp470
g61
(dp471
g69
I4
ssg70
g465
sg63
(lp472
g56
(g65
g58
NtRp473
(dp474
g61
(dp475
g69
I3
ssg70
Nsg63
(lp476
g56
(g72
g58
NtRp477
(dp478
g61
(dp479
sg70
g473
sg63
(lp480
g56
(g77
g58
NtRp481
(dp482
g61
(dp483
g81
g82
ssg70
g477
sg63
(lp484
g292
asbag56
(g77
g58
NtRp485
(dp486
g61
(dp487
g88
g89
ssg70
g477
sg63
(lp488
S':'
asbag56
(g77
g58
NtRp489
(dp490
g61
(dp491
sg70
g477
sg63
(lp492
g56
(g57
g58
NtRp493
(dp494
g61
(dp495
g69
I3
ssg70
g489
sg63
(lp496
S''
asbasbasbag56
(g72
g58
NtRp497
(dp498
g61
(dp499
sg70
g473
sg63
(lp500
g56
(g77
g58
NtRp501
(dp502
g61
(dp503
g81
g82
ssg70
g497
sg63
(lp504
g313
asbag56
(g77
g58
NtRp505
(dp506
g61
(dp507
g88
g89
ssg70
g497
sg63
(lp508
S':'
asbag56
(g77
g58
NtRp509
(dp510
g61
(dp511
sg70
g497
sg63
(lp512
g56
(g57
g58
NtRp513
(dp514
g61
(dp515
g69
I3
ssg70
g509
sg63
(lp516
S''
asbasbasbag56
(g72
g58
NtRp517
(dp518
g61
(dp519
sg70
g473
sg63
(lp520
g56
(g77
g58
NtRp521
(dp522
g61
(dp523
g81
g82
ssg70
g517
sg63
(lp524
g334
asbag56
(g77
g58
NtRp525
(dp526
g61
(dp527
g88
g89
ssg70
g517
sg63
(lp528
S':'
asbag56
(g77
g58
NtRp529
(dp530
g61
(dp531
sg70
g517
sg63
(lp532
g56
(g57
g58
NtRp533
(dp534
g61
(dp535
g69
I3
ssg70
g529
sg63
(lp536
S''
asbasbasbag56
(g72
g58
NtRp537
(dp538
g61
(dp539
sg70
g473
sg63
(lp540
g56
(g77
g58
NtRp541
(dp542
g61
(dp543
g81
g82
ssg70
g537
sg63
(lp544
g355
asbag56
(g77
g58
NtRp545
(dp546
g61
(dp547
g88
g89
ssg70
g537
sg63
(lp548
S':'
asbag56
(g77
g58
NtRp549
(dp550
g61
(dp551
sg70
g537
sg63
(lp552
g56
(g57
g58
NtRp553
(dp554
g61
(dp555
g69
I3
ssg70
g549
sg63
(lp556
S''
asbasbasbag56
(g72
g58
NtRp557
(dp558
g61
(dp559
sg70
g473
sg63
(lp560
g56
(g77
g58
NtRp561
(dp562
g61
(dp563
g81
g82
ssg70
g557
sg63
(lp564
g376
asbag56
(g77
g58
NtRp565
(dp566
g61
(dp567
g88
g89
ssg70
g557
sg63
(lp568
S':'
asbag56
(g77
g58
NtRp569
(dp570
g61
(dp571
sg70
g557
sg63
(lp572
g56
(g57
g58
NtRp573
(dp574
g61
(dp575
g69
I3
ssg70
g569
sg63
(lp576
S''
asbasbasbag56
(g72
g58
NtRp577
(dp578
g61
(dp579
sg70
g473
sg63
(lp580
g56
(g77
g58
NtRp581
(dp582
g61
(dp583
g81
g82
ssg70
g577
sg63
(lp584
g397
asbag56
(g77
g58
NtRp585
(dp586
g61
(dp587
g88
g89
ssg70
g577
sg63
(lp588
S':'
asbag56
(g77
g58
NtRp589
(dp590
g61
(dp591
sg70
g577
sg63
(lp592
g56
(g57
g58
NtRp593
(dp594
g61
(dp595
g69
I3
ssg70
g589
sg63
(lp596
S''
asbasbasbag56
(g72
g58
NtRp597
(dp598
g61
(dp599
sg70
g473
sg63
(lp600
g56
(g77
g58
NtRp601
(dp602
g61
(dp603
g81
g82
ssg70
g597
sg63
(lp604
g418
asbag56
(g77
g58
NtRp605
(dp606
g61
(dp607
g88
g89
ssg70
g597
sg63
(lp608
S':'
asbag56
(g77
g58
NtRp609
(dp610
g61
(dp611
sg70
g597
sg63
(lp612
g56
(g57
g58
NtRp613
(dp614
g61
(dp615
g69
I3
ssg70
g609
sg63
(lp616
S''
asbasbasbag56
(g72
g58
NtRp617
(dp618
g61
(dp619
sg70
g473
sg63
(lp620
g56
(g77
g58
NtRp621
(dp622
g61
(dp623
g81
g82
ssg70
g617
sg63
(lp624
g439
asbag56
(g77
g58
NtRp625
(dp626
g61
(dp627
g88
g89
ssg70
g617
sg63
(lp628
S':'
asbag56
(g77
g58
NtRp629
(dp630
g61
(dp631
sg70
g617
sg63
(lp632
g56
(g57
g58
NtRp633
(dp634
g61
(dp635
g69
I3
ssg70
g629
sg63
(lp636
S''
asbasbasbasbasbasbasbag56
(g72
g58
NtRp637
(dp638
g61
(dp639
sg70
g255
sg63
(lp640
g56
(g77
g58
NtRp641
(dp642
g61
(dp643
g81
g82
ssg70
g637
sg63
(lp644
S'session_id_welcome'
p645
asbag56
(g77
g58
NtRp646
(dp647
g61
(dp648
g88
g89
ssg70
g637
sg63
(lp649
S':'
asbag56
(g77
g58
NtRp650
(dp651
g61
(dp652
sg70
g637
sg63
(lp653
g56
(g57
g58
NtRp654
(dp655
g61
(dp656
g69
I4
ssg70
g650
sg63
(lp657
g56
(g65
g58
NtRp658
(dp659
g61
(dp660
g69
I3
ssg70
Nsg63
(lp661
g56
(g72
g58
NtRp662
(dp663
g61
(dp664
sg70
g658
sg63
(lp665
g56
(g77
g58
NtRp666
(dp667
g61
(dp668
g81
g82
ssg70
g662
sg63
(lp669
g292
asbag56
(g77
g58
NtRp670
(dp671
g61
(dp672
g88
g89
ssg70
g662
sg63
(lp673
S':'
asbag56
(g77
g58
NtRp674
(dp675
g61
(dp676
sg70
g662
sg63
(lp677
g56
(g57
g58
NtRp678
(dp679
g61
(dp680
g69
I3
ssg70
g674
sg63
(lp681
S''
asbasbasbag56
(g72
g58
NtRp682
(dp683
g61
(dp684
sg70
g658
sg63
(lp685
g56
(g77
g58
NtRp686
(dp687
g61
(dp688
g81
g82
ssg70
g682
sg63
(lp689
g313
asbag56
(g77
g58
NtRp690
(dp691
g61
(dp692
g88
g89
ssg70
g682
sg63
(lp693
S':'
asbag56
(g77
g58
NtRp694
(dp695
g61
(dp696
sg70
g682
sg63
(lp697
g56
(g57
g58
NtRp698
(dp699
g61
(dp700
g69
I3
ssg70
g694
sg63
(lp701
S''
asbasbasbag56
(g72
g58
NtRp702
(dp703
g61
(dp704
sg70
g658
sg63
(lp705
g56
(g77
g58
NtRp706
(dp707
g61
(dp708
g81
g82
ssg70
g702
sg63
(lp709
g334
asbag56
(g77
g58
NtRp710
(dp711
g61
(dp712
g88
g89
ssg70
g702
sg63
(lp713
S':'
asbag56
(g77
g58
NtRp714
(dp715
g61
(dp716
sg70
g702
sg63
(lp717
g56
(g57
g58
NtRp718
(dp719
g61
(dp720
g69
I3
ssg70
g714
sg63
(lp721
S''
asbasbasbag56
(g72
g58
NtRp722
(dp723
g61
(dp724
sg70
g658
sg63
(lp725
g56
(g77
g58
NtRp726
(dp727
g61
(dp728
g81
g82
ssg70
g722
sg63
(lp729
g355
asbag56
(g77
g58
NtRp730
(dp731
g61
(dp732
g88
g89
ssg70
g722
sg63
(lp733
S':'
asbag56
(g77
g58
NtRp734
(dp735
g61
(dp736
sg70
g722
sg63
(lp737
g56
(g57
g58
NtRp738
(dp739
g61
(dp740
g69
I3
ssg70
g734
sg63
(lp741
S''
asbasbasbag56
(g72
g58
NtRp742
(dp743
g61
(dp744
sg70
g658
sg63
(lp745
g56
(g77
g58
NtRp746
(dp747
g61
(dp748
g81
g82
ssg70
g742
sg63
(lp749
g376
asbag56
(g77
g58
NtRp750
(dp751
g61
(dp752
g88
g89
ssg70
g742
sg63
(lp753
S':'
asbag56
(g77
g58
NtRp754
(dp755
g61
(dp756
sg70
g742
sg63
(lp757
g56
(g57
g58
NtRp758
(dp759
g61
(dp760
g69
I3
ssg70
g754
sg63
(lp761
S''
asbasbasbag56
(g72
g58
NtRp762
(dp763
g61
(dp764
sg70
g658
sg63
(lp765
g56
(g77
g58
NtRp766
(dp767
g61
(dp768
g81
g82
ssg70
g762
sg63
(lp769
g397
asbag56
(g77
g58
NtRp770
(dp771
g61
(dp772
g88
g89
ssg70
g762
sg63
(lp773
S':'
asbag56
(g77
g58
NtRp774
(dp775
g61
(dp776
sg70
g762
sg63
(lp777
g56
(g57
g58
NtRp778
(dp779
g61
(dp780
g69
I3
ssg70
g774
sg63
(lp781
S''
asbasbasbag56
(g72
g58
NtRp782
(dp783
g61
(dp784
sg70
g658
sg63
(lp785
g56
(g77
g58
NtRp786
(dp787
g61
(dp788
g81
g82
ssg70
g782
sg63
(lp789
g418
asbag56
(g77
g58
NtRp790
(dp791
g61
(dp792
g88
g89
ssg70
g782
sg63
(lp793
S':'
asbag56
(g77
g58
NtRp794
(dp795
g61
(dp796
sg70
g782
sg63
(lp797
g56
(g57
g58
NtRp798
(dp799
g61
(dp800
g69
I3
ssg70
g794
sg63
(lp801
S''
asbasbasbag56
(g72
g58
NtRp802
(dp803
g61
(dp804
sg70
g658
sg63
(lp805
g56
(g77
g58
NtRp806
(dp807
g61
(dp808
g81
g82
ssg70
g802
sg63
(lp809
g439
asbag56
(g77
g58
NtRp810
(dp811
g61
(dp812
g88
g89
ssg70
g802
sg63
(lp813
S':'
asbag56
(g77
g58
NtRp814
(dp815
g61
(dp816
sg70
g802
sg63
(lp817
g56
(g57
g58
NtRp818
(dp819
g61
(dp820
g69
I3
ssg70
g814
sg63
(lp821
S''
asbasbasbasbasbasbasbasbasbasbasbag56
(g72
g58
NtRp822
(dp823
g61
(dp824
sg70
g66
sg63
(lp825
g56
(g77
g58
NtRp826
(dp827
g61
(dp828
g81
g82
ssg70
g822
sg63
(lp829
S'env'
p830
asbag56
(g77
g58
NtRp831
(dp832
g61
(dp833
g88
g89
ssg70
g822
sg63
(lp834
S':'
asbag56
(g77
g58
NtRp835
(dp836
g61
(dp837
sg70
g822
sg63
(lp838
g56
(g57
g58
NtRp839
(dp840
g61
(dp841
g69
I5
ssg70
g835
sg63
(lp842
g56
(g65
g58
NtRp843
(dp844
g61
(dp845
g69
I4
ssg70
Nsg63
(lp846
g56
(g72
g58
NtRp847
(dp848
g61
(dp849
sg70
g843
sg63
(lp850
g56
(g77
g58
NtRp851
(dp852
g61
(dp853
g81
g82
ssg70
g847
sg63
(lp854
S'app_folders'
p855
asbag56
(g77
g58
NtRp856
(dp857
g61
(dp858
g88
g89
ssg70
g847
sg63
(lp859
S':'
asbag56
(g77
g58
NtRp860
(dp861
g61
(dp862
sg70
g847
sg63
(lp863
g56
(g57
g58
NtRp864
(dp865
g61
(dp866
g69
I4
ssg70
g860
sg63
(lp867
S"set(['/home/ian/web2py/applications/welcome/', '/home/ian/web2py/applications/places/', '/home/ian/web2py/applications/admin/'])"
p868
asbasbasbag56
(g72
g58
NtRp869
(dp870
g61
(dp871
sg70
g843
sg63
(lp872
g56
(g77
g58
NtRp873
(dp874
g61
(dp875
g81
g82
ssg70
g869
sg63
(lp876
S'applications_parent'
p877
asbag56
(g77
g58
NtRp878
(dp879
g61
(dp880
g88
g89
ssg70
g869
sg63
(lp881
S':'
asbag56
(g77
g58
NtRp882
(dp883
g61
(dp884
sg70
g869
sg63
(lp885
g56
(g57
g58
NtRp886
(dp887
g61
(dp888
g69
I4
ssg70
g882
sg63
(lp889
S'/home/ian/web2py'
p890
asbasbasbag56
(g72
g58
NtRp891
(dp892
g61
(dp893
sg70
g843
sg63
(lp894
g56
(g77
g58
NtRp895
(dp896
g61
(dp897
g81
g82
ssg70
g891
sg63
(lp898
S'cmd_args'
p899
asbag56
(g77
g58
NtRp900
(dp901
g61
(dp902
g88
g89
ssg70
g891
sg63
(lp903
S':'
asbag56
(g77
g58
NtRp904
(dp905
g61
(dp906
sg70
g891
sg63
(lp907
g56
(g57
g58
NtRp908
(dp909
g61
(dp910
g69
I4
ssg70
g904
sg63
(lp911
g56
(g65
g58
NtRp912
(dp913
g61
(dp914
g69
I3
ssg70
Nsg63
(lp915
sbasbasbasbag56
(g72
g58
NtRp916
(dp917
g61
(dp918
sg70
g843
sg63
(lp919
g56
(g77
g58
NtRp920
(dp921
g61
(dp922
g81
g82
ssg70
g916
sg63
(lp923
S'cmd_options'
p924
asbag56
(g77
g58
NtRp925
(dp926
g61
(dp927
g88
g89
ssg70
g916
sg63
(lp928
S':'
asbag56
(g77
g58
NtRp929
(dp930
g61
(dp931
sg70
g916
sg63
(lp932
g56
(g57
g58
NtRp933
(dp934
g61
(dp935
g69
I4
ssg70
g929
sg63
(lp936
S"<Values at 0x26ccbd8: {'verbose': False, 'ip': '127.0.0.1', 'shutdown_timeout': 5, 'taskbar': False, 'nocron': False, 'pid_filename': 'httpserver.pid', 'maxthreads': None, 'softcron': False, 'server_name': 'Ariel-ubuntu', 'bpython': False, 'nogui': False, 'port': 8000, 'extcron': False, 'debuglevel': 30, 'test': None, 'folder': '/home/ian/web2py', 'config': '', 'import_models': False, 'winservice': '', 'shell': None, 'run': '', 'log_filename': 'httpserver.log', 'args': [''], 'ssl_ca_certificate': None, 'scheduler': None, 'profiler_filename': None, 'ssl_private_key': '', 'password': '<ask>', 'request_queue_size': 5, 'ssl_certificate': '', 'cronjob': False, 'plain': False, 'quiet': False, 'interfaces': None, 'minthreads': None, 'timeout': 10, 'numthreads': None, 'nobanner': False}>"
p937
asbasbasbag56
(g72
g58
NtRp938
(dp939
g61
(dp940
sg70
g843
sg63
(lp941
g56
(g77
g58
NtRp942
(dp943
g61
(dp944
g81
g82
ssg70
g938
sg63
(lp945
S'db_sessions'
p946
asbag56
(g77
g58
NtRp947
(dp948
g61
(dp949
g88
g89
ssg70
g938
sg63
(lp950
S':'
asbag56
(g77
g58
NtRp951
(dp952
g61
(dp953
sg70
g938
sg63
(lp954
g56
(g57
g58
NtRp955
(dp956
g61
(dp957
g69
I4
ssg70
g951
sg63
(lp958
S'set([])'
p959
asbasbasbag56
(g72
g58
NtRp960
(dp961
g61
(dp962
sg70
g843
sg63
(lp963
g56
(g77
g58
NtRp964
(dp965
g61
(dp966
g81
g82
ssg70
g960
sg63
(lp967
S'debugging'
p968
asbag56
(g77
g58
NtRp969
(dp970
g61
(dp971
g88
g89
ssg70
g960
sg63
(lp972
S':'
asbag56
(g77
g58
NtRp973
(dp974
g61
(dp975
sg70
g960
sg63
(lp976
g56
(g57
g58
NtRp977
(dp978
g61
(dp979
g69
I4
ssg70
g973
sg63
(lp980
S'False'
p981
asbasbasbag56
(g72
g58
NtRp982
(dp983
g61
(dp984
sg70
g843
sg63
(lp985
g56
(g77
g58
NtRp986
(dp987
g61
(dp988
g81
g82
ssg70
g982
sg63
(lp989
S'gluon_parent'
p990
asbag56
(g77
g58
NtRp991
(dp992
g61
(dp993
g88
g89
ssg70
g982
sg63
(lp994
S':'
asbag56
(g77
g58
NtRp995
(dp996
g61
(dp997
sg70
g982
sg63
(lp998
g56
(g57
g58
NtRp999
(dp1000
g61
(dp1001
g69
I4
ssg70
g995
sg63
(lp1002
S'/home/ian/web2py'
p1003
asbasbasbag56
(g72
g58
NtRp1004
(dp1005
g61
(dp1006
sg70
g843
sg63
(lp1007
g56
(g77
g58
NtRp1008
(dp1009
g61
(dp1010
g81
g82
ssg70
g1004
sg63
(lp1011
S'http_accept'
p1012
asbag56
(g77
g58
NtRp1013
(dp1014
g61
(dp1015
g88
g89
ssg70
g1004
sg63
(lp1016
S':'
asbag56
(g77
g58
NtRp1017
(dp1018
g61
(dp1019
sg70
g1004
sg63
(lp1020
g56
(g57
g58
NtRp1021
(dp1022
g61
(dp1023
g69
I4
ssg70
g1017
sg63
(lp1024
S'*/*'
p1025
asbasbasbag56
(g72
g58
NtRp1026
(dp1027
g61
(dp1028
sg70
g843
sg63
(lp1029
g56
(g77
g58
NtRp1030
(dp1031
g61
(dp1032
g81
g82
ssg70
g1026
sg63
(lp1033
S'http_accept_charset'
p1034
asbag56
(g77
g58
NtRp1035
(dp1036
g61
(dp1037
g88
g89
ssg70
g1026
sg63
(lp1038
S':'
asbag56
(g77
g58
NtRp1039
(dp1040
g61
(dp1041
sg70
g1026
sg63
(lp1042
g56
(g57
g58
NtRp1043
(dp1044
g61
(dp1045
g69
I4
ssg70
g1039
sg63
(lp1046
S'ISO-8859-1,utf-8;q=0.7,*;q=0.7'
p1047
asbasbasbag56
(g72
g58
NtRp1048
(dp1049
g61
(dp1050
sg70
g843
sg63
(lp1051
g56
(g77
g58
NtRp1052
(dp1053
g61
(dp1054
g81
g82
ssg70
g1048
sg63
(lp1055
S'http_accept_encoding'
p1056
asbag56
(g77
g58
NtRp1057
(dp1058
g61
(dp1059
g88
g89
ssg70
g1048
sg63
(lp1060
S':'
asbag56
(g77
g58
NtRp1061
(dp1062
g61
(dp1063
sg70
g1048
sg63
(lp1064
g56
(g57
g58
NtRp1065
(dp1066
g61
(dp1067
g69
I4
ssg70
g1061
sg63
(lp1068
S'gzip, deflate'
p1069
asbasbasbag56
(g72
g58
NtRp1070
(dp1071
g61
(dp1072
sg70
g843
sg63
(lp1073
g56
(g77
g58
NtRp1074
(dp1075
g61
(dp1076
g81
g82
ssg70
g1070
sg63
(lp1077
S'http_accept_language'
p1078
asbag56
(g77
g58
NtRp1079
(dp1080
g61
(dp1081
g88
g89
ssg70
g1070
sg63
(lp1082
S':'
asbag56
(g77
g58
NtRp1083
(dp1084
g61
(dp1085
sg70
g1070
sg63
(lp1086
g56
(g57
g58
NtRp1087
(dp1088
g61
(dp1089
g69
I4
ssg70
g1083
sg63
(lp1090
S'en-us,en;q=0.5'
p1091
asbasbasbag56
(g72
g58
NtRp1092
(dp1093
g61
(dp1094
sg70
g843
sg63
(lp1095
g56
(g77
g58
NtRp1096
(dp1097
g61
(dp1098
g81
g82
ssg70
g1092
sg63
(lp1099
S'http_connection'
p1100
asbag56
(g77
g58
NtRp1101
(dp1102
g61
(dp1103
g88
g89
ssg70
g1092
sg63
(lp1104
S':'
asbag56
(g77
g58
NtRp1105
(dp1106
g61
(dp1107
sg70
g1092
sg63
(lp1108
g56
(g57
g58
NtRp1109
(dp1110
g61
(dp1111
g69
I4
ssg70
g1105
sg63
(lp1112
S'keep-alive'
p1113
asbasbasbag56
(g72
g58
NtRp1114
(dp1115
g61
(dp1116
sg70
g843
sg63
(lp1117
g56
(g77
g58
NtRp1118
(dp1119
g61
(dp1120
g81
g82
ssg70
g1114
sg63
(lp1121
S'http_cookie'
p1122
asbag56
(g77
g58
NtRp1123
(dp1124
g61
(dp1125
g88
g89
ssg70
g1114
sg63
(lp1126
S':'
asbag56
(g77
g58
NtRp1127
(dp1128
g61
(dp1129
sg70
g1114
sg63
(lp1130
g56
(g57
g58
NtRp1131
(dp1132
g61
(dp1133
g69
I4
ssg70
g1127
sg63
(lp1134
S'session_id_welcome=127.0.0.1-f0e6d08e-4585-488a-91e0-180c6c7f25a8; session_id_admin=127.0.0.1-dac11dfe-be99-4fb0-a78e-57512c9f5790; session_id_places=127.0.0.1-9bd70a00-d029-4b6e-8bcc-a423c3a61399'
p1135
asbasbasbag56
(g72
g58
NtRp1136
(dp1137
g61
(dp1138
sg70
g843
sg63
(lp1139
g56
(g77
g58
NtRp1140
(dp1141
g61
(dp1142
g81
g82
ssg70
g1136
sg63
(lp1143
S'http_host'
p1144
asbag56
(g77
g58
NtRp1145
(dp1146
g61
(dp1147
g88
g89
ssg70
g1136
sg63
(lp1148
S':'
asbag56
(g77
g58
NtRp1149
(dp1150
g61
(dp1151
sg70
g1136
sg63
(lp1152
g56
(g57
g58
NtRp1153
(dp1154
g61
(dp1155
g69
I4
ssg70
g1149
sg63
(lp1156
S'127.0.0.1:8000'
p1157
asbasbasbag56
(g72
g58
NtRp1158
(dp1159
g61
(dp1160
sg70
g843
sg63
(lp1161
g56
(g77
g58
NtRp1162
(dp1163
g61
(dp1164
g81
g82
ssg70
g1158
sg63
(lp1165
S'http_referer'
p1166
asbag56
(g77
g58
NtRp1167
(dp1168
g61
(dp1169
g88
g89
ssg70
g1158
sg63
(lp1170
S':'
asbag56
(g77
g58
NtRp1171
(dp1172
g61
(dp1173
sg70
g1158
sg63
(lp1174
g56
(g57
g58
NtRp1175
(dp1176
g61
(dp1177
g69
I4
ssg70
g1171
sg63
(lp1178
S'http://127.0.0.1:8000/places/'
p1179
asbasbasbag56
(g72
g58
NtRp1180
(dp1181
g61
(dp1182
sg70
g843
sg63
(lp1183
g56
(g77
g58
NtRp1184
(dp1185
g61
(dp1186
g81
g82
ssg70
g1180
sg63
(lp1187
S'http_user_agent'
p1188
asbag56
(g77
g58
NtRp1189
(dp1190
g61
(dp1191
g88
g89
ssg70
g1180
sg63
(lp1192
S':'
asbag56
(g77
g58
NtRp1193
(dp1194
g61
(dp1195
sg70
g1180
sg63
(lp1196
g56
(g57
g58
NtRp1197
(dp1198
g61
(dp1199
g69
I4
ssg70
g1193
sg63
(lp1200
S'Mozilla/5.0 (X11; Linux x86_64; rv:7.0.1) Gecko/20100101 Firefox/7.0.1'
p1201
asbasbasbag56
(g72
g58
NtRp1202
(dp1203
g61
(dp1204
sg70
g843
sg63
(lp1205
g56
(g77
g58
NtRp1206
(dp1207
g61
(dp1208
g81
g82
ssg70
g1202
sg63
(lp1209
S'http_web2py_component_element'
p1210
asbag56
(g77
g58
NtRp1211
(dp1212
g61
(dp1213
g88
g89
ssg70
g1202
sg63
(lp1214
S':'
asbag56
(g77
g58
NtRp1215
(dp1216
g61
(dp1217
sg70
g1202
sg63
(lp1218
g56
(g57
g58
NtRp1219
(dp1220
g61
(dp1221
g69
I4
ssg70
g1215
sg63
(lp1222
g189
asbasbasbag56
(g72
g58
NtRp1223
(dp1224
g61
(dp1225
sg70
g843
sg63
(lp1226
g56
(g77
g58
NtRp1227
(dp1228
g61
(dp1229
g81
g82
ssg70
g1223
sg63
(lp1230
S'http_web2py_component_location'
p1231
asbag56
(g77
g58
NtRp1232
(dp1233
g61
(dp1234
g88
g89
ssg70
g1223
sg63
(lp1235
S':'
asbag56
(g77
g58
NtRp1236
(dp1237
g61
(dp1238
sg70
g1223
sg63
(lp1239
g56
(g57
g58
NtRp1240
(dp1241
g61
(dp1242
g69
I4
ssg70
g1236
sg63
(lp1243
S'http://127.0.0.1:8000/places/'
p1244
asbasbasbag56
(g72
g58
NtRp1245
(dp1246
g61
(dp1247
sg70
g843
sg63
(lp1248
g56
(g77
g58
NtRp1249
(dp1250
g61
(dp1251
g81
g82
ssg70
g1245
sg63
(lp1252
S'http_x_requested_with'
p1253
asbag56
(g77
g58
NtRp1254
(dp1255
g61
(dp1256
g88
g89
ssg70
g1245
sg63
(lp1257
S':'
asbag56
(g77
g58
NtRp1258
(dp1259
g61
(dp1260
sg70
g1245
sg63
(lp1261
g56
(g57
g58
NtRp1262
(dp1263
g61
(dp1264
g69
I4
ssg70
g1258
sg63
(lp1265
S'XMLHttpRequest'
p1266
asbasbasbag56
(g72
g58
NtRp1267
(dp1268
g61
(dp1269
sg70
g843
sg63
(lp1270
g56
(g77
g58
NtRp1271
(dp1272
g61
(dp1273
g81
g82
ssg70
g1267
sg63
(lp1274
S'is_jython'
p1275
asbag56
(g77
g58
NtRp1276
(dp1277
g61
(dp1278
g88
g89
ssg70
g1267
sg63
(lp1279
S':'
asbag56
(g77
g58
NtRp1280
(dp1281
g61
(dp1282
sg70
g1267
sg63
(lp1283
g56
(g57
g58
NtRp1284
(dp1285
g61
(dp1286
g69
I4
ssg70
g1280
sg63
(lp1287
g981
asbasbasbag56
(g72
g58
NtRp1288
(dp1289
g61
(dp1290
sg70
g843
sg63
(lp1291
g56
(g77
g58
NtRp1292
(dp1293
g61
(dp1294
g81
g82
ssg70
g1288
sg63
(lp1295
S'path_info'
p1296
asbag56
(g77
g58
NtRp1297
(dp1298
g61
(dp1299
g88
g89
ssg70
g1288
sg63
(lp1300
S':'
asbag56
(g77
g58
NtRp1301
(dp1302
g61
(dp1303
sg70
g1288
sg63
(lp1304
g56
(g57
g58
NtRp1305
(dp1306
g61
(dp1307
g69
I4
ssg70
g1301
sg63
(lp1308
S'/places/default/create.load'
p1309
asbasbasbag56
(g72
g58
NtRp1310
(dp1311
g61
(dp1312
sg70
g843
sg63
(lp1313
g56
(g77
g58
NtRp1314
(dp1315
g61
(dp1316
g81
g82
ssg70
g1310
sg63
(lp1317
S'query_string'
p1318
asbag56
(g77
g58
NtRp1319
(dp1320
g61
(dp1321
g88
g89
ssg70
g1310
sg63
(lp1322
S':'
asbag56
(g77
g58
NtRp1323
(dp1324
g61
(dp1325
sg70
g1310
sg63
(lp1326
g56
(g57
g58
NtRp1327
(dp1328
g61
(dp1329
g69
I4
ssg70
g1323
sg63
(lp1330
S''
asbasbasbag56
(g72
g58
NtRp1331
(dp1332
g61
(dp1333
sg70
g843
sg63
(lp1334
g56
(g77
g58
NtRp1335
(dp1336
g61
(dp1337
g81
g82
ssg70
g1331
sg63
(lp1338
S'remote_addr'
p1339
asbag56
(g77
g58
NtRp1340
(dp1341
g61
(dp1342
g88
g89
ssg70
g1331
sg63
(lp1343
S':'
asbag56
(g77
g58
NtRp1344
(dp1345
g61
(dp1346
sg70
g1331
sg63
(lp1347
g56
(g57
g58
NtRp1348
(dp1349
g61
(dp1350
g69
I4
ssg70
g1344
sg63
(lp1351
g211
asbasbasbag56
(g72
g58
NtRp1352
(dp1353
g61
(dp1354
sg70
g843
sg63
(lp1355
g56
(g77
g58
NtRp1356
(dp1357
g61
(dp1358
g81
g82
ssg70
g1352
sg63
(lp1359
S'remote_port'
p1360
asbag56
(g77
g58
NtRp1361
(dp1362
g61
(dp1363
g88
g89
ssg70
g1352
sg63
(lp1364
S':'
asbag56
(g77
g58
NtRp1365
(dp1366
g61
(dp1367
sg70
g1352
sg63
(lp1368
g56
(g57
g58
NtRp1369
(dp1370
g61
(dp1371
g69
I4
ssg70
g1365
sg63
(lp1372
S'59129'
p1373
asbasbasbag56
(g72
g58
NtRp1374
(dp1375
g61
(dp1376
sg70
g843
sg63
(lp1377
g56
(g77
g58
NtRp1378
(dp1379
g61
(dp1380
g81
g82
ssg70
g1374
sg63
(lp1381
S'request_method'
p1382
asbag56
(g77
g58
NtRp1383
(dp1384
g61
(dp1385
g88
g89
ssg70
g1374
sg63
(lp1386
S':'
asbag56
(g77
g58
NtRp1387
(dp1388
g61
(dp1389
sg70
g1374
sg63
(lp1390
g56
(g57
g58
NtRp1391
(dp1392
g61
(dp1393
g69
I4
ssg70
g1387
sg63
(lp1394
S'GET'
p1395
asbasbasbag56
(g72
g58
NtRp1396
(dp1397
g61
(dp1398
sg70
g843
sg63
(lp1399
g56
(g77
g58
NtRp1400
(dp1401
g61
(dp1402
g81
g82
ssg70
g1396
sg63
(lp1403
S'script_name'
p1404
asbag56
(g77
g58
NtRp1405
(dp1406
g61
(dp1407
g88
g89
ssg70
g1396
sg63
(lp1408
S':'
asbag56
(g77
g58
NtRp1409
(dp1410
g61
(dp1411
sg70
g1396
sg63
(lp1412
g56
(g57
g58
NtRp1413
(dp1414
g61
(dp1415
g69
I4
ssg70
g1409
sg63
(lp1416
S''
asbasbasbag56
(g72
g58
NtRp1417
(dp1418
g61
(dp1419
sg70
g843
sg63
(lp1420
g56
(g77
g58
NtRp1421
(dp1422
g61
(dp1423
g81
g82
ssg70
g1417
sg63
(lp1424
S'server_name'
p1425
asbag56
(g77
g58
NtRp1426
(dp1427
g61
(dp1428
g88
g89
ssg70
g1417
sg63
(lp1429
S':'
asbag56
(g77
g58
NtRp1430
(dp1431
g61
(dp1432
sg70
g1417
sg63
(lp1433
g56
(g57
g58
NtRp1434
(dp1435
g61
(dp1436
g69
I4
ssg70
g1430
sg63
(lp1437
S'Ariel-ubuntu'
p1438
asbasbasbag56
(g72
g58
NtRp1439
(dp1440
g61
(dp1441
sg70
g843
sg63
(lp1442
g56
(g77
g58
NtRp1443
(dp1444
g61
(dp1445
g81
g82
ssg70
g1439
sg63
(lp1446
S'server_port'
p1447
asbag56
(g77
g58
NtRp1448
(dp1449
g61
(dp1450
g88
g89
ssg70
g1439
sg63
(lp1451
S':'
asbag56
(g77
g58
NtRp1452
(dp1453
g61
(dp1454
sg70
g1439
sg63
(lp1455
g56
(g57
g58
NtRp1456
(dp1457
g61
(dp1458
g69
I4
ssg70
g1452
sg63
(lp1459
S'8000'
p1460
asbasbasbag56
(g72
g58
NtRp1461
(dp1462
g61
(dp1463
sg70
g843
sg63
(lp1464
g56
(g77
g58
NtRp1465
(dp1466
g61
(dp1467
g81
g82
ssg70
g1461
sg63
(lp1468
S'server_protocol'
p1469
asbag56
(g77
g58
NtRp1470
(dp1471
g61
(dp1472
g88
g89
ssg70
g1461
sg63
(lp1473
S':'
asbag56
(g77
g58
NtRp1474
(dp1475
g61
(dp1476
sg70
g1461
sg63
(lp1477
g56
(g57
g58
NtRp1478
(dp1479
g61
(dp1480
g69
I4
ssg70
g1474
sg63
(lp1481
S'HTTP/1.1'
p1482
asbasbasbag56
(g72
g58
NtRp1483
(dp1484
g61
(dp1485
sg70
g843
sg63
(lp1486
g56
(g77
g58
NtRp1487
(dp1488
g61
(dp1489
g81
g82
ssg70
g1483
sg63
(lp1490
S'server_software'
p1491
asbag56
(g77
g58
NtRp1492
(dp1493
g61
(dp1494
g88
g89
ssg70
g1483
sg63
(lp1495
S':'
asbag56
(g77
g58
NtRp1496
(dp1497
g61
(dp1498
sg70
g1483
sg63
(lp1499
g56
(g57
g58
NtRp1500
(dp1501
g61
(dp1502
g69
I4
ssg70
g1496
sg63
(lp1503
S'Rocket 1.2.4'
p1504
asbasbasbag56
(g72
g58
NtRp1505
(dp1506
g61
(dp1507
sg70
g843
sg63
(lp1508
g56
(g77
g58
NtRp1509
(dp1510
g61
(dp1511
g81
g82
ssg70
g1505
sg63
(lp1512
S'web2py_crontype'
p1513
asbag56
(g77
g58
NtRp1514
(dp1515
g61
(dp1516
g88
g89
ssg70
g1505
sg63
(lp1517
S':'
asbag56
(g77
g58
NtRp1518
(dp1519
g61
(dp1520
sg70
g1505
sg63
(lp1521
g56
(g57
g58
NtRp1522
(dp1523
g61
(dp1524
g69
I4
ssg70
g1518
sg63
(lp1525
S'hard'
p1526
asbasbasbag56
(g72
g58
NtRp1527
(dp1528
g61
(dp1529
sg70
g843
sg63
(lp1530
g56
(g77
g58
NtRp1531
(dp1532
g61
(dp1533
g81
g82
ssg70
g1527
sg63
(lp1534
S'web2py_path'
p1535
asbag56
(g77
g58
NtRp1536
(dp1537
g61
(dp1538
g88
g89
ssg70
g1527
sg63
(lp1539
S':'
asbag56
(g77
g58
NtRp1540
(dp1541
g61
(dp1542
sg70
g1527
sg63
(lp1543
g56
(g57
g58
NtRp1544
(dp1545
g61
(dp1546
g69
I4
ssg70
g1540
sg63
(lp1547
g890
asbasbasbag56
(g72
g58
NtRp1548
(dp1549
g61
(dp1550
sg70
g843
sg63
(lp1551
g56
(g77
g58
NtRp1552
(dp1553
g61
(dp1554
g81
g82
ssg70
g1548
sg63
(lp1555
S'web2py_version'
p1556
asbag56
(g77
g58
NtRp1557
(dp1558
g61
(dp1559
g88
g89
ssg70
g1548
sg63
(lp1560
S':'
asbag56
(g77
g58
NtRp1561
(dp1562
g61
(dp1563
sg70
g1548
sg63
(lp1564
g56
(g57
g58
NtRp1565
(dp1566
g61
(dp1567
g69
I4
ssg70
g1561
sg63
(lp1568
g56
(g65
g58
NtRp1569
(dp1570
g61
(dp1571
g69
I3
ssg70
Nsg63
(lp1572
g56
(g72
g58
NtRp1573
(dp1574
g61
(dp1575
sg70
g1569
sg63
(lp1576
g56
(g77
g58
NtRp1577
(dp1578
g61
(dp1579
sg70
g1573
sg63
(lp1580
g56
(g57
g58
NtRp1581
(dp1582
g61
(dp1583
g69
I3
ssg70
g1577
sg63
(lp1584
S'1'
asbasbasbag56
(g72
g58
NtRp1585
(dp1586
g61
(dp1587
sg70
g1569
sg63
(lp1588
g56
(g77
g58
NtRp1589
(dp1590
g61
(dp1591
sg70
g1585
sg63
(lp1592
g56
(g57
g58
NtRp1593
(dp1594
g61
(dp1595
g69
I3
ssg70
g1589
sg63
(lp1596
S'99'
p1597
asbasbasbag56
(g72
g58
NtRp1598
(dp1599
g61
(dp1600
sg70
g1569
sg63
(lp1601
g56
(g77
g58
NtRp1602
(dp1603
g61
(dp1604
sg70
g1598
sg63
(lp1605
g56
(g57
g58
NtRp1606
(dp1607
g61
(dp1608
g69
I3
ssg70
g1602
sg63
(lp1609
S'2'
asbasbasbag56
(g72
g58
NtRp1610
(dp1611
g61
(dp1612
sg70
g1569
sg63
(lp1613
g56
(g77
g58
NtRp1614
(dp1615
g61
(dp1616
sg70
g1610
sg63
(lp1617
g56
(g57
g58
NtRp1618
(dp1619
g61
(dp1620
g69
I3
ssg70
g1614
sg63
(lp1621
S'datetime.datetime(2011, 9, 26, 6, 55, 33)'
p1622
asbasbasbag56
(g72
g58
NtRp1623
(dp1624
g61
(dp1625
sg70
g1569
sg63
(lp1626
g56
(g77
g58
NtRp1627
(dp1628
g61
(dp1629
sg70
g1623
sg63
(lp1630
g56
(g57
g58
NtRp1631
(dp1632
g61
(dp1633
g69
I3
ssg70
g1627
sg63
(lp1634
S'stable'
p1635
asbasbasbasbasbasbasbag56
(g72
g58
NtRp1636
(dp1637
g61
(dp1638
sg70
g843
sg63
(lp1639
g56
(g77
g58
NtRp1640
(dp1641
g61
(dp1642
g81
g82
ssg70
g1636
sg63
(lp1643
S'wsgi_errors'
p1644
asbag56
(g77
g58
NtRp1645
(dp1646
g61
(dp1647
g88
g89
ssg70
g1636
sg63
(lp1648
S':'
asbag56
(g77
g58
NtRp1649
(dp1650
g61
(dp1651
sg70
g1636
sg63
(lp1652
g56
(g57
g58
NtRp1653
(dp1654
g61
(dp1655
g69
I4
ssg70
g1649
sg63
(lp1656
S"<open file '<stderr>', mode 'w' at 0x7f6d3a48b270>"
p1657
asbasbasbag56
(g72
g58
NtRp1658
(dp1659
g61
(dp1660
sg70
g843
sg63
(lp1661
g56
(g77
g58
NtRp1662
(dp1663
g61
(dp1664
g81
g82
ssg70
g1658
sg63
(lp1665
S'wsgi_file_wrapper'
p1666
asbag56
(g77
g58
NtRp1667
(dp1668
g61
(dp1669
g88
g89
ssg70
g1658
sg63
(lp1670
S':'
asbag56
(g77
g58
NtRp1671
(dp1672
g61
(dp1673
sg70
g1658
sg63
(lp1674
g56
(g57
g58
NtRp1675
(dp1676
g61
(dp1677
g69
I4
ssg70
g1671
sg63
(lp1678
S'<class wsgiref.util.FileWrapper at 0x25957a0>'
p1679
asbasbasbag56
(g72
g58
NtRp1680
(dp1681
g61
(dp1682
sg70
g843
sg63
(lp1683
g56
(g77
g58
NtRp1684
(dp1685
g61
(dp1686
g81
g82
ssg70
g1680
sg63
(lp1687
S'wsgi_input'
p1688
asbag56
(g77
g58
NtRp1689
(dp1690
g61
(dp1691
g88
g89
ssg70
g1680
sg63
(lp1692
S':'
asbag56
(g77
g58
NtRp1693
(dp1694
g61
(dp1695
sg70
g1680
sg63
(lp1696
g56
(g57
g58
NtRp1697
(dp1698
g61
(dp1699
g69
I4
ssg70
g1693
sg63
(lp1700
S'<socket._fileobject object at 0x2f14cd0>'
p1701
asbasbasbag56
(g72
g58
NtRp1702
(dp1703
g61
(dp1704
sg70
g843
sg63
(lp1705
g56
(g77
g58
NtRp1706
(dp1707
g61
(dp1708
g81
g82
ssg70
g1702
sg63
(lp1709
S'wsgi_multiprocess'
p1710
asbag56
(g77
g58
NtRp1711
(dp1712
g61
(dp1713
g88
g89
ssg70
g1702
sg63
(lp1714
S':'
asbag56
(g77
g58
NtRp1715
(dp1716
g61
(dp1717
sg70
g1702
sg63
(lp1718
g56
(g57
g58
NtRp1719
(dp1720
g61
(dp1721
g69
I4
ssg70
g1715
sg63
(lp1722
g981
asbasbasbag56
(g72
g58
NtRp1723
(dp1724
g61
(dp1725
sg70
g843
sg63
(lp1726
g56
(g77
g58
NtRp1727
(dp1728
g61
(dp1729
g81
g82
ssg70
g1723
sg63
(lp1730
S'wsgi_multithread'
p1731
asbag56
(g77
g58
NtRp1732
(dp1733
g61
(dp1734
g88
g89
ssg70
g1723
sg63
(lp1735
S':'
asbag56
(g77
g58
NtRp1736
(dp1737
g61
(dp1738
sg70
g1723
sg63
(lp1739
g56
(g57
g58
NtRp1740
(dp1741
g61
(dp1742
g69
I4
ssg70
g1736
sg63
(lp1743
g99
asbasbasbag56
(g72
g58
NtRp1744
(dp1745
g61
(dp1746
sg70
g843
sg63
(lp1747
g56
(g77
g58
NtRp1748
(dp1749
g61
(dp1750
g81
g82
ssg70
g1744
sg63
(lp1751
S'wsgi_run_once'
p1752
asbag56
(g77
g58
NtRp1753
(dp1754
g61
(dp1755
g88
g89
ssg70
g1744
sg63
(lp1756
S':'
asbag56
(g77
g58
NtRp1757
(dp1758
g61
(dp1759
sg70
g1744
sg63
(lp1760
g56
(g57
g58
NtRp1761
(dp1762
g61
(dp1763
g69
I4
ssg70
g1757
sg63
(lp1764
g981
asbasbasbag56
(g72
g58
NtRp1765
(dp1766
g61
(dp1767
sg70
g843
sg63
(lp1768
g56
(g77
g58
NtRp1769
(dp1770
g61
(dp1771
g81
g82
ssg70
g1765
sg63
(lp1772
S'wsgi_url_scheme'
p1773
asbag56
(g77
g58
NtRp1774
(dp1775
g61
(dp1776
g88
g89
ssg70
g1765
sg63
(lp1777
S':'
asbag56
(g77
g58
NtRp1778
(dp1779
g61
(dp1780
sg70
g1765
sg63
(lp1781
g56
(g57
g58
NtRp1782
(dp1783
g61
(dp1784
g69
I4
ssg70
g1778
sg63
(lp1785
S'http'
p1786
asbasbasbag56
(g72
g58
NtRp1787
(dp1788
g61
(dp1789
sg70
g843
sg63
(lp1790
g56
(g77
g58
NtRp1791
(dp1792
g61
(dp1793
g81
g82
ssg70
g1787
sg63
(lp1794
S'wsgi_version'
p1795
asbag56
(g77
g58
NtRp1796
(dp1797
g61
(dp1798
g88
g89
ssg70
g1787
sg63
(lp1799
S':'
asbag56
(g77
g58
NtRp1800
(dp1801
g61
(dp1802
sg70
g1787
sg63
(lp1803
g56
(g57
g58
NtRp1804
(dp1805
g61
(dp1806
g69
I4
ssg70
g1800
sg63
(lp1807
g56
(g65
g58
NtRp1808
(dp1809
g61
(dp1810
g69
I3
ssg70
Nsg63
(lp1811
g56
(g72
g58
NtRp1812
(dp1813
g61
(dp1814
sg70
g1808
sg63
(lp1815
g56
(g77
g58
NtRp1816
(dp1817
g61
(dp1818
sg70
g1812
sg63
(lp1819
g56
(g57
g58
NtRp1820
(dp1821
g61
(dp1822
g69
I3
ssg70
g1816
sg63
(lp1823
S'1'
asbasbasbag56
(g72
g58
NtRp1824
(dp1825
g61
(dp1826
sg70
g1808
sg63
(lp1827
g56
(g77
g58
NtRp1828
(dp1829
g61
(dp1830
sg70
g1824
sg63
(lp1831
g56
(g57
g58
NtRp1832
(dp1833
g61
(dp1834
g69
I3
ssg70
g1828
sg63
(lp1835
S'0'
asbasbasbasbasbasbasbasbasbasbasbag56
(g72
g58
NtRp1836
(dp1837
g61
(dp1838
sg70
g66
sg63
(lp1839
g56
(g77
g58
NtRp1840
(dp1841
g61
(dp1842
g81
g82
ssg70
g1836
sg63
(lp1843
S'extension'
p1844
asbag56
(g77
g58
NtRp1845
(dp1846
g61
(dp1847
g88
g89
ssg70
g1836
sg63
(lp1848
S':'
asbag56
(g77
g58
NtRp1849
(dp1850
g61
(dp1851
sg70
g1836
sg63
(lp1852
g56
(g57
g58
NtRp1853
(dp1854
g61
(dp1855
g69
I5
ssg70
g1849
sg63
(lp1856
S'load'
p1857
asbasbasbag56
(g72
g58
NtRp1858
(dp1859
g61
(dp1860
sg70
g66
sg63
(lp1861
g56
(g77
g58
NtRp1862
(dp1863
g61
(dp1864
g81
g82
ssg70
g1858
sg63
(lp1865
S'folder'
p1866
asbag56
(g77
g58
NtRp1867
(dp1868
g61
(dp1869
g88
g89
ssg70
g1858
sg63
(lp1870
S':'
asbag56
(g77
g58
NtRp1871
(dp1872
g61
(dp1873
sg70
g1858
sg63
(lp1874
g56
(g57
g58
NtRp1875
(dp1876
g61
(dp1877
g69
I5
ssg70
g1871
sg63
(lp1878
S'/home/ian/web2py/applications/places/'
p1879
asbasbasbag56
(g72
g58
NtRp1880
(dp1881
g61
(dp1882
sg70
g66
sg63
(lp1883
g56
(g77
g58
NtRp1884
(dp1885
g61
(dp1886
g81
g82
ssg70
g1880
sg63
(lp1887
S'function'
p1888
asbag56
(g77
g58
NtRp1889
(dp1890
g61
(dp1891
g88
g89
ssg70
g1880
sg63
(lp1892
S':'
asbag56
(g77
g58
NtRp1893
(dp1894
g61
(dp1895
sg70
g1880
sg63
(lp1896
g56
(g57
g58
NtRp1897
(dp1898
g61
(dp1899
g69
I5
ssg70
g1893
sg63
(lp1900
S'create'
p1901
asbasbasbag56
(g72
g58
NtRp1902
(dp1903
g61
(dp1904
sg70
g66
sg63
(lp1905
g56
(g77
g58
NtRp1906
(dp1907
g61
(dp1908
g81
g82
ssg70
g1902
sg63
(lp1909
S'get_vars'
p1910
asbag56
(g77
g58
NtRp1911
(dp1912
g61
(dp1913
g88
g89
ssg70
g1902
sg63
(lp1914
S':'
asbag56
(g77
g58
NtRp1915
(dp1916
g61
(dp1917
sg70
g1902
sg63
(lp1918
g56
(g57
g58
NtRp1919
(dp1920
g61
(dp1921
g69
I5
ssg70
g1915
sg63
(lp1922
g56
(g65
g58
NtRp1923
(dp1924
g61
(dp1925
g69
I4
ssg70
Nsg63
(lp1926
sbasbasbasbag56
(g72
g58
NtRp1927
(dp1928
g61
(dp1929
sg70
g66
sg63
(lp1930
g56
(g77
g58
NtRp1931
(dp1932
g61
(dp1933
g81
g82
ssg70
g1927
sg63
(lp1934
S'global_settings'
p1935
asbag56
(g77
g58
NtRp1936
(dp1937
g61
(dp1938
g88
g89
ssg70
g1927
sg63
(lp1939
S':'
asbag56
(g77
g58
NtRp1940
(dp1941
g61
(dp1942
sg70
g1927
sg63
(lp1943
g56
(g57
g58
NtRp1944
(dp1945
g61
(dp1946
g69
I5
ssg70
g1940
sg63
(lp1947
g56
(g65
g58
NtRp1948
(dp1949
g61
(dp1950
g69
I4
ssg70
Nsg63
(lp1951
g56
(g72
g58
NtRp1952
(dp1953
g61
(dp1954
sg70
g1948
sg63
(lp1955
g56
(g77
g58
NtRp1956
(dp1957
g61
(dp1958
g81
g82
ssg70
g1952
sg63
(lp1959
g855
asbag56
(g77
g58
NtRp1960
(dp1961
g61
(dp1962
g88
g89
ssg70
g1952
sg63
(lp1963
S':'
asbag56
(g77
g58
NtRp1964
(dp1965
g61
(dp1966
sg70
g1952
sg63
(lp1967
g56
(g57
g58
NtRp1968
(dp1969
g61
(dp1970
g69
I4
ssg70
g1964
sg63
(lp1971
S"set(['/home/ian/web2py/applications/welcome/', '/home/ian/web2py/applications/places/', '/home/ian/web2py/applications/admin/'])"
p1972
asbasbasbag56
(g72
g58
NtRp1973
(dp1974
g61
(dp1975
sg70
g1948
sg63
(lp1976
g56
(g77
g58
NtRp1977
(dp1978
g61
(dp1979
g81
g82
ssg70
g1973
sg63
(lp1980
g877
asbag56
(g77
g58
NtRp1981
(dp1982
g61
(dp1983
g88
g89
ssg70
g1973
sg63
(lp1984
S':'
asbag56
(g77
g58
NtRp1985
(dp1986
g61
(dp1987
sg70
g1973
sg63
(lp1988
g56
(g57
g58
NtRp1989
(dp1990
g61
(dp1991
g69
I4
ssg70
g1985
sg63
(lp1992
g890
asbasbasbag56
(g72
g58
NtRp1993
(dp1994
g61
(dp1995
sg70
g1948
sg63
(lp1996
g56
(g77
g58
NtRp1997
(dp1998
g61
(dp1999
g81
g82
ssg70
g1993
sg63
(lp2000
g899
asbag56
(g77
g58
NtRp2001
(dp2002
g61
(dp2003
g88
g89
ssg70
g1993
sg63
(lp2004
S':'
asbag56
(g77
g58
NtRp2005
(dp2006
g61
(dp2007
sg70
g1993
sg63
(lp2008
g56
(g57
g58
NtRp2009
(dp2010
g61
(dp2011
g69
I4
ssg70
g2005
sg63
(lp2012
g56
(g65
g58
NtRp2013
(dp2014
g61
(dp2015
g69
I3
ssg70
Nsg63
(lp2016
sbasbasbasbag56
(g72
g58
NtRp2017
(dp2018
g61
(dp2019
sg70
g1948
sg63
(lp2020
g56
(g77
g58
NtRp2021
(dp2022
g61
(dp2023
g81
g82
ssg70
g2017
sg63
(lp2024
g924
asbag56
(g77
g58
NtRp2025
(dp2026
g61
(dp2027
g88
g89
ssg70
g2017
sg63
(lp2028
S':'
asbag56
(g77
g58
NtRp2029
(dp2030
g61
(dp2031
sg70
g2017
sg63
(lp2032
g56
(g57
g58
NtRp2033
(dp2034
g61
(dp2035
g69
I4
ssg70
g2029
sg63
(lp2036
S"<Values at 0x26ccbd8: {'verbose': False, 'ip': '127.0.0.1', 'shutdown_timeout': 5, 'taskbar': False, 'nocron': False, 'pid_filename': 'httpserver.pid', 'maxthreads': None, 'softcron': False, 'server_name': 'Ariel-ubuntu', 'bpython': False, 'nogui': False, 'port': 8000, 'extcron': False, 'debuglevel': 30, 'test': None, 'folder': '/home/ian/web2py', 'config': '', 'import_models': False, 'winservice': '', 'shell': None, 'run': '', 'log_filename': 'httpserver.log', 'args': [''], 'ssl_ca_certificate': None, 'scheduler': None, 'profiler_filename': None, 'ssl_private_key': '', 'password': '<ask>', 'request_queue_size': 5, 'ssl_certificate': '', 'cronjob': False, 'plain': False, 'quiet': False, 'interfaces': None, 'minthreads': None, 'timeout': 10, 'numthreads': None, 'nobanner': False}>"
p2037
asbasbasbag56
(g72
g58
NtRp2038
(dp2039
g61
(dp2040
sg70
g1948
sg63
(lp2041
g56
(g77
g58
NtRp2042
(dp2043
g61
(dp2044
g81
g82
ssg70
g2038
sg63
(lp2045
g946
asbag56
(g77
g58
NtRp2046
(dp2047
g61
(dp2048
g88
g89
ssg70
g2038
sg63
(lp2049
S':'
asbag56
(g77
g58
NtRp2050
(dp2051
g61
(dp2052
sg70
g2038
sg63
(lp2053
g56
(g57
g58
NtRp2054
(dp2055
g61
(dp2056
g69
I4
ssg70
g2050
sg63
(lp2057
S'set([])'
p2058
asbasbasbag56
(g72
g58
NtRp2059
(dp2060
g61
(dp2061
sg70
g1948
sg63
(lp2062
g56
(g77
g58
NtRp2063
(dp2064
g61
(dp2065
g81
g82
ssg70
g2059
sg63
(lp2066
g968
asbag56
(g77
g58
NtRp2067
(dp2068
g61
(dp2069
g88
g89
ssg70
g2059
sg63
(lp2070
S':'
asbag56
(g77
g58
NtRp2071
(dp2072
g61
(dp2073
sg70
g2059
sg63
(lp2074
g56
(g57
g58
NtRp2075
(dp2076
g61
(dp2077
g69
I4
ssg70
g2071
sg63
(lp2078
g981
asbasbasbag56
(g72
g58
NtRp2079
(dp2080
g61
(dp2081
sg70
g1948
sg63
(lp2082
g56
(g77
g58
NtRp2083
(dp2084
g61
(dp2085
g81
g82
ssg70
g2079
sg63
(lp2086
g990
asbag56
(g77
g58
NtRp2087
(dp2088
g61
(dp2089
g88
g89
ssg70
g2079
sg63
(lp2090
S':'
asbag56
(g77
g58
NtRp2091
(dp2092
g61
(dp2093
sg70
g2079
sg63
(lp2094
g56
(g57
g58
NtRp2095
(dp2096
g61
(dp2097
g69
I4
ssg70
g2091
sg63
(lp2098
g1003
asbasbasbag56
(g72
g58
NtRp2099
(dp2100
g61
(dp2101
sg70
g1948
sg63
(lp2102
g56
(g77
g58
NtRp2103
(dp2104
g61
(dp2105
g81
g82
ssg70
g2099
sg63
(lp2106
g1275
asbag56
(g77
g58
NtRp2107
(dp2108
g61
(dp2109
g88
g89
ssg70
g2099
sg63
(lp2110
S':'
asbag56
(g77
g58
NtRp2111
(dp2112
g61
(dp2113
sg70
g2099
sg63
(lp2114
g56
(g57
g58
NtRp2115
(dp2116
g61
(dp2117
g69
I4
ssg70
g2111
sg63
(lp2118
g981
asbasbasbag56
(g72
g58
NtRp2119
(dp2120
g61
(dp2121
sg70
g1948
sg63
(lp2122
g56
(g77
g58
NtRp2123
(dp2124
g61
(dp2125
g81
g82
ssg70
g2119
sg63
(lp2126
g1513
asbag56
(g77
g58
NtRp2127
(dp2128
g61
(dp2129
g88
g89
ssg70
g2119
sg63
(lp2130
S':'
asbag56
(g77
g58
NtRp2131
(dp2132
g61
(dp2133
sg70
g2119
sg63
(lp2134
g56
(g57
g58
NtRp2135
(dp2136
g61
(dp2137
g69
I4
ssg70
g2131
sg63
(lp2138
g1526
asbasbasbag56
(g72
g58
NtRp2139
(dp2140
g61
(dp2141
sg70
g1948
sg63
(lp2142
g56
(g77
g58
NtRp2143
(dp2144
g61
(dp2145
g81
g82
ssg70
g2139
sg63
(lp2146
g1556
asbag56
(g77
g58
NtRp2147
(dp2148
g61
(dp2149
g88
g89
ssg70
g2139
sg63
(lp2150
S':'
asbag56
(g77
g58
NtRp2151
(dp2152
g61
(dp2153
sg70
g2139
sg63
(lp2154
g56
(g57
g58
NtRp2155
(dp2156
g61
(dp2157
g69
I4
ssg70
g2151
sg63
(lp2158
g56
(g65
g58
NtRp2159
(dp2160
g61
(dp2161
g69
I3
ssg70
Nsg63
(lp2162
g56
(g72
g58
NtRp2163
(dp2164
g61
(dp2165
sg70
g2159
sg63
(lp2166
g56
(g77
g58
NtRp2167
(dp2168
g61
(dp2169
sg70
g2163
sg63
(lp2170
g56
(g57
g58
NtRp2171
(dp2172
g61
(dp2173
g69
I3
ssg70
g2167
sg63
(lp2174
S'1'
asbasbasbag56
(g72
g58
NtRp2175
(dp2176
g61
(dp2177
sg70
g2159
sg63
(lp2178
g56
(g77
g58
NtRp2179
(dp2180
g61
(dp2181
sg70
g2175
sg63
(lp2182
g56
(g57
g58
NtRp2183
(dp2184
g61
(dp2185
g69
I3
ssg70
g2179
sg63
(lp2186
S'99'
p2187
asbasbasbag56
(g72
g58
NtRp2188
(dp2189
g61
(dp2190
sg70
g2159
sg63
(lp2191
g56
(g77
g58
NtRp2192
(dp2193
g61
(dp2194
sg70
g2188
sg63
(lp2195
g56
(g57
g58
NtRp2196
(dp2197
g61
(dp2198
g69
I3
ssg70
g2192
sg63
(lp2199
S'2'
asbasbasbag56
(g72
g58
NtRp2200
(dp2201
g61
(dp2202
sg70
g2159
sg63
(lp2203
g56
(g77
g58
NtRp2204
(dp2205
g61
(dp2206
sg70
g2200
sg63
(lp2207
g56
(g57
g58
NtRp2208
(dp2209
g61
(dp2210
g69
I3
ssg70
g2204
sg63
(lp2211
S'datetime.datetime(2011, 9, 26, 6, 55, 33)'
p2212
asbasbasbag56
(g72
g58
NtRp2213
(dp2214
g61
(dp2215
sg70
g2159
sg63
(lp2216
g56
(g77
g58
NtRp2217
(dp2218
g61
(dp2219
sg70
g2213
sg63
(lp2220
g56
(g57
g58
NtRp2221
(dp2222
g61
(dp2223
g69
I3
ssg70
g2217
sg63
(lp2224
g1635
asbasbasbasbasbasbasbasbasbasbasbag56
(g72
g58
NtRp2225
(dp2226
g61
(dp2227
sg70
g66
sg63
(lp2228
g56
(g77
g58
NtRp2229
(dp2230
g61
(dp2231
g81
g82
ssg70
g2225
sg63
(lp2232
S'is_https'
p2233
asbag56
(g77
g58
NtRp2234
(dp2235
g61
(dp2236
g88
g89
ssg70
g2225
sg63
(lp2237
S':'
asbag56
(g77
g58
NtRp2238
(dp2239
g61
(dp2240
sg70
g2225
sg63
(lp2241
g56
(g57
g58
NtRp2242
(dp2243
g61
(dp2244
g69
I5
ssg70
g2238
sg63
(lp2245
g981
asbasbasbag56
(g72
g58
NtRp2246
(dp2247
g61
(dp2248
sg70
g66
sg63
(lp2249
g56
(g77
g58
NtRp2250
(dp2251
g61
(dp2252
g81
g82
ssg70
g2246
sg63
(lp2253
S'is_local'
p2254
asbag56
(g77
g58
NtRp2255
(dp2256
g61
(dp2257
g88
g89
ssg70
g2246
sg63
(lp2258
S':'
asbag56
(g77
g58
NtRp2259
(dp2260
g61
(dp2261
sg70
g2246
sg63
(lp2262
g56
(g57
g58
NtRp2263
(dp2264
g61
(dp2265
g69
I5
ssg70
g2259
sg63
(lp2266
g99
asbasbasbag56
(g72
g58
NtRp2267
(dp2268
g61
(dp2269
sg70
g66
sg63
(lp2270
g56
(g77
g58
NtRp2271
(dp2272
g61
(dp2273
g81
g82
ssg70
g2267
sg63
(lp2274
S'is_restful'
p2275
asbag56
(g77
g58
NtRp2276
(dp2277
g61
(dp2278
g88
g89
ssg70
g2267
sg63
(lp2279
S':'
asbag56
(g77
g58
NtRp2280
(dp2281
g61
(dp2282
sg70
g2267
sg63
(lp2283
g56
(g57
g58
NtRp2284
(dp2285
g61
(dp2286
g69
I5
ssg70
g2280
sg63
(lp2287
g981
asbasbasbag56
(g72
g58
NtRp2288
(dp2289
g61
(dp2290
sg70
g66
sg63
(lp2291
g56
(g77
g58
NtRp2292
(dp2293
g61
(dp2294
g81
g82
ssg70
g2288
sg63
(lp2295
S'now'
p2296
asbag56
(g77
g58
NtRp2297
(dp2298
g61
(dp2299
g88
g89
ssg70
g2288
sg63
(lp2300
S':'
asbag56
(g77
g58
NtRp2301
(dp2302
g61
(dp2303
sg70
g2288
sg63
(lp2304
g56
(g57
g58
NtRp2305
(dp2306
g61
(dp2307
g69
I5
ssg70
g2301
sg63
(lp2308
S'datetime.datetime(2011, 10, 2, 19, 56, 42, 921621)'
p2309
asbasbasbag56
(g72
g58
NtRp2310
(dp2311
g61
(dp2312
sg70
g66
sg63
(lp2313
g56
(g77
g58
NtRp2314
(dp2315
g61
(dp2316
g81
g82
ssg70
g2310
sg63
(lp2317
S'post_vars'
p2318
asbag56
(g77
g58
NtRp2319
(dp2320
g61
(dp2321
g88
g89
ssg70
g2310
sg63
(lp2322
S':'
asbag56
(g77
g58
NtRp2323
(dp2324
g61
(dp2325
sg70
g2310
sg63
(lp2326
g56
(g57
g58
NtRp2327
(dp2328
g61
(dp2329
g69
I5
ssg70
g2323
sg63
(lp2330
g56
(g65
g58
NtRp2331
(dp2332
g61
(dp2333
g69
I4
ssg70
Nsg63
(lp2334
sbasbasbasbag56
(g72
g58
NtRp2335
(dp2336
g61
(dp2337
sg70
g66
sg63
(lp2338
g56
(g77
g58
NtRp2339
(dp2340
g61
(dp2341
g81
g82
ssg70
g2335
sg63
(lp2342
S'raw_extension'
p2343
asbag56
(g77
g58
NtRp2344
(dp2345
g61
(dp2346
g88
g89
ssg70
g2335
sg63
(lp2347
S':'
asbag56
(g77
g58
NtRp2348
(dp2349
g61
(dp2350
sg70
g2335
sg63
(lp2351
g56
(g57
g58
NtRp2352
(dp2353
g61
(dp2354
g69
I5
ssg70
g2348
sg63
(lp2355
g1857
asbasbasbag56
(g72
g58
NtRp2356
(dp2357
g61
(dp2358
sg70
g66
sg63
(lp2359
g56
(g77
g58
NtRp2360
(dp2361
g61
(dp2362
g81
g82
ssg70
g2356
sg63
(lp2363
S'url'
p2364
asbag56
(g77
g58
NtRp2365
(dp2366
g61
(dp2367
g88
g89
ssg70
g2356
sg63
(lp2368
S':'
asbag56
(g77
g58
NtRp2369
(dp2370
g61
(dp2371
sg70
g2356
sg63
(lp2372
g56
(g57
g58
NtRp2373
(dp2374
g61
(dp2375
g69
I5
ssg70
g2369
sg63
(lp2376
S'/places/default/create.load'
p2377
asbasbasbag56
(g72
g58
NtRp2378
(dp2379
g61
(dp2380
sg70
g66
sg63
(lp2381
g56
(g77
g58
NtRp2382
(dp2383
g61
(dp2384
g81
g82
ssg70
g2378
sg63
(lp2385
S'utcnow'
p2386
asbag56
(g77
g58
NtRp2387
(dp2388
g61
(dp2389
g88
g89
ssg70
g2378
sg63
(lp2390
S':'
asbag56
(g77
g58
NtRp2391
(dp2392
g61
(dp2393
sg70
g2378
sg63
(lp2394
g56
(g57
g58
NtRp2395
(dp2396
g61
(dp2397
g69
I5
ssg70
g2391
sg63
(lp2398
S'datetime.datetime(2011, 10, 2, 23, 56, 42, 921670)'
p2399
asbasbasbag56
(g72
g58
NtRp2400
(dp2401
g61
(dp2402
sg70
g66
sg63
(lp2403
g56
(g77
g58
NtRp2404
(dp2405
g61
(dp2406
g81
g82
ssg70
g2400
sg63
(lp2407
S'uuid'
p2408
asbag56
(g77
g58
NtRp2409
(dp2410
g61
(dp2411
g88
g89
ssg70
g2400
sg63
(lp2412
S':'
asbag56
(g77
g58
NtRp2413
(dp2414
g61
(dp2415
sg70
g2400
sg63
(lp2416
g56
(g57
g58
NtRp2417
(dp2418
g61
(dp2419
g69
I5
ssg70
g2413
sg63
(lp2420
S'places/127.0.0.1.2011-10-02.19-56-42.8928529b-63c2-4965-b75e-553bf21bc36d'
p2421
asbasbasbag56
(g72
g58
NtRp2422
(dp2423
g61
(dp2424
sg70
g66
sg63
(lp2425
g56
(g77
g58
NtRp2426
(dp2427
g61
(dp2428
g81
g82
ssg70
g2422
sg63
(lp2429
S'vars'
p2430
asbag56
(g77
g58
NtRp2431
(dp2432
g61
(dp2433
g88
g89
ssg70
g2422
sg63
(lp2434
S':'
asbag56
(g77
g58
NtRp2435
(dp2436
g61
(dp2437
sg70
g2422
sg63
(lp2438
g56
(g57
g58
NtRp2439
(dp2440
g61
(dp2441
g69
I5
ssg70
g2435
sg63
(lp2442
g56
(g65
g58
NtRp2443
(dp2444
g61
(dp2445
g69
I4
ssg70
Nsg63
(lp2446
sbasbasbasbag56
(g72
g58
NtRp2447
(dp2448
g61
(dp2449
sg70
g66
sg63
(lp2450
g56
(g77
g58
NtRp2451
(dp2452
g61
(dp2453
g81
g82
ssg70
g2447
sg63
(lp2454
S'wsgi'
p2455
asbag56
(g77
g58
NtRp2456
(dp2457
g61
(dp2458
g88
g89
ssg70
g2447
sg63
(lp2459
S':'
asbag56
(g77
g58
NtRp2460
(dp2461
g61
(dp2462
sg70
g2447
sg63
(lp2463
g56
(g57
g58
NtRp2464
(dp2465
g61
(dp2466
g69
I5
ssg70
g2460
sg63
(lp2467
g56
(g65
g58
NtRp2468
(dp2469
g61
(dp2470
g69
I4
ssg70
Nsg63
(lp2471
g56
(g72
g58
NtRp2472
(dp2473
g61
(dp2474
sg70
g2468
sg63
(lp2475
g56
(g77
g58
NtRp2476
(dp2477
g61
(dp2478
g81
g82
ssg70
g2472
sg63
(lp2479
S'environ'
p2480
asbag56
(g77
g58
NtRp2481
(dp2482
g61
(dp2483
g88
g89
ssg70
g2472
sg63
(lp2484
S':'
asbag56
(g77
g58
NtRp2485
(dp2486
g61
(dp2487
sg70
g2472
sg63
(lp2488
g56
(g57
g58
NtRp2489
(dp2490
g61
(dp2491
g69
I4
ssg70
g2485
sg63
(lp2492
g56
(g65
g58
NtRp2493
(dp2494
g61
(dp2495
g69
I3
ssg70
Nsg63
(lp2496
g56
(g72
g58
NtRp2497
(dp2498
g61
(dp2499
sg70
g2493
sg63
(lp2500
g56
(g77
g58
NtRp2501
(dp2502
g61
(dp2503
g81
g82
ssg70
g2497
sg63
(lp2504
S'HTTP_ACCEPT'
p2505
asbag56
(g77
g58
NtRp2506
(dp2507
g61
(dp2508
g88
g89
ssg70
g2497
sg63
(lp2509
S':'
asbag56
(g77
g58
NtRp2510
(dp2511
g61
(dp2512
sg70
g2497
sg63
(lp2513
g56
(g57
g58
NtRp2514
(dp2515
g61
(dp2516
g69
I3
ssg70
g2510
sg63
(lp2517
g1025
asbasbasbag56
(g72
g58
NtRp2518
(dp2519
g61
(dp2520
sg70
g2493
sg63
(lp2521
g56
(g77
g58
NtRp2522
(dp2523
g61
(dp2524
g81
g82
ssg70
g2518
sg63
(lp2525
S'HTTP_ACCEPT_CHARSET'
p2526
asbag56
(g77
g58
NtRp2527
(dp2528
g61
(dp2529
g88
g89
ssg70
g2518
sg63
(lp2530
S':'
asbag56
(g77
g58
NtRp2531
(dp2532
g61
(dp2533
sg70
g2518
sg63
(lp2534
g56
(g57
g58
NtRp2535
(dp2536
g61
(dp2537
g69
I3
ssg70
g2531
sg63
(lp2538
g1047
asbasbasbag56
(g72
g58
NtRp2539
(dp2540
g61
(dp2541
sg70
g2493
sg63
(lp2542
g56
(g77
g58
NtRp2543
(dp2544
g61
(dp2545
g81
g82
ssg70
g2539
sg63
(lp2546
S'HTTP_ACCEPT_ENCODING'
p2547
asbag56
(g77
g58
NtRp2548
(dp2549
g61
(dp2550
g88
g89
ssg70
g2539
sg63
(lp2551
S':'
asbag56
(g77
g58
NtRp2552
(dp2553
g61
(dp2554
sg70
g2539
sg63
(lp2555
g56
(g57
g58
NtRp2556
(dp2557
g61
(dp2558
g69
I3
ssg70
g2552
sg63
(lp2559
g1069
asbasbasbag56
(g72
g58
NtRp2560
(dp2561
g61
(dp2562
sg70
g2493
sg63
(lp2563
g56
(g77
g58
NtRp2564
(dp2565
g61
(dp2566
g81
g82
ssg70
g2560
sg63
(lp2567
S'HTTP_ACCEPT_LANGUAGE'
p2568
asbag56
(g77
g58
NtRp2569
(dp2570
g61
(dp2571
g88
g89
ssg70
g2560
sg63
(lp2572
S':'
asbag56
(g77
g58
NtRp2573
(dp2574
g61
(dp2575
sg70
g2560
sg63
(lp2576
g56
(g57
g58
NtRp2577
(dp2578
g61
(dp2579
g69
I3
ssg70
g2573
sg63
(lp2580
g1091
asbasbasbag56
(g72
g58
NtRp2581
(dp2582
g61
(dp2583
sg70
g2493
sg63
(lp2584
g56
(g77
g58
NtRp2585
(dp2586
g61
(dp2587
g81
g82
ssg70
g2581
sg63
(lp2588
S'HTTP_CONNECTION'
p2589
asbag56
(g77
g58
NtRp2590
(dp2591
g61
(dp2592
g88
g89
ssg70
g2581
sg63
(lp2593
S':'
asbag56
(g77
g58
NtRp2594
(dp2595
g61
(dp2596
sg70
g2581
sg63
(lp2597
g56
(g57
g58
NtRp2598
(dp2599
g61
(dp2600
g69
I3
ssg70
g2594
sg63
(lp2601
g1113
asbasbasbag56
(g72
g58
NtRp2602
(dp2603
g61
(dp2604
sg70
g2493
sg63
(lp2605
g56
(g77
g58
NtRp2606
(dp2607
g61
(dp2608
g81
g82
ssg70
g2602
sg63
(lp2609
S'HTTP_COOKIE'
p2610
asbag56
(g77
g58
NtRp2611
(dp2612
g61
(dp2613
g88
g89
ssg70
g2602
sg63
(lp2614
S':'
asbag56
(g77
g58
NtRp2615
(dp2616
g61
(dp2617
sg70
g2602
sg63
(lp2618
g56
(g57
g58
NtRp2619
(dp2620
g61
(dp2621
g69
I3
ssg70
g2615
sg63
(lp2622
g1135
asbasbasbag56
(g72
g58
NtRp2623
(dp2624
g61
(dp2625
sg70
g2493
sg63
(lp2626
g56
(g77
g58
NtRp2627
(dp2628
g61
(dp2629
g81
g82
ssg70
g2623
sg63
(lp2630
S'HTTP_HOST'
p2631
asbag56
(g77
g58
NtRp2632
(dp2633
g61
(dp2634
g88
g89
ssg70
g2623
sg63
(lp2635
S':'
asbag56
(g77
g58
NtRp2636
(dp2637
g61
(dp2638
sg70
g2623
sg63
(lp2639
g56
(g57
g58
NtRp2640
(dp2641
g61
(dp2642
g69
I3
ssg70
g2636
sg63
(lp2643
g1157
asbasbasbag56
(g72
g58
NtRp2644
(dp2645
g61
(dp2646
sg70
g2493
sg63
(lp2647
g56
(g77
g58
NtRp2648
(dp2649
g61
(dp2650
g81
g82
ssg70
g2644
sg63
(lp2651
S'HTTP_REFERER'
p2652
asbag56
(g77
g58
NtRp2653
(dp2654
g61
(dp2655
g88
g89
ssg70
g2644
sg63
(lp2656
S':'
asbag56
(g77
g58
NtRp2657
(dp2658
g61
(dp2659
sg70
g2644
sg63
(lp2660
g56
(g57
g58
NtRp2661
(dp2662
g61
(dp2663
g69
I3
ssg70
g2657
sg63
(lp2664
g1179
asbasbasbag56
(g72
g58
NtRp2665
(dp2666
g61
(dp2667
sg70
g2493
sg63
(lp2668
g56
(g77
g58
NtRp2669
(dp2670
g61
(dp2671
g81
g82
ssg70
g2665
sg63
(lp2672
S'HTTP_USER_AGENT'
p2673
asbag56
(g77
g58
NtRp2674
(dp2675
g61
(dp2676
g88
g89
ssg70
g2665
sg63
(lp2677
S':'
asbag56
(g77
g58
NtRp2678
(dp2679
g61
(dp2680
sg70
g2665
sg63
(lp2681
g56
(g57
g58
NtRp2682
(dp2683
g61
(dp2684
g69
I3
ssg70
g2678
sg63
(lp2685
g1201
asbasbasbag56
(g72
g58
NtRp2686
(dp2687
g61
(dp2688
sg70
g2493
sg63
(lp2689
g56
(g77
g58
NtRp2690
(dp2691
g61
(dp2692
g81
g82
ssg70
g2686
sg63
(lp2693
S'HTTP_WEB2PY_COMPONENT_ELEMENT'
p2694
asbag56
(g77
g58
NtRp2695
(dp2696
g61
(dp2697
g88
g89
ssg70
g2686
sg63
(lp2698
S':'
asbag56
(g77
g58
NtRp2699
(dp2700
g61
(dp2701
sg70
g2686
sg63
(lp2702
g56
(g57
g58
NtRp2703
(dp2704
g61
(dp2705
g69
I3
ssg70
g2699
sg63
(lp2706
g189
asbasbasbag56
(g72
g58
NtRp2707
(dp2708
g61
(dp2709
sg70
g2493
sg63
(lp2710
g56
(g77
g58
NtRp2711
(dp2712
g61
(dp2713
g81
g82
ssg70
g2707
sg63
(lp2714
S'HTTP_WEB2PY_COMPONENT_LOCATION'
p2715
asbag56
(g77
g58
NtRp2716
(dp2717
g61
(dp2718
g88
g89
ssg70
g2707
sg63
(lp2719
S':'
asbag56
(g77
g58
NtRp2720
(dp2721
g61
(dp2722
sg70
g2707
sg63
(lp2723
g56
(g57
g58
NtRp2724
(dp2725
g61
(dp2726
g69
I3
ssg70
g2720
sg63
(lp2727
g1244
asbasbasbag56
(g72
g58
NtRp2728
(dp2729
g61
(dp2730
sg70
g2493
sg63
(lp2731
g56
(g77
g58
NtRp2732
(dp2733
g61
(dp2734
g81
g82
ssg70
g2728
sg63
(lp2735
S'HTTP_X_REQUESTED_WITH'
p2736
asbag56
(g77
g58
NtRp2737
(dp2738
g61
(dp2739
g88
g89
ssg70
g2728
sg63
(lp2740
S':'
asbag56
(g77
g58
NtRp2741
(dp2742
g61
(dp2743
sg70
g2728
sg63
(lp2744
g56
(g57
g58
NtRp2745
(dp2746
g61
(dp2747
g69
I3
ssg70
g2741
sg63
(lp2748
g1266
asbasbasbag56
(g72
g58
NtRp2749
(dp2750
g61
(dp2751
sg70
g2493
sg63
(lp2752
g56
(g77
g58
NtRp2753
(dp2754
g61
(dp2755
g81
g82
ssg70
g2749
sg63
(lp2756
S'PATH_INFO'
p2757
asbag56
(g77
g58
NtRp2758
(dp2759
g61
(dp2760
g88
g89
ssg70
g2749
sg63
(lp2761
S':'
asbag56
(g77
g58
NtRp2762
(dp2763
g61
(dp2764
sg70
g2749
sg63
(lp2765
g56
(g57
g58
NtRp2766
(dp2767
g61
(dp2768
g69
I3
ssg70
g2762
sg63
(lp2769
g1309
asbasbasbag56
(g72
g58
NtRp2770
(dp2771
g61
(dp2772
sg70
g2493
sg63
(lp2773
g56
(g77
g58
NtRp2774
(dp2775
g61
(dp2776
g81
g82
ssg70
g2770
sg63
(lp2777
S'QUERY_STRING'
p2778
asbag56
(g77
g58
NtRp2779
(dp2780
g61
(dp2781
g88
g89
ssg70
g2770
sg63
(lp2782
S':'
asbag56
(g77
g58
NtRp2783
(dp2784
g61
(dp2785
sg70
g2770
sg63
(lp2786
g56
(g57
g58
NtRp2787
(dp2788
g61
(dp2789
g69
I3
ssg70
g2783
sg63
(lp2790
S''
asbasbasbag56
(g72
g58
NtRp2791
(dp2792
g61
(dp2793
sg70
g2493
sg63
(lp2794
g56
(g77
g58
NtRp2795
(dp2796
g61
(dp2797
g81
g82
ssg70
g2791
sg63
(lp2798
S'REMOTE_ADDR'
p2799
asbag56
(g77
g58
NtRp2800
(dp2801
g61
(dp2802
g88
g89
ssg70
g2791
sg63
(lp2803
S':'
asbag56
(g77
g58
NtRp2804
(dp2805
g61
(dp2806
sg70
g2791
sg63
(lp2807
g56
(g57
g58
NtRp2808
(dp2809
g61
(dp2810
g69
I3
ssg70
g2804
sg63
(lp2811
g211
asbasbasbag56
(g72
g58
NtRp2812
(dp2813
g61
(dp2814
sg70
g2493
sg63
(lp2815
g56
(g77
g58
NtRp2816
(dp2817
g61
(dp2818
g81
g82
ssg70
g2812
sg63
(lp2819
S'REMOTE_PORT'
p2820
asbag56
(g77
g58
NtRp2821
(dp2822
g61
(dp2823
g88
g89
ssg70
g2812
sg63
(lp2824
S':'
asbag56
(g77
g58
NtRp2825
(dp2826
g61
(dp2827
sg70
g2812
sg63
(lp2828
g56
(g57
g58
NtRp2829
(dp2830
g61
(dp2831
g69
I3
ssg70
g2825
sg63
(lp2832
g1373
asbasbasbag56
(g72
g58
NtRp2833
(dp2834
g61
(dp2835
sg70
g2493
sg63
(lp2836
g56
(g77
g58
NtRp2837
(dp2838
g61
(dp2839
g81
g82
ssg70
g2833
sg63
(lp2840
S'REQUEST_METHOD'
p2841
asbag56
(g77
g58
NtRp2842
(dp2843
g61
(dp2844
g88
g89
ssg70
g2833
sg63
(lp2845
S':'
asbag56
(g77
g58
NtRp2846
(dp2847
g61
(dp2848
sg70
g2833
sg63
(lp2849
g56
(g57
g58
NtRp2850
(dp2851
g61
(dp2852
g69
I3
ssg70
g2846
sg63
(lp2853
g1395
asbasbasbag56
(g72
g58
NtRp2854
(dp2855
g61
(dp2856
sg70
g2493
sg63
(lp2857
g56
(g77
g58
NtRp2858
(dp2859
g61
(dp2860
g81
g82
ssg70
g2854
sg63
(lp2861
S'SCRIPT_NAME'
p2862
asbag56
(g77
g58
NtRp2863
(dp2864
g61
(dp2865
g88
g89
ssg70
g2854
sg63
(lp2866
S':'
asbag56
(g77
g58
NtRp2867
(dp2868
g61
(dp2869
sg70
g2854
sg63
(lp2870
g56
(g57
g58
NtRp2871
(dp2872
g61
(dp2873
g69
I3
ssg70
g2867
sg63
(lp2874
S''
asbasbasbag56
(g72
g58
NtRp2875
(dp2876
g61
(dp2877
sg70
g2493
sg63
(lp2878
g56
(g77
g58
NtRp2879
(dp2880
g61
(dp2881
g81
g82
ssg70
g2875
sg63
(lp2882
S'SERVER_NAME'
p2883
asbag56
(g77
g58
NtRp2884
(dp2885
g61
(dp2886
g88
g89
ssg70
g2875
sg63
(lp2887
S':'
asbag56
(g77
g58
NtRp2888
(dp2889
g61
(dp2890
sg70
g2875
sg63
(lp2891
g56
(g57
g58
NtRp2892
(dp2893
g61
(dp2894
g69
I3
ssg70
g2888
sg63
(lp2895
g1438
asbasbasbag56
(g72
g58
NtRp2896
(dp2897
g61
(dp2898
sg70
g2493
sg63
(lp2899
g56
(g77
g58
NtRp2900
(dp2901
g61
(dp2902
g81
g82
ssg70
g2896
sg63
(lp2903
S'SERVER_PORT'
p2904
asbag56
(g77
g58
NtRp2905
(dp2906
g61
(dp2907
g88
g89
ssg70
g2896
sg63
(lp2908
S':'
asbag56
(g77
g58
NtRp2909
(dp2910
g61
(dp2911
sg70
g2896
sg63
(lp2912
g56
(g57
g58
NtRp2913
(dp2914
g61
(dp2915
g69
I3
ssg70
g2909
sg63
(lp2916
g1460
asbasbasbag56
(g72
g58
NtRp2917
(dp2918
g61
(dp2919
sg70
g2493
sg63
(lp2920
g56
(g77
g58
NtRp2921
(dp2922
g61
(dp2923
g81
g82
ssg70
g2917
sg63
(lp2924
S'SERVER_PROTOCOL'
p2925
asbag56
(g77
g58
NtRp2926
(dp2927
g61
(dp2928
g88
g89
ssg70
g2917
sg63
(lp2929
S':'
asbag56
(g77
g58
NtRp2930
(dp2931
g61
(dp2932
sg70
g2917
sg63
(lp2933
g56
(g57
g58
NtRp2934
(dp2935
g61
(dp2936
g69
I3
ssg70
g2930
sg63
(lp2937
g1482
asbasbasbag56
(g72
g58
NtRp2938
(dp2939
g61
(dp2940
sg70
g2493
sg63
(lp2941
g56
(g77
g58
NtRp2942
(dp2943
g61
(dp2944
g81
g82
ssg70
g2938
sg63
(lp2945
S'SERVER_SOFTWARE'
p2946
asbag56
(g77
g58
NtRp2947
(dp2948
g61
(dp2949
g88
g89
ssg70
g2938
sg63
(lp2950
S':'
asbag56
(g77
g58
NtRp2951
(dp2952
g61
(dp2953
sg70
g2938
sg63
(lp2954
g56
(g57
g58
NtRp2955
(dp2956
g61
(dp2957
g69
I3
ssg70
g2951
sg63
(lp2958
g1504
asbasbasbag56
(g72
g58
NtRp2959
(dp2960
g61
(dp2961
sg70
g2493
sg63
(lp2962
g56
(g77
g58
NtRp2963
(dp2964
g61
(dp2965
g81
g82
ssg70
g2959
sg63
(lp2966
S'wsgi.errors'
p2967
asbag56
(g77
g58
NtRp2968
(dp2969
g61
(dp2970
g88
g89
ssg70
g2959
sg63
(lp2971
S':'
asbag56
(g77
g58
NtRp2972
(dp2973
g61
(dp2974
sg70
g2959
sg63
(lp2975
g56
(g57
g58
NtRp2976
(dp2977
g61
(dp2978
g69
I3
ssg70
g2972
sg63
(lp2979
S"<open file '<stderr>', mode 'w' at 0x7f6d3a48b270>"
p2980
asbasbasbag56
(g72
g58
NtRp2981
(dp2982
g61
(dp2983
sg70
g2493
sg63
(lp2984
g56
(g77
g58
NtRp2985
(dp2986
g61
(dp2987
g81
g82
ssg70
g2981
sg63
(lp2988
S'wsgi.file_wrapper'
p2989
asbag56
(g77
g58
NtRp2990
(dp2991
g61
(dp2992
g88
g89
ssg70
g2981
sg63
(lp2993
S':'
asbag56
(g77
g58
NtRp2994
(dp2995
g61
(dp2996
sg70
g2981
sg63
(lp2997
g56
(g57
g58
NtRp2998
(dp2999
g61
(dp3000
g69
I3
ssg70
g2994
sg63
(lp3001
S'<class wsgiref.util.FileWrapper at 0x25957a0>'
p3002
asbasbasbag56
(g72
g58
NtRp3003
(dp3004
g61
(dp3005
sg70
g2493
sg63
(lp3006
g56
(g77
g58
NtRp3007
(dp3008
g61
(dp3009
g81
g82
ssg70
g3003
sg63
(lp3010
S'wsgi.input'
p3011
asbag56
(g77
g58
NtRp3012
(dp3013
g61
(dp3014
g88
g89
ssg70
g3003
sg63
(lp3015
S':'
asbag56
(g77
g58
NtRp3016
(dp3017
g61
(dp3018
sg70
g3003
sg63
(lp3019
g56
(g57
g58
NtRp3020
(dp3021
g61
(dp3022
g69
I3
ssg70
g3016
sg63
(lp3023
S'<cStringIO.StringO object at 0x3eb4ca8>'
p3024
asbasbasbag56
(g72
g58
NtRp3025
(dp3026
g61
(dp3027
sg70
g2493
sg63
(lp3028
g56
(g77
g58
NtRp3029
(dp3030
g61
(dp3031
g81
g82
ssg70
g3025
sg63
(lp3032
S'wsgi.multiprocess'
p3033
asbag56
(g77
g58
NtRp3034
(dp3035
g61
(dp3036
g88
g89
ssg70
g3025
sg63
(lp3037
S':'
asbag56
(g77
g58
NtRp3038
(dp3039
g61
(dp3040
sg70
g3025
sg63
(lp3041
g56
(g57
g58
NtRp3042
(dp3043
g61
(dp3044
g69
I3
ssg70
g3038
sg63
(lp3045
g981
asbasbasbag56
(g72
g58
NtRp3046
(dp3047
g61
(dp3048
sg70
g2493
sg63
(lp3049
g56
(g77
g58
NtRp3050
(dp3051
g61
(dp3052
g81
g82
ssg70
g3046
sg63
(lp3053
S'wsgi.multithread'
p3054
asbag56
(g77
g58
NtRp3055
(dp3056
g61
(dp3057
g88
g89
ssg70
g3046
sg63
(lp3058
S':'
asbag56
(g77
g58
NtRp3059
(dp3060
g61
(dp3061
sg70
g3046
sg63
(lp3062
g56
(g57
g58
NtRp3063
(dp3064
g61
(dp3065
g69
I3
ssg70
g3059
sg63
(lp3066
g99
asbasbasbag56
(g72
g58
NtRp3067
(dp3068
g61
(dp3069
sg70
g2493
sg63
(lp3070
g56
(g77
g58
NtRp3071
(dp3072
g61
(dp3073
g81
g82
ssg70
g3067
sg63
(lp3074
S'wsgi.run_once'
p3075
asbag56
(g77
g58
NtRp3076
(dp3077
g61
(dp3078
g88
g89
ssg70
g3067
sg63
(lp3079
S':'
asbag56
(g77
g58
NtRp3080
(dp3081
g61
(dp3082
sg70
g3067
sg63
(lp3083
g56
(g57
g58
NtRp3084
(dp3085
g61
(dp3086
g69
I3
ssg70
g3080
sg63
(lp3087
g981
asbasbasbag56
(g72
g58
NtRp3088
(dp3089
g61
(dp3090
sg70
g2493
sg63
(lp3091
g56
(g77
g58
NtRp3092
(dp3093
g61
(dp3094
g81
g82
ssg70
g3088
sg63
(lp3095
S'wsgi.url_scheme'
p3096
asbag56
(g77
g58
NtRp3097
(dp3098
g61
(dp3099
g88
g89
ssg70
g3088
sg63
(lp3100
S':'
asbag56
(g77
g58
NtRp3101
(dp3102
g61
(dp3103
sg70
g3088
sg63
(lp3104
g56
(g57
g58
NtRp3105
(dp3106
g61
(dp3107
g69
I3
ssg70
g3101
sg63
(lp3108
g1786
asbasbasbag56
(g72
g58
NtRp3109
(dp3110
g61
(dp3111
sg70
g2493
sg63
(lp3112
g56
(g77
g58
NtRp3113
(dp3114
g61
(dp3115
g81
g82
ssg70
g3109
sg63
(lp3116
S'wsgi.version'
p3117
asbag56
(g77
g58
NtRp3118
(dp3119
g61
(dp3120
g88
g89
ssg70
g3109
sg63
(lp3121
S':'
asbag56
(g77
g58
NtRp3122
(dp3123
g61
(dp3124
sg70
g3109
sg63
(lp3125
g56
(g57
g58
NtRp3126
(dp3127
g61
(dp3128
g69
I3
ssg70
g3122
sg63
(lp3129
S'1'
asbasbasbasbasbasbasbasbasbasbasbasbasbsS'frames'
p3130
(lp3131
(dp3132
S'file'
p3133
S'/home/ian/web2py/gluon/restricted.py'
p3134
sS'dump'
p3135
(dp3136
S'environment'
p3137
S"{'A': <class 'gluon.html.A'>, 'Auth': <class 'gluon.tools.Auth'>, 'B': <class 'gluon.html.B'>, 'BEAUTIFY': <class 'gluon.html.BEAUTIFY'>, 'BODY': <class 'gluon.html.BODY'>, 'BR': <class 'gluon.html.BR'>, 'BUTTON': <class 'gluon.html.BUTTON'>, 'CAT': <class 'gluon.html.CAT'>, 'CENTER': <class 'gluon.html.CENTER'>, 'CLEANUP': <class 'gluon.validators.CLEANUP'>, ...}"
p3138
sS'ccode'
p3139
S'<code object <module> at 0x3edaf30, file "/home/...ations/places/views/default/create.load", line 1>'
p3140
ssS'lnum'
p3141
I194
sS'lines'
p3142
(dp3143
I192
S'        else:'
p3144
sI193
S'            ccode = compile2(code,layer)'
p3145
sI194
S'        exec ccode in environment'
p3146
sI195
S'    except HTTP:'
p3147
sI196
S'        raise'
p3148
sI197
S'    except Exception, error:'
p3149
sI198
S'        # XXX Show exception in Wing IDE if running in debugger'
p3150
sI189
S'    try:'
p3151
sI190
S'        if type(code) == types.CodeType:'
p3152
sI191
S'            ccode = code'
p3153
ssS'call'
p3154
S'(code="response.write(closer)\\nresponse.write(\'\\\\n\', esca...se.write(form)\\nresponse.write(\'\\\\n\', escape=False)", environment={\'A\': <class \'gluon.html.A\'>, \'Auth\': <class \'gluon.tools.Auth\'>, \'B\': <class \'gluon.html.B\'>, \'BEAUTIFY\': <class \'gluon.html.BEAUTIFY\'>, \'BODY\': <class \'gluon.html.BODY\'>, \'BR\': <class \'gluon.html.BR\'>, \'BUTTON\': <class \'gluon.html.BUTTON\'>, \'CAT\': <class \'gluon.html.CAT\'>, \'CENTER\': <class \'gluon.html.CENTER\'>, \'CLEANUP\': <class \'gluon.validators.CLEANUP\'>, ...}, layer=\'/home/ian/web2py/applications/places/views/default/create.load\')'
p3155
sS'func'
p3156
S'restricted'
p3157
sa(dp3158
g3133
S'/home/ian/web2py/applications/places/views/default/create.load'
p3159
sg3135
(dp3160
S'form'
p3161
S'<gluon.sqlhtml.SQLFORM object>'
p3162
ssg3141
I3
sg3142
(dp3163
I1
S'{{=closer}}'
p3164
sI2
S'{{=title}}'
p3165
sI3
S'{{=form}}'
p3166
ssg3154
S'()'
p3167
sg3156
S'<module>'
p3168
sasS'pyver'
p3169
S'Python 2.7.1+: /usr/bin/python2.7'
p3170
sS'session'
p3171
g56
(g57
g58
NtRp3172
(dp3173
g61
(dp3174
sg63
(lp3175
g56
(g65
g58
NtRp3176
(dp3177
g61
(dp3178
g69
I5
ssg70
Nsg63
(lp3179
g56
(g72
g58
NtRp3180
(dp3181
g61
(dp3182
sg70
g3176
sg63
(lp3183
g56
(g77
g58
NtRp3184
(dp3185
g61
(dp3186
g81
g82
ssg70
g3180
sg63
(lp3187
S'current'
p3188
asbag56
(g77
g58
NtRp3189
(dp3190
g61
(dp3191
g88
g89
ssg70
g3180
sg63
(lp3192
S':'
asbag56
(g77
g58
NtRp3193
(dp3194
g61
(dp3195
sg70
g3180
sg63
(lp3196
g56
(g57
g58
NtRp3197
(dp3198
g61
(dp3199
g69
I5
ssg70
g3193
sg63
(lp3200
S'kitchen'
p3201
asbasbasbag56
(g72
g58
NtRp3202
(dp3203
g61
(dp3204
sg70
g3176
sg63
(lp3205
g56
(g77
g58
NtRp3206
(dp3207
g61
(dp3208
g81
g82
ssg70
g3202
sg63
(lp3209
S'current_view'
p3210
asbag56
(g77
g58
NtRp3211
(dp3212
g61
(dp3213
g88
g89
ssg70
g3202
sg63
(lp3214
S':'
asbag56
(g77
g58
NtRp3215
(dp3216
g61
(dp3217
sg70
g3202
sg63
(lp3218
g56
(g57
g58
NtRp3219
(dp3220
g61
(dp3221
g69
I5
ssg70
g3215
sg63
(lp3222
S'kitchen'
p3223
asbasbasbag56
(g72
g58
NtRp3224
(dp3225
g61
(dp3226
sg70
g3176
sg63
(lp3227
g56
(g77
g58
NtRp3228
(dp3229
g61
(dp3230
g81
g82
ssg70
g3224
sg63
(lp3231
S'the_view'
p3232
asbag56
(g77
g58
NtRp3233
(dp3234
g61
(dp3235
g88
g89
ssg70
g3224
sg63
(lp3236
S':'
asbag56
(g77
g58
NtRp3237
(dp3238
g61
(dp3239
sg70
g3224
sg63
(lp3240
g56
(g57
g58
NtRp3241
(dp3242
g61
(dp3243
g69
I5
ssg70
g3237
sg63
(lp3244
S'kitchen'
p3245
asbasbasbasbasbsS'etype'
p3246
S"<type 'exceptions.NameError'>"
p3247
sS'date'
p3248
S'Sun Oct  2 19:56:42 2011'
p3249
sS'response'
p3250
g56
(g57
g58
NtRp3251
(dp3252
g61
(dp3253
sg63
(lp3254
g56
(g65
g58
NtRp3255
(dp3256
g61
(dp3257
g69
I5
ssg70
Nsg63
(lp3258
g56
(g72
g58
NtRp3259
(dp3260
g61
(dp3261
sg70
g3255
sg63
(lp3262
g56
(g77
g58
NtRp3263
(dp3264
g61
(dp3265
g81
g82
ssg70
g3259
sg63
(lp3266
g154
asbag56
(g77
g58
NtRp3267
(dp3268
g61
(dp3269
g88
g89
ssg70
g3259
sg63
(lp3270
S':'
asbag56
(g77
g58
NtRp3271
(dp3272
g61
(dp3273
sg70
g3259
sg63
(lp3274
g56
(g57
g58
NtRp3275
(dp3276
g61
(dp3277
g69
I5
ssg70
g3271
sg63
(lp3278
S'<cStringIO.StringO object at 0x42dcfb8>'
p3279
asbasbasbag56
(g72
g58
NtRp3280
(dp3281
g61
(dp3282
sg70
g3255
sg63
(lp3283
g56
(g77
g58
NtRp3284
(dp3285
g61
(dp3286
g81
g82
ssg70
g3280
sg63
(lp3287
g242
asbag56
(g77
g58
NtRp3288
(dp3289
g61
(dp3290
g88
g89
ssg70
g3280
sg63
(lp3291
S':'
asbag56
(g77
g58
NtRp3292
(dp3293
g61
(dp3294
sg70
g3280
sg63
(lp3295
g56
(g57
g58
NtRp3296
(dp3297
g61
(dp3298
g69
I5
ssg70
g3292
sg63
(lp3299
g56
(g65
g58
NtRp3300
(dp3301
g61
(dp3302
g69
I4
ssg70
Nsg63
(lp3303
g56
(g72
g58
NtRp3304
(dp3305
g61
(dp3306
sg70
g3300
sg63
(lp3307
g56
(g77
g58
NtRp3308
(dp3309
g61
(dp3310
g81
g82
ssg70
g3304
sg63
(lp3311
S'session_id_places'
p3312
asbag56
(g77
g58
NtRp3313
(dp3314
g61
(dp3315
g88
g89
ssg70
g3304
sg63
(lp3316
S':'
asbag56
(g77
g58
NtRp3317
(dp3318
g61
(dp3319
sg70
g3304
sg63
(lp3320
g56
(g57
g58
NtRp3321
(dp3322
g61
(dp3323
g69
I4
ssg70
g3317
sg63
(lp3324
g56
(g65
g58
NtRp3325
(dp3326
g61
(dp3327
g69
I3
ssg70
Nsg63
(lp3328
g56
(g72
g58
NtRp3329
(dp3330
g61
(dp3331
sg70
g3325
sg63
(lp3332
g56
(g77
g58
NtRp3333
(dp3334
g61
(dp3335
g81
g82
ssg70
g3329
sg63
(lp3336
g292
asbag56
(g77
g58
NtRp3337
(dp3338
g61
(dp3339
g88
g89
ssg70
g3329
sg63
(lp3340
S':'
asbag56
(g77
g58
NtRp3341
(dp3342
g61
(dp3343
sg70
g3329
sg63
(lp3344
g56
(g57
g58
NtRp3345
(dp3346
g61
(dp3347
g69
I3
ssg70
g3341
sg63
(lp3348
S''
asbasbasbag56
(g72
g58
NtRp3349
(dp3350
g61
(dp3351
sg70
g3325
sg63
(lp3352
g56
(g77
g58
NtRp3353
(dp3354
g61
(dp3355
g81
g82
ssg70
g3349
sg63
(lp3356
g313
asbag56
(g77
g58
NtRp3357
(dp3358
g61
(dp3359
g88
g89
ssg70
g3349
sg63
(lp3360
S':'
asbag56
(g77
g58
NtRp3361
(dp3362
g61
(dp3363
sg70
g3349
sg63
(lp3364
g56
(g57
g58
NtRp3365
(dp3366
g61
(dp3367
g69
I3
ssg70
g3361
sg63
(lp3368
S''
asbasbasbag56
(g72
g58
NtRp3369
(dp3370
g61
(dp3371
sg70
g3325
sg63
(lp3372
g56
(g77
g58
NtRp3373
(dp3374
g61
(dp3375
g81
g82
ssg70
g3369
sg63
(lp3376
g334
asbag56
(g77
g58
NtRp3377
(dp3378
g61
(dp3379
g88
g89
ssg70
g3369
sg63
(lp3380
S':'
asbag56
(g77
g58
NtRp3381
(dp3382
g61
(dp3383
sg70
g3369
sg63
(lp3384
g56
(g57
g58
NtRp3385
(dp3386
g61
(dp3387
g69
I3
ssg70
g3381
sg63
(lp3388
S''
asbasbasbag56
(g72
g58
NtRp3389
(dp3390
g61
(dp3391
sg70
g3325
sg63
(lp3392
g56
(g77
g58
NtRp3393
(dp3394
g61
(dp3395
g81
g82
ssg70
g3389
sg63
(lp3396
g355
asbag56
(g77
g58
NtRp3397
(dp3398
g61
(dp3399
g88
g89
ssg70
g3389
sg63
(lp3400
S':'
asbag56
(g77
g58
NtRp3401
(dp3402
g61
(dp3403
sg70
g3389
sg63
(lp3404
g56
(g57
g58
NtRp3405
(dp3406
g61
(dp3407
g69
I3
ssg70
g3401
sg63
(lp3408
S''
asbasbasbag56
(g72
g58
NtRp3409
(dp3410
g61
(dp3411
sg70
g3325
sg63
(lp3412
g56
(g77
g58
NtRp3413
(dp3414
g61
(dp3415
g81
g82
ssg70
g3409
sg63
(lp3416
g376
asbag56
(g77
g58
NtRp3417
(dp3418
g61
(dp3419
g88
g89
ssg70
g3409
sg63
(lp3420
S':'
asbag56
(g77
g58
NtRp3421
(dp3422
g61
(dp3423
sg70
g3409
sg63
(lp3424
g56
(g57
g58
NtRp3425
(dp3426
g61
(dp3427
g69
I3
ssg70
g3421
sg63
(lp3428
S''
asbasbasbag56
(g72
g58
NtRp3429
(dp3430
g61
(dp3431
sg70
g3325
sg63
(lp3432
g56
(g77
g58
NtRp3433
(dp3434
g61
(dp3435
g81
g82
ssg70
g3429
sg63
(lp3436
g397
asbag56
(g77
g58
NtRp3437
(dp3438
g61
(dp3439
g88
g89
ssg70
g3429
sg63
(lp3440
S':'
asbag56
(g77
g58
NtRp3441
(dp3442
g61
(dp3443
sg70
g3429
sg63
(lp3444
g56
(g57
g58
NtRp3445
(dp3446
g61
(dp3447
g69
I3
ssg70
g3441
sg63
(lp3448
S'/'
asbasbasbag56
(g72
g58
NtRp3449
(dp3450
g61
(dp3451
sg70
g3325
sg63
(lp3452
g56
(g77
g58
NtRp3453
(dp3454
g61
(dp3455
g81
g82
ssg70
g3449
sg63
(lp3456
g418
asbag56
(g77
g58
NtRp3457
(dp3458
g61
(dp3459
g88
g89
ssg70
g3449
sg63
(lp3460
S':'
asbag56
(g77
g58
NtRp3461
(dp3462
g61
(dp3463
sg70
g3449
sg63
(lp3464
g56
(g57
g58
NtRp3465
(dp3466
g61
(dp3467
g69
I3
ssg70
g3461
sg63
(lp3468
S''
asbasbasbag56
(g72
g58
NtRp3469
(dp3470
g61
(dp3471
sg70
g3325
sg63
(lp3472
g56
(g77
g58
NtRp3473
(dp3474
g61
(dp3475
g81
g82
ssg70
g3469
sg63
(lp3476
g439
asbag56
(g77
g58
NtRp3477
(dp3478
g61
(dp3479
g88
g89
ssg70
g3469
sg63
(lp3480
S':'
asbag56
(g77
g58
NtRp3481
(dp3482
g61
(dp3483
sg70
g3469
sg63
(lp3484
g56
(g57
g58
NtRp3485
(dp3486
g61
(dp3487
g69
I3
ssg70
g3481
sg63
(lp3488
S''
asbasbasbasbasbasbasbasbasbasbasbag56
(g72
g58
NtRp3489
(dp3490
g61
(dp3491
sg70
g3255
sg63
(lp3492
g56
(g77
g58
NtRp3493
(dp3494
g61
(dp3495
g81
g82
ssg70
g3489
sg63
(lp3496
S'files'
p3497
asbag56
(g77
g58
NtRp3498
(dp3499
g61
(dp3500
g88
g89
ssg70
g3489
sg63
(lp3501
S':'
asbag56
(g77
g58
NtRp3502
(dp3503
g61
(dp3504
sg70
g3489
sg63
(lp3505
g56
(g57
g58
NtRp3506
(dp3507
g61
(dp3508
g69
I5
ssg70
g3502
sg63
(lp3509
g56
(g65
g58
NtRp3510
(dp3511
g61
(dp3512
g69
I4
ssg70
Nsg63
(lp3513
sbasbasbasbag56
(g72
g58
NtRp3514
(dp3515
g61
(dp3516
sg70
g3255
sg63
(lp3517
g56
(g77
g58
NtRp3518
(dp3519
g61
(dp3520
g81
g82
ssg70
g3514
sg63
(lp3521
S'flash'
p3522
asbag56
(g77
g58
NtRp3523
(dp3524
g61
(dp3525
g88
g89
ssg70
g3514
sg63
(lp3526
S':'
asbag56
(g77
g58
NtRp3527
(dp3528
g61
(dp3529
sg70
g3514
sg63
(lp3530
g56
(g57
g58
NtRp3531
(dp3532
g61
(dp3533
g69
I5
ssg70
g3527
sg63
(lp3534
S''
asbasbasbag56
(g72
g58
NtRp3535
(dp3536
g61
(dp3537
sg70
g3255
sg63
(lp3538
g56
(g77
g58
NtRp3539
(dp3540
g61
(dp3541
g81
g82
ssg70
g3535
sg63
(lp3542
S'generic_patterns'
p3543
asbag56
(g77
g58
NtRp3544
(dp3545
g61
(dp3546
g88
g89
ssg70
g3535
sg63
(lp3547
S':'
asbag56
(g77
g58
NtRp3548
(dp3549
g61
(dp3550
sg70
g3535
sg63
(lp3551
g56
(g57
g58
NtRp3552
(dp3553
g61
(dp3554
g69
I5
ssg70
g3548
sg63
(lp3555
g56
(g65
g58
NtRp3556
(dp3557
g61
(dp3558
g69
I4
ssg70
Nsg63
(lp3559
g56
(g72
g58
NtRp3560
(dp3561
g61
(dp3562
sg70
g3556
sg63
(lp3563
g56
(g77
g58
NtRp3564
(dp3565
g61
(dp3566
sg70
g3560
sg63
(lp3567
g56
(g57
g58
NtRp3568
(dp3569
g61
(dp3570
g69
I4
ssg70
g3564
sg63
(lp3571
S'*'
asbasbasbasbasbasbasbag56
(g72
g58
NtRp3572
(dp3573
g61
(dp3574
sg70
g3255
sg63
(lp3575
g56
(g77
g58
NtRp3576
(dp3577
g61
(dp3578
g81
g82
ssg70
g3572
sg63
(lp3579
S'headers'
p3580
asbag56
(g77
g58
NtRp3581
(dp3582
g61
(dp3583
g88
g89
ssg70
g3572
sg63
(lp3584
S':'
asbag56
(g77
g58
NtRp3585
(dp3586
g61
(dp3587
sg70
g3572
sg63
(lp3588
g56
(g57
g58
NtRp3589
(dp3590
g61
(dp3591
g69
I5
ssg70
g3585
sg63
(lp3592
g56
(g65
g58
NtRp3593
(dp3594
g61
(dp3595
g69
I4
ssg70
Nsg63
(lp3596
g56
(g72
g58
NtRp3597
(dp3598
g61
(dp3599
sg70
g3593
sg63
(lp3600
g56
(g77
g58
NtRp3601
(dp3602
g61
(dp3603
g81
g82
ssg70
g3597
sg63
(lp3604
S'Cache-Control'
p3605
asbag56
(g77
g58
NtRp3606
(dp3607
g61
(dp3608
g88
g89
ssg70
g3597
sg63
(lp3609
S':'
asbag56
(g77
g58
NtRp3610
(dp3611
g61
(dp3612
sg70
g3597
sg63
(lp3613
g56
(g57
g58
NtRp3614
(dp3615
g61
(dp3616
g69
I4
ssg70
g3610
sg63
(lp3617
S'no-store, no-cache, must-revalidate, post-check=0, pre-check=0'
p3618
asbasbasbag56
(g72
g58
NtRp3619
(dp3620
g61
(dp3621
sg70
g3593
sg63
(lp3622
g56
(g77
g58
NtRp3623
(dp3624
g61
(dp3625
g81
g82
ssg70
g3619
sg63
(lp3626
S'Content-Type'
p3627
asbag56
(g77
g58
NtRp3628
(dp3629
g61
(dp3630
g88
g89
ssg70
g3619
sg63
(lp3631
S':'
asbag56
(g77
g58
NtRp3632
(dp3633
g61
(dp3634
sg70
g3619
sg63
(lp3635
g56
(g57
g58
NtRp3636
(dp3637
g61
(dp3638
g69
I4
ssg70
g3632
sg63
(lp3639
S'text/html; charset=utf-8'
p3640
asbasbasbag56
(g72
g58
NtRp3641
(dp3642
g61
(dp3643
sg70
g3593
sg63
(lp3644
g56
(g77
g58
NtRp3645
(dp3646
g61
(dp3647
g81
g82
ssg70
g3641
sg63
(lp3648
S'Expires'
p3649
asbag56
(g77
g58
NtRp3650
(dp3651
g61
(dp3652
g88
g89
ssg70
g3641
sg63
(lp3653
S':'
asbag56
(g77
g58
NtRp3654
(dp3655
g61
(dp3656
sg70
g3641
sg63
(lp3657
g56
(g57
g58
NtRp3658
(dp3659
g61
(dp3660
g69
I4
ssg70
g3654
sg63
(lp3661
S'Sun, 02 Oct 2011 23:56:42 GMT'
p3662
asbasbasbag56
(g72
g58
NtRp3663
(dp3664
g61
(dp3665
sg70
g3593
sg63
(lp3666
g56
(g77
g58
NtRp3667
(dp3668
g61
(dp3669
g81
g82
ssg70
g3663
sg63
(lp3670
S'Pragma'
p3671
asbag56
(g77
g58
NtRp3672
(dp3673
g61
(dp3674
g88
g89
ssg70
g3663
sg63
(lp3675
S':'
asbag56
(g77
g58
NtRp3676
(dp3677
g61
(dp3678
sg70
g3663
sg63
(lp3679
g56
(g57
g58
NtRp3680
(dp3681
g61
(dp3682
g69
I4
ssg70
g3676
sg63
(lp3683
S'no-cache'
p3684
asbasbasbag56
(g72
g58
NtRp3685
(dp3686
g61
(dp3687
sg70
g3593
sg63
(lp3688
g56
(g77
g58
NtRp3689
(dp3690
g61
(dp3691
g81
g82
ssg70
g3685
sg63
(lp3692
S'X-Powered-By'
p3693
asbag56
(g77
g58
NtRp3694
(dp3695
g61
(dp3696
g88
g89
ssg70
g3685
sg63
(lp3697
S':'
asbag56
(g77
g58
NtRp3698
(dp3699
g61
(dp3700
sg70
g3685
sg63
(lp3701
g56
(g57
g58
NtRp3702
(dp3703
g61
(dp3704
g69
I4
ssg70
g3698
sg63
(lp3705
S'web2py'
p3706
asbasbasbasbasbasbasbag56
(g72
g58
NtRp3707
(dp3708
g61
(dp3709
sg70
g3255
sg63
(lp3710
g56
(g77
g58
NtRp3711
(dp3712
g61
(dp3713
g81
g82
ssg70
g3707
sg63
(lp3714
S'menu'
p3715
asbag56
(g77
g58
NtRp3716
(dp3717
g61
(dp3718
g88
g89
ssg70
g3707
sg63
(lp3719
S':'
asbag56
(g77
g58
NtRp3720
(dp3721
g61
(dp3722
sg70
g3707
sg63
(lp3723
g56
(g57
g58
NtRp3724
(dp3725
g61
(dp3726
g69
I5
ssg70
g3720
sg63
(lp3727
g56
(g65
g58
NtRp3728
(dp3729
g61
(dp3730
g69
I4
ssg70
Nsg63
(lp3731
g56
(g72
g58
NtRp3732
(dp3733
g61
(dp3734
sg70
g3728
sg63
(lp3735
g56
(g77
g58
NtRp3736
(dp3737
g61
(dp3738
sg70
g3732
sg63
(lp3739
g56
(g57
g58
NtRp3740
(dp3741
g61
(dp3742
g69
I4
ssg70
g3736
sg63
(lp3743
g56
(g65
g58
NtRp3744
(dp3745
g61
(dp3746
g69
I3
ssg70
Nsg63
(lp3747
g56
(g72
g58
NtRp3748
(dp3749
g61
(dp3750
sg70
g3744
sg63
(lp3751
g56
(g77
g58
NtRp3752
(dp3753
g61
(dp3754
sg70
g3748
sg63
(lp3755
g56
(g57
g58
NtRp3756
(dp3757
g61
(dp3758
g69
I3
ssg70
g3752
sg63
(lp3759
cgluon.languages
lazyT_unpickle
p3760
(S't\x04\x00\x00\x00Home'
tRp3761
asbasbasbag56
(g72
g58
NtRp3762
(dp3763
g61
(dp3764
sg70
g3744
sg63
(lp3765
g56
(g77
g58
NtRp3766
(dp3767
g61
(dp3768
sg70
g3762
sg63
(lp3769
g56
(g57
g58
NtRp3770
(dp3771
g61
(dp3772
g69
I3
ssg70
g3766
sg63
(lp3773
g981
asbasbasbag56
(g72
g58
NtRp3774
(dp3775
g61
(dp3776
sg70
g3744
sg63
(lp3777
g56
(g77
g58
NtRp3778
(dp3779
g61
(dp3780
sg70
g3774
sg63
(lp3781
g56
(g57
g58
NtRp3782
(dp3783
g61
(dp3784
g69
I3
ssg70
g3778
sg63
(lp3785
S'/places/default/index.load'
p3786
asbasbasbag56
(g72
g58
NtRp3787
(dp3788
g61
(dp3789
sg70
g3744
sg63
(lp3790
g56
(g77
g58
NtRp3791
(dp3792
g61
(dp3793
sg70
g3787
sg63
(lp3794
g56
(g57
g58
NtRp3795
(dp3796
g61
(dp3797
g69
I3
ssg70
g3791
sg63
(lp3798
g56
(g65
g58
NtRp3799
(dp3800
g61
(dp3801
g69
I2
ssg70
Nsg63
(lp3802
sbasbasbasbasbasbasbasbag56
(g72
g58
NtRp3803
(dp3804
g61
(dp3805
sg70
g3728
sg63
(lp3806
g56
(g77
g58
NtRp3807
(dp3808
g61
(dp3809
sg70
g3803
sg63
(lp3810
g56
(g57
g58
NtRp3811
(dp3812
g61
(dp3813
g69
I4
ssg70
g3807
sg63
(lp3814
g56
(g65
g58
NtRp3815
(dp3816
g61
(dp3817
g69
I3
ssg70
Nsg63
(lp3818
g56
(g72
g58
NtRp3819
(dp3820
g61
(dp3821
sg70
g3815
sg63
(lp3822
g56
(g77
g58
NtRp3823
(dp3824
g61
(dp3825
sg70
g3819
sg63
(lp3826
g56
(g57
g58
NtRp3827
(dp3828
g61
(dp3829
g69
I3
ssg70
g3823
sg63
(lp3830
g3760
(S's\x08\x00\x00\x00This App'
tRp3831
asbasbasbag56
(g72
g58
NtRp3832
(dp3833
g61
(dp3834
sg70
g3815
sg63
(lp3835
g56
(g77
g58
NtRp3836
(dp3837
g61
(dp3838
sg70
g3832
sg63
(lp3839
g56
(g57
g58
NtRp3840
(dp3841
g61
(dp3842
g69
I3
ssg70
g3836
sg63
(lp3843
g981
asbasbasbag56
(g72
g58
NtRp3844
(dp3845
g61
(dp3846
sg70
g3815
sg63
(lp3847
g56
(g77
g58
NtRp3848
(dp3849
g61
(dp3850
sg70
g3844
sg63
(lp3851
g56
(g57
g58
NtRp3852
(dp3853
g61
(dp3854
g69
I3
ssg70
g3848
sg63
(lp3855
S'/admin/default/design/places.load'
p3856
asbasbasbag56
(g72
g58
NtRp3857
(dp3858
g61
(dp3859
sg70
g3815
sg63
(lp3860
g56
(g77
g58
NtRp3861
(dp3862
g61
(dp3863
sg70
g3857
sg63
(lp3864
g56
(g57
g58
NtRp3865
(dp3866
g61
(dp3867
g69
I3
ssg70
g3861
sg63
(lp3868
g56
(g65
g58
NtRp3869
(dp3870
g61
(dp3871
g69
I2
ssg70
Nsg63
(lp3872
g56
(g72
g58
NtRp3873
(dp3874
g61
(dp3875
sg70
g3869
sg63
(lp3876
g56
(g77
g58
NtRp3877
(dp3878
g61
(dp3879
sg70
g3873
sg63
(lp3880
g56
(g57
g58
NtRp3881
(dp3882
g61
(dp3883
g69
I2
ssg70
g3877
sg63
(lp3884
g56
(g65
g58
NtRp3885
(dp3886
g61
(dp3887
g69
I1
ssg70
Nsg63
(lp3888
g56
(g72
g58
NtRp3889
(dp3890
g61
(dp3891
sg70
g3885
sg63
(lp3892
g56
(g77
g58
NtRp3893
(dp3894
g61
(dp3895
sg70
g3889
sg63
(lp3896
g56
(g57
g58
NtRp3897
(dp3898
g61
(dp3899
g69
I1
ssg70
g3893
sg63
(lp3900
g3760
(S't\n\x00\x00\x00Controller'
tRp3901
asbasbasbag56
(g72
g58
NtRp3902
(dp3903
g61
(dp3904
sg70
g3885
sg63
(lp3905
g56
(g77
g58
NtRp3906
(dp3907
g61
(dp3908
sg70
g3902
sg63
(lp3909
g56
(g57
g58
NtRp3910
(dp3911
g61
(dp3912
g69
I1
ssg70
g3906
sg63
(lp3913
I00
asbasbasbag56
(g72
g58
NtRp3914
(dp3915
g61
(dp3916
sg70
g3885
sg63
(lp3917
g56
(g77
g58
NtRp3918
(dp3919
g61
(dp3920
sg70
g3914
sg63
(lp3921
g56
(g57
g58
NtRp3922
(dp3923
g61
(dp3924
g69
I1
ssg70
g3918
sg63
(lp3925
S'/admin/default/edit/places/controllers/default.py'
p3926
asbasbasbasbasbasbasbag56
(g72
g58
NtRp3927
(dp3928
g61
(dp3929
sg70
g3869
sg63
(lp3930
g56
(g77
g58
NtRp3931
(dp3932
g61
(dp3933
sg70
g3927
sg63
(lp3934
g56
(g57
g58
NtRp3935
(dp3936
g61
(dp3937
g69
I2
ssg70
g3931
sg63
(lp3938
g56
(g65
g58
NtRp3939
(dp3940
g61
(dp3941
g69
I1
ssg70
Nsg63
(lp3942
g56
(g72
g58
NtRp3943
(dp3944
g61
(dp3945
sg70
g3939
sg63
(lp3946
g56
(g77
g58
NtRp3947
(dp3948
g61
(dp3949
sg70
g3943
sg63
(lp3950
g56
(g57
g58
NtRp3951
(dp3952
g61
(dp3953
g69
I1
ssg70
g3947
sg63
(lp3954
g3760
(S't\x04\x00\x00\x00View'
tRp3955
asbasbasbag56
(g72
g58
NtRp3956
(dp3957
g61
(dp3958
sg70
g3939
sg63
(lp3959
g56
(g77
g58
NtRp3960
(dp3961
g61
(dp3962
sg70
g3956
sg63
(lp3963
g56
(g57
g58
NtRp3964
(dp3965
g61
(dp3966
g69
I1
ssg70
g3960
sg63
(lp3967
I00
asbasbasbag56
(g72
g58
NtRp3968
(dp3969
g61
(dp3970
sg70
g3939
sg63
(lp3971
g56
(g77
g58
NtRp3972
(dp3973
g61
(dp3974
sg70
g3968
sg63
(lp3975
g56
(g57
g58
NtRp3976
(dp3977
g61
(dp3978
g69
I1
ssg70
g3972
sg63
(lp3979
S'/admin/default/edit/places/views/default/create.load'
p3980
asbasbasbasbasbasbasbag56
(g72
g58
NtRp3981
(dp3982
g61
(dp3983
sg70
g3869
sg63
(lp3984
g56
(g77
g58
NtRp3985
(dp3986
g61
(dp3987
sg70
g3981
sg63
(lp3988
g56
(g57
g58
NtRp3989
(dp3990
g61
(dp3991
g69
I2
ssg70
g3985
sg63
(lp3992
g56
(g65
g58
NtRp3993
(dp3994
g61
(dp3995
g69
I1
ssg70
Nsg63
(lp3996
g56
(g72
g58
NtRp3997
(dp3998
g61
(dp3999
sg70
g3993
sg63
(lp4000
g56
(g77
g58
NtRp4001
(dp4002
g61
(dp4003
sg70
g3997
sg63
(lp4004
g56
(g57
g58
NtRp4005
(dp4006
g61
(dp4007
g69
I1
ssg70
g4001
sg63
(lp4008
g3760
(S't\x06\x00\x00\x00Layout'
tRp4009
asbasbasbag56
(g72
g58
NtRp4010
(dp4011
g61
(dp4012
sg70
g3993
sg63
(lp4013
g56
(g77
g58
NtRp4014
(dp4015
g61
(dp4016
sg70
g4010
sg63
(lp4017
g56
(g57
g58
NtRp4018
(dp4019
g61
(dp4020
g69
I1
ssg70
g4014
sg63
(lp4021
I00
asbasbasbag56
(g72
g58
NtRp4022
(dp4023
g61
(dp4024
sg70
g3993
sg63
(lp4025
g56
(g77
g58
NtRp4026
(dp4027
g61
(dp4028
sg70
g4022
sg63
(lp4029
g56
(g57
g58
NtRp4030
(dp4031
g61
(dp4032
g69
I1
ssg70
g4026
sg63
(lp4033
S'/admin/default/edit/places/views/layout.html'
p4034
asbasbasbasbasbasbasbag56
(g72
g58
NtRp4035
(dp4036
g61
(dp4037
sg70
g3869
sg63
(lp4038
g56
(g77
g58
NtRp4039
(dp4040
g61
(dp4041
sg70
g4035
sg63
(lp4042
g56
(g57
g58
NtRp4043
(dp4044
g61
(dp4045
g69
I2
ssg70
g4039
sg63
(lp4046
g56
(g65
g58
NtRp4047
(dp4048
g61
(dp4049
g69
I1
ssg70
Nsg63
(lp4050
g56
(g72
g58
NtRp4051
(dp4052
g61
(dp4053
sg70
g4047
sg63
(lp4054
g56
(g77
g58
NtRp4055
(dp4056
g61
(dp4057
sg70
g4051
sg63
(lp4058
g56
(g57
g58
NtRp4059
(dp4060
g61
(dp4061
g69
I1
ssg70
g4055
sg63
(lp4062
g3760
(S't\n\x00\x00\x00Stylesheet'
tRp4063
asbasbasbag56
(g72
g58
NtRp4064
(dp4065
g61
(dp4066
sg70
g4047
sg63
(lp4067
g56
(g77
g58
NtRp4068
(dp4069
g61
(dp4070
sg70
g4064
sg63
(lp4071
g56
(g57
g58
NtRp4072
(dp4073
g61
(dp4074
g69
I1
ssg70
g4068
sg63
(lp4075
I00
asbasbasbag56
(g72
g58
NtRp4076
(dp4077
g61
(dp4078
sg70
g4047
sg63
(lp4079
g56
(g77
g58
NtRp4080
(dp4081
g61
(dp4082
sg70
g4076
sg63
(lp4083
g56
(g57
g58
NtRp4084
(dp4085
g61
(dp4086
g69
I1
ssg70
g4080
sg63
(lp4087
S'/admin/default/edit/places/static/base.css'
p4088
asbasbasbasbasbasbasbag56
(g72
g58
NtRp4089
(dp4090
g61
(dp4091
sg70
g3869
sg63
(lp4092
g56
(g77
g58
NtRp4093
(dp4094
g61
(dp4095
sg70
g4089
sg63
(lp4096
g56
(g57
g58
NtRp4097
(dp4098
g61
(dp4099
g69
I2
ssg70
g4093
sg63
(lp4100
g56
(g65
g58
NtRp4101
(dp4102
g61
(dp4103
g69
I1
ssg70
Nsg63
(lp4104
g56
(g72
g58
NtRp4105
(dp4106
g61
(dp4107
sg70
g4101
sg63
(lp4108
g56
(g77
g58
NtRp4109
(dp4110
g61
(dp4111
sg70
g4105
sg63
(lp4112
g56
(g57
g58
NtRp4113
(dp4114
g61
(dp4115
g69
I1
ssg70
g4109
sg63
(lp4116
g3760
(S's\x08\x00\x00\x00DB Model'
tRp4117
asbasbasbag56
(g72
g58
NtRp4118
(dp4119
g61
(dp4120
sg70
g4101
sg63
(lp4121
g56
(g77
g58
NtRp4122
(dp4123
g61
(dp4124
sg70
g4118
sg63
(lp4125
g56
(g57
g58
NtRp4126
(dp4127
g61
(dp4128
g69
I1
ssg70
g4122
sg63
(lp4129
I00
asbasbasbag56
(g72
g58
NtRp4130
(dp4131
g61
(dp4132
sg70
g4101
sg63
(lp4133
g56
(g77
g58
NtRp4134
(dp4135
g61
(dp4136
sg70
g4130
sg63
(lp4137
g56
(g57
g58
NtRp4138
(dp4139
g61
(dp4140
g69
I1
ssg70
g4134
sg63
(lp4141
S'/admin/default/edit/places/models/db.py'
p4142
asbasbasbasbasbasbasbag56
(g72
g58
NtRp4143
(dp4144
g61
(dp4145
sg70
g3869
sg63
(lp4146
g56
(g77
g58
NtRp4147
(dp4148
g61
(dp4149
sg70
g4143
sg63
(lp4150
g56
(g57
g58
NtRp4151
(dp4152
g61
(dp4153
g69
I2
ssg70
g4147
sg63
(lp4154
g56
(g65
g58
NtRp4155
(dp4156
g61
(dp4157
g69
I1
ssg70
Nsg63
(lp4158
g56
(g72
g58
NtRp4159
(dp4160
g61
(dp4161
sg70
g4155
sg63
(lp4162
g56
(g77
g58
NtRp4163
(dp4164
g61
(dp4165
sg70
g4159
sg63
(lp4166
g56
(g57
g58
NtRp4167
(dp4168
g61
(dp4169
g69
I1
ssg70
g4163
sg63
(lp4170
g3760
(S's\n\x00\x00\x00Menu Model'
tRp4171
asbasbasbag56
(g72
g58
NtRp4172
(dp4173
g61
(dp4174
sg70
g4155
sg63
(lp4175
g56
(g77
g58
NtRp4176
(dp4177
g61
(dp4178
sg70
g4172
sg63
(lp4179
g56
(g57
g58
NtRp4180
(dp4181
g61
(dp4182
g69
I1
ssg70
g4176
sg63
(lp4183
I00
asbasbasbag56
(g72
g58
NtRp4184
(dp4185
g61
(dp4186
sg70
g4155
sg63
(lp4187
g56
(g77
g58
NtRp4188
(dp4189
g61
(dp4190
sg70
g4184
sg63
(lp4191
g56
(g57
g58
NtRp4192
(dp4193
g61
(dp4194
g69
I1
ssg70
g4188
sg63
(lp4195
S'/admin/default/edit/places/models/menu.py'
p4196
asbasbasbasbasbasbasbag56
(g72
g58
NtRp4197
(dp4198
g61
(dp4199
sg70
g3869
sg63
(lp4200
g56
(g77
g58
NtRp4201
(dp4202
g61
(dp4203
sg70
g4197
sg63
(lp4204
g56
(g57
g58
NtRp4205
(dp4206
g61
(dp4207
g69
I2
ssg70
g4201
sg63
(lp4208
g56
(g65
g58
NtRp4209
(dp4210
g61
(dp4211
g69
I1
ssg70
Nsg63
(lp4212
g56
(g72
g58
NtRp4213
(dp4214
g61
(dp4215
sg70
g4209
sg63
(lp4216
g56
(g77
g58
NtRp4217
(dp4218
g61
(dp4219
sg70
g4213
sg63
(lp4220
g56
(g57
g58
NtRp4221
(dp4222
g61
(dp4223
g69
I1
ssg70
g4217
sg63
(lp4224
g3760
(S't\x08\x00\x00\x00Database'
tRp4225
asbasbasbag56
(g72
g58
NtRp4226
(dp4227
g61
(dp4228
sg70
g4209
sg63
(lp4229
g56
(g77
g58
NtRp4230
(dp4231
g61
(dp4232
sg70
g4226
sg63
(lp4233
g56
(g57
g58
NtRp4234
(dp4235
g61
(dp4236
g69
I1
ssg70
g4230
sg63
(lp4237
I00
asbasbasbag56
(g72
g58
NtRp4238
(dp4239
g61
(dp4240
sg70
g4209
sg63
(lp4241
g56
(g77
g58
NtRp4242
(dp4243
g61
(dp4244
sg70
g4238
sg63
(lp4245
g56
(g57
g58
NtRp4246
(dp4247
g61
(dp4248
g69
I1
ssg70
g4242
sg63
(lp4249
S'/places/appadmin/index.load'
p4250
asbasbasbasbasbasbasbag56
(g72
g58
NtRp4251
(dp4252
g61
(dp4253
sg70
g3869
sg63
(lp4254
g56
(g77
g58
NtRp4255
(dp4256
g61
(dp4257
sg70
g4251
sg63
(lp4258
g56
(g57
g58
NtRp4259
(dp4260
g61
(dp4261
g69
I2
ssg70
g4255
sg63
(lp4262
g56
(g65
g58
NtRp4263
(dp4264
g61
(dp4265
g69
I1
ssg70
Nsg63
(lp4266
g56
(g72
g58
NtRp4267
(dp4268
g61
(dp4269
sg70
g4263
sg63
(lp4270
g56
(g77
g58
NtRp4271
(dp4272
g61
(dp4273
sg70
g4267
sg63
(lp4274
g56
(g57
g58
NtRp4275
(dp4276
g61
(dp4277
g69
I1
ssg70
g4271
sg63
(lp4278
g3760
(S't\x06\x00\x00\x00Errors'
tRp4279
asbasbasbag56
(g72
g58
NtRp4280
(dp4281
g61
(dp4282
sg70
g4263
sg63
(lp4283
g56
(g77
g58
NtRp4284
(dp4285
g61
(dp4286
sg70
g4280
sg63
(lp4287
g56
(g57
g58
NtRp4288
(dp4289
g61
(dp4290
g69
I1
ssg70
g4284
sg63
(lp4291
I00
asbasbasbag56
(g72
g58
NtRp4292
(dp4293
g61
(dp4294
sg70
g4263
sg63
(lp4295
g56
(g77
g58
NtRp4296
(dp4297
g61
(dp4298
sg70
g4292
sg63
(lp4299
g56
(g57
g58
NtRp4300
(dp4301
g61
(dp4302
g69
I1
ssg70
g4296
sg63
(lp4303
S'/admin/default/errors/places.load'
p4304
asbasbasbasbasbasbasbag56
(g72
g58
NtRp4305
(dp4306
g61
(dp4307
sg70
g3869
sg63
(lp4308
g56
(g77
g58
NtRp4309
(dp4310
g61
(dp4311
sg70
g4305
sg63
(lp4312
g56
(g57
g58
NtRp4313
(dp4314
g61
(dp4315
g69
I2
ssg70
g4309
sg63
(lp4316
g56
(g65
g58
NtRp4317
(dp4318
g61
(dp4319
g69
I1
ssg70
Nsg63
(lp4320
g56
(g72
g58
NtRp4321
(dp4322
g61
(dp4323
sg70
g4317
sg63
(lp4324
g56
(g77
g58
NtRp4325
(dp4326
g61
(dp4327
sg70
g4321
sg63
(lp4328
g56
(g57
g58
NtRp4329
(dp4330
g61
(dp4331
g69
I1
ssg70
g4325
sg63
(lp4332
g3760
(S't\x05\x00\x00\x00About'
tRp4333
asbasbasbag56
(g72
g58
NtRp4334
(dp4335
g61
(dp4336
sg70
g4317
sg63
(lp4337
g56
(g77
g58
NtRp4338
(dp4339
g61
(dp4340
sg70
g4334
sg63
(lp4341
g56
(g57
g58
NtRp4342
(dp4343
g61
(dp4344
g69
I1
ssg70
g4338
sg63
(lp4345
I00
asbasbasbag56
(g72
g58
NtRp4346
(dp4347
g61
(dp4348
sg70
g4317
sg63
(lp4349
g56
(g77
g58
NtRp4350
(dp4351
g61
(dp4352
sg70
g4346
sg63
(lp4353
g56
(g57
g58
NtRp4354
(dp4355
g61
(dp4356
g69
I1
ssg70
g4350
sg63
(lp4357
S'/admin/default/about/places.load'
p4358
asbasbasbasbasbasbasbasbasbasbasbasbasbasbasbag56
(g72
g58
NtRp4359
(dp4360
g61
(dp4361
sg70
g3728
sg63
(lp4362
g56
(g77
g58
NtRp4363
(dp4364
g61
(dp4365
sg70
g4359
sg63
(lp4366
g56
(g57
g58
NtRp4367
(dp4368
g61
(dp4369
g69
I4
ssg70
g4363
sg63
(lp4370
g56
(g65
g58
NtRp4371
(dp4372
g61
(dp4373
g69
I3
ssg70
Nsg63
(lp4374
g56
(g72
g58
NtRp4375
(dp4376
g61
(dp4377
sg70
g4371
sg63
(lp4378
g56
(g77
g58
NtRp4379
(dp4380
g61
(dp4381
sg70
g4375
sg63
(lp4382
g56
(g57
g58
NtRp4383
(dp4384
g61
(dp4385
g69
I3
ssg70
g4379
sg63
(lp4386
g3760
(S't\t\x00\x00\x00Resources'
tRp4387
asbasbasbag56
(g72
g58
NtRp4388
(dp4389
g61
(dp4390
sg70
g4371
sg63
(lp4391
g56
(g77
g58
NtRp4392
(dp4393
g61
(dp4394
sg70
g4388
sg63
(lp4395
g56
(g57
g58
NtRp4396
(dp4397
g61
(dp4398
g69
I3
ssg70
g4392
sg63
(lp4399
g981
asbasbasbag56
(g72
g58
NtRp4400
(dp4401
g61
(dp4402
sg70
g4371
sg63
(lp4403
g56
(g77
g58
NtRp4404
(dp4405
g61
(dp4406
sg70
g4400
sg63
(lp4407
g56
(g57
g58
NtRp4408
(dp4409
g61
(dp4410
g69
I3
ssg70
g4404
sg63
(lp4411
S'None'
p4412
asbasbasbag56
(g72
g58
NtRp4413
(dp4414
g61
(dp4415
sg70
g4371
sg63
(lp4416
g56
(g77
g58
NtRp4417
(dp4418
g61
(dp4419
sg70
g4413
sg63
(lp4420
g56
(g57
g58
NtRp4421
(dp4422
g61
(dp4423
g69
I3
ssg70
g4417
sg63
(lp4424
g56
(g65
g58
NtRp4425
(dp4426
g61
(dp4427
g69
I2
ssg70
Nsg63
(lp4428
g56
(g72
g58
NtRp4429
(dp4430
g61
(dp4431
sg70
g4425
sg63
(lp4432
g56
(g77
g58
NtRp4433
(dp4434
g61
(dp4435
sg70
g4429
sg63
(lp4436
g56
(g57
g58
NtRp4437
(dp4438
g61
(dp4439
g69
I2
ssg70
g4433
sg63
(lp4440
g56
(g65
g58
NtRp4441
(dp4442
g61
(dp4443
g69
I1
ssg70
Nsg63
(lp4444
g56
(g72
g58
NtRp4445
(dp4446
g61
(dp4447
sg70
g4441
sg63
(lp4448
g56
(g77
g58
NtRp4449
(dp4450
g61
(dp4451
sg70
g4445
sg63
(lp4452
g56
(g57
g58
NtRp4453
(dp4454
g61
(dp4455
g69
I1
ssg70
g4449
sg63
(lp4456
g3760
(S't\r\x00\x00\x00Documentation'
tRp4457
asbasbasbag56
(g72
g58
NtRp4458
(dp4459
g61
(dp4460
sg70
g4441
sg63
(lp4461
g56
(g77
g58
NtRp4462
(dp4463
g61
(dp4464
sg70
g4458
sg63
(lp4465
g56
(g57
g58
NtRp4466
(dp4467
g61
(dp4468
g69
I1
ssg70
g4462
sg63
(lp4469
I00
asbasbasbag56
(g72
g58
NtRp4470
(dp4471
g61
(dp4472
sg70
g4441
sg63
(lp4473
g56
(g77
g58
NtRp4474
(dp4475
g61
(dp4476
sg70
g4470
sg63
(lp4477
g56
(g57
g58
NtRp4478
(dp4479
g61
(dp4480
g69
I1
ssg70
g4474
sg63
(lp4481
S'http://www.web2py.com/book'
p4482
asbasbasbag56
(g72
g58
NtRp4483
(dp4484
g61
(dp4485
sg70
g4441
sg63
(lp4486
g56
(g77
g58
NtRp4487
(dp4488
g61
(dp4489
sg70
g4483
sg63
(lp4490
g56
(g57
g58
NtRp4491
(dp4492
g61
(dp4493
g69
I1
ssg70
g4487
sg63
(lp4494
(lp4495
(g3760
(S't\x07\x00\x00\x00Preface'
tRp4496
I00
S'http://www.web2py.com/book/default/chapter/00'
p4497
tp4498
a(g3760
(S't\x0c\x00\x00\x00Introduction'
tRp4499
I00
S'http://www.web2py.com/book/default/chapter/01'
p4500
tp4501
a(g3760
(S't\x06\x00\x00\x00Python'
tRp4502
I00
S'http://www.web2py.com/book/default/chapter/02'
p4503
tp4504
a(g3760
(S't\x08\x00\x00\x00Overview'
tRp4505
I00
S'http://www.web2py.com/book/default/chapter/03'
p4506
tp4507
a(g3760
(S's\x08\x00\x00\x00The Core'
tRp4508
I00
S'http://www.web2py.com/book/default/chapter/04'
p4509
tp4510
a(g3760
(S's\t\x00\x00\x00The Views'
tRp4511
I00
S'http://www.web2py.com/book/default/chapter/05'
p4512
tp4513
a(g3760
(S't\x08\x00\x00\x00Database'
tRp4514
I00
S'http://www.web2py.com/book/default/chapter/06'
p4515
tp4516
a(g3760
(S's\x14\x00\x00\x00Forms and Validators'
tRp4517
I00
S'http://www.web2py.com/book/default/chapter/07'
p4518
tp4519
a(g3760
(S's\x0e\x00\x00\x00Access Control'
tRp4520
I00
S'http://www.web2py.com/book/default/chapter/08'
p4521
tp4522
a(g3760
(S't\x08\x00\x00\x00Services'
tRp4523
I00
S'http://www.web2py.com/book/default/chapter/09'
p4524
tp4525
a(g3760
(S's\x0c\x00\x00\x00Ajax Recipes'
tRp4526
I00
S'http://www.web2py.com/book/default/chapter/10'
p4527
tp4528
a(g3760
(S's\x12\x00\x00\x00Deployment Recipes'
tRp4529
I00
S'http://www.web2py.com/book/default/chapter/11'
p4530
tp4531
a(g3760
(S's\r\x00\x00\x00Other Recipes'
tRp4532
I00
S'http://www.web2py.com/book/default/chapter/12'
p4533
tp4534
a(g3760
(S's\r\x00\x00\x00Buy this book'
tRp4535
I00
S'http://stores.lulu.com/web2py'
p4536
tp4537
aasbasbasbasbasbasbasbag56
(g72
g58
NtRp4538
(dp4539
g61
(dp4540
sg70
g4425
sg63
(lp4541
g56
(g77
g58
NtRp4542
(dp4543
g61
(dp4544
sg70
g4538
sg63
(lp4545
g56
(g57
g58
NtRp4546
(dp4547
g61
(dp4548
g69
I2
ssg70
g4542
sg63
(lp4549
g56
(g65
g58
NtRp4550
(dp4551
g61
(dp4552
g69
I1
ssg70
Nsg63
(lp4553
g56
(g72
g58
NtRp4554
(dp4555
g61
(dp4556
sg70
g4550
sg63
(lp4557
g56
(g77
g58
NtRp4558
(dp4559
g61
(dp4560
sg70
g4554
sg63
(lp4561
g56
(g57
g58
NtRp4562
(dp4563
g61
(dp4564
g69
I1
ssg70
g4558
sg63
(lp4565
g3760
(S't\t\x00\x00\x00Community'
tRp4566
asbasbasbag56
(g72
g58
NtRp4567
(dp4568
g61
(dp4569
sg70
g4550
sg63
(lp4570
g56
(g77
g58
NtRp4571
(dp4572
g61
(dp4573
sg70
g4567
sg63
(lp4574
g56
(g57
g58
NtRp4575
(dp4576
g61
(dp4577
g69
I1
ssg70
g4571
sg63
(lp4578
I00
asbasbasbag56
(g72
g58
NtRp4579
(dp4580
g61
(dp4581
sg70
g4550
sg63
(lp4582
g56
(g77
g58
NtRp4583
(dp4584
g61
(dp4585
sg70
g4579
sg63
(lp4586
g56
(g57
g58
NtRp4587
(dp4588
g61
(dp4589
g69
I1
ssg70
g4583
sg63
(lp4590
Nasbasbasbag56
(g72
g58
NtRp4591
(dp4592
g61
(dp4593
sg70
g4550
sg63
(lp4594
g56
(g77
g58
NtRp4595
(dp4596
g61
(dp4597
sg70
g4591
sg63
(lp4598
g56
(g57
g58
NtRp4599
(dp4600
g61
(dp4601
g69
I1
ssg70
g4595
sg63
(lp4602
(lp4603
(g3760
(S't\x06\x00\x00\x00Groups'
tRp4604
I00
S'http://www.web2py.com/examples/default/usergroups'
p4605
tp4606
a(g3760
(S't\x07\x00\x00\x00Twitter'
tRp4607
I00
S'http://twitter.com/web2py'
p4608
tp4609
a(g3760
(S's\t\x00\x00\x00Live chat'
tRp4610
I00
S'http://mibbit.com/?channel=%23web2py&server=irc.mibbit.net'
p4611
tp4612
a(g3760
(S's\n\x00\x00\x00User Voice'
tRp4613
I00
S'http://web2py.uservoice.com/'
p4614
tp4615
aasbasbasbasbasbasbasbag56
(g72
g58
NtRp4616
(dp4617
g61
(dp4618
sg70
g4425
sg63
(lp4619
g56
(g77
g58
NtRp4620
(dp4621
g61
(dp4622
sg70
g4616
sg63
(lp4623
g56
(g57
g58
NtRp4624
(dp4625
g61
(dp4626
g69
I2
ssg70
g4620
sg63
(lp4627
g56
(g65
g58
NtRp4628
(dp4629
g61
(dp4630
g69
I1
ssg70
Nsg63
(lp4631
g56
(g72
g58
NtRp4632
(dp4633
g61
(dp4634
sg70
g4628
sg63
(lp4635
g56
(g77
g58
NtRp4636
(dp4637
g61
(dp4638
sg70
g4632
sg63
(lp4639
g56
(g57
g58
NtRp4640
(dp4641
g61
(dp4642
g69
I1
ssg70
g4636
sg63
(lp4643
g3760
(S't\x06\x00\x00\x00Web2py'
tRp4644
asbasbasbag56
(g72
g58
NtRp4645
(dp4646
g61
(dp4647
sg70
g4628
sg63
(lp4648
g56
(g77
g58
NtRp4649
(dp4650
g61
(dp4651
sg70
g4645
sg63
(lp4652
g56
(g57
g58
NtRp4653
(dp4654
g61
(dp4655
g69
I1
ssg70
g4649
sg63
(lp4656
I00
asbasbasbag56
(g72
g58
NtRp4657
(dp4658
g61
(dp4659
sg70
g4628
sg63
(lp4660
g56
(g77
g58
NtRp4661
(dp4662
g61
(dp4663
sg70
g4657
sg63
(lp4664
g56
(g57
g58
NtRp4665
(dp4666
g61
(dp4667
g69
I1
ssg70
g4661
sg63
(lp4668
S'http://www.web2py.com'
p4669
asbasbasbag56
(g72
g58
NtRp4670
(dp4671
g61
(dp4672
sg70
g4628
sg63
(lp4673
g56
(g77
g58
NtRp4674
(dp4675
g61
(dp4676
sg70
g4670
sg63
(lp4677
g56
(g57
g58
NtRp4678
(dp4679
g61
(dp4680
g69
I1
ssg70
g4674
sg63
(lp4681
(lp4682
(g3760
(S't\x08\x00\x00\x00Download'
tRp4683
I00
S'http://www.web2py.com/examples/default/download'
p4684
tp4685
a(g3760
(S't\x07\x00\x00\x00Support'
tRp4686
I00
S'http://www.web2py.com/examples/default/support'
p4687
tp4688
a(g3760
(S's\x0e\x00\x00\x00Quick Examples'
tRp4689
I00
S'http://web2py.com/examples/default/examples'
p4690
tp4691
a(g3760
(S't\x03\x00\x00\x00FAQ'
tRp4692
I00
S'http://web2py.com/AlterEgo'
p4693
tp4694
a(g3760
(S's\x11\x00\x00\x00Free Applications'
tRp4695
I00
S'http://web2py.com/appliances'
p4696
tp4697
a(g3760
(S't\x07\x00\x00\x00Plugins'
tRp4698
I00
S'http://web2py.com/plugins'
p4699
tp4700
a(g3760
(S't\x07\x00\x00\x00Recipes'
tRp4701
I00
S'http://web2pyslices.com/'
p4702
tp4703
a(g3760
(S't\x04\x00\x00\x00Demo'
tRp4704
I00
S'http://web2py.com/demo_admin'
p4705
tp4706
a(g3760
(S't\x08\x00\x00\x00Semantic'
tRp4707
I00
S'http://web2py.com/semantic'
p4708
tp4709
a(g3760
(S't\x07\x00\x00\x00Layouts'
tRp4710
I00
S'http://web2py.com/layouts'
p4711
tp4712
a(g3760
(S't\x06\x00\x00\x00Videos'
tRp4713
I00
S'http://www.web2py.com/examples/default/videos/'
p4714
tp4715
aasbasbasbasbasbasbasbasbasbasbasbasbasbasbasbasbasbasbasbag56
(g72
g58
NtRp4716
(dp4717
g61
(dp4718
sg70
g3255
sg63
(lp4719
g56
(g77
g58
NtRp4720
(dp4721
g61
(dp4722
g81
g82
ssg70
g4716
sg63
(lp4723
S'meta'
p4724
asbag56
(g77
g58
NtRp4725
(dp4726
g61
(dp4727
g88
g89
ssg70
g4716
sg63
(lp4728
S':'
asbag56
(g77
g58
NtRp4729
(dp4730
g61
(dp4731
sg70
g4716
sg63
(lp4732
g56
(g57
g58
NtRp4733
(dp4734
g61
(dp4735
g69
I5
ssg70
g4729
sg63
(lp4736
g56
(g65
g58
NtRp4737
(dp4738
g61
(dp4739
g69
I4
ssg70
Nsg63
(lp4740
g56
(g72
g58
NtRp4741
(dp4742
g61
(dp4743
sg70
g4737
sg63
(lp4744
g56
(g77
g58
NtRp4745
(dp4746
g61
(dp4747
g81
g82
ssg70
g4741
sg63
(lp4748
S'author'
p4749
asbag56
(g77
g58
NtRp4750
(dp4751
g61
(dp4752
g88
g89
ssg70
g4741
sg63
(lp4753
S':'
asbag56
(g77
g58
NtRp4754
(dp4755
g61
(dp4756
sg70
g4741
sg63
(lp4757
g56
(g57
g58
NtRp4758
(dp4759
g61
(dp4760
g69
I4
ssg70
g4754
sg63
(lp4761
S'Your Name <you@example.com>'
p4762
asbasbasbag56
(g72
g58
NtRp4763
(dp4764
g61
(dp4765
sg70
g4737
sg63
(lp4766
g56
(g77
g58
NtRp4767
(dp4768
g61
(dp4769
g81
g82
ssg70
g4763
sg63
(lp4770
S'copyright'
p4771
asbag56
(g77
g58
NtRp4772
(dp4773
g61
(dp4774
g88
g89
ssg70
g4763
sg63
(lp4775
S':'
asbag56
(g77
g58
NtRp4776
(dp4777
g61
(dp4778
sg70
g4763
sg63
(lp4779
g56
(g57
g58
NtRp4780
(dp4781
g61
(dp4782
g69
I4
ssg70
g4776
sg63
(lp4783
S'Copyright 2011'
p4784
asbasbasbag56
(g72
g58
NtRp4785
(dp4786
g61
(dp4787
sg70
g4737
sg63
(lp4788
g56
(g77
g58
NtRp4789
(dp4790
g61
(dp4791
g81
g82
ssg70
g4785
sg63
(lp4792
S'description'
p4793
asbag56
(g77
g58
NtRp4794
(dp4795
g61
(dp4796
g88
g89
ssg70
g4785
sg63
(lp4797
S':'
asbag56
(g77
g58
NtRp4798
(dp4799
g61
(dp4800
sg70
g4785
sg63
(lp4801
g56
(g57
g58
NtRp4802
(dp4803
g61
(dp4804
g69
I4
ssg70
g4798
sg63
(lp4805
S'a cool new app'
p4806
asbasbasbag56
(g72
g58
NtRp4807
(dp4808
g61
(dp4809
sg70
g4737
sg63
(lp4810
g56
(g77
g58
NtRp4811
(dp4812
g61
(dp4813
g81
g82
ssg70
g4807
sg63
(lp4814
S'generator'
p4815
asbag56
(g77
g58
NtRp4816
(dp4817
g61
(dp4818
g88
g89
ssg70
g4807
sg63
(lp4819
S':'
asbag56
(g77
g58
NtRp4820
(dp4821
g61
(dp4822
sg70
g4807
sg63
(lp4823
g56
(g57
g58
NtRp4824
(dp4825
g61
(dp4826
g69
I4
ssg70
g4820
sg63
(lp4827
S'Web2py Web Framework'
p4828
asbasbasbag56
(g72
g58
NtRp4829
(dp4830
g61
(dp4831
sg70
g4737
sg63
(lp4832
g56
(g77
g58
NtRp4833
(dp4834
g61
(dp4835
g81
g82
ssg70
g4829
sg63
(lp4836
S'keywords'
p4837
asbag56
(g77
g58
NtRp4838
(dp4839
g61
(dp4840
g88
g89
ssg70
g4829
sg63
(lp4841
S':'
asbag56
(g77
g58
NtRp4842
(dp4843
g61
(dp4844
sg70
g4829
sg63
(lp4845
g56
(g57
g58
NtRp4846
(dp4847
g61
(dp4848
g69
I4
ssg70
g4842
sg63
(lp4849
S'web2py, python, framework'
p4850
asbasbasbasbasbasbasbag56
(g72
g58
NtRp4851
(dp4852
g61
(dp4853
sg70
g3255
sg63
(lp4854
g56
(g77
g58
NtRp4855
(dp4856
g61
(dp4857
g81
g82
ssg70
g4851
sg63
(lp4858
S'postprocessing'
p4859
asbag56
(g77
g58
NtRp4860
(dp4861
g61
(dp4862
g88
g89
ssg70
g4851
sg63
(lp4863
S':'
asbag56
(g77
g58
NtRp4864
(dp4865
g61
(dp4866
sg70
g4851
sg63
(lp4867
g56
(g57
g58
NtRp4868
(dp4869
g61
(dp4870
g69
I5
ssg70
g4864
sg63
(lp4871
g56
(g65
g58
NtRp4872
(dp4873
g61
(dp4874
g69
I4
ssg70
Nsg63
(lp4875
sbasbasbasbag56
(g72
g58
NtRp4876
(dp4877
g61
(dp4878
sg70
g3255
sg63
(lp4879
g56
(g77
g58
NtRp4880
(dp4881
g61
(dp4882
g81
g82
ssg70
g4876
sg63
(lp4883
S'session_file'
p4884
asbag56
(g77
g58
NtRp4885
(dp4886
g61
(dp4887
g88
g89
ssg70
g4876
sg63
(lp4888
S':'
asbag56
(g77
g58
NtRp4889
(dp4890
g61
(dp4891
sg70
g4876
sg63
(lp4892
g56
(g57
g58
NtRp4893
(dp4894
g61
(dp4895
g69
I5
ssg70
g4889
sg63
(lp4896
S"<open file '/home/ian/web2py/applications/places/sessions/127.0.0.1-9bd70a00-d029-4b6e-8bcc-a423c3a61399', mode 'rb+' at 0x318ded0>"
p4897
asbasbasbag56
(g72
g58
NtRp4898
(dp4899
g61
(dp4900
sg70
g3255
sg63
(lp4901
g56
(g77
g58
NtRp4902
(dp4903
g61
(dp4904
g81
g82
ssg70
g4898
sg63
(lp4905
S'session_filename'
p4906
asbag56
(g77
g58
NtRp4907
(dp4908
g61
(dp4909
g88
g89
ssg70
g4898
sg63
(lp4910
S':'
asbag56
(g77
g58
NtRp4911
(dp4912
g61
(dp4913
sg70
g4898
sg63
(lp4914
g56
(g57
g58
NtRp4915
(dp4916
g61
(dp4917
g69
I5
ssg70
g4911
sg63
(lp4918
S'/home/ian/web2py/applications/places/sessions/127.0.0.1-9bd70a00-d029-4b6e-8bcc-a423c3a61399'
p4919
asbasbasbag56
(g72
g58
NtRp4920
(dp4921
g61
(dp4922
sg70
g3255
sg63
(lp4923
g56
(g77
g58
NtRp4924
(dp4925
g61
(dp4926
g81
g82
ssg70
g4920
sg63
(lp4927
S'session_id'
p4928
asbag56
(g77
g58
NtRp4929
(dp4930
g61
(dp4931
g88
g89
ssg70
g4920
sg63
(lp4932
S':'
asbag56
(g77
g58
NtRp4933
(dp4934
g61
(dp4935
sg70
g4920
sg63
(lp4936
g56
(g57
g58
NtRp4937
(dp4938
g61
(dp4939
g69
I5
ssg70
g4933
sg63
(lp4940
S'127.0.0.1-9bd70a00-d029-4b6e-8bcc-a423c3a61399'
p4941
asbasbasbag56
(g72
g58
NtRp4942
(dp4943
g61
(dp4944
sg70
g3255
sg63
(lp4945
g56
(g77
g58
NtRp4946
(dp4947
g61
(dp4948
g81
g82
ssg70
g4942
sg63
(lp4949
S'session_id_name'
p4950
asbag56
(g77
g58
NtRp4951
(dp4952
g61
(dp4953
g88
g89
ssg70
g4942
sg63
(lp4954
S':'
asbag56
(g77
g58
NtRp4955
(dp4956
g61
(dp4957
sg70
g4942
sg63
(lp4958
g56
(g57
g58
NtRp4959
(dp4960
g61
(dp4961
g69
I5
ssg70
g4955
sg63
(lp4962
g3312
asbasbasbag56
(g72
g58
NtRp4963
(dp4964
g61
(dp4965
sg70
g3255
sg63
(lp4966
g56
(g77
g58
NtRp4967
(dp4968
g61
(dp4969
g81
g82
ssg70
g4963
sg63
(lp4970
S'session_locked'
p4971
asbag56
(g77
g58
NtRp4972
(dp4973
g61
(dp4974
g88
g89
ssg70
g4963
sg63
(lp4975
S':'
asbag56
(g77
g58
NtRp4976
(dp4977
g61
(dp4978
sg70
g4963
sg63
(lp4979
g56
(g57
g58
NtRp4980
(dp4981
g61
(dp4982
g69
I5
ssg70
g4976
sg63
(lp4983
g99
asbasbasbag56
(g72
g58
NtRp4984
(dp4985
g61
(dp4986
sg70
g3255
sg63
(lp4987
g56
(g77
g58
NtRp4988
(dp4989
g61
(dp4990
g81
g82
ssg70
g4984
sg63
(lp4991
S'session_new'
p4992
asbag56
(g77
g58
NtRp4993
(dp4994
g61
(dp4995
g88
g89
ssg70
g4984
sg63
(lp4996
S':'
asbag56
(g77
g58
NtRp4997
(dp4998
g61
(dp4999
sg70
g4984
sg63
(lp5000
g56
(g57
g58
NtRp5001
(dp5002
g61
(dp5003
g69
I5
ssg70
g4997
sg63
(lp5004
g981
asbasbasbag56
(g72
g58
NtRp5005
(dp5006
g61
(dp5007
sg70
g3255
sg63
(lp5008
g56
(g77
g58
NtRp5009
(dp5010
g61
(dp5011
g81
g82
ssg70
g5005
sg63
(lp5012
S'status'
p5013
asbag56
(g77
g58
NtRp5014
(dp5015
g61
(dp5016
g88
g89
ssg70
g5005
sg63
(lp5017
S':'
asbag56
(g77
g58
NtRp5018
(dp5019
g61
(dp5020
sg70
g5005
sg63
(lp5021
g56
(g57
g58
NtRp5022
(dp5023
g61
(dp5024
g69
I5
ssg70
g5018
sg63
(lp5025
S'200'
p5026
asbasbasbag56
(g72
g58
NtRp5027
(dp5028
g61
(dp5029
sg70
g3255
sg63
(lp5030
g56
(g77
g58
NtRp5031
(dp5032
g61
(dp5033
g81
g82
ssg70
g5027
sg63
(lp5034
S'subtitle'
p5035
asbag56
(g77
g58
NtRp5036
(dp5037
g61
(dp5038
g88
g89
ssg70
g5027
sg63
(lp5039
S':'
asbag56
(g77
g58
NtRp5040
(dp5041
g61
(dp5042
sg70
g5027
sg63
(lp5043
g56
(g57
g58
NtRp5044
(dp5045
g61
(dp5046
g69
I5
ssg70
g5040
sg63
(lp5047
g3760
(S's\r\x00\x00\x00customize me!'
tRp5048
asbasbasbag56
(g72
g58
NtRp5049
(dp5050
g61
(dp5051
sg70
g3255
sg63
(lp5052
g56
(g77
g58
NtRp5053
(dp5054
g61
(dp5055
g81
g82
ssg70
g5049
sg63
(lp5056
S'title'
p5057
asbag56
(g77
g58
NtRp5058
(dp5059
g61
(dp5060
g88
g89
ssg70
g5049
sg63
(lp5061
S':'
asbag56
(g77
g58
NtRp5062
(dp5063
g61
(dp5064
sg70
g5049
sg63
(lp5065
g56
(g57
g58
NtRp5066
(dp5067
g61
(dp5068
g69
I5
ssg70
g5062
sg63
(lp5069
g121
asbasbasbag56
(g72
g58
NtRp5070
(dp5071
g61
(dp5072
sg70
g3255
sg63
(lp5073
g56
(g77
g58
NtRp5074
(dp5075
g61
(dp5076
g81
g82
ssg70
g5070
sg63
(lp5077
g2408
asbag56
(g77
g58
NtRp5078
(dp5079
g61
(dp5080
g88
g89
ssg70
g5070
sg63
(lp5081
S':'
asbag56
(g77
g58
NtRp5082
(dp5083
g61
(dp5084
sg70
g5070
sg63
(lp5085
g56
(g57
g58
NtRp5086
(dp5087
g61
(dp5088
g69
I5
ssg70
g5082
sg63
(lp5089
g2421
asbasbasbag56
(g72
g58
NtRp5090
(dp5091
g61
(dp5092
sg70
g3255
sg63
(lp5093
g56
(g77
g58
NtRp5094
(dp5095
g61
(dp5096
g81
g82
ssg70
g5090
sg63
(lp5097
S'view'
p5098
asbag56
(g77
g58
NtRp5099
(dp5100
g61
(dp5101
g88
g89
ssg70
g5090
sg63
(lp5102
S':'
asbag56
(g77
g58
NtRp5103
(dp5104
g61
(dp5105
sg70
g5090
sg63
(lp5106
g56
(g57
g58
NtRp5107
(dp5108
g61
(dp5109
g69
I5
ssg70
g5103
sg63
(lp5110
S'default/create.load'
p5111
asbasbasbasbasbsS'locals'
p5112
(dp5113
S'Service'
p5114
S"<class 'gluon.tools.Service'>"
p5115
sS'OBJECT'
p5116
S"<class 'gluon.html.OBJECT'>"
p5117
sS'SQLDB'
p5118
S"<class 'gluon.dal.DAL'>"
p5119
sg3171
S"<Storage {'current': 'kitchen', 'current_view': ...xdd\\x19^D\\xd4\\xd5,#\\x08', 'the_view': 'kitchen'}>"
p5120
sS'LINK'
p5121
S"<class 'gluon.html.LINK'>"
p5122
sS'BR'
p5123
S"<class 'gluon.html.BR'>"
p5124
sS'local_import'
p5125
S'<function <lambda>>'
p5126
sS'OPTGROUP'
p5127
S"<class 'gluon.html.OPTGROUP'>"
p5128
sS'PRE'
p5129
S"<class 'gluon.html.PRE'>"
p5130
sS'IS_INT_IN_RANGE'
p5131
S"<class 'gluon.validators.IS_INT_IN_RANGE'>"
p5132
sS'IS_LOWER'
p5133
S"<class 'gluon.validators.IS_LOWER'>"
p5134
sS'IS_STRONG'
p5135
S"<class 'gluon.validators.IS_STRONG'>"
p5136
sS'cache'
p5137
S'<gluon.cache.Cache object>'
p5138
sS'IS_IN_DB'
p5139
S"<class 'gluon.validators.IS_IN_DB'>"
p5140
sS'TAG'
p5141
S'<gluon.html.__TAG__ object>'
p5142
sS'SQLField'
p5143
S"<class 'gluon.dal.Field'>"
p5144
sS'mail'
p5145
S'<gluon.tools.Mail object>'
p5146
sS'BODY'
p5147
S"<class 'gluon.html.BODY'>"
p5148
sS'IS_DATE_IN_RANGE'
p5149
S"<class 'gluon.validators.IS_DATE_IN_RANGE'>"
p5150
sS'TH'
p5151
S"<class 'gluon.html.TH'>"
p5152
sS'URL'
p5153
S'<function URL>'
p5154
sS'__file__'
p5155
S"'/home/ian/web2py/applications/places/views/default/create.load'"
p5156
sS'db'
p5157
S"<DAL {'auth_event': <Table {'origin': <gluon.dal..., 'id': <gluon.dal.Field object at 0x3fed250>}>}>"
p5158
sS'auth'
p5159
S'<gluon.tools.Auth object>'
p5160
sS'P'
S"<class 'gluon.html.P'>"
p5161
sS'TFOOT'
p5162
S"<class 'gluon.html.TFOOT'>"
p5163
sS'XHTML'
p5164
S"<class 'gluon.html.XHTML'>"
p5165
sS'ON'
p5166
g99
sS'OL'
p5167
S"<class 'gluon.html.OL'>"
p5168
sS'TEXTAREA'
p5169
S"<class 'gluon.html.TEXTAREA'>"
p5170
sS'MENU'
p5171
S"<class 'gluon.html.MENU'>"
p5172
sS'LOAD'
p5173
S'<gluon.compileapp.LoadFactory object>'
p5174
sS'CODE'
p5175
S"<class 'gluon.html.CODE'>"
p5176
sS'HTTP'
p5177
S"<class 'gluon.http.HTTP'>"
p5178
sS'HR'
p5179
S"<class 'gluon.html.HR'>"
p5180
sS'IS_DATETIME'
p5181
S"<class 'gluon.validators.IS_DATETIME'>"
p5182
sS'HEAD'
p5183
S"<class 'gluon.html.HEAD'>"
p5184
sS'LABEL'
p5185
S"<class 'gluon.html.LABEL'>"
p5186
sS'CLEANUP'
p5187
S"<class 'gluon.validators.CLEANUP'>"
p5188
sS'plugins'
p5189
S'<gluon.tools.PluginManager object>'
p5190
sS'SELECT'
p5191
S"<class 'gluon.html.SELECT'>"
p5192
sS'closer'
p5193
S'<gluon.html.A object>'
p5194
sS'use_janrain'
p5195
S'<function use_janrain>'
p5196
sS'CENTER'
p5197
S"<class 'gluon.html.CENTER'>"
p5198
sS'prettydate'
p5199
S'<function prettydate>'
p5200
sS'Crud'
p5201
S"<class 'gluon.tools.Crud'>"
p5202
sS'Auth'
p5203
S"<class 'gluon.tools.Auth'>"
p5204
sS'__builtins__'
p5205
S"{'ArithmeticError': <type 'exceptions.ArithmeticError'>, 'AssertionError': <type 'exceptions.AssertionError'>, 'AttributeError': <type 'exceptions.AttributeError'>, 'BaseException': <type 'exceptions.BaseException'>, 'BufferError': <type 'exceptions.BufferError'>, 'BytesWarning': <type 'exceptions.BytesWarning'>, 'DeprecationWarning': <type 'exceptions.DeprecationWarning'>, 'EOFError': <type 'exceptions.EOFError'>, 'Ellipsis': Ellipsis, 'EnvironmentError': <type 'exceptions.EnvironmentError'>, ...}"
p5206
sS'HTML'
p5207
S"<class 'gluon.html.HTML'>"
p5208
sS'SQLFORM'
p5209
S"<class 'gluon.sqlhtml.SQLFORM'>"
p5210
sS'EM'
p5211
S"<class 'gluon.html.EM'>"
p5212
sS'redirect'
p5213
S'<function redirect>'
p5214
sS'FIELDSET'
p5215
S"<class 'gluon.html.FIELDSET'>"
p5216
sS'IS_EQUAL_TO'
p5217
S"<class 'gluon.validators.IS_EQUAL_TO'>"
p5218
sS'embed64'
p5219
S'<function embed64>'
p5220
sS'IS_LIST_OF'
p5221
S"<class 'gluon.validators.IS_LIST_OF'>"
p5222
sS'INPUT'
p5223
S"<class 'gluon.html.INPUT'>"
p5224
sS'EMBED'
p5225
S"<class 'gluon.html.EMBED'>"
p5226
sS'_'
S'<function _>'
p5227
sS'FORM'
p5228
S"<class 'gluon.html.FORM'>"
p5229
sS'H2'
p5230
S"<class 'gluon.html.H2'>"
p5231
sS'H3'
p5232
S"<class 'gluon.html.H3'>"
p5233
sS'BUTTON'
p5234
S"<class 'gluon.html.BUTTON'>"
p5235
sS'H1'
p5236
S"<class 'gluon.html.H1'>"
p5237
sS'H6'
p5238
S"<class 'gluon.html.H6'>"
p5239
sS'H4'
p5240
S"<class 'gluon.html.H4'>"
p5241
sS'H5'
p5242
S"<class 'gluon.html.H5'>"
p5243
sS'UL'
p5244
S"<class 'gluon.html.UL'>"
p5245
sS'IS_UPPER'
p5246
S"<class 'gluon.validators.IS_UPPER'>"
p5247
sS'xmlescape'
p5248
S'<function xmlescape>'
p5249
sS'IS_TIME'
p5250
S"<class 'gluon.validators.IS_TIME'>"
p5251
sS'OPTION'
p5252
S"<class 'gluon.html.OPTION'>"
p5253
sS'TITLE'
p5254
S"<class 'gluon.html.TITLE'>"
p5255
sS'CRYPT'
p5256
S"<class 'gluon.validators.CRYPT'>"
p5257
sS'IS_EMPTY_OR'
p5258
S"<class 'gluon.validators.IS_EMPTY_OR'>"
p5259
sS'MARKMIN'
p5260
S"<class 'gluon.html.MARKMIN'>"
p5261
sS'COL'
p5262
S"<class 'gluon.html.COL'>"
p5263
sS'service'
p5264
S'<gluon.tools.Service object>'
p5265
sS'SCRIPT'
p5266
S"<class 'gluon.html.SCRIPT'>"
p5267
sS'TABLE'
p5268
S"<class 'gluon.html.TABLE'>"
p5269
sS'IS_IPV4'
p5270
S"<class 'gluon.validators.IS_IPV4'>"
p5271
sS'IS_LENGTH'
p5272
S"<class 'gluon.validators.IS_LENGTH'>"
p5273
sS'XML'
p5274
S"<class 'gluon.html.XML'>"
p5275
sS'B'
S"<class 'gluon.html.B'>"
p5276
sS'form'
p5277
S'<gluon.sqlhtml.SQLFORM object>'
p5278
sS'SQLTABLE'
p5279
S"<class 'gluon.sqlhtml.SQLTABLE'>"
p5280
sS'IS_MATCH'
p5281
S"<class 'gluon.validators.IS_MATCH'>"
p5282
sS'IS_ALPHANUMERIC'
p5283
S"<class 'gluon.validators.IS_ALPHANUMERIC'>"
p5284
sS'the_title'
p5285
S'<gluon.html.H3 object>'
p5286
sS'SPAN'
p5287
S"<class 'gluon.html.SPAN'>"
p5288
sS'IS_SLUG'
p5289
S"<class 'gluon.validators.IS_SLUG'>"
p5290
sS'BEAUTIFY'
p5291
S"<class 'gluon.html.BEAUTIFY'>"
p5292
sS'META'
p5293
S"<class 'gluon.html.META'>"
p5294
sS'IS_DATE'
p5295
S"<class 'gluon.validators.IS_DATE'>"
p5296
sS'IS_EMAIL'
p5297
S"<class 'gluon.validators.IS_EMAIL'>"
p5298
sS'IS_NOT_EMPTY'
p5299
S"<class 'gluon.validators.IS_NOT_EMPTY'>"
p5300
sS'IS_FLOAT_IN_RANGE'
p5301
S"<class 'gluon.validators.IS_FLOAT_IN_RANGE'>"
p5302
sS'TBODY'
p5303
S"<class 'gluon.html.TBODY'>"
p5304
sS'CAT'
p5305
S"<class 'gluon.html.CAT'>"
p5306
sS'Field'
p5307
S"<class 'gluon.dal.Field'>"
p5308
sS'DIV'
p5309
S"<class 'gluon.html.DIV'>"
p5310
sS'LEGEND'
p5311
S"<class 'gluon.html.LEGEND'>"
p5312
sS'IMG'
p5313
S"<class 'gluon.html.IMG'>"
p5314
sS'COLGROUP'
p5315
S"<class 'gluon.html.COLGROUP'>"
p5316
sS'DAL'
p5317
S"<class 'gluon.dal.DAL'>"
p5318
sS'TT'
p5319
S"<class 'gluon.html.TT'>"
p5320
sS'TR'
p5321
S"<class 'gluon.html.TR'>"
p5322
sS'LI'
p5323
S"<class 'gluon.html.LI'>"
p5324
sS'IFRAME'
p5325
S"<class 'gluon.html.IFRAME'>"
p5326
sS'TD'
p5327
S"<class 'gluon.html.TD'>"
p5328
sS'PluginManager'
p5329
S"<class 'gluon.tools.PluginManager'>"
p5330
sS'IS_URL'
p5331
S"<class 'gluon.validators.IS_URL'>"
p5332
sS'A'
S"<class 'gluon.html.A'>"
p5333
sS'STYLE'
p5334
S"<class 'gluon.html.STYLE'>"
p5335
sS'IS_DATETIME_IN_RANGE'
p5336
S"<class 'gluon.validators.IS_DATETIME_IN_RANGE'>"
p5337
sS'IS_IMAGE'
p5338
S"<class 'gluon.validators.IS_IMAGE'>"
p5339
sS'I'
S"<class 'gluon.html.I'>"
p5340
sS'crud'
p5341
S'<gluon.tools.Crud object>'
p5342
sS'IS_NOT_IN_DB'
p5343
S"<class 'gluon.validators.IS_NOT_IN_DB'>"
p5344
sg3250
S"<Storage {'body': <cStringIO.StringO object at 0...a> at 0x3ec6b90>, 'view': 'default/create.load'}>"
p5345
sS'THEAD'
p5346
S"<class 'gluon.html.THEAD'>"
p5347
sS'IS_NULL_OR'
p5348
S"<class 'gluon.validators.IS_EMPTY_OR'>"
p5349
sg55
S"<Storage {'body': <cStringIO.StringO object at 0..._vars': <Storage {}>, 'post_vars': <Storage {}>}>"
p5350
sS'IS_EXPR'
p5351
S"<class 'gluon.validators.IS_EXPR'>"
p5352
sS'T'
S'<gluon.languages.translator object>'
p5353
sS'IS_IN_SET'
p5354
S"<class 'gluon.validators.IS_IN_SET'>"
p5355
sS'IS_UPLOAD_FILENAME'
p5356
S"<class 'gluon.validators.IS_UPLOAD_FILENAME'>"
p5357
sS'IS_DECIMAL_IN_RANGE'
p5358
S"<class 'gluon.validators.IS_DECIMAL_IN_RANGE'>"
p5359
sssS'traceback'
p5360
S'Traceback (most recent call last):\n  File "/home/ian/web2py/gluon/restricted.py", line 194, in restricted\n    exec ccode in environment\n  File "/home/ian/web2py/applications/places/views/default/create.load", line 3, in <module>\n    {{=form}}\nNameError: name \'title\' is not defined\n'
p5361
s.