(dp1
S'output'
p2
S''
sS'layer'
p3
S'/home/ian/web2py/applications/places/views/default/index.load'
p4
sS'code'
p5
S"for link in links:\n    response.write('\\n', escape=False)\n    response.write(LI(A(link.link_name, _href=link.link_url), A('edit', _href=URL('edit.load', args=[link.id]), cid='modal_frame'))\n    response.write('\\n', escape=False)\n    pass\nresponse.write('\\n\\n', escape=False)\n#=BEAUTIFY(response._vars)\nresponse.write('\\n', escape=False)"
p6
sS'snapshot'
p7
(dp8
S'exception'
p9
(dp10
S'__getslice__'
p11
S"<method-wrapper '__getslice__' of exceptions.SyntaxError object>"
p12
sS'text'
p13
S'"    response.write(\'\\\\n\', escape=False)\\n"'
p14
sS'__str__'
p15
S"<method-wrapper '__str__' of exceptions.SyntaxError object>"
p16
sS'__reduce__'
p17
S'<built-in method __reduce__ of exceptions.SyntaxError object>'
p18
sS'__dict__'
p19
S'{}'
p20
sS'__sizeof__'
p21
S'<built-in method __sizeof__ of exceptions.SyntaxError object>'
p22
sS'__init__'
p23
S"<method-wrapper '__init__' of exceptions.SyntaxError object>"
p24
sS'__setattr__'
p25
S"<method-wrapper '__setattr__' of exceptions.SyntaxError object>"
p26
sS'__reduce_ex__'
p27
S'<built-in method __reduce_ex__ of exceptions.SyntaxError object>'
p28
sS'__new__'
p29
S'<built-in method __new__ of type object>'
p30
sS'__format__'
p31
S'<built-in method __format__ of exceptions.SyntaxError object>'
p32
sS'__class__'
p33
S"<type 'exceptions.SyntaxError'>"
p34
sS'filename'
p35
S"'/home/ian/web2py/applications/places/views/default/index.load'"
p36
sS'lineno'
p37
S'4'
sS'msg'
p38
S"'invalid syntax'"
p39
sS'__doc__'
p40
S"'Invalid syntax.'"
p41
sS'__getitem__'
p42
S"<method-wrapper '__getitem__' of exceptions.SyntaxError object>"
p43
sS'__setstate__'
p44
S'<built-in method __setstate__ of exceptions.SyntaxError object>'
p45
sS'__getattribute__'
p46
S"<method-wrapper '__getattribute__' of exceptions.SyntaxError object>"
p47
sS'print_file_and_line'
p48
S'None'
p49
sS'args'
p50
S'(\'invalid syntax\', (\'/home/ian/web2py/applications/places/views/default/index.load\', 4, 12, "    response.write(\'\\\\n\', escape=False)\\n"))'
p51
sS'__subclasshook__'
p52
S'<built-in method __subclasshook__ of type object>'
p53
sS'offset'
p54
S'12'
p55
sS'__unicode__'
p56
S'<built-in method __unicode__ of exceptions.SyntaxError object>'
p57
sS'__delattr__'
p58
S"<method-wrapper '__delattr__' of exceptions.SyntaxError object>"
p59
sS'__repr__'
p60
S"<method-wrapper '__repr__' of exceptions.SyntaxError object>"
p61
sS'__hash__'
p62
S"<method-wrapper '__hash__' of exceptions.SyntaxError object>"
p63
ssS'evalue'
p64
S'invalid syntax (index.load, line 4)'
p65
sS'request'
p66
ccopy_reg
_reconstructor
p67
(cgluon.html
BEAUTIFY
p68
c__builtin__
object
p69
NtRp70
(dp71
S'attributes'
p72
(dp73
sS'components'
p74
(lp75
g67
(cgluon.html
TABLE
p76
g69
NtRp77
(dp78
g72
(dp79
S'level'
p80
I5
ssS'parent'
p81
Nsg74
(lp82
g67
(cgluon.html
TR
p83
g69
NtRp84
(dp85
g72
(dp86
sg81
g77
sg74
(lp87
g67
(cgluon.html
TD
p88
g69
NtRp89
(dp90
g72
(dp91
S'_style'
p92
S'font-weight:bold;'
p93
ssg81
g84
sg74
(lp94
S'ajax'
p95
asbag67
(g88
g69
NtRp96
(dp97
g72
(dp98
S'_valign'
p99
S'top'
p100
ssg81
g84
sg74
(lp101
S':'
asbag67
(g88
g69
NtRp102
(dp103
g72
(dp104
sg81
g84
sg74
(lp105
g67
(g68
g69
NtRp106
(dp107
g72
(dp108
g80
I5
ssg81
g102
sg74
(lp109
S'True'
p110
asbasbasbag67
(g83
g69
NtRp111
(dp112
g72
(dp113
sg81
g77
sg74
(lp114
g67
(g88
g69
NtRp115
(dp116
g72
(dp117
g92
g93
ssg81
g111
sg74
(lp118
S'application'
p119
asbag67
(g88
g69
NtRp120
(dp121
g72
(dp122
g99
g100
ssg81
g111
sg74
(lp123
S':'
asbag67
(g88
g69
NtRp124
(dp125
g72
(dp126
sg81
g111
sg74
(lp127
g67
(g68
g69
NtRp128
(dp129
g72
(dp130
g80
I5
ssg81
g124
sg74
(lp131
S'places'
p132
asbasbasbag67
(g83
g69
NtRp133
(dp134
g72
(dp135
sg81
g77
sg74
(lp136
g67
(g88
g69
NtRp137
(dp138
g72
(dp139
g92
g93
ssg81
g133
sg74
(lp140
g50
asbag67
(g88
g69
NtRp141
(dp142
g72
(dp143
g99
g100
ssg81
g133
sg74
(lp144
S':'
asbag67
(g88
g69
NtRp145
(dp146
g72
(dp147
sg81
g133
sg74
(lp148
g67
(g68
g69
NtRp149
(dp150
g72
(dp151
g80
I5
ssg81
g145
sg74
(lp152
g67
(g76
g69
NtRp153
(dp154
g72
(dp155
g80
I4
ssg81
Nsg74
(lp156
sbasbasbasbag67
(g83
g69
NtRp157
(dp158
g72
(dp159
sg81
g77
sg74
(lp160
g67
(g88
g69
NtRp161
(dp162
g72
(dp163
g92
g93
ssg81
g157
sg74
(lp164
S'body'
p165
asbag67
(g88
g69
NtRp166
(dp167
g72
(dp168
g99
g100
ssg81
g157
sg74
(lp169
S':'
asbag67
(g88
g69
NtRp170
(dp171
g72
(dp172
sg81
g157
sg74
(lp173
g67
(g68
g69
NtRp174
(dp175
g72
(dp176
g80
I5
ssg81
g170
sg74
(lp177
S'<cStringIO.StringO object at 0x31862d0>'
p178
asbasbasbag67
(g83
g69
NtRp179
(dp180
g72
(dp181
sg81
g77
sg74
(lp182
g67
(g88
g69
NtRp183
(dp184
g72
(dp185
g92
g93
ssg81
g179
sg74
(lp186
S'cid'
p187
asbag67
(g88
g69
NtRp188
(dp189
g72
(dp190
g99
g100
ssg81
g179
sg74
(lp191
S':'
asbag67
(g88
g69
NtRp192
(dp193
g72
(dp194
sg81
g179
sg74
(lp195
g67
(g68
g69
NtRp196
(dp197
g72
(dp198
g80
I5
ssg81
g192
sg74
(lp199
S'links'
p200
asbasbasbag67
(g83
g69
NtRp201
(dp202
g72
(dp203
sg81
g77
sg74
(lp204
g67
(g88
g69
NtRp205
(dp206
g72
(dp207
g92
g93
ssg81
g201
sg74
(lp208
S'client'
p209
asbag67
(g88
g69
NtRp210
(dp211
g72
(dp212
g99
g100
ssg81
g201
sg74
(lp213
S':'
asbag67
(g88
g69
NtRp214
(dp215
g72
(dp216
sg81
g201
sg74
(lp217
g67
(g68
g69
NtRp218
(dp219
g72
(dp220
g80
I5
ssg81
g214
sg74
(lp221
S'127.0.0.1'
p222
asbasbasbag67
(g83
g69
NtRp223
(dp224
g72
(dp225
sg81
g77
sg74
(lp226
g67
(g88
g69
NtRp227
(dp228
g72
(dp229
g92
g93
ssg81
g223
sg74
(lp230
S'controller'
p231
asbag67
(g88
g69
NtRp232
(dp233
g72
(dp234
g99
g100
ssg81
g223
sg74
(lp235
S':'
asbag67
(g88
g69
NtRp236
(dp237
g72
(dp238
sg81
g223
sg74
(lp239
g67
(g68
g69
NtRp240
(dp241
g72
(dp242
g80
I5
ssg81
g236
sg74
(lp243
S'default'
p244
asbasbasbag67
(g83
g69
NtRp245
(dp246
g72
(dp247
sg81
g77
sg74
(lp248
g67
(g88
g69
NtRp249
(dp250
g72
(dp251
g92
g93
ssg81
g245
sg74
(lp252
S'cookies'
p253
asbag67
(g88
g69
NtRp254
(dp255
g72
(dp256
g99
g100
ssg81
g245
sg74
(lp257
S':'
asbag67
(g88
g69
NtRp258
(dp259
g72
(dp260
sg81
g245
sg74
(lp261
g67
(g68
g69
NtRp262
(dp263
g72
(dp264
g80
I5
ssg81
g258
sg74
(lp265
g67
(g76
g69
NtRp266
(dp267
g72
(dp268
g80
I4
ssg81
Nsg74
(lp269
g67
(g83
g69
NtRp270
(dp271
g72
(dp272
sg81
g266
sg74
(lp273
g67
(g88
g69
NtRp274
(dp275
g72
(dp276
g92
g93
ssg81
g270
sg74
(lp277
S'session_id_admin'
p278
asbag67
(g88
g69
NtRp279
(dp280
g72
(dp281
g99
g100
ssg81
g270
sg74
(lp282
S':'
asbag67
(g88
g69
NtRp283
(dp284
g72
(dp285
sg81
g270
sg74
(lp286
g67
(g68
g69
NtRp287
(dp288
g72
(dp289
g80
I4
ssg81
g283
sg74
(lp290
g67
(g76
g69
NtRp291
(dp292
g72
(dp293
g80
I3
ssg81
Nsg74
(lp294
g67
(g83
g69
NtRp295
(dp296
g72
(dp297
sg81
g291
sg74
(lp298
g67
(g88
g69
NtRp299
(dp300
g72
(dp301
g92
g93
ssg81
g295
sg74
(lp302
S'comment'
p303
asbag67
(g88
g69
NtRp304
(dp305
g72
(dp306
g99
g100
ssg81
g295
sg74
(lp307
S':'
asbag67
(g88
g69
NtRp308
(dp309
g72
(dp310
sg81
g295
sg74
(lp311
g67
(g68
g69
NtRp312
(dp313
g72
(dp314
g80
I3
ssg81
g308
sg74
(lp315
S''
asbasbasbag67
(g83
g69
NtRp316
(dp317
g72
(dp318
sg81
g291
sg74
(lp319
g67
(g88
g69
NtRp320
(dp321
g72
(dp322
g92
g93
ssg81
g316
sg74
(lp323
S'domain'
p324
asbag67
(g88
g69
NtRp325
(dp326
g72
(dp327
g99
g100
ssg81
g316
sg74
(lp328
S':'
asbag67
(g88
g69
NtRp329
(dp330
g72
(dp331
sg81
g316
sg74
(lp332
g67
(g68
g69
NtRp333
(dp334
g72
(dp335
g80
I3
ssg81
g329
sg74
(lp336
S''
asbasbasbag67
(g83
g69
NtRp337
(dp338
g72
(dp339
sg81
g291
sg74
(lp340
g67
(g88
g69
NtRp341
(dp342
g72
(dp343
g92
g93
ssg81
g337
sg74
(lp344
S'expires'
p345
asbag67
(g88
g69
NtRp346
(dp347
g72
(dp348
g99
g100
ssg81
g337
sg74
(lp349
S':'
asbag67
(g88
g69
NtRp350
(dp351
g72
(dp352
sg81
g337
sg74
(lp353
g67
(g68
g69
NtRp354
(dp355
g72
(dp356
g80
I3
ssg81
g350
sg74
(lp357
S''
asbasbasbag67
(g83
g69
NtRp358
(dp359
g72
(dp360
sg81
g291
sg74
(lp361
g67
(g88
g69
NtRp362
(dp363
g72
(dp364
g92
g93
ssg81
g358
sg74
(lp365
S'httponly'
p366
asbag67
(g88
g69
NtRp367
(dp368
g72
(dp369
g99
g100
ssg81
g358
sg74
(lp370
S':'
asbag67
(g88
g69
NtRp371
(dp372
g72
(dp373
sg81
g358
sg74
(lp374
g67
(g68
g69
NtRp375
(dp376
g72
(dp377
g80
I3
ssg81
g371
sg74
(lp378
S''
asbasbasbag67
(g83
g69
NtRp379
(dp380
g72
(dp381
sg81
g291
sg74
(lp382
g67
(g88
g69
NtRp383
(dp384
g72
(dp385
g92
g93
ssg81
g379
sg74
(lp386
S'max-age'
p387
asbag67
(g88
g69
NtRp388
(dp389
g72
(dp390
g99
g100
ssg81
g379
sg74
(lp391
S':'
asbag67
(g88
g69
NtRp392
(dp393
g72
(dp394
sg81
g379
sg74
(lp395
g67
(g68
g69
NtRp396
(dp397
g72
(dp398
g80
I3
ssg81
g392
sg74
(lp399
S''
asbasbasbag67
(g83
g69
NtRp400
(dp401
g72
(dp402
sg81
g291
sg74
(lp403
g67
(g88
g69
NtRp404
(dp405
g72
(dp406
g92
g93
ssg81
g400
sg74
(lp407
S'path'
p408
asbag67
(g88
g69
NtRp409
(dp410
g72
(dp411
g99
g100
ssg81
g400
sg74
(lp412
S':'
asbag67
(g88
g69
NtRp413
(dp414
g72
(dp415
sg81
g400
sg74
(lp416
g67
(g68
g69
NtRp417
(dp418
g72
(dp419
g80
I3
ssg81
g413
sg74
(lp420
S''
asbasbasbag67
(g83
g69
NtRp421
(dp422
g72
(dp423
sg81
g291
sg74
(lp424
g67
(g88
g69
NtRp425
(dp426
g72
(dp427
g92
g93
ssg81
g421
sg74
(lp428
S'secure'
p429
asbag67
(g88
g69
NtRp430
(dp431
g72
(dp432
g99
g100
ssg81
g421
sg74
(lp433
S':'
asbag67
(g88
g69
NtRp434
(dp435
g72
(dp436
sg81
g421
sg74
(lp437
g67
(g68
g69
NtRp438
(dp439
g72
(dp440
g80
I3
ssg81
g434
sg74
(lp441
S''
asbasbasbag67
(g83
g69
NtRp442
(dp443
g72
(dp444
sg81
g291
sg74
(lp445
g67
(g88
g69
NtRp446
(dp447
g72
(dp448
g92
g93
ssg81
g442
sg74
(lp449
S'version'
p450
asbag67
(g88
g69
NtRp451
(dp452
g72
(dp453
g99
g100
ssg81
g442
sg74
(lp454
S':'
asbag67
(g88
g69
NtRp455
(dp456
g72
(dp457
sg81
g442
sg74
(lp458
g67
(g68
g69
NtRp459
(dp460
g72
(dp461
g80
I3
ssg81
g455
sg74
(lp462
S''
asbasbasbasbasbasbasbag67
(g83
g69
NtRp463
(dp464
g72
(dp465
sg81
g266
sg74
(lp466
g67
(g88
g69
NtRp467
(dp468
g72
(dp469
g92
g93
ssg81
g463
sg74
(lp470
S'session_id_places'
p471
asbag67
(g88
g69
NtRp472
(dp473
g72
(dp474
g99
g100
ssg81
g463
sg74
(lp475
S':'
asbag67
(g88
g69
NtRp476
(dp477
g72
(dp478
sg81
g463
sg74
(lp479
g67
(g68
g69
NtRp480
(dp481
g72
(dp482
g80
I4
ssg81
g476
sg74
(lp483
g67
(g76
g69
NtRp484
(dp485
g72
(dp486
g80
I3
ssg81
Nsg74
(lp487
g67
(g83
g69
NtRp488
(dp489
g72
(dp490
sg81
g484
sg74
(lp491
g67
(g88
g69
NtRp492
(dp493
g72
(dp494
g92
g93
ssg81
g488
sg74
(lp495
g303
asbag67
(g88
g69
NtRp496
(dp497
g72
(dp498
g99
g100
ssg81
g488
sg74
(lp499
S':'
asbag67
(g88
g69
NtRp500
(dp501
g72
(dp502
sg81
g488
sg74
(lp503
g67
(g68
g69
NtRp504
(dp505
g72
(dp506
g80
I3
ssg81
g500
sg74
(lp507
S''
asbasbasbag67
(g83
g69
NtRp508
(dp509
g72
(dp510
sg81
g484
sg74
(lp511
g67
(g88
g69
NtRp512
(dp513
g72
(dp514
g92
g93
ssg81
g508
sg74
(lp515
g324
asbag67
(g88
g69
NtRp516
(dp517
g72
(dp518
g99
g100
ssg81
g508
sg74
(lp519
S':'
asbag67
(g88
g69
NtRp520
(dp521
g72
(dp522
sg81
g508
sg74
(lp523
g67
(g68
g69
NtRp524
(dp525
g72
(dp526
g80
I3
ssg81
g520
sg74
(lp527
S''
asbasbasbag67
(g83
g69
NtRp528
(dp529
g72
(dp530
sg81
g484
sg74
(lp531
g67
(g88
g69
NtRp532
(dp533
g72
(dp534
g92
g93
ssg81
g528
sg74
(lp535
g345
asbag67
(g88
g69
NtRp536
(dp537
g72
(dp538
g99
g100
ssg81
g528
sg74
(lp539
S':'
asbag67
(g88
g69
NtRp540
(dp541
g72
(dp542
sg81
g528
sg74
(lp543
g67
(g68
g69
NtRp544
(dp545
g72
(dp546
g80
I3
ssg81
g540
sg74
(lp547
S''
asbasbasbag67
(g83
g69
NtRp548
(dp549
g72
(dp550
sg81
g484
sg74
(lp551
g67
(g88
g69
NtRp552
(dp553
g72
(dp554
g92
g93
ssg81
g548
sg74
(lp555
g366
asbag67
(g88
g69
NtRp556
(dp557
g72
(dp558
g99
g100
ssg81
g548
sg74
(lp559
S':'
asbag67
(g88
g69
NtRp560
(dp561
g72
(dp562
sg81
g548
sg74
(lp563
g67
(g68
g69
NtRp564
(dp565
g72
(dp566
g80
I3
ssg81
g560
sg74
(lp567
S''
asbasbasbag67
(g83
g69
NtRp568
(dp569
g72
(dp570
sg81
g484
sg74
(lp571
g67
(g88
g69
NtRp572
(dp573
g72
(dp574
g92
g93
ssg81
g568
sg74
(lp575
g387
asbag67
(g88
g69
NtRp576
(dp577
g72
(dp578
g99
g100
ssg81
g568
sg74
(lp579
S':'
asbag67
(g88
g69
NtRp580
(dp581
g72
(dp582
sg81
g568
sg74
(lp583
g67
(g68
g69
NtRp584
(dp585
g72
(dp586
g80
I3
ssg81
g580
sg74
(lp587
S''
asbasbasbag67
(g83
g69
NtRp588
(dp589
g72
(dp590
sg81
g484
sg74
(lp591
g67
(g88
g69
NtRp592
(dp593
g72
(dp594
g92
g93
ssg81
g588
sg74
(lp595
g408
asbag67
(g88
g69
NtRp596
(dp597
g72
(dp598
g99
g100
ssg81
g588
sg74
(lp599
S':'
asbag67
(g88
g69
NtRp600
(dp601
g72
(dp602
sg81
g588
sg74
(lp603
g67
(g68
g69
NtRp604
(dp605
g72
(dp606
g80
I3
ssg81
g600
sg74
(lp607
S''
asbasbasbag67
(g83
g69
NtRp608
(dp609
g72
(dp610
sg81
g484
sg74
(lp611
g67
(g88
g69
NtRp612
(dp613
g72
(dp614
g92
g93
ssg81
g608
sg74
(lp615
g429
asbag67
(g88
g69
NtRp616
(dp617
g72
(dp618
g99
g100
ssg81
g608
sg74
(lp619
S':'
asbag67
(g88
g69
NtRp620
(dp621
g72
(dp622
sg81
g608
sg74
(lp623
g67
(g68
g69
NtRp624
(dp625
g72
(dp626
g80
I3
ssg81
g620
sg74
(lp627
S''
asbasbasbag67
(g83
g69
NtRp628
(dp629
g72
(dp630
sg81
g484
sg74
(lp631
g67
(g88
g69
NtRp632
(dp633
g72
(dp634
g92
g93
ssg81
g628
sg74
(lp635
g450
asbag67
(g88
g69
NtRp636
(dp637
g72
(dp638
g99
g100
ssg81
g628
sg74
(lp639
S':'
asbag67
(g88
g69
NtRp640
(dp641
g72
(dp642
sg81
g628
sg74
(lp643
g67
(g68
g69
NtRp644
(dp645
g72
(dp646
g80
I3
ssg81
g640
sg74
(lp647
S''
asbasbasbasbasbasbasbag67
(g83
g69
NtRp648
(dp649
g72
(dp650
sg81
g266
sg74
(lp651
g67
(g88
g69
NtRp652
(dp653
g72
(dp654
g92
g93
ssg81
g648
sg74
(lp655
S'session_id_welcome'
p656
asbag67
(g88
g69
NtRp657
(dp658
g72
(dp659
g99
g100
ssg81
g648
sg74
(lp660
S':'
asbag67
(g88
g69
NtRp661
(dp662
g72
(dp663
sg81
g648
sg74
(lp664
g67
(g68
g69
NtRp665
(dp666
g72
(dp667
g80
I4
ssg81
g661
sg74
(lp668
g67
(g76
g69
NtRp669
(dp670
g72
(dp671
g80
I3
ssg81
Nsg74
(lp672
g67
(g83
g69
NtRp673
(dp674
g72
(dp675
sg81
g669
sg74
(lp676
g67
(g88
g69
NtRp677
(dp678
g72
(dp679
g92
g93
ssg81
g673
sg74
(lp680
g303
asbag67
(g88
g69
NtRp681
(dp682
g72
(dp683
g99
g100
ssg81
g673
sg74
(lp684
S':'
asbag67
(g88
g69
NtRp685
(dp686
g72
(dp687
sg81
g673
sg74
(lp688
g67
(g68
g69
NtRp689
(dp690
g72
(dp691
g80
I3
ssg81
g685
sg74
(lp692
S''
asbasbasbag67
(g83
g69
NtRp693
(dp694
g72
(dp695
sg81
g669
sg74
(lp696
g67
(g88
g69
NtRp697
(dp698
g72
(dp699
g92
g93
ssg81
g693
sg74
(lp700
g324
asbag67
(g88
g69
NtRp701
(dp702
g72
(dp703
g99
g100
ssg81
g693
sg74
(lp704
S':'
asbag67
(g88
g69
NtRp705
(dp706
g72
(dp707
sg81
g693
sg74
(lp708
g67
(g68
g69
NtRp709
(dp710
g72
(dp711
g80
I3
ssg81
g705
sg74
(lp712
S''
asbasbasbag67
(g83
g69
NtRp713
(dp714
g72
(dp715
sg81
g669
sg74
(lp716
g67
(g88
g69
NtRp717
(dp718
g72
(dp719
g92
g93
ssg81
g713
sg74
(lp720
g345
asbag67
(g88
g69
NtRp721
(dp722
g72
(dp723
g99
g100
ssg81
g713
sg74
(lp724
S':'
asbag67
(g88
g69
NtRp725
(dp726
g72
(dp727
sg81
g713
sg74
(lp728
g67
(g68
g69
NtRp729
(dp730
g72
(dp731
g80
I3
ssg81
g725
sg74
(lp732
S''
asbasbasbag67
(g83
g69
NtRp733
(dp734
g72
(dp735
sg81
g669
sg74
(lp736
g67
(g88
g69
NtRp737
(dp738
g72
(dp739
g92
g93
ssg81
g733
sg74
(lp740
g366
asbag67
(g88
g69
NtRp741
(dp742
g72
(dp743
g99
g100
ssg81
g733
sg74
(lp744
S':'
asbag67
(g88
g69
NtRp745
(dp746
g72
(dp747
sg81
g733
sg74
(lp748
g67
(g68
g69
NtRp749
(dp750
g72
(dp751
g80
I3
ssg81
g745
sg74
(lp752
S''
asbasbasbag67
(g83
g69
NtRp753
(dp754
g72
(dp755
sg81
g669
sg74
(lp756
g67
(g88
g69
NtRp757
(dp758
g72
(dp759
g92
g93
ssg81
g753
sg74
(lp760
g387
asbag67
(g88
g69
NtRp761
(dp762
g72
(dp763
g99
g100
ssg81
g753
sg74
(lp764
S':'
asbag67
(g88
g69
NtRp765
(dp766
g72
(dp767
sg81
g753
sg74
(lp768
g67
(g68
g69
NtRp769
(dp770
g72
(dp771
g80
I3
ssg81
g765
sg74
(lp772
S''
asbasbasbag67
(g83
g69
NtRp773
(dp774
g72
(dp775
sg81
g669
sg74
(lp776
g67
(g88
g69
NtRp777
(dp778
g72
(dp779
g92
g93
ssg81
g773
sg74
(lp780
g408
asbag67
(g88
g69
NtRp781
(dp782
g72
(dp783
g99
g100
ssg81
g773
sg74
(lp784
S':'
asbag67
(g88
g69
NtRp785
(dp786
g72
(dp787
sg81
g773
sg74
(lp788
g67
(g68
g69
NtRp789
(dp790
g72
(dp791
g80
I3
ssg81
g785
sg74
(lp792
S''
asbasbasbag67
(g83
g69
NtRp793
(dp794
g72
(dp795
sg81
g669
sg74
(lp796
g67
(g88
g69
NtRp797
(dp798
g72
(dp799
g92
g93
ssg81
g793
sg74
(lp800
g429
asbag67
(g88
g69
NtRp801
(dp802
g72
(dp803
g99
g100
ssg81
g793
sg74
(lp804
S':'
asbag67
(g88
g69
NtRp805
(dp806
g72
(dp807
sg81
g793
sg74
(lp808
g67
(g68
g69
NtRp809
(dp810
g72
(dp811
g80
I3
ssg81
g805
sg74
(lp812
S''
asbasbasbag67
(g83
g69
NtRp813
(dp814
g72
(dp815
sg81
g669
sg74
(lp816
g67
(g88
g69
NtRp817
(dp818
g72
(dp819
g92
g93
ssg81
g813
sg74
(lp820
g450
asbag67
(g88
g69
NtRp821
(dp822
g72
(dp823
g99
g100
ssg81
g813
sg74
(lp824
S':'
asbag67
(g88
g69
NtRp825
(dp826
g72
(dp827
sg81
g813
sg74
(lp828
g67
(g68
g69
NtRp829
(dp830
g72
(dp831
g80
I3
ssg81
g825
sg74
(lp832
S''
asbasbasbasbasbasbasbasbasbasbasbag67
(g83
g69
NtRp833
(dp834
g72
(dp835
sg81
g77
sg74
(lp836
g67
(g88
g69
NtRp837
(dp838
g72
(dp839
g92
g93
ssg81
g833
sg74
(lp840
S'env'
p841
asbag67
(g88
g69
NtRp842
(dp843
g72
(dp844
g99
g100
ssg81
g833
sg74
(lp845
S':'
asbag67
(g88
g69
NtRp846
(dp847
g72
(dp848
sg81
g833
sg74
(lp849
g67
(g68
g69
NtRp850
(dp851
g72
(dp852
g80
I5
ssg81
g846
sg74
(lp853
g67
(g76
g69
NtRp854
(dp855
g72
(dp856
g80
I4
ssg81
Nsg74
(lp857
g67
(g83
g69
NtRp858
(dp859
g72
(dp860
sg81
g854
sg74
(lp861
g67
(g88
g69
NtRp862
(dp863
g72
(dp864
g92
g93
ssg81
g858
sg74
(lp865
S'app_folders'
p866
asbag67
(g88
g69
NtRp867
(dp868
g72
(dp869
g99
g100
ssg81
g858
sg74
(lp870
S':'
asbag67
(g88
g69
NtRp871
(dp872
g72
(dp873
sg81
g858
sg74
(lp874
g67
(g68
g69
NtRp875
(dp876
g72
(dp877
g80
I4
ssg81
g871
sg74
(lp878
S"set(['/home/ian/web2py/applications/welcome/', '/home/ian/web2py/applications/places/', '/home/ian/web2py/applications/admin/'])"
p879
asbasbasbag67
(g83
g69
NtRp880
(dp881
g72
(dp882
sg81
g854
sg74
(lp883
g67
(g88
g69
NtRp884
(dp885
g72
(dp886
g92
g93
ssg81
g880
sg74
(lp887
S'applications_parent'
p888
asbag67
(g88
g69
NtRp889
(dp890
g72
(dp891
g99
g100
ssg81
g880
sg74
(lp892
S':'
asbag67
(g88
g69
NtRp893
(dp894
g72
(dp895
sg81
g880
sg74
(lp896
g67
(g68
g69
NtRp897
(dp898
g72
(dp899
g80
I4
ssg81
g893
sg74
(lp900
S'/home/ian/web2py'
p901
asbasbasbag67
(g83
g69
NtRp902
(dp903
g72
(dp904
sg81
g854
sg74
(lp905
g67
(g88
g69
NtRp906
(dp907
g72
(dp908
g92
g93
ssg81
g902
sg74
(lp909
S'cmd_args'
p910
asbag67
(g88
g69
NtRp911
(dp912
g72
(dp913
g99
g100
ssg81
g902
sg74
(lp914
S':'
asbag67
(g88
g69
NtRp915
(dp916
g72
(dp917
sg81
g902
sg74
(lp918
g67
(g68
g69
NtRp919
(dp920
g72
(dp921
g80
I4
ssg81
g915
sg74
(lp922
g67
(g76
g69
NtRp923
(dp924
g72
(dp925
g80
I3
ssg81
Nsg74
(lp926
sbasbasbasbag67
(g83
g69
NtRp927
(dp928
g72
(dp929
sg81
g854
sg74
(lp930
g67
(g88
g69
NtRp931
(dp932
g72
(dp933
g92
g93
ssg81
g927
sg74
(lp934
S'cmd_options'
p935
asbag67
(g88
g69
NtRp936
(dp937
g72
(dp938
g99
g100
ssg81
g927
sg74
(lp939
S':'
asbag67
(g88
g69
NtRp940
(dp941
g72
(dp942
sg81
g927
sg74
(lp943
g67
(g68
g69
NtRp944
(dp945
g72
(dp946
g80
I4
ssg81
g940
sg74
(lp947
S"<Values at 0x26ccbd8: {'verbose': False, 'ip': '127.0.0.1', 'shutdown_timeout': 5, 'taskbar': False, 'nocron': False, 'pid_filename': 'httpserver.pid', 'maxthreads': None, 'softcron': False, 'server_name': 'Ariel-ubuntu', 'bpython': False, 'nogui': False, 'port': 8000, 'extcron': False, 'debuglevel': 30, 'test': None, 'folder': '/home/ian/web2py', 'config': '', 'import_models': False, 'winservice': '', 'shell': None, 'run': '', 'log_filename': 'httpserver.log', 'args': [''], 'ssl_ca_certificate': None, 'scheduler': None, 'profiler_filename': None, 'ssl_private_key': '', 'password': '<ask>', 'request_queue_size': 5, 'ssl_certificate': '', 'cronjob': False, 'plain': False, 'quiet': False, 'interfaces': None, 'minthreads': None, 'timeout': 10, 'numthreads': None, 'nobanner': False}>"
p948
asbasbasbag67
(g83
g69
NtRp949
(dp950
g72
(dp951
sg81
g854
sg74
(lp952
g67
(g88
g69
NtRp953
(dp954
g72
(dp955
g92
g93
ssg81
g949
sg74
(lp956
S'db_sessions'
p957
asbag67
(g88
g69
NtRp958
(dp959
g72
(dp960
g99
g100
ssg81
g949
sg74
(lp961
S':'
asbag67
(g88
g69
NtRp962
(dp963
g72
(dp964
sg81
g949
sg74
(lp965
g67
(g68
g69
NtRp966
(dp967
g72
(dp968
g80
I4
ssg81
g962
sg74
(lp969
S'set([])'
p970
asbasbasbag67
(g83
g69
NtRp971
(dp972
g72
(dp973
sg81
g854
sg74
(lp974
g67
(g88
g69
NtRp975
(dp976
g72
(dp977
g92
g93
ssg81
g971
sg74
(lp978
S'debugging'
p979
asbag67
(g88
g69
NtRp980
(dp981
g72
(dp982
g99
g100
ssg81
g971
sg74
(lp983
S':'
asbag67
(g88
g69
NtRp984
(dp985
g72
(dp986
sg81
g971
sg74
(lp987
g67
(g68
g69
NtRp988
(dp989
g72
(dp990
g80
I4
ssg81
g984
sg74
(lp991
S'False'
p992
asbasbasbag67
(g83
g69
NtRp993
(dp994
g72
(dp995
sg81
g854
sg74
(lp996
g67
(g88
g69
NtRp997
(dp998
g72
(dp999
g92
g93
ssg81
g993
sg74
(lp1000
S'gluon_parent'
p1001
asbag67
(g88
g69
NtRp1002
(dp1003
g72
(dp1004
g99
g100
ssg81
g993
sg74
(lp1005
S':'
asbag67
(g88
g69
NtRp1006
(dp1007
g72
(dp1008
sg81
g993
sg74
(lp1009
g67
(g68
g69
NtRp1010
(dp1011
g72
(dp1012
g80
I4
ssg81
g1006
sg74
(lp1013
S'/home/ian/web2py'
p1014
asbasbasbag67
(g83
g69
NtRp1015
(dp1016
g72
(dp1017
sg81
g854
sg74
(lp1018
g67
(g88
g69
NtRp1019
(dp1020
g72
(dp1021
g92
g93
ssg81
g1015
sg74
(lp1022
S'http_accept'
p1023
asbag67
(g88
g69
NtRp1024
(dp1025
g72
(dp1026
g99
g100
ssg81
g1015
sg74
(lp1027
S':'
asbag67
(g88
g69
NtRp1028
(dp1029
g72
(dp1030
sg81
g1015
sg74
(lp1031
g67
(g68
g69
NtRp1032
(dp1033
g72
(dp1034
g80
I4
ssg81
g1028
sg74
(lp1035
S'*/*'
p1036
asbasbasbag67
(g83
g69
NtRp1037
(dp1038
g72
(dp1039
sg81
g854
sg74
(lp1040
g67
(g88
g69
NtRp1041
(dp1042
g72
(dp1043
g92
g93
ssg81
g1037
sg74
(lp1044
S'http_accept_charset'
p1045
asbag67
(g88
g69
NtRp1046
(dp1047
g72
(dp1048
g99
g100
ssg81
g1037
sg74
(lp1049
S':'
asbag67
(g88
g69
NtRp1050
(dp1051
g72
(dp1052
sg81
g1037
sg74
(lp1053
g67
(g68
g69
NtRp1054
(dp1055
g72
(dp1056
g80
I4
ssg81
g1050
sg74
(lp1057
S'ISO-8859-1,utf-8;q=0.7,*;q=0.7'
p1058
asbasbasbag67
(g83
g69
NtRp1059
(dp1060
g72
(dp1061
sg81
g854
sg74
(lp1062
g67
(g88
g69
NtRp1063
(dp1064
g72
(dp1065
g92
g93
ssg81
g1059
sg74
(lp1066
S'http_accept_encoding'
p1067
asbag67
(g88
g69
NtRp1068
(dp1069
g72
(dp1070
g99
g100
ssg81
g1059
sg74
(lp1071
S':'
asbag67
(g88
g69
NtRp1072
(dp1073
g72
(dp1074
sg81
g1059
sg74
(lp1075
g67
(g68
g69
NtRp1076
(dp1077
g72
(dp1078
g80
I4
ssg81
g1072
sg74
(lp1079
S'gzip, deflate'
p1080
asbasbasbag67
(g83
g69
NtRp1081
(dp1082
g72
(dp1083
sg81
g854
sg74
(lp1084
g67
(g88
g69
NtRp1085
(dp1086
g72
(dp1087
g92
g93
ssg81
g1081
sg74
(lp1088
S'http_accept_language'
p1089
asbag67
(g88
g69
NtRp1090
(dp1091
g72
(dp1092
g99
g100
ssg81
g1081
sg74
(lp1093
S':'
asbag67
(g88
g69
NtRp1094
(dp1095
g72
(dp1096
sg81
g1081
sg74
(lp1097
g67
(g68
g69
NtRp1098
(dp1099
g72
(dp1100
g80
I4
ssg81
g1094
sg74
(lp1101
S'en-us,en;q=0.5'
p1102
asbasbasbag67
(g83
g69
NtRp1103
(dp1104
g72
(dp1105
sg81
g854
sg74
(lp1106
g67
(g88
g69
NtRp1107
(dp1108
g72
(dp1109
g92
g93
ssg81
g1103
sg74
(lp1110
S'http_connection'
p1111
asbag67
(g88
g69
NtRp1112
(dp1113
g72
(dp1114
g99
g100
ssg81
g1103
sg74
(lp1115
S':'
asbag67
(g88
g69
NtRp1116
(dp1117
g72
(dp1118
sg81
g1103
sg74
(lp1119
g67
(g68
g69
NtRp1120
(dp1121
g72
(dp1122
g80
I4
ssg81
g1116
sg74
(lp1123
S'keep-alive'
p1124
asbasbasbag67
(g83
g69
NtRp1125
(dp1126
g72
(dp1127
sg81
g854
sg74
(lp1128
g67
(g88
g69
NtRp1129
(dp1130
g72
(dp1131
g92
g93
ssg81
g1125
sg74
(lp1132
S'http_cookie'
p1133
asbag67
(g88
g69
NtRp1134
(dp1135
g72
(dp1136
g99
g100
ssg81
g1125
sg74
(lp1137
S':'
asbag67
(g88
g69
NtRp1138
(dp1139
g72
(dp1140
sg81
g1125
sg74
(lp1141
g67
(g68
g69
NtRp1142
(dp1143
g72
(dp1144
g80
I4
ssg81
g1138
sg74
(lp1145
S'session_id_welcome=127.0.0.1-f0e6d08e-4585-488a-91e0-180c6c7f25a8; session_id_admin=127.0.0.1-dac11dfe-be99-4fb0-a78e-57512c9f5790; session_id_places=127.0.0.1-9bd70a00-d029-4b6e-8bcc-a423c3a61399'
p1146
asbasbasbag67
(g83
g69
NtRp1147
(dp1148
g72
(dp1149
sg81
g854
sg74
(lp1150
g67
(g88
g69
NtRp1151
(dp1152
g72
(dp1153
g92
g93
ssg81
g1147
sg74
(lp1154
S'http_host'
p1155
asbag67
(g88
g69
NtRp1156
(dp1157
g72
(dp1158
g99
g100
ssg81
g1147
sg74
(lp1159
S':'
asbag67
(g88
g69
NtRp1160
(dp1161
g72
(dp1162
sg81
g1147
sg74
(lp1163
g67
(g68
g69
NtRp1164
(dp1165
g72
(dp1166
g80
I4
ssg81
g1160
sg74
(lp1167
S'127.0.0.1:8000'
p1168
asbasbasbag67
(g83
g69
NtRp1169
(dp1170
g72
(dp1171
sg81
g854
sg74
(lp1172
g67
(g88
g69
NtRp1173
(dp1174
g72
(dp1175
g92
g93
ssg81
g1169
sg74
(lp1176
S'http_referer'
p1177
asbag67
(g88
g69
NtRp1178
(dp1179
g72
(dp1180
g99
g100
ssg81
g1169
sg74
(lp1181
S':'
asbag67
(g88
g69
NtRp1182
(dp1183
g72
(dp1184
sg81
g1169
sg74
(lp1185
g67
(g68
g69
NtRp1186
(dp1187
g72
(dp1188
g80
I4
ssg81
g1182
sg74
(lp1189
S'http://127.0.0.1:8000/places/'
p1190
asbasbasbag67
(g83
g69
NtRp1191
(dp1192
g72
(dp1193
sg81
g854
sg74
(lp1194
g67
(g88
g69
NtRp1195
(dp1196
g72
(dp1197
g92
g93
ssg81
g1191
sg74
(lp1198
S'http_user_agent'
p1199
asbag67
(g88
g69
NtRp1200
(dp1201
g72
(dp1202
g99
g100
ssg81
g1191
sg74
(lp1203
S':'
asbag67
(g88
g69
NtRp1204
(dp1205
g72
(dp1206
sg81
g1191
sg74
(lp1207
g67
(g68
g69
NtRp1208
(dp1209
g72
(dp1210
g80
I4
ssg81
g1204
sg74
(lp1211
S'Mozilla/5.0 (X11; Linux x86_64; rv:7.0.1) Gecko/20100101 Firefox/7.0.1'
p1212
asbasbasbag67
(g83
g69
NtRp1213
(dp1214
g72
(dp1215
sg81
g854
sg74
(lp1216
g67
(g88
g69
NtRp1217
(dp1218
g72
(dp1219
g92
g93
ssg81
g1213
sg74
(lp1220
S'http_web2py_component_element'
p1221
asbag67
(g88
g69
NtRp1222
(dp1223
g72
(dp1224
g99
g100
ssg81
g1213
sg74
(lp1225
S':'
asbag67
(g88
g69
NtRp1226
(dp1227
g72
(dp1228
sg81
g1213
sg74
(lp1229
g67
(g68
g69
NtRp1230
(dp1231
g72
(dp1232
g80
I4
ssg81
g1226
sg74
(lp1233
g200
asbasbasbag67
(g83
g69
NtRp1234
(dp1235
g72
(dp1236
sg81
g854
sg74
(lp1237
g67
(g88
g69
NtRp1238
(dp1239
g72
(dp1240
g92
g93
ssg81
g1234
sg74
(lp1241
S'http_web2py_component_location'
p1242
asbag67
(g88
g69
NtRp1243
(dp1244
g72
(dp1245
g99
g100
ssg81
g1234
sg74
(lp1246
S':'
asbag67
(g88
g69
NtRp1247
(dp1248
g72
(dp1249
sg81
g1234
sg74
(lp1250
g67
(g68
g69
NtRp1251
(dp1252
g72
(dp1253
g80
I4
ssg81
g1247
sg74
(lp1254
S'http://127.0.0.1:8000/places/'
p1255
asbasbasbag67
(g83
g69
NtRp1256
(dp1257
g72
(dp1258
sg81
g854
sg74
(lp1259
g67
(g88
g69
NtRp1260
(dp1261
g72
(dp1262
g92
g93
ssg81
g1256
sg74
(lp1263
S'http_x_requested_with'
p1264
asbag67
(g88
g69
NtRp1265
(dp1266
g72
(dp1267
g99
g100
ssg81
g1256
sg74
(lp1268
S':'
asbag67
(g88
g69
NtRp1269
(dp1270
g72
(dp1271
sg81
g1256
sg74
(lp1272
g67
(g68
g69
NtRp1273
(dp1274
g72
(dp1275
g80
I4
ssg81
g1269
sg74
(lp1276
S'XMLHttpRequest'
p1277
asbasbasbag67
(g83
g69
NtRp1278
(dp1279
g72
(dp1280
sg81
g854
sg74
(lp1281
g67
(g88
g69
NtRp1282
(dp1283
g72
(dp1284
g92
g93
ssg81
g1278
sg74
(lp1285
S'is_jython'
p1286
asbag67
(g88
g69
NtRp1287
(dp1288
g72
(dp1289
g99
g100
ssg81
g1278
sg74
(lp1290
S':'
asbag67
(g88
g69
NtRp1291
(dp1292
g72
(dp1293
sg81
g1278
sg74
(lp1294
g67
(g68
g69
NtRp1295
(dp1296
g72
(dp1297
g80
I4
ssg81
g1291
sg74
(lp1298
g992
asbasbasbag67
(g83
g69
NtRp1299
(dp1300
g72
(dp1301
sg81
g854
sg74
(lp1302
g67
(g88
g69
NtRp1303
(dp1304
g72
(dp1305
g92
g93
ssg81
g1299
sg74
(lp1306
S'path_info'
p1307
asbag67
(g88
g69
NtRp1308
(dp1309
g72
(dp1310
g99
g100
ssg81
g1299
sg74
(lp1311
S':'
asbag67
(g88
g69
NtRp1312
(dp1313
g72
(dp1314
sg81
g1299
sg74
(lp1315
g67
(g68
g69
NtRp1316
(dp1317
g72
(dp1318
g80
I4
ssg81
g1312
sg74
(lp1319
S'/places/default/index.load'
p1320
asbasbasbag67
(g83
g69
NtRp1321
(dp1322
g72
(dp1323
sg81
g854
sg74
(lp1324
g67
(g88
g69
NtRp1325
(dp1326
g72
(dp1327
g92
g93
ssg81
g1321
sg74
(lp1328
S'query_string'
p1329
asbag67
(g88
g69
NtRp1330
(dp1331
g72
(dp1332
g99
g100
ssg81
g1321
sg74
(lp1333
S':'
asbag67
(g88
g69
NtRp1334
(dp1335
g72
(dp1336
sg81
g1321
sg74
(lp1337
g67
(g68
g69
NtRp1338
(dp1339
g72
(dp1340
g80
I4
ssg81
g1334
sg74
(lp1341
S'the_view=kitchen'
p1342
asbasbasbag67
(g83
g69
NtRp1343
(dp1344
g72
(dp1345
sg81
g854
sg74
(lp1346
g67
(g88
g69
NtRp1347
(dp1348
g72
(dp1349
g92
g93
ssg81
g1343
sg74
(lp1350
S'remote_addr'
p1351
asbag67
(g88
g69
NtRp1352
(dp1353
g72
(dp1354
g99
g100
ssg81
g1343
sg74
(lp1355
S':'
asbag67
(g88
g69
NtRp1356
(dp1357
g72
(dp1358
sg81
g1343
sg74
(lp1359
g67
(g68
g69
NtRp1360
(dp1361
g72
(dp1362
g80
I4
ssg81
g1356
sg74
(lp1363
g222
asbasbasbag67
(g83
g69
NtRp1364
(dp1365
g72
(dp1366
sg81
g854
sg74
(lp1367
g67
(g88
g69
NtRp1368
(dp1369
g72
(dp1370
g92
g93
ssg81
g1364
sg74
(lp1371
S'remote_port'
p1372
asbag67
(g88
g69
NtRp1373
(dp1374
g72
(dp1375
g99
g100
ssg81
g1364
sg74
(lp1376
S':'
asbag67
(g88
g69
NtRp1377
(dp1378
g72
(dp1379
sg81
g1364
sg74
(lp1380
g67
(g68
g69
NtRp1381
(dp1382
g72
(dp1383
g80
I4
ssg81
g1377
sg74
(lp1384
S'58332'
p1385
asbasbasbag67
(g83
g69
NtRp1386
(dp1387
g72
(dp1388
sg81
g854
sg74
(lp1389
g67
(g88
g69
NtRp1390
(dp1391
g72
(dp1392
g92
g93
ssg81
g1386
sg74
(lp1393
S'request_method'
p1394
asbag67
(g88
g69
NtRp1395
(dp1396
g72
(dp1397
g99
g100
ssg81
g1386
sg74
(lp1398
S':'
asbag67
(g88
g69
NtRp1399
(dp1400
g72
(dp1401
sg81
g1386
sg74
(lp1402
g67
(g68
g69
NtRp1403
(dp1404
g72
(dp1405
g80
I4
ssg81
g1399
sg74
(lp1406
S'GET'
p1407
asbasbasbag67
(g83
g69
NtRp1408
(dp1409
g72
(dp1410
sg81
g854
sg74
(lp1411
g67
(g88
g69
NtRp1412
(dp1413
g72
(dp1414
g92
g93
ssg81
g1408
sg74
(lp1415
S'script_name'
p1416
asbag67
(g88
g69
NtRp1417
(dp1418
g72
(dp1419
g99
g100
ssg81
g1408
sg74
(lp1420
S':'
asbag67
(g88
g69
NtRp1421
(dp1422
g72
(dp1423
sg81
g1408
sg74
(lp1424
g67
(g68
g69
NtRp1425
(dp1426
g72
(dp1427
g80
I4
ssg81
g1421
sg74
(lp1428
S''
asbasbasbag67
(g83
g69
NtRp1429
(dp1430
g72
(dp1431
sg81
g854
sg74
(lp1432
g67
(g88
g69
NtRp1433
(dp1434
g72
(dp1435
g92
g93
ssg81
g1429
sg74
(lp1436
S'server_name'
p1437
asbag67
(g88
g69
NtRp1438
(dp1439
g72
(dp1440
g99
g100
ssg81
g1429
sg74
(lp1441
S':'
asbag67
(g88
g69
NtRp1442
(dp1443
g72
(dp1444
sg81
g1429
sg74
(lp1445
g67
(g68
g69
NtRp1446
(dp1447
g72
(dp1448
g80
I4
ssg81
g1442
sg74
(lp1449
S'Ariel-ubuntu'
p1450
asbasbasbag67
(g83
g69
NtRp1451
(dp1452
g72
(dp1453
sg81
g854
sg74
(lp1454
g67
(g88
g69
NtRp1455
(dp1456
g72
(dp1457
g92
g93
ssg81
g1451
sg74
(lp1458
S'server_port'
p1459
asbag67
(g88
g69
NtRp1460
(dp1461
g72
(dp1462
g99
g100
ssg81
g1451
sg74
(lp1463
S':'
asbag67
(g88
g69
NtRp1464
(dp1465
g72
(dp1466
sg81
g1451
sg74
(lp1467
g67
(g68
g69
NtRp1468
(dp1469
g72
(dp1470
g80
I4
ssg81
g1464
sg74
(lp1471
S'8000'
p1472
asbasbasbag67
(g83
g69
NtRp1473
(dp1474
g72
(dp1475
sg81
g854
sg74
(lp1476
g67
(g88
g69
NtRp1477
(dp1478
g72
(dp1479
g92
g93
ssg81
g1473
sg74
(lp1480
S'server_protocol'
p1481
asbag67
(g88
g69
NtRp1482
(dp1483
g72
(dp1484
g99
g100
ssg81
g1473
sg74
(lp1485
S':'
asbag67
(g88
g69
NtRp1486
(dp1487
g72
(dp1488
sg81
g1473
sg74
(lp1489
g67
(g68
g69
NtRp1490
(dp1491
g72
(dp1492
g80
I4
ssg81
g1486
sg74
(lp1493
S'HTTP/1.1'
p1494
asbasbasbag67
(g83
g69
NtRp1495
(dp1496
g72
(dp1497
sg81
g854
sg74
(lp1498
g67
(g88
g69
NtRp1499
(dp1500
g72
(dp1501
g92
g93
ssg81
g1495
sg74
(lp1502
S'server_software'
p1503
asbag67
(g88
g69
NtRp1504
(dp1505
g72
(dp1506
g99
g100
ssg81
g1495
sg74
(lp1507
S':'
asbag67
(g88
g69
NtRp1508
(dp1509
g72
(dp1510
sg81
g1495
sg74
(lp1511
g67
(g68
g69
NtRp1512
(dp1513
g72
(dp1514
g80
I4
ssg81
g1508
sg74
(lp1515
S'Rocket 1.2.4'
p1516
asbasbasbag67
(g83
g69
NtRp1517
(dp1518
g72
(dp1519
sg81
g854
sg74
(lp1520
g67
(g88
g69
NtRp1521
(dp1522
g72
(dp1523
g92
g93
ssg81
g1517
sg74
(lp1524
S'web2py_crontype'
p1525
asbag67
(g88
g69
NtRp1526
(dp1527
g72
(dp1528
g99
g100
ssg81
g1517
sg74
(lp1529
S':'
asbag67
(g88
g69
NtRp1530
(dp1531
g72
(dp1532
sg81
g1517
sg74
(lp1533
g67
(g68
g69
NtRp1534
(dp1535
g72
(dp1536
g80
I4
ssg81
g1530
sg74
(lp1537
S'hard'
p1538
asbasbasbag67
(g83
g69
NtRp1539
(dp1540
g72
(dp1541
sg81
g854
sg74
(lp1542
g67
(g88
g69
NtRp1543
(dp1544
g72
(dp1545
g92
g93
ssg81
g1539
sg74
(lp1546
S'web2py_path'
p1547
asbag67
(g88
g69
NtRp1548
(dp1549
g72
(dp1550
g99
g100
ssg81
g1539
sg74
(lp1551
S':'
asbag67
(g88
g69
NtRp1552
(dp1553
g72
(dp1554
sg81
g1539
sg74
(lp1555
g67
(g68
g69
NtRp1556
(dp1557
g72
(dp1558
g80
I4
ssg81
g1552
sg74
(lp1559
g901
asbasbasbag67
(g83
g69
NtRp1560
(dp1561
g72
(dp1562
sg81
g854
sg74
(lp1563
g67
(g88
g69
NtRp1564
(dp1565
g72
(dp1566
g92
g93
ssg81
g1560
sg74
(lp1567
S'web2py_version'
p1568
asbag67
(g88
g69
NtRp1569
(dp1570
g72
(dp1571
g99
g100
ssg81
g1560
sg74
(lp1572
S':'
asbag67
(g88
g69
NtRp1573
(dp1574
g72
(dp1575
sg81
g1560
sg74
(lp1576
g67
(g68
g69
NtRp1577
(dp1578
g72
(dp1579
g80
I4
ssg81
g1573
sg74
(lp1580
g67
(g76
g69
NtRp1581
(dp1582
g72
(dp1583
g80
I3
ssg81
Nsg74
(lp1584
g67
(g83
g69
NtRp1585
(dp1586
g72
(dp1587
sg81
g1581
sg74
(lp1588
g67
(g88
g69
NtRp1589
(dp1590
g72
(dp1591
sg81
g1585
sg74
(lp1592
g67
(g68
g69
NtRp1593
(dp1594
g72
(dp1595
g80
I3
ssg81
g1589
sg74
(lp1596
S'1'
asbasbasbag67
(g83
g69
NtRp1597
(dp1598
g72
(dp1599
sg81
g1581
sg74
(lp1600
g67
(g88
g69
NtRp1601
(dp1602
g72
(dp1603
sg81
g1597
sg74
(lp1604
g67
(g68
g69
NtRp1605
(dp1606
g72
(dp1607
g80
I3
ssg81
g1601
sg74
(lp1608
S'99'
p1609
asbasbasbag67
(g83
g69
NtRp1610
(dp1611
g72
(dp1612
sg81
g1581
sg74
(lp1613
g67
(g88
g69
NtRp1614
(dp1615
g72
(dp1616
sg81
g1610
sg74
(lp1617
g67
(g68
g69
NtRp1618
(dp1619
g72
(dp1620
g80
I3
ssg81
g1614
sg74
(lp1621
S'2'
asbasbasbag67
(g83
g69
NtRp1622
(dp1623
g72
(dp1624
sg81
g1581
sg74
(lp1625
g67
(g88
g69
NtRp1626
(dp1627
g72
(dp1628
sg81
g1622
sg74
(lp1629
g67
(g68
g69
NtRp1630
(dp1631
g72
(dp1632
g80
I3
ssg81
g1626
sg74
(lp1633
S'datetime.datetime(2011, 9, 26, 6, 55, 33)'
p1634
asbasbasbag67
(g83
g69
NtRp1635
(dp1636
g72
(dp1637
sg81
g1581
sg74
(lp1638
g67
(g88
g69
NtRp1639
(dp1640
g72
(dp1641
sg81
g1635
sg74
(lp1642
g67
(g68
g69
NtRp1643
(dp1644
g72
(dp1645
g80
I3
ssg81
g1639
sg74
(lp1646
S'stable'
p1647
asbasbasbasbasbasbasbag67
(g83
g69
NtRp1648
(dp1649
g72
(dp1650
sg81
g854
sg74
(lp1651
g67
(g88
g69
NtRp1652
(dp1653
g72
(dp1654
g92
g93
ssg81
g1648
sg74
(lp1655
S'wsgi_errors'
p1656
asbag67
(g88
g69
NtRp1657
(dp1658
g72
(dp1659
g99
g100
ssg81
g1648
sg74
(lp1660
S':'
asbag67
(g88
g69
NtRp1661
(dp1662
g72
(dp1663
sg81
g1648
sg74
(lp1664
g67
(g68
g69
NtRp1665
(dp1666
g72
(dp1667
g80
I4
ssg81
g1661
sg74
(lp1668
S"<open file '<stderr>', mode 'w' at 0x7f6d3a48b270>"
p1669
asbasbasbag67
(g83
g69
NtRp1670
(dp1671
g72
(dp1672
sg81
g854
sg74
(lp1673
g67
(g88
g69
NtRp1674
(dp1675
g72
(dp1676
g92
g93
ssg81
g1670
sg74
(lp1677
S'wsgi_file_wrapper'
p1678
asbag67
(g88
g69
NtRp1679
(dp1680
g72
(dp1681
g99
g100
ssg81
g1670
sg74
(lp1682
S':'
asbag67
(g88
g69
NtRp1683
(dp1684
g72
(dp1685
sg81
g1670
sg74
(lp1686
g67
(g68
g69
NtRp1687
(dp1688
g72
(dp1689
g80
I4
ssg81
g1683
sg74
(lp1690
S'<class wsgiref.util.FileWrapper at 0x25957a0>'
p1691
asbasbasbag67
(g83
g69
NtRp1692
(dp1693
g72
(dp1694
sg81
g854
sg74
(lp1695
g67
(g88
g69
NtRp1696
(dp1697
g72
(dp1698
g92
g93
ssg81
g1692
sg74
(lp1699
S'wsgi_input'
p1700
asbag67
(g88
g69
NtRp1701
(dp1702
g72
(dp1703
g99
g100
ssg81
g1692
sg74
(lp1704
S':'
asbag67
(g88
g69
NtRp1705
(dp1706
g72
(dp1707
sg81
g1692
sg74
(lp1708
g67
(g68
g69
NtRp1709
(dp1710
g72
(dp1711
g80
I4
ssg81
g1705
sg74
(lp1712
S'<socket._fileobject object at 0x32556d0>'
p1713
asbasbasbag67
(g83
g69
NtRp1714
(dp1715
g72
(dp1716
sg81
g854
sg74
(lp1717
g67
(g88
g69
NtRp1718
(dp1719
g72
(dp1720
g92
g93
ssg81
g1714
sg74
(lp1721
S'wsgi_multiprocess'
p1722
asbag67
(g88
g69
NtRp1723
(dp1724
g72
(dp1725
g99
g100
ssg81
g1714
sg74
(lp1726
S':'
asbag67
(g88
g69
NtRp1727
(dp1728
g72
(dp1729
sg81
g1714
sg74
(lp1730
g67
(g68
g69
NtRp1731
(dp1732
g72
(dp1733
g80
I4
ssg81
g1727
sg74
(lp1734
g992
asbasbasbag67
(g83
g69
NtRp1735
(dp1736
g72
(dp1737
sg81
g854
sg74
(lp1738
g67
(g88
g69
NtRp1739
(dp1740
g72
(dp1741
g92
g93
ssg81
g1735
sg74
(lp1742
S'wsgi_multithread'
p1743
asbag67
(g88
g69
NtRp1744
(dp1745
g72
(dp1746
g99
g100
ssg81
g1735
sg74
(lp1747
S':'
asbag67
(g88
g69
NtRp1748
(dp1749
g72
(dp1750
sg81
g1735
sg74
(lp1751
g67
(g68
g69
NtRp1752
(dp1753
g72
(dp1754
g80
I4
ssg81
g1748
sg74
(lp1755
g110
asbasbasbag67
(g83
g69
NtRp1756
(dp1757
g72
(dp1758
sg81
g854
sg74
(lp1759
g67
(g88
g69
NtRp1760
(dp1761
g72
(dp1762
g92
g93
ssg81
g1756
sg74
(lp1763
S'wsgi_run_once'
p1764
asbag67
(g88
g69
NtRp1765
(dp1766
g72
(dp1767
g99
g100
ssg81
g1756
sg74
(lp1768
S':'
asbag67
(g88
g69
NtRp1769
(dp1770
g72
(dp1771
sg81
g1756
sg74
(lp1772
g67
(g68
g69
NtRp1773
(dp1774
g72
(dp1775
g80
I4
ssg81
g1769
sg74
(lp1776
g992
asbasbasbag67
(g83
g69
NtRp1777
(dp1778
g72
(dp1779
sg81
g854
sg74
(lp1780
g67
(g88
g69
NtRp1781
(dp1782
g72
(dp1783
g92
g93
ssg81
g1777
sg74
(lp1784
S'wsgi_url_scheme'
p1785
asbag67
(g88
g69
NtRp1786
(dp1787
g72
(dp1788
g99
g100
ssg81
g1777
sg74
(lp1789
S':'
asbag67
(g88
g69
NtRp1790
(dp1791
g72
(dp1792
sg81
g1777
sg74
(lp1793
g67
(g68
g69
NtRp1794
(dp1795
g72
(dp1796
g80
I4
ssg81
g1790
sg74
(lp1797
S'http'
p1798
asbasbasbag67
(g83
g69
NtRp1799
(dp1800
g72
(dp1801
sg81
g854
sg74
(lp1802
g67
(g88
g69
NtRp1803
(dp1804
g72
(dp1805
g92
g93
ssg81
g1799
sg74
(lp1806
S'wsgi_version'
p1807
asbag67
(g88
g69
NtRp1808
(dp1809
g72
(dp1810
g99
g100
ssg81
g1799
sg74
(lp1811
S':'
asbag67
(g88
g69
NtRp1812
(dp1813
g72
(dp1814
sg81
g1799
sg74
(lp1815
g67
(g68
g69
NtRp1816
(dp1817
g72
(dp1818
g80
I4
ssg81
g1812
sg74
(lp1819
g67
(g76
g69
NtRp1820
(dp1821
g72
(dp1822
g80
I3
ssg81
Nsg74
(lp1823
g67
(g83
g69
NtRp1824
(dp1825
g72
(dp1826
sg81
g1820
sg74
(lp1827
g67
(g88
g69
NtRp1828
(dp1829
g72
(dp1830
sg81
g1824
sg74
(lp1831
g67
(g68
g69
NtRp1832
(dp1833
g72
(dp1834
g80
I3
ssg81
g1828
sg74
(lp1835
S'1'
asbasbasbag67
(g83
g69
NtRp1836
(dp1837
g72
(dp1838
sg81
g1820
sg74
(lp1839
g67
(g88
g69
NtRp1840
(dp1841
g72
(dp1842
sg81
g1836
sg74
(lp1843
g67
(g68
g69
NtRp1844
(dp1845
g72
(dp1846
g80
I3
ssg81
g1840
sg74
(lp1847
S'0'
asbasbasbasbasbasbasbasbasbasbasbag67
(g83
g69
NtRp1848
(dp1849
g72
(dp1850
sg81
g77
sg74
(lp1851
g67
(g88
g69
NtRp1852
(dp1853
g72
(dp1854
g92
g93
ssg81
g1848
sg74
(lp1855
S'extension'
p1856
asbag67
(g88
g69
NtRp1857
(dp1858
g72
(dp1859
g99
g100
ssg81
g1848
sg74
(lp1860
S':'
asbag67
(g88
g69
NtRp1861
(dp1862
g72
(dp1863
sg81
g1848
sg74
(lp1864
g67
(g68
g69
NtRp1865
(dp1866
g72
(dp1867
g80
I5
ssg81
g1861
sg74
(lp1868
S'load'
p1869
asbasbasbag67
(g83
g69
NtRp1870
(dp1871
g72
(dp1872
sg81
g77
sg74
(lp1873
g67
(g88
g69
NtRp1874
(dp1875
g72
(dp1876
g92
g93
ssg81
g1870
sg74
(lp1877
S'folder'
p1878
asbag67
(g88
g69
NtRp1879
(dp1880
g72
(dp1881
g99
g100
ssg81
g1870
sg74
(lp1882
S':'
asbag67
(g88
g69
NtRp1883
(dp1884
g72
(dp1885
sg81
g1870
sg74
(lp1886
g67
(g68
g69
NtRp1887
(dp1888
g72
(dp1889
g80
I5
ssg81
g1883
sg74
(lp1890
S'/home/ian/web2py/applications/places/'
p1891
asbasbasbag67
(g83
g69
NtRp1892
(dp1893
g72
(dp1894
sg81
g77
sg74
(lp1895
g67
(g88
g69
NtRp1896
(dp1897
g72
(dp1898
g92
g93
ssg81
g1892
sg74
(lp1899
S'function'
p1900
asbag67
(g88
g69
NtRp1901
(dp1902
g72
(dp1903
g99
g100
ssg81
g1892
sg74
(lp1904
S':'
asbag67
(g88
g69
NtRp1905
(dp1906
g72
(dp1907
sg81
g1892
sg74
(lp1908
g67
(g68
g69
NtRp1909
(dp1910
g72
(dp1911
g80
I5
ssg81
g1905
sg74
(lp1912
S'index'
p1913
asbasbasbag67
(g83
g69
NtRp1914
(dp1915
g72
(dp1916
sg81
g77
sg74
(lp1917
g67
(g88
g69
NtRp1918
(dp1919
g72
(dp1920
g92
g93
ssg81
g1914
sg74
(lp1921
S'get_vars'
p1922
asbag67
(g88
g69
NtRp1923
(dp1924
g72
(dp1925
g99
g100
ssg81
g1914
sg74
(lp1926
S':'
asbag67
(g88
g69
NtRp1927
(dp1928
g72
(dp1929
sg81
g1914
sg74
(lp1930
g67
(g68
g69
NtRp1931
(dp1932
g72
(dp1933
g80
I5
ssg81
g1927
sg74
(lp1934
g67
(g76
g69
NtRp1935
(dp1936
g72
(dp1937
g80
I4
ssg81
Nsg74
(lp1938
g67
(g83
g69
NtRp1939
(dp1940
g72
(dp1941
sg81
g1935
sg74
(lp1942
g67
(g88
g69
NtRp1943
(dp1944
g72
(dp1945
g92
g93
ssg81
g1939
sg74
(lp1946
S'the_view'
p1947
asbag67
(g88
g69
NtRp1948
(dp1949
g72
(dp1950
g99
g100
ssg81
g1939
sg74
(lp1951
S':'
asbag67
(g88
g69
NtRp1952
(dp1953
g72
(dp1954
sg81
g1939
sg74
(lp1955
g67
(g68
g69
NtRp1956
(dp1957
g72
(dp1958
g80
I4
ssg81
g1952
sg74
(lp1959
S'kitchen'
p1960
asbasbasbasbasbasbasbag67
(g83
g69
NtRp1961
(dp1962
g72
(dp1963
sg81
g77
sg74
(lp1964
g67
(g88
g69
NtRp1965
(dp1966
g72
(dp1967
g92
g93
ssg81
g1961
sg74
(lp1968
S'global_settings'
p1969
asbag67
(g88
g69
NtRp1970
(dp1971
g72
(dp1972
g99
g100
ssg81
g1961
sg74
(lp1973
S':'
asbag67
(g88
g69
NtRp1974
(dp1975
g72
(dp1976
sg81
g1961
sg74
(lp1977
g67
(g68
g69
NtRp1978
(dp1979
g72
(dp1980
g80
I5
ssg81
g1974
sg74
(lp1981
g67
(g76
g69
NtRp1982
(dp1983
g72
(dp1984
g80
I4
ssg81
Nsg74
(lp1985
g67
(g83
g69
NtRp1986
(dp1987
g72
(dp1988
sg81
g1982
sg74
(lp1989
g67
(g88
g69
NtRp1990
(dp1991
g72
(dp1992
g92
g93
ssg81
g1986
sg74
(lp1993
g866
asbag67
(g88
g69
NtRp1994
(dp1995
g72
(dp1996
g99
g100
ssg81
g1986
sg74
(lp1997
S':'
asbag67
(g88
g69
NtRp1998
(dp1999
g72
(dp2000
sg81
g1986
sg74
(lp2001
g67
(g68
g69
NtRp2002
(dp2003
g72
(dp2004
g80
I4
ssg81
g1998
sg74
(lp2005
S"set(['/home/ian/web2py/applications/welcome/', '/home/ian/web2py/applications/places/', '/home/ian/web2py/applications/admin/'])"
p2006
asbasbasbag67
(g83
g69
NtRp2007
(dp2008
g72
(dp2009
sg81
g1982
sg74
(lp2010
g67
(g88
g69
NtRp2011
(dp2012
g72
(dp2013
g92
g93
ssg81
g2007
sg74
(lp2014
g888
asbag67
(g88
g69
NtRp2015
(dp2016
g72
(dp2017
g99
g100
ssg81
g2007
sg74
(lp2018
S':'
asbag67
(g88
g69
NtRp2019
(dp2020
g72
(dp2021
sg81
g2007
sg74
(lp2022
g67
(g68
g69
NtRp2023
(dp2024
g72
(dp2025
g80
I4
ssg81
g2019
sg74
(lp2026
g901
asbasbasbag67
(g83
g69
NtRp2027
(dp2028
g72
(dp2029
sg81
g1982
sg74
(lp2030
g67
(g88
g69
NtRp2031
(dp2032
g72
(dp2033
g92
g93
ssg81
g2027
sg74
(lp2034
g910
asbag67
(g88
g69
NtRp2035
(dp2036
g72
(dp2037
g99
g100
ssg81
g2027
sg74
(lp2038
S':'
asbag67
(g88
g69
NtRp2039
(dp2040
g72
(dp2041
sg81
g2027
sg74
(lp2042
g67
(g68
g69
NtRp2043
(dp2044
g72
(dp2045
g80
I4
ssg81
g2039
sg74
(lp2046
g67
(g76
g69
NtRp2047
(dp2048
g72
(dp2049
g80
I3
ssg81
Nsg74
(lp2050
sbasbasbasbag67
(g83
g69
NtRp2051
(dp2052
g72
(dp2053
sg81
g1982
sg74
(lp2054
g67
(g88
g69
NtRp2055
(dp2056
g72
(dp2057
g92
g93
ssg81
g2051
sg74
(lp2058
g935
asbag67
(g88
g69
NtRp2059
(dp2060
g72
(dp2061
g99
g100
ssg81
g2051
sg74
(lp2062
S':'
asbag67
(g88
g69
NtRp2063
(dp2064
g72
(dp2065
sg81
g2051
sg74
(lp2066
g67
(g68
g69
NtRp2067
(dp2068
g72
(dp2069
g80
I4
ssg81
g2063
sg74
(lp2070
S"<Values at 0x26ccbd8: {'verbose': False, 'ip': '127.0.0.1', 'shutdown_timeout': 5, 'taskbar': False, 'nocron': False, 'pid_filename': 'httpserver.pid', 'maxthreads': None, 'softcron': False, 'server_name': 'Ariel-ubuntu', 'bpython': False, 'nogui': False, 'port': 8000, 'extcron': False, 'debuglevel': 30, 'test': None, 'folder': '/home/ian/web2py', 'config': '', 'import_models': False, 'winservice': '', 'shell': None, 'run': '', 'log_filename': 'httpserver.log', 'args': [''], 'ssl_ca_certificate': None, 'scheduler': None, 'profiler_filename': None, 'ssl_private_key': '', 'password': '<ask>', 'request_queue_size': 5, 'ssl_certificate': '', 'cronjob': False, 'plain': False, 'quiet': False, 'interfaces': None, 'minthreads': None, 'timeout': 10, 'numthreads': None, 'nobanner': False}>"
p2071
asbasbasbag67
(g83
g69
NtRp2072
(dp2073
g72
(dp2074
sg81
g1982
sg74
(lp2075
g67
(g88
g69
NtRp2076
(dp2077
g72
(dp2078
g92
g93
ssg81
g2072
sg74
(lp2079
g957
asbag67
(g88
g69
NtRp2080
(dp2081
g72
(dp2082
g99
g100
ssg81
g2072
sg74
(lp2083
S':'
asbag67
(g88
g69
NtRp2084
(dp2085
g72
(dp2086
sg81
g2072
sg74
(lp2087
g67
(g68
g69
NtRp2088
(dp2089
g72
(dp2090
g80
I4
ssg81
g2084
sg74
(lp2091
S'set([])'
p2092
asbasbasbag67
(g83
g69
NtRp2093
(dp2094
g72
(dp2095
sg81
g1982
sg74
(lp2096
g67
(g88
g69
NtRp2097
(dp2098
g72
(dp2099
g92
g93
ssg81
g2093
sg74
(lp2100
g979
asbag67
(g88
g69
NtRp2101
(dp2102
g72
(dp2103
g99
g100
ssg81
g2093
sg74
(lp2104
S':'
asbag67
(g88
g69
NtRp2105
(dp2106
g72
(dp2107
sg81
g2093
sg74
(lp2108
g67
(g68
g69
NtRp2109
(dp2110
g72
(dp2111
g80
I4
ssg81
g2105
sg74
(lp2112
g992
asbasbasbag67
(g83
g69
NtRp2113
(dp2114
g72
(dp2115
sg81
g1982
sg74
(lp2116
g67
(g88
g69
NtRp2117
(dp2118
g72
(dp2119
g92
g93
ssg81
g2113
sg74
(lp2120
g1001
asbag67
(g88
g69
NtRp2121
(dp2122
g72
(dp2123
g99
g100
ssg81
g2113
sg74
(lp2124
S':'
asbag67
(g88
g69
NtRp2125
(dp2126
g72
(dp2127
sg81
g2113
sg74
(lp2128
g67
(g68
g69
NtRp2129
(dp2130
g72
(dp2131
g80
I4
ssg81
g2125
sg74
(lp2132
g1014
asbasbasbag67
(g83
g69
NtRp2133
(dp2134
g72
(dp2135
sg81
g1982
sg74
(lp2136
g67
(g88
g69
NtRp2137
(dp2138
g72
(dp2139
g92
g93
ssg81
g2133
sg74
(lp2140
g1286
asbag67
(g88
g69
NtRp2141
(dp2142
g72
(dp2143
g99
g100
ssg81
g2133
sg74
(lp2144
S':'
asbag67
(g88
g69
NtRp2145
(dp2146
g72
(dp2147
sg81
g2133
sg74
(lp2148
g67
(g68
g69
NtRp2149
(dp2150
g72
(dp2151
g80
I4
ssg81
g2145
sg74
(lp2152
g992
asbasbasbag67
(g83
g69
NtRp2153
(dp2154
g72
(dp2155
sg81
g1982
sg74
(lp2156
g67
(g88
g69
NtRp2157
(dp2158
g72
(dp2159
g92
g93
ssg81
g2153
sg74
(lp2160
g1525
asbag67
(g88
g69
NtRp2161
(dp2162
g72
(dp2163
g99
g100
ssg81
g2153
sg74
(lp2164
S':'
asbag67
(g88
g69
NtRp2165
(dp2166
g72
(dp2167
sg81
g2153
sg74
(lp2168
g67
(g68
g69
NtRp2169
(dp2170
g72
(dp2171
g80
I4
ssg81
g2165
sg74
(lp2172
g1538
asbasbasbag67
(g83
g69
NtRp2173
(dp2174
g72
(dp2175
sg81
g1982
sg74
(lp2176
g67
(g88
g69
NtRp2177
(dp2178
g72
(dp2179
g92
g93
ssg81
g2173
sg74
(lp2180
g1568
asbag67
(g88
g69
NtRp2181
(dp2182
g72
(dp2183
g99
g100
ssg81
g2173
sg74
(lp2184
S':'
asbag67
(g88
g69
NtRp2185
(dp2186
g72
(dp2187
sg81
g2173
sg74
(lp2188
g67
(g68
g69
NtRp2189
(dp2190
g72
(dp2191
g80
I4
ssg81
g2185
sg74
(lp2192
g67
(g76
g69
NtRp2193
(dp2194
g72
(dp2195
g80
I3
ssg81
Nsg74
(lp2196
g67
(g83
g69
NtRp2197
(dp2198
g72
(dp2199
sg81
g2193
sg74
(lp2200
g67
(g88
g69
NtRp2201
(dp2202
g72
(dp2203
sg81
g2197
sg74
(lp2204
g67
(g68
g69
NtRp2205
(dp2206
g72
(dp2207
g80
I3
ssg81
g2201
sg74
(lp2208
S'1'
asbasbasbag67
(g83
g69
NtRp2209
(dp2210
g72
(dp2211
sg81
g2193
sg74
(lp2212
g67
(g88
g69
NtRp2213
(dp2214
g72
(dp2215
sg81
g2209
sg74
(lp2216
g67
(g68
g69
NtRp2217
(dp2218
g72
(dp2219
g80
I3
ssg81
g2213
sg74
(lp2220
S'99'
p2221
asbasbasbag67
(g83
g69
NtRp2222
(dp2223
g72
(dp2224
sg81
g2193
sg74
(lp2225
g67
(g88
g69
NtRp2226
(dp2227
g72
(dp2228
sg81
g2222
sg74
(lp2229
g67
(g68
g69
NtRp2230
(dp2231
g72
(dp2232
g80
I3
ssg81
g2226
sg74
(lp2233
S'2'
asbasbasbag67
(g83
g69
NtRp2234
(dp2235
g72
(dp2236
sg81
g2193
sg74
(lp2237
g67
(g88
g69
NtRp2238
(dp2239
g72
(dp2240
sg81
g2234
sg74
(lp2241
g67
(g68
g69
NtRp2242
(dp2243
g72
(dp2244
g80
I3
ssg81
g2238
sg74
(lp2245
S'datetime.datetime(2011, 9, 26, 6, 55, 33)'
p2246
asbasbasbag67
(g83
g69
NtRp2247
(dp2248
g72
(dp2249
sg81
g2193
sg74
(lp2250
g67
(g88
g69
NtRp2251
(dp2252
g72
(dp2253
sg81
g2247
sg74
(lp2254
g67
(g68
g69
NtRp2255
(dp2256
g72
(dp2257
g80
I3
ssg81
g2251
sg74
(lp2258
g1647
asbasbasbasbasbasbasbasbasbasbasbag67
(g83
g69
NtRp2259
(dp2260
g72
(dp2261
sg81
g77
sg74
(lp2262
g67
(g88
g69
NtRp2263
(dp2264
g72
(dp2265
g92
g93
ssg81
g2259
sg74
(lp2266
S'is_https'
p2267
asbag67
(g88
g69
NtRp2268
(dp2269
g72
(dp2270
g99
g100
ssg81
g2259
sg74
(lp2271
S':'
asbag67
(g88
g69
NtRp2272
(dp2273
g72
(dp2274
sg81
g2259
sg74
(lp2275
g67
(g68
g69
NtRp2276
(dp2277
g72
(dp2278
g80
I5
ssg81
g2272
sg74
(lp2279
g992
asbasbasbag67
(g83
g69
NtRp2280
(dp2281
g72
(dp2282
sg81
g77
sg74
(lp2283
g67
(g88
g69
NtRp2284
(dp2285
g72
(dp2286
g92
g93
ssg81
g2280
sg74
(lp2287
S'is_local'
p2288
asbag67
(g88
g69
NtRp2289
(dp2290
g72
(dp2291
g99
g100
ssg81
g2280
sg74
(lp2292
S':'
asbag67
(g88
g69
NtRp2293
(dp2294
g72
(dp2295
sg81
g2280
sg74
(lp2296
g67
(g68
g69
NtRp2297
(dp2298
g72
(dp2299
g80
I5
ssg81
g2293
sg74
(lp2300
g110
asbasbasbag67
(g83
g69
NtRp2301
(dp2302
g72
(dp2303
sg81
g77
sg74
(lp2304
g67
(g88
g69
NtRp2305
(dp2306
g72
(dp2307
g92
g93
ssg81
g2301
sg74
(lp2308
S'is_restful'
p2309
asbag67
(g88
g69
NtRp2310
(dp2311
g72
(dp2312
g99
g100
ssg81
g2301
sg74
(lp2313
S':'
asbag67
(g88
g69
NtRp2314
(dp2315
g72
(dp2316
sg81
g2301
sg74
(lp2317
g67
(g68
g69
NtRp2318
(dp2319
g72
(dp2320
g80
I5
ssg81
g2314
sg74
(lp2321
g992
asbasbasbag67
(g83
g69
NtRp2322
(dp2323
g72
(dp2324
sg81
g77
sg74
(lp2325
g67
(g88
g69
NtRp2326
(dp2327
g72
(dp2328
g92
g93
ssg81
g2322
sg74
(lp2329
S'now'
p2330
asbag67
(g88
g69
NtRp2331
(dp2332
g72
(dp2333
g99
g100
ssg81
g2322
sg74
(lp2334
S':'
asbag67
(g88
g69
NtRp2335
(dp2336
g72
(dp2337
sg81
g2322
sg74
(lp2338
g67
(g68
g69
NtRp2339
(dp2340
g72
(dp2341
g80
I5
ssg81
g2335
sg74
(lp2342
S'datetime.datetime(2011, 10, 2, 20, 16, 50, 120402)'
p2343
asbasbasbag67
(g83
g69
NtRp2344
(dp2345
g72
(dp2346
sg81
g77
sg74
(lp2347
g67
(g88
g69
NtRp2348
(dp2349
g72
(dp2350
g92
g93
ssg81
g2344
sg74
(lp2351
S'post_vars'
p2352
asbag67
(g88
g69
NtRp2353
(dp2354
g72
(dp2355
g99
g100
ssg81
g2344
sg74
(lp2356
S':'
asbag67
(g88
g69
NtRp2357
(dp2358
g72
(dp2359
sg81
g2344
sg74
(lp2360
g67
(g68
g69
NtRp2361
(dp2362
g72
(dp2363
g80
I5
ssg81
g2357
sg74
(lp2364
g67
(g76
g69
NtRp2365
(dp2366
g72
(dp2367
g80
I4
ssg81
Nsg74
(lp2368
sbasbasbasbag67
(g83
g69
NtRp2369
(dp2370
g72
(dp2371
sg81
g77
sg74
(lp2372
g67
(g88
g69
NtRp2373
(dp2374
g72
(dp2375
g92
g93
ssg81
g2369
sg74
(lp2376
S'raw_extension'
p2377
asbag67
(g88
g69
NtRp2378
(dp2379
g72
(dp2380
g99
g100
ssg81
g2369
sg74
(lp2381
S':'
asbag67
(g88
g69
NtRp2382
(dp2383
g72
(dp2384
sg81
g2369
sg74
(lp2385
g67
(g68
g69
NtRp2386
(dp2387
g72
(dp2388
g80
I5
ssg81
g2382
sg74
(lp2389
g1869
asbasbasbag67
(g83
g69
NtRp2390
(dp2391
g72
(dp2392
sg81
g77
sg74
(lp2393
g67
(g88
g69
NtRp2394
(dp2395
g72
(dp2396
g92
g93
ssg81
g2390
sg74
(lp2397
S'url'
p2398
asbag67
(g88
g69
NtRp2399
(dp2400
g72
(dp2401
g99
g100
ssg81
g2390
sg74
(lp2402
S':'
asbag67
(g88
g69
NtRp2403
(dp2404
g72
(dp2405
sg81
g2390
sg74
(lp2406
g67
(g68
g69
NtRp2407
(dp2408
g72
(dp2409
g80
I5
ssg81
g2403
sg74
(lp2410
S'/places/default/index.load'
p2411
asbasbasbag67
(g83
g69
NtRp2412
(dp2413
g72
(dp2414
sg81
g77
sg74
(lp2415
g67
(g88
g69
NtRp2416
(dp2417
g72
(dp2418
g92
g93
ssg81
g2412
sg74
(lp2419
S'utcnow'
p2420
asbag67
(g88
g69
NtRp2421
(dp2422
g72
(dp2423
g99
g100
ssg81
g2412
sg74
(lp2424
S':'
asbag67
(g88
g69
NtRp2425
(dp2426
g72
(dp2427
sg81
g2412
sg74
(lp2428
g67
(g68
g69
NtRp2429
(dp2430
g72
(dp2431
g80
I5
ssg81
g2425
sg74
(lp2432
S'datetime.datetime(2011, 10, 3, 0, 16, 50, 120452)'
p2433
asbasbasbag67
(g83
g69
NtRp2434
(dp2435
g72
(dp2436
sg81
g77
sg74
(lp2437
g67
(g88
g69
NtRp2438
(dp2439
g72
(dp2440
g92
g93
ssg81
g2434
sg74
(lp2441
S'uuid'
p2442
asbag67
(g88
g69
NtRp2443
(dp2444
g72
(dp2445
g99
g100
ssg81
g2434
sg74
(lp2446
S':'
asbag67
(g88
g69
NtRp2447
(dp2448
g72
(dp2449
sg81
g2434
sg74
(lp2450
g67
(g68
g69
NtRp2451
(dp2452
g72
(dp2453
g80
I5
ssg81
g2447
sg74
(lp2454
S'places/127.0.0.1.2011-10-02.20-16-50.254f2fb7-ab20-41c9-b3f1-badef1be2465'
p2455
asbasbasbag67
(g83
g69
NtRp2456
(dp2457
g72
(dp2458
sg81
g77
sg74
(lp2459
g67
(g88
g69
NtRp2460
(dp2461
g72
(dp2462
g92
g93
ssg81
g2456
sg74
(lp2463
S'vars'
p2464
asbag67
(g88
g69
NtRp2465
(dp2466
g72
(dp2467
g99
g100
ssg81
g2456
sg74
(lp2468
S':'
asbag67
(g88
g69
NtRp2469
(dp2470
g72
(dp2471
sg81
g2456
sg74
(lp2472
g67
(g68
g69
NtRp2473
(dp2474
g72
(dp2475
g80
I5
ssg81
g2469
sg74
(lp2476
g67
(g76
g69
NtRp2477
(dp2478
g72
(dp2479
g80
I4
ssg81
Nsg74
(lp2480
g67
(g83
g69
NtRp2481
(dp2482
g72
(dp2483
sg81
g2477
sg74
(lp2484
g67
(g88
g69
NtRp2485
(dp2486
g72
(dp2487
g92
g93
ssg81
g2481
sg74
(lp2488
g1947
asbag67
(g88
g69
NtRp2489
(dp2490
g72
(dp2491
g99
g100
ssg81
g2481
sg74
(lp2492
S':'
asbag67
(g88
g69
NtRp2493
(dp2494
g72
(dp2495
sg81
g2481
sg74
(lp2496
g67
(g68
g69
NtRp2497
(dp2498
g72
(dp2499
g80
I4
ssg81
g2493
sg74
(lp2500
g1960
asbasbasbasbasbasbasbag67
(g83
g69
NtRp2501
(dp2502
g72
(dp2503
sg81
g77
sg74
(lp2504
g67
(g88
g69
NtRp2505
(dp2506
g72
(dp2507
g92
g93
ssg81
g2501
sg74
(lp2508
S'wsgi'
p2509
asbag67
(g88
g69
NtRp2510
(dp2511
g72
(dp2512
g99
g100
ssg81
g2501
sg74
(lp2513
S':'
asbag67
(g88
g69
NtRp2514
(dp2515
g72
(dp2516
sg81
g2501
sg74
(lp2517
g67
(g68
g69
NtRp2518
(dp2519
g72
(dp2520
g80
I5
ssg81
g2514
sg74
(lp2521
g67
(g76
g69
NtRp2522
(dp2523
g72
(dp2524
g80
I4
ssg81
Nsg74
(lp2525
g67
(g83
g69
NtRp2526
(dp2527
g72
(dp2528
sg81
g2522
sg74
(lp2529
g67
(g88
g69
NtRp2530
(dp2531
g72
(dp2532
g92
g93
ssg81
g2526
sg74
(lp2533
S'environ'
p2534
asbag67
(g88
g69
NtRp2535
(dp2536
g72
(dp2537
g99
g100
ssg81
g2526
sg74
(lp2538
S':'
asbag67
(g88
g69
NtRp2539
(dp2540
g72
(dp2541
sg81
g2526
sg74
(lp2542
g67
(g68
g69
NtRp2543
(dp2544
g72
(dp2545
g80
I4
ssg81
g2539
sg74
(lp2546
g67
(g76
g69
NtRp2547
(dp2548
g72
(dp2549
g80
I3
ssg81
Nsg74
(lp2550
g67
(g83
g69
NtRp2551
(dp2552
g72
(dp2553
sg81
g2547
sg74
(lp2554
g67
(g88
g69
NtRp2555
(dp2556
g72
(dp2557
g92
g93
ssg81
g2551
sg74
(lp2558
S'HTTP_ACCEPT'
p2559
asbag67
(g88
g69
NtRp2560
(dp2561
g72
(dp2562
g99
g100
ssg81
g2551
sg74
(lp2563
S':'
asbag67
(g88
g69
NtRp2564
(dp2565
g72
(dp2566
sg81
g2551
sg74
(lp2567
g67
(g68
g69
NtRp2568
(dp2569
g72
(dp2570
g80
I3
ssg81
g2564
sg74
(lp2571
g1036
asbasbasbag67
(g83
g69
NtRp2572
(dp2573
g72
(dp2574
sg81
g2547
sg74
(lp2575
g67
(g88
g69
NtRp2576
(dp2577
g72
(dp2578
g92
g93
ssg81
g2572
sg74
(lp2579
S'HTTP_ACCEPT_CHARSET'
p2580
asbag67
(g88
g69
NtRp2581
(dp2582
g72
(dp2583
g99
g100
ssg81
g2572
sg74
(lp2584
S':'
asbag67
(g88
g69
NtRp2585
(dp2586
g72
(dp2587
sg81
g2572
sg74
(lp2588
g67
(g68
g69
NtRp2589
(dp2590
g72
(dp2591
g80
I3
ssg81
g2585
sg74
(lp2592
g1058
asbasbasbag67
(g83
g69
NtRp2593
(dp2594
g72
(dp2595
sg81
g2547
sg74
(lp2596
g67
(g88
g69
NtRp2597
(dp2598
g72
(dp2599
g92
g93
ssg81
g2593
sg74
(lp2600
S'HTTP_ACCEPT_ENCODING'
p2601
asbag67
(g88
g69
NtRp2602
(dp2603
g72
(dp2604
g99
g100
ssg81
g2593
sg74
(lp2605
S':'
asbag67
(g88
g69
NtRp2606
(dp2607
g72
(dp2608
sg81
g2593
sg74
(lp2609
g67
(g68
g69
NtRp2610
(dp2611
g72
(dp2612
g80
I3
ssg81
g2606
sg74
(lp2613
g1080
asbasbasbag67
(g83
g69
NtRp2614
(dp2615
g72
(dp2616
sg81
g2547
sg74
(lp2617
g67
(g88
g69
NtRp2618
(dp2619
g72
(dp2620
g92
g93
ssg81
g2614
sg74
(lp2621
S'HTTP_ACCEPT_LANGUAGE'
p2622
asbag67
(g88
g69
NtRp2623
(dp2624
g72
(dp2625
g99
g100
ssg81
g2614
sg74
(lp2626
S':'
asbag67
(g88
g69
NtRp2627
(dp2628
g72
(dp2629
sg81
g2614
sg74
(lp2630
g67
(g68
g69
NtRp2631
(dp2632
g72
(dp2633
g80
I3
ssg81
g2627
sg74
(lp2634
g1102
asbasbasbag67
(g83
g69
NtRp2635
(dp2636
g72
(dp2637
sg81
g2547
sg74
(lp2638
g67
(g88
g69
NtRp2639
(dp2640
g72
(dp2641
g92
g93
ssg81
g2635
sg74
(lp2642
S'HTTP_CONNECTION'
p2643
asbag67
(g88
g69
NtRp2644
(dp2645
g72
(dp2646
g99
g100
ssg81
g2635
sg74
(lp2647
S':'
asbag67
(g88
g69
NtRp2648
(dp2649
g72
(dp2650
sg81
g2635
sg74
(lp2651
g67
(g68
g69
NtRp2652
(dp2653
g72
(dp2654
g80
I3
ssg81
g2648
sg74
(lp2655
g1124
asbasbasbag67
(g83
g69
NtRp2656
(dp2657
g72
(dp2658
sg81
g2547
sg74
(lp2659
g67
(g88
g69
NtRp2660
(dp2661
g72
(dp2662
g92
g93
ssg81
g2656
sg74
(lp2663
S'HTTP_COOKIE'
p2664
asbag67
(g88
g69
NtRp2665
(dp2666
g72
(dp2667
g99
g100
ssg81
g2656
sg74
(lp2668
S':'
asbag67
(g88
g69
NtRp2669
(dp2670
g72
(dp2671
sg81
g2656
sg74
(lp2672
g67
(g68
g69
NtRp2673
(dp2674
g72
(dp2675
g80
I3
ssg81
g2669
sg74
(lp2676
g1146
asbasbasbag67
(g83
g69
NtRp2677
(dp2678
g72
(dp2679
sg81
g2547
sg74
(lp2680
g67
(g88
g69
NtRp2681
(dp2682
g72
(dp2683
g92
g93
ssg81
g2677
sg74
(lp2684
S'HTTP_HOST'
p2685
asbag67
(g88
g69
NtRp2686
(dp2687
g72
(dp2688
g99
g100
ssg81
g2677
sg74
(lp2689
S':'
asbag67
(g88
g69
NtRp2690
(dp2691
g72
(dp2692
sg81
g2677
sg74
(lp2693
g67
(g68
g69
NtRp2694
(dp2695
g72
(dp2696
g80
I3
ssg81
g2690
sg74
(lp2697
g1168
asbasbasbag67
(g83
g69
NtRp2698
(dp2699
g72
(dp2700
sg81
g2547
sg74
(lp2701
g67
(g88
g69
NtRp2702
(dp2703
g72
(dp2704
g92
g93
ssg81
g2698
sg74
(lp2705
S'HTTP_REFERER'
p2706
asbag67
(g88
g69
NtRp2707
(dp2708
g72
(dp2709
g99
g100
ssg81
g2698
sg74
(lp2710
S':'
asbag67
(g88
g69
NtRp2711
(dp2712
g72
(dp2713
sg81
g2698
sg74
(lp2714
g67
(g68
g69
NtRp2715
(dp2716
g72
(dp2717
g80
I3
ssg81
g2711
sg74
(lp2718
g1190
asbasbasbag67
(g83
g69
NtRp2719
(dp2720
g72
(dp2721
sg81
g2547
sg74
(lp2722
g67
(g88
g69
NtRp2723
(dp2724
g72
(dp2725
g92
g93
ssg81
g2719
sg74
(lp2726
S'HTTP_USER_AGENT'
p2727
asbag67
(g88
g69
NtRp2728
(dp2729
g72
(dp2730
g99
g100
ssg81
g2719
sg74
(lp2731
S':'
asbag67
(g88
g69
NtRp2732
(dp2733
g72
(dp2734
sg81
g2719
sg74
(lp2735
g67
(g68
g69
NtRp2736
(dp2737
g72
(dp2738
g80
I3
ssg81
g2732
sg74
(lp2739
g1212
asbasbasbag67
(g83
g69
NtRp2740
(dp2741
g72
(dp2742
sg81
g2547
sg74
(lp2743
g67
(g88
g69
NtRp2744
(dp2745
g72
(dp2746
g92
g93
ssg81
g2740
sg74
(lp2747
S'HTTP_WEB2PY_COMPONENT_ELEMENT'
p2748
asbag67
(g88
g69
NtRp2749
(dp2750
g72
(dp2751
g99
g100
ssg81
g2740
sg74
(lp2752
S':'
asbag67
(g88
g69
NtRp2753
(dp2754
g72
(dp2755
sg81
g2740
sg74
(lp2756
g67
(g68
g69
NtRp2757
(dp2758
g72
(dp2759
g80
I3
ssg81
g2753
sg74
(lp2760
g200
asbasbasbag67
(g83
g69
NtRp2761
(dp2762
g72
(dp2763
sg81
g2547
sg74
(lp2764
g67
(g88
g69
NtRp2765
(dp2766
g72
(dp2767
g92
g93
ssg81
g2761
sg74
(lp2768
S'HTTP_WEB2PY_COMPONENT_LOCATION'
p2769
asbag67
(g88
g69
NtRp2770
(dp2771
g72
(dp2772
g99
g100
ssg81
g2761
sg74
(lp2773
S':'
asbag67
(g88
g69
NtRp2774
(dp2775
g72
(dp2776
sg81
g2761
sg74
(lp2777
g67
(g68
g69
NtRp2778
(dp2779
g72
(dp2780
g80
I3
ssg81
g2774
sg74
(lp2781
g1255
asbasbasbag67
(g83
g69
NtRp2782
(dp2783
g72
(dp2784
sg81
g2547
sg74
(lp2785
g67
(g88
g69
NtRp2786
(dp2787
g72
(dp2788
g92
g93
ssg81
g2782
sg74
(lp2789
S'HTTP_X_REQUESTED_WITH'
p2790
asbag67
(g88
g69
NtRp2791
(dp2792
g72
(dp2793
g99
g100
ssg81
g2782
sg74
(lp2794
S':'
asbag67
(g88
g69
NtRp2795
(dp2796
g72
(dp2797
sg81
g2782
sg74
(lp2798
g67
(g68
g69
NtRp2799
(dp2800
g72
(dp2801
g80
I3
ssg81
g2795
sg74
(lp2802
g1277
asbasbasbag67
(g83
g69
NtRp2803
(dp2804
g72
(dp2805
sg81
g2547
sg74
(lp2806
g67
(g88
g69
NtRp2807
(dp2808
g72
(dp2809
g92
g93
ssg81
g2803
sg74
(lp2810
S'PATH_INFO'
p2811
asbag67
(g88
g69
NtRp2812
(dp2813
g72
(dp2814
g99
g100
ssg81
g2803
sg74
(lp2815
S':'
asbag67
(g88
g69
NtRp2816
(dp2817
g72
(dp2818
sg81
g2803
sg74
(lp2819
g67
(g68
g69
NtRp2820
(dp2821
g72
(dp2822
g80
I3
ssg81
g2816
sg74
(lp2823
g1320
asbasbasbag67
(g83
g69
NtRp2824
(dp2825
g72
(dp2826
sg81
g2547
sg74
(lp2827
g67
(g88
g69
NtRp2828
(dp2829
g72
(dp2830
g92
g93
ssg81
g2824
sg74
(lp2831
S'QUERY_STRING'
p2832
asbag67
(g88
g69
NtRp2833
(dp2834
g72
(dp2835
g99
g100
ssg81
g2824
sg74
(lp2836
S':'
asbag67
(g88
g69
NtRp2837
(dp2838
g72
(dp2839
sg81
g2824
sg74
(lp2840
g67
(g68
g69
NtRp2841
(dp2842
g72
(dp2843
g80
I3
ssg81
g2837
sg74
(lp2844
g1342
asbasbasbag67
(g83
g69
NtRp2845
(dp2846
g72
(dp2847
sg81
g2547
sg74
(lp2848
g67
(g88
g69
NtRp2849
(dp2850
g72
(dp2851
g92
g93
ssg81
g2845
sg74
(lp2852
S'REMOTE_ADDR'
p2853
asbag67
(g88
g69
NtRp2854
(dp2855
g72
(dp2856
g99
g100
ssg81
g2845
sg74
(lp2857
S':'
asbag67
(g88
g69
NtRp2858
(dp2859
g72
(dp2860
sg81
g2845
sg74
(lp2861
g67
(g68
g69
NtRp2862
(dp2863
g72
(dp2864
g80
I3
ssg81
g2858
sg74
(lp2865
g222
asbasbasbag67
(g83
g69
NtRp2866
(dp2867
g72
(dp2868
sg81
g2547
sg74
(lp2869
g67
(g88
g69
NtRp2870
(dp2871
g72
(dp2872
g92
g93
ssg81
g2866
sg74
(lp2873
S'REMOTE_PORT'
p2874
asbag67
(g88
g69
NtRp2875
(dp2876
g72
(dp2877
g99
g100
ssg81
g2866
sg74
(lp2878
S':'
asbag67
(g88
g69
NtRp2879
(dp2880
g72
(dp2881
sg81
g2866
sg74
(lp2882
g67
(g68
g69
NtRp2883
(dp2884
g72
(dp2885
g80
I3
ssg81
g2879
sg74
(lp2886
g1385
asbasbasbag67
(g83
g69
NtRp2887
(dp2888
g72
(dp2889
sg81
g2547
sg74
(lp2890
g67
(g88
g69
NtRp2891
(dp2892
g72
(dp2893
g92
g93
ssg81
g2887
sg74
(lp2894
S'REQUEST_METHOD'
p2895
asbag67
(g88
g69
NtRp2896
(dp2897
g72
(dp2898
g99
g100
ssg81
g2887
sg74
(lp2899
S':'
asbag67
(g88
g69
NtRp2900
(dp2901
g72
(dp2902
sg81
g2887
sg74
(lp2903
g67
(g68
g69
NtRp2904
(dp2905
g72
(dp2906
g80
I3
ssg81
g2900
sg74
(lp2907
g1407
asbasbasbag67
(g83
g69
NtRp2908
(dp2909
g72
(dp2910
sg81
g2547
sg74
(lp2911
g67
(g88
g69
NtRp2912
(dp2913
g72
(dp2914
g92
g93
ssg81
g2908
sg74
(lp2915
S'SCRIPT_NAME'
p2916
asbag67
(g88
g69
NtRp2917
(dp2918
g72
(dp2919
g99
g100
ssg81
g2908
sg74
(lp2920
S':'
asbag67
(g88
g69
NtRp2921
(dp2922
g72
(dp2923
sg81
g2908
sg74
(lp2924
g67
(g68
g69
NtRp2925
(dp2926
g72
(dp2927
g80
I3
ssg81
g2921
sg74
(lp2928
S''
asbasbasbag67
(g83
g69
NtRp2929
(dp2930
g72
(dp2931
sg81
g2547
sg74
(lp2932
g67
(g88
g69
NtRp2933
(dp2934
g72
(dp2935
g92
g93
ssg81
g2929
sg74
(lp2936
S'SERVER_NAME'
p2937
asbag67
(g88
g69
NtRp2938
(dp2939
g72
(dp2940
g99
g100
ssg81
g2929
sg74
(lp2941
S':'
asbag67
(g88
g69
NtRp2942
(dp2943
g72
(dp2944
sg81
g2929
sg74
(lp2945
g67
(g68
g69
NtRp2946
(dp2947
g72
(dp2948
g80
I3
ssg81
g2942
sg74
(lp2949
g1450
asbasbasbag67
(g83
g69
NtRp2950
(dp2951
g72
(dp2952
sg81
g2547
sg74
(lp2953
g67
(g88
g69
NtRp2954
(dp2955
g72
(dp2956
g92
g93
ssg81
g2950
sg74
(lp2957
S'SERVER_PORT'
p2958
asbag67
(g88
g69
NtRp2959
(dp2960
g72
(dp2961
g99
g100
ssg81
g2950
sg74
(lp2962
S':'
asbag67
(g88
g69
NtRp2963
(dp2964
g72
(dp2965
sg81
g2950
sg74
(lp2966
g67
(g68
g69
NtRp2967
(dp2968
g72
(dp2969
g80
I3
ssg81
g2963
sg74
(lp2970
g1472
asbasbasbag67
(g83
g69
NtRp2971
(dp2972
g72
(dp2973
sg81
g2547
sg74
(lp2974
g67
(g88
g69
NtRp2975
(dp2976
g72
(dp2977
g92
g93
ssg81
g2971
sg74
(lp2978
S'SERVER_PROTOCOL'
p2979
asbag67
(g88
g69
NtRp2980
(dp2981
g72
(dp2982
g99
g100
ssg81
g2971
sg74
(lp2983
S':'
asbag67
(g88
g69
NtRp2984
(dp2985
g72
(dp2986
sg81
g2971
sg74
(lp2987
g67
(g68
g69
NtRp2988
(dp2989
g72
(dp2990
g80
I3
ssg81
g2984
sg74
(lp2991
g1494
asbasbasbag67
(g83
g69
NtRp2992
(dp2993
g72
(dp2994
sg81
g2547
sg74
(lp2995
g67
(g88
g69
NtRp2996
(dp2997
g72
(dp2998
g92
g93
ssg81
g2992
sg74
(lp2999
S'SERVER_SOFTWARE'
p3000
asbag67
(g88
g69
NtRp3001
(dp3002
g72
(dp3003
g99
g100
ssg81
g2992
sg74
(lp3004
S':'
asbag67
(g88
g69
NtRp3005
(dp3006
g72
(dp3007
sg81
g2992
sg74
(lp3008
g67
(g68
g69
NtRp3009
(dp3010
g72
(dp3011
g80
I3
ssg81
g3005
sg74
(lp3012
g1516
asbasbasbag67
(g83
g69
NtRp3013
(dp3014
g72
(dp3015
sg81
g2547
sg74
(lp3016
g67
(g88
g69
NtRp3017
(dp3018
g72
(dp3019
g92
g93
ssg81
g3013
sg74
(lp3020
S'wsgi.errors'
p3021
asbag67
(g88
g69
NtRp3022
(dp3023
g72
(dp3024
g99
g100
ssg81
g3013
sg74
(lp3025
S':'
asbag67
(g88
g69
NtRp3026
(dp3027
g72
(dp3028
sg81
g3013
sg74
(lp3029
g67
(g68
g69
NtRp3030
(dp3031
g72
(dp3032
g80
I3
ssg81
g3026
sg74
(lp3033
S"<open file '<stderr>', mode 'w' at 0x7f6d3a48b270>"
p3034
asbasbasbag67
(g83
g69
NtRp3035
(dp3036
g72
(dp3037
sg81
g2547
sg74
(lp3038
g67
(g88
g69
NtRp3039
(dp3040
g72
(dp3041
g92
g93
ssg81
g3035
sg74
(lp3042
S'wsgi.file_wrapper'
p3043
asbag67
(g88
g69
NtRp3044
(dp3045
g72
(dp3046
g99
g100
ssg81
g3035
sg74
(lp3047
S':'
asbag67
(g88
g69
NtRp3048
(dp3049
g72
(dp3050
sg81
g3035
sg74
(lp3051
g67
(g68
g69
NtRp3052
(dp3053
g72
(dp3054
g80
I3
ssg81
g3048
sg74
(lp3055
S'<class wsgiref.util.FileWrapper at 0x25957a0>'
p3056
asbasbasbag67
(g83
g69
NtRp3057
(dp3058
g72
(dp3059
sg81
g2547
sg74
(lp3060
g67
(g88
g69
NtRp3061
(dp3062
g72
(dp3063
g92
g93
ssg81
g3057
sg74
(lp3064
S'wsgi.input'
p3065
asbag67
(g88
g69
NtRp3066
(dp3067
g72
(dp3068
g99
g100
ssg81
g3057
sg74
(lp3069
S':'
asbag67
(g88
g69
NtRp3070
(dp3071
g72
(dp3072
sg81
g3057
sg74
(lp3073
g67
(g68
g69
NtRp3074
(dp3075
g72
(dp3076
g80
I3
ssg81
g3070
sg74
(lp3077
S'<cStringIO.StringO object at 0x31862d0>'
p3078
asbasbasbag67
(g83
g69
NtRp3079
(dp3080
g72
(dp3081
sg81
g2547
sg74
(lp3082
g67
(g88
g69
NtRp3083
(dp3084
g72
(dp3085
g92
g93
ssg81
g3079
sg74
(lp3086
S'wsgi.multiprocess'
p3087
asbag67
(g88
g69
NtRp3088
(dp3089
g72
(dp3090
g99
g100
ssg81
g3079
sg74
(lp3091
S':'
asbag67
(g88
g69
NtRp3092
(dp3093
g72
(dp3094
sg81
g3079
sg74
(lp3095
g67
(g68
g69
NtRp3096
(dp3097
g72
(dp3098
g80
I3
ssg81
g3092
sg74
(lp3099
g992
asbasbasbag67
(g83
g69
NtRp3100
(dp3101
g72
(dp3102
sg81
g2547
sg74
(lp3103
g67
(g88
g69
NtRp3104
(dp3105
g72
(dp3106
g92
g93
ssg81
g3100
sg74
(lp3107
S'wsgi.multithread'
p3108
asbag67
(g88
g69
NtRp3109
(dp3110
g72
(dp3111
g99
g100
ssg81
g3100
sg74
(lp3112
S':'
asbag67
(g88
g69
NtRp3113
(dp3114
g72
(dp3115
sg81
g3100
sg74
(lp3116
g67
(g68
g69
NtRp3117
(dp3118
g72
(dp3119
g80
I3
ssg81
g3113
sg74
(lp3120
g110
asbasbasbag67
(g83
g69
NtRp3121
(dp3122
g72
(dp3123
sg81
g2547
sg74
(lp3124
g67
(g88
g69
NtRp3125
(dp3126
g72
(dp3127
g92
g93
ssg81
g3121
sg74
(lp3128
S'wsgi.run_once'
p3129
asbag67
(g88
g69
NtRp3130
(dp3131
g72
(dp3132
g99
g100
ssg81
g3121
sg74
(lp3133
S':'
asbag67
(g88
g69
NtRp3134
(dp3135
g72
(dp3136
sg81
g3121
sg74
(lp3137
g67
(g68
g69
NtRp3138
(dp3139
g72
(dp3140
g80
I3
ssg81
g3134
sg74
(lp3141
g992
asbasbasbag67
(g83
g69
NtRp3142
(dp3143
g72
(dp3144
sg81
g2547
sg74
(lp3145
g67
(g88
g69
NtRp3146
(dp3147
g72
(dp3148
g92
g93
ssg81
g3142
sg74
(lp3149
S'wsgi.url_scheme'
p3150
asbag67
(g88
g69
NtRp3151
(dp3152
g72
(dp3153
g99
g100
ssg81
g3142
sg74
(lp3154
S':'
asbag67
(g88
g69
NtRp3155
(dp3156
g72
(dp3157
sg81
g3142
sg74
(lp3158
g67
(g68
g69
NtRp3159
(dp3160
g72
(dp3161
g80
I3
ssg81
g3155
sg74
(lp3162
g1798
asbasbasbag67
(g83
g69
NtRp3163
(dp3164
g72
(dp3165
sg81
g2547
sg74
(lp3166
g67
(g88
g69
NtRp3167
(dp3168
g72
(dp3169
g92
g93
ssg81
g3163
sg74
(lp3170
S'wsgi.version'
p3171
asbag67
(g88
g69
NtRp3172
(dp3173
g72
(dp3174
g99
g100
ssg81
g3163
sg74
(lp3175
S':'
asbag67
(g88
g69
NtRp3176
(dp3177
g72
(dp3178
sg81
g3163
sg74
(lp3179
g67
(g68
g69
NtRp3180
(dp3181
g72
(dp3182
g80
I3
ssg81
g3176
sg74
(lp3183
S'1'
asbasbasbasbasbasbasbasbasbasbasbasbasbsS'frames'
p3184
(lp3185
(dp3186
S'file'
p3187
S'/home/ian/web2py/gluon/restricted.py'
p3188
sS'dump'
p3189
(dp3190
S'code'
p3191
S'"for link in links:\\n    response.write(\'\\\\n\', esca...esponse._vars)\\nresponse.write(\'\\\\n\', escape=False)"'
p3192
sS'layer'
p3193
S"'/home/ian/web2py/applications/places/views/default/index.load'"
p3194
sS'global compile2'
p3195
S'<function compile2>'
p3196
sS'ccode'
p3197
S'undefined'
p3198
ssS'lnum'
p3199
I193
sS'lines'
p3200
(dp3201
I192
S'        else:'
p3202
sI193
S'            ccode = compile2(code,layer)'
p3203
sI194
S'        exec ccode in environment'
p3204
sI195
S'    except HTTP:'
p3205
sI196
S'        raise'
p3206
sI197
S'    except Exception, error:'
p3207
sI188
S"    environment['__file__'] = layer"
p3208
sI189
S'    try:'
p3209
sI190
S'        if type(code) == types.CodeType:'
p3210
sI191
S'            ccode = code'
p3211
ssS'call'
p3212
S'(code="for link in links:\\n    response.write(\'\\\\n\', esca...esponse._vars)\\nresponse.write(\'\\\\n\', escape=False)", environment={\'A\': <class \'gluon.html.A\'>, \'Auth\': <class \'gluon.tools.Auth\'>, \'B\': <class \'gluon.html.B\'>, \'BEAUTIFY\': <class \'gluon.html.BEAUTIFY\'>, \'BODY\': <class \'gluon.html.BODY\'>, \'BR\': <class \'gluon.html.BR\'>, \'BUTTON\': <class \'gluon.html.BUTTON\'>, \'CAT\': <class \'gluon.html.CAT\'>, \'CENTER\': <class \'gluon.html.CENTER\'>, \'CLEANUP\': <class \'gluon.validators.CLEANUP\'>, ...}, layer=\'/home/ian/web2py/applications/places/views/default/index.load\')'
p3213
sS'func'
p3214
S'restricted'
p3215
sa(dp3216
g3187
S'/home/ian/web2py/gluon/restricted.py'
p3217
sg3189
(dp3218
S'builtincompile'
p3219
S'<built-in function compile>'
p3220
sS'code'
p3221
S'"for link in links:\\n    response.write(\'\\\\n\', esca...esponse._vars)\\nresponse.write(\'\\\\n\', escape=False)"'
p3222
sS'code.rstrip'
p3223
S'<built-in method rstrip of str object>'
p3224
sS').replace'
p3225
g3198
sS'layer'
p3226
S"'/home/ian/web2py/applications/places/views/default/index.load'"
p3227
ssg3199
I179
sg3200
(dp3228
I174
S''
sI175
S'def compile2(code,layer):'
p3229
sI176
S'    """'
p3230
sI177
S"    The +'\\n' is necessary else compile fails when code ends in a comment."
p3231
sI178
S'    """'
p3232
sI179
S"    return compile(code.rstrip().replace('\\r\\n','\\n')+'\\n', layer, 'exec')"
p3233
sI180
S''
sI181
S"def restricted(code, environment=None, layer='Unknown'):"
p3234
sI182
S'    """'
p3235
sI183
S'    runs code in environment and returns the output. if an exception occurs'
p3236
ssg3212
S'(code="for link in links:\\n    response.write(\'\\\\n\', esca...esponse._vars)\\nresponse.write(\'\\\\n\', escape=False)", layer=\'/home/ian/web2py/applications/places/views/default/index.load\')'
p3237
sg3214
S'compile2'
p3238
sasS'pyver'
p3239
S'Python 2.7.1+: /usr/bin/python2.7'
p3240
sS'session'
p3241
g67
(g68
g69
NtRp3242
(dp3243
g72
(dp3244
sg74
(lp3245
g67
(g76
g69
NtRp3246
(dp3247
g72
(dp3248
g80
I5
ssg81
Nsg74
(lp3249
g67
(g83
g69
NtRp3250
(dp3251
g72
(dp3252
sg81
g3246
sg74
(lp3253
g67
(g88
g69
NtRp3254
(dp3255
g72
(dp3256
g92
g93
ssg81
g3250
sg74
(lp3257
S'current'
p3258
asbag67
(g88
g69
NtRp3259
(dp3260
g72
(dp3261
g99
g100
ssg81
g3250
sg74
(lp3262
S':'
asbag67
(g88
g69
NtRp3263
(dp3264
g72
(dp3265
sg81
g3250
sg74
(lp3266
g67
(g68
g69
NtRp3267
(dp3268
g72
(dp3269
g80
I5
ssg81
g3263
sg74
(lp3270
S'kitchen'
p3271
asbasbasbag67
(g83
g69
NtRp3272
(dp3273
g72
(dp3274
sg81
g3246
sg74
(lp3275
g67
(g88
g69
NtRp3276
(dp3277
g72
(dp3278
g92
g93
ssg81
g3272
sg74
(lp3279
S'current_view'
p3280
asbag67
(g88
g69
NtRp3281
(dp3282
g72
(dp3283
g99
g100
ssg81
g3272
sg74
(lp3284
S':'
asbag67
(g88
g69
NtRp3285
(dp3286
g72
(dp3287
sg81
g3272
sg74
(lp3288
g67
(g68
g69
NtRp3289
(dp3290
g72
(dp3291
g80
I5
ssg81
g3285
sg74
(lp3292
S'kitchen'
p3293
asbasbasbag67
(g83
g69
NtRp3294
(dp3295
g72
(dp3296
sg81
g3246
sg74
(lp3297
g67
(g88
g69
NtRp3298
(dp3299
g72
(dp3300
g92
g93
ssg81
g3294
sg74
(lp3301
S'the_view'
p3302
asbag67
(g88
g69
NtRp3303
(dp3304
g72
(dp3305
g99
g100
ssg81
g3294
sg74
(lp3306
S':'
asbag67
(g88
g69
NtRp3307
(dp3308
g72
(dp3309
sg81
g3294
sg74
(lp3310
g67
(g68
g69
NtRp3311
(dp3312
g72
(dp3313
g80
I5
ssg81
g3307
sg74
(lp3314
S'kitchen'
p3315
asbasbasbasbasbsS'etype'
p3316
S"<type 'exceptions.SyntaxError'>"
p3317
sS'date'
p3318
S'Sun Oct  2 20:16:50 2011'
p3319
sS'response'
p3320
g67
(g68
g69
NtRp3321
(dp3322
g72
(dp3323
sg74
(lp3324
g67
(g76
g69
NtRp3325
(dp3326
g72
(dp3327
g80
I5
ssg81
Nsg74
(lp3328
g67
(g83
g69
NtRp3329
(dp3330
g72
(dp3331
sg81
g3325
sg74
(lp3332
g67
(g88
g69
NtRp3333
(dp3334
g72
(dp3335
g92
g93
ssg81
g3329
sg74
(lp3336
g165
asbag67
(g88
g69
NtRp3337
(dp3338
g72
(dp3339
g99
g100
ssg81
g3329
sg74
(lp3340
S':'
asbag67
(g88
g69
NtRp3341
(dp3342
g72
(dp3343
sg81
g3329
sg74
(lp3344
g67
(g68
g69
NtRp3345
(dp3346
g72
(dp3347
g80
I5
ssg81
g3341
sg74
(lp3348
S'<cStringIO.StringO object at 0x3edd110>'
p3349
asbasbasbag67
(g83
g69
NtRp3350
(dp3351
g72
(dp3352
sg81
g3325
sg74
(lp3353
g67
(g88
g69
NtRp3354
(dp3355
g72
(dp3356
g92
g93
ssg81
g3350
sg74
(lp3357
g253
asbag67
(g88
g69
NtRp3358
(dp3359
g72
(dp3360
g99
g100
ssg81
g3350
sg74
(lp3361
S':'
asbag67
(g88
g69
NtRp3362
(dp3363
g72
(dp3364
sg81
g3350
sg74
(lp3365
g67
(g68
g69
NtRp3366
(dp3367
g72
(dp3368
g80
I5
ssg81
g3362
sg74
(lp3369
g67
(g76
g69
NtRp3370
(dp3371
g72
(dp3372
g80
I4
ssg81
Nsg74
(lp3373
g67
(g83
g69
NtRp3374
(dp3375
g72
(dp3376
sg81
g3370
sg74
(lp3377
g67
(g88
g69
NtRp3378
(dp3379
g72
(dp3380
g92
g93
ssg81
g3374
sg74
(lp3381
S'session_id_places'
p3382
asbag67
(g88
g69
NtRp3383
(dp3384
g72
(dp3385
g99
g100
ssg81
g3374
sg74
(lp3386
S':'
asbag67
(g88
g69
NtRp3387
(dp3388
g72
(dp3389
sg81
g3374
sg74
(lp3390
g67
(g68
g69
NtRp3391
(dp3392
g72
(dp3393
g80
I4
ssg81
g3387
sg74
(lp3394
g67
(g76
g69
NtRp3395
(dp3396
g72
(dp3397
g80
I3
ssg81
Nsg74
(lp3398
g67
(g83
g69
NtRp3399
(dp3400
g72
(dp3401
sg81
g3395
sg74
(lp3402
g67
(g88
g69
NtRp3403
(dp3404
g72
(dp3405
g92
g93
ssg81
g3399
sg74
(lp3406
g303
asbag67
(g88
g69
NtRp3407
(dp3408
g72
(dp3409
g99
g100
ssg81
g3399
sg74
(lp3410
S':'
asbag67
(g88
g69
NtRp3411
(dp3412
g72
(dp3413
sg81
g3399
sg74
(lp3414
g67
(g68
g69
NtRp3415
(dp3416
g72
(dp3417
g80
I3
ssg81
g3411
sg74
(lp3418
S''
asbasbasbag67
(g83
g69
NtRp3419
(dp3420
g72
(dp3421
sg81
g3395
sg74
(lp3422
g67
(g88
g69
NtRp3423
(dp3424
g72
(dp3425
g92
g93
ssg81
g3419
sg74
(lp3426
g324
asbag67
(g88
g69
NtRp3427
(dp3428
g72
(dp3429
g99
g100
ssg81
g3419
sg74
(lp3430
S':'
asbag67
(g88
g69
NtRp3431
(dp3432
g72
(dp3433
sg81
g3419
sg74
(lp3434
g67
(g68
g69
NtRp3435
(dp3436
g72
(dp3437
g80
I3
ssg81
g3431
sg74
(lp3438
S''
asbasbasbag67
(g83
g69
NtRp3439
(dp3440
g72
(dp3441
sg81
g3395
sg74
(lp3442
g67
(g88
g69
NtRp3443
(dp3444
g72
(dp3445
g92
g93
ssg81
g3439
sg74
(lp3446
g345
asbag67
(g88
g69
NtRp3447
(dp3448
g72
(dp3449
g99
g100
ssg81
g3439
sg74
(lp3450
S':'
asbag67
(g88
g69
NtRp3451
(dp3452
g72
(dp3453
sg81
g3439
sg74
(lp3454
g67
(g68
g69
NtRp3455
(dp3456
g72
(dp3457
g80
I3
ssg81
g3451
sg74
(lp3458
S''
asbasbasbag67
(g83
g69
NtRp3459
(dp3460
g72
(dp3461
sg81
g3395
sg74
(lp3462
g67
(g88
g69
NtRp3463
(dp3464
g72
(dp3465
g92
g93
ssg81
g3459
sg74
(lp3466
g366
asbag67
(g88
g69
NtRp3467
(dp3468
g72
(dp3469
g99
g100
ssg81
g3459
sg74
(lp3470
S':'
asbag67
(g88
g69
NtRp3471
(dp3472
g72
(dp3473
sg81
g3459
sg74
(lp3474
g67
(g68
g69
NtRp3475
(dp3476
g72
(dp3477
g80
I3
ssg81
g3471
sg74
(lp3478
S''
asbasbasbag67
(g83
g69
NtRp3479
(dp3480
g72
(dp3481
sg81
g3395
sg74
(lp3482
g67
(g88
g69
NtRp3483
(dp3484
g72
(dp3485
g92
g93
ssg81
g3479
sg74
(lp3486
g387
asbag67
(g88
g69
NtRp3487
(dp3488
g72
(dp3489
g99
g100
ssg81
g3479
sg74
(lp3490
S':'
asbag67
(g88
g69
NtRp3491
(dp3492
g72
(dp3493
sg81
g3479
sg74
(lp3494
g67
(g68
g69
NtRp3495
(dp3496
g72
(dp3497
g80
I3
ssg81
g3491
sg74
(lp3498
S''
asbasbasbag67
(g83
g69
NtRp3499
(dp3500
g72
(dp3501
sg81
g3395
sg74
(lp3502
g67
(g88
g69
NtRp3503
(dp3504
g72
(dp3505
g92
g93
ssg81
g3499
sg74
(lp3506
g408
asbag67
(g88
g69
NtRp3507
(dp3508
g72
(dp3509
g99
g100
ssg81
g3499
sg74
(lp3510
S':'
asbag67
(g88
g69
NtRp3511
(dp3512
g72
(dp3513
sg81
g3499
sg74
(lp3514
g67
(g68
g69
NtRp3515
(dp3516
g72
(dp3517
g80
I3
ssg81
g3511
sg74
(lp3518
S'/'
asbasbasbag67
(g83
g69
NtRp3519
(dp3520
g72
(dp3521
sg81
g3395
sg74
(lp3522
g67
(g88
g69
NtRp3523
(dp3524
g72
(dp3525
g92
g93
ssg81
g3519
sg74
(lp3526
g429
asbag67
(g88
g69
NtRp3527
(dp3528
g72
(dp3529
g99
g100
ssg81
g3519
sg74
(lp3530
S':'
asbag67
(g88
g69
NtRp3531
(dp3532
g72
(dp3533
sg81
g3519
sg74
(lp3534
g67
(g68
g69
NtRp3535
(dp3536
g72
(dp3537
g80
I3
ssg81
g3531
sg74
(lp3538
S''
asbasbasbag67
(g83
g69
NtRp3539
(dp3540
g72
(dp3541
sg81
g3395
sg74
(lp3542
g67
(g88
g69
NtRp3543
(dp3544
g72
(dp3545
g92
g93
ssg81
g3539
sg74
(lp3546
g450
asbag67
(g88
g69
NtRp3547
(dp3548
g72
(dp3549
g99
g100
ssg81
g3539
sg74
(lp3550
S':'
asbag67
(g88
g69
NtRp3551
(dp3552
g72
(dp3553
sg81
g3539
sg74
(lp3554
g67
(g68
g69
NtRp3555
(dp3556
g72
(dp3557
g80
I3
ssg81
g3551
sg74
(lp3558
S''
asbasbasbasbasbasbasbasbasbasbasbag67
(g83
g69
NtRp3559
(dp3560
g72
(dp3561
sg81
g3325
sg74
(lp3562
g67
(g88
g69
NtRp3563
(dp3564
g72
(dp3565
g92
g93
ssg81
g3559
sg74
(lp3566
S'files'
p3567
asbag67
(g88
g69
NtRp3568
(dp3569
g72
(dp3570
g99
g100
ssg81
g3559
sg74
(lp3571
S':'
asbag67
(g88
g69
NtRp3572
(dp3573
g72
(dp3574
sg81
g3559
sg74
(lp3575
g67
(g68
g69
NtRp3576
(dp3577
g72
(dp3578
g80
I5
ssg81
g3572
sg74
(lp3579
g67
(g76
g69
NtRp3580
(dp3581
g72
(dp3582
g80
I4
ssg81
Nsg74
(lp3583
sbasbasbasbag67
(g83
g69
NtRp3584
(dp3585
g72
(dp3586
sg81
g3325
sg74
(lp3587
g67
(g88
g69
NtRp3588
(dp3589
g72
(dp3590
g92
g93
ssg81
g3584
sg74
(lp3591
S'flash'
p3592
asbag67
(g88
g69
NtRp3593
(dp3594
g72
(dp3595
g99
g100
ssg81
g3584
sg74
(lp3596
S':'
asbag67
(g88
g69
NtRp3597
(dp3598
g72
(dp3599
sg81
g3584
sg74
(lp3600
g67
(g68
g69
NtRp3601
(dp3602
g72
(dp3603
g80
I5
ssg81
g3597
sg74
(lp3604
S''
asbasbasbag67
(g83
g69
NtRp3605
(dp3606
g72
(dp3607
sg81
g3325
sg74
(lp3608
g67
(g88
g69
NtRp3609
(dp3610
g72
(dp3611
g92
g93
ssg81
g3605
sg74
(lp3612
S'generic_patterns'
p3613
asbag67
(g88
g69
NtRp3614
(dp3615
g72
(dp3616
g99
g100
ssg81
g3605
sg74
(lp3617
S':'
asbag67
(g88
g69
NtRp3618
(dp3619
g72
(dp3620
sg81
g3605
sg74
(lp3621
g67
(g68
g69
NtRp3622
(dp3623
g72
(dp3624
g80
I5
ssg81
g3618
sg74
(lp3625
g67
(g76
g69
NtRp3626
(dp3627
g72
(dp3628
g80
I4
ssg81
Nsg74
(lp3629
g67
(g83
g69
NtRp3630
(dp3631
g72
(dp3632
sg81
g3626
sg74
(lp3633
g67
(g88
g69
NtRp3634
(dp3635
g72
(dp3636
sg81
g3630
sg74
(lp3637
g67
(g68
g69
NtRp3638
(dp3639
g72
(dp3640
g80
I4
ssg81
g3634
sg74
(lp3641
S'*'
asbasbasbasbasbasbasbag67
(g83
g69
NtRp3642
(dp3643
g72
(dp3644
sg81
g3325
sg74
(lp3645
g67
(g88
g69
NtRp3646
(dp3647
g72
(dp3648
g92
g93
ssg81
g3642
sg74
(lp3649
S'headers'
p3650
asbag67
(g88
g69
NtRp3651
(dp3652
g72
(dp3653
g99
g100
ssg81
g3642
sg74
(lp3654
S':'
asbag67
(g88
g69
NtRp3655
(dp3656
g72
(dp3657
sg81
g3642
sg74
(lp3658
g67
(g68
g69
NtRp3659
(dp3660
g72
(dp3661
g80
I5
ssg81
g3655
sg74
(lp3662
g67
(g76
g69
NtRp3663
(dp3664
g72
(dp3665
g80
I4
ssg81
Nsg74
(lp3666
g67
(g83
g69
NtRp3667
(dp3668
g72
(dp3669
sg81
g3663
sg74
(lp3670
g67
(g88
g69
NtRp3671
(dp3672
g72
(dp3673
g92
g93
ssg81
g3667
sg74
(lp3674
S'Cache-Control'
p3675
asbag67
(g88
g69
NtRp3676
(dp3677
g72
(dp3678
g99
g100
ssg81
g3667
sg74
(lp3679
S':'
asbag67
(g88
g69
NtRp3680
(dp3681
g72
(dp3682
sg81
g3667
sg74
(lp3683
g67
(g68
g69
NtRp3684
(dp3685
g72
(dp3686
g80
I4
ssg81
g3680
sg74
(lp3687
S'no-store, no-cache, must-revalidate, post-check=0, pre-check=0'
p3688
asbasbasbag67
(g83
g69
NtRp3689
(dp3690
g72
(dp3691
sg81
g3663
sg74
(lp3692
g67
(g88
g69
NtRp3693
(dp3694
g72
(dp3695
g92
g93
ssg81
g3689
sg74
(lp3696
S'Content-Type'
p3697
asbag67
(g88
g69
NtRp3698
(dp3699
g72
(dp3700
g99
g100
ssg81
g3689
sg74
(lp3701
S':'
asbag67
(g88
g69
NtRp3702
(dp3703
g72
(dp3704
sg81
g3689
sg74
(lp3705
g67
(g68
g69
NtRp3706
(dp3707
g72
(dp3708
g80
I4
ssg81
g3702
sg74
(lp3709
S'text/html; charset=utf-8'
p3710
asbasbasbag67
(g83
g69
NtRp3711
(dp3712
g72
(dp3713
sg81
g3663
sg74
(lp3714
g67
(g88
g69
NtRp3715
(dp3716
g72
(dp3717
g92
g93
ssg81
g3711
sg74
(lp3718
S'Expires'
p3719
asbag67
(g88
g69
NtRp3720
(dp3721
g72
(dp3722
g99
g100
ssg81
g3711
sg74
(lp3723
S':'
asbag67
(g88
g69
NtRp3724
(dp3725
g72
(dp3726
sg81
g3711
sg74
(lp3727
g67
(g68
g69
NtRp3728
(dp3729
g72
(dp3730
g80
I4
ssg81
g3724
sg74
(lp3731
S'Mon, 03 Oct 2011 00:16:50 GMT'
p3732
asbasbasbag67
(g83
g69
NtRp3733
(dp3734
g72
(dp3735
sg81
g3663
sg74
(lp3736
g67
(g88
g69
NtRp3737
(dp3738
g72
(dp3739
g92
g93
ssg81
g3733
sg74
(lp3740
S'Pragma'
p3741
asbag67
(g88
g69
NtRp3742
(dp3743
g72
(dp3744
g99
g100
ssg81
g3733
sg74
(lp3745
S':'
asbag67
(g88
g69
NtRp3746
(dp3747
g72
(dp3748
sg81
g3733
sg74
(lp3749
g67
(g68
g69
NtRp3750
(dp3751
g72
(dp3752
g80
I4
ssg81
g3746
sg74
(lp3753
S'no-cache'
p3754
asbasbasbag67
(g83
g69
NtRp3755
(dp3756
g72
(dp3757
sg81
g3663
sg74
(lp3758
g67
(g88
g69
NtRp3759
(dp3760
g72
(dp3761
g92
g93
ssg81
g3755
sg74
(lp3762
S'X-Powered-By'
p3763
asbag67
(g88
g69
NtRp3764
(dp3765
g72
(dp3766
g99
g100
ssg81
g3755
sg74
(lp3767
S':'
asbag67
(g88
g69
NtRp3768
(dp3769
g72
(dp3770
sg81
g3755
sg74
(lp3771
g67
(g68
g69
NtRp3772
(dp3773
g72
(dp3774
g80
I4
ssg81
g3768
sg74
(lp3775
S'web2py'
p3776
asbasbasbasbasbasbasbag67
(g83
g69
NtRp3777
(dp3778
g72
(dp3779
sg81
g3325
sg74
(lp3780
g67
(g88
g69
NtRp3781
(dp3782
g72
(dp3783
g92
g93
ssg81
g3777
sg74
(lp3784
S'menu'
p3785
asbag67
(g88
g69
NtRp3786
(dp3787
g72
(dp3788
g99
g100
ssg81
g3777
sg74
(lp3789
S':'
asbag67
(g88
g69
NtRp3790
(dp3791
g72
(dp3792
sg81
g3777
sg74
(lp3793
g67
(g68
g69
NtRp3794
(dp3795
g72
(dp3796
g80
I5
ssg81
g3790
sg74
(lp3797
g67
(g76
g69
NtRp3798
(dp3799
g72
(dp3800
g80
I4
ssg81
Nsg74
(lp3801
g67
(g83
g69
NtRp3802
(dp3803
g72
(dp3804
sg81
g3798
sg74
(lp3805
g67
(g88
g69
NtRp3806
(dp3807
g72
(dp3808
sg81
g3802
sg74
(lp3809
g67
(g68
g69
NtRp3810
(dp3811
g72
(dp3812
g80
I4
ssg81
g3806
sg74
(lp3813
g67
(g76
g69
NtRp3814
(dp3815
g72
(dp3816
g80
I3
ssg81
Nsg74
(lp3817
g67
(g83
g69
NtRp3818
(dp3819
g72
(dp3820
sg81
g3814
sg74
(lp3821
g67
(g88
g69
NtRp3822
(dp3823
g72
(dp3824
sg81
g3818
sg74
(lp3825
g67
(g68
g69
NtRp3826
(dp3827
g72
(dp3828
g80
I3
ssg81
g3822
sg74
(lp3829
cgluon.languages
lazyT_unpickle
p3830
(S't\x04\x00\x00\x00Home'
tRp3831
asbasbasbag67
(g83
g69
NtRp3832
(dp3833
g72
(dp3834
sg81
g3814
sg74
(lp3835
g67
(g88
g69
NtRp3836
(dp3837
g72
(dp3838
sg81
g3832
sg74
(lp3839
g67
(g68
g69
NtRp3840
(dp3841
g72
(dp3842
g80
I3
ssg81
g3836
sg74
(lp3843
g992
asbasbasbag67
(g83
g69
NtRp3844
(dp3845
g72
(dp3846
sg81
g3814
sg74
(lp3847
g67
(g88
g69
NtRp3848
(dp3849
g72
(dp3850
sg81
g3844
sg74
(lp3851
g67
(g68
g69
NtRp3852
(dp3853
g72
(dp3854
g80
I3
ssg81
g3848
sg74
(lp3855
S'/places/default/index.load'
p3856
asbasbasbag67
(g83
g69
NtRp3857
(dp3858
g72
(dp3859
sg81
g3814
sg74
(lp3860
g67
(g88
g69
NtRp3861
(dp3862
g72
(dp3863
sg81
g3857
sg74
(lp3864
g67
(g68
g69
NtRp3865
(dp3866
g72
(dp3867
g80
I3
ssg81
g3861
sg74
(lp3868
g67
(g76
g69
NtRp3869
(dp3870
g72
(dp3871
g80
I2
ssg81
Nsg74
(lp3872
sbasbasbasbasbasbasbasbag67
(g83
g69
NtRp3873
(dp3874
g72
(dp3875
sg81
g3798
sg74
(lp3876
g67
(g88
g69
NtRp3877
(dp3878
g72
(dp3879
sg81
g3873
sg74
(lp3880
g67
(g68
g69
NtRp3881
(dp3882
g72
(dp3883
g80
I4
ssg81
g3877
sg74
(lp3884
g67
(g76
g69
NtRp3885
(dp3886
g72
(dp3887
g80
I3
ssg81
Nsg74
(lp3888
g67
(g83
g69
NtRp3889
(dp3890
g72
(dp3891
sg81
g3885
sg74
(lp3892
g67
(g88
g69
NtRp3893
(dp3894
g72
(dp3895
sg81
g3889
sg74
(lp3896
g67
(g68
g69
NtRp3897
(dp3898
g72
(dp3899
g80
I3
ssg81
g3893
sg74
(lp3900
g3830
(S's\x08\x00\x00\x00This App'
tRp3901
asbasbasbag67
(g83
g69
NtRp3902
(dp3903
g72
(dp3904
sg81
g3885
sg74
(lp3905
g67
(g88
g69
NtRp3906
(dp3907
g72
(dp3908
sg81
g3902
sg74
(lp3909
g67
(g68
g69
NtRp3910
(dp3911
g72
(dp3912
g80
I3
ssg81
g3906
sg74
(lp3913
g992
asbasbasbag67
(g83
g69
NtRp3914
(dp3915
g72
(dp3916
sg81
g3885
sg74
(lp3917
g67
(g88
g69
NtRp3918
(dp3919
g72
(dp3920
sg81
g3914
sg74
(lp3921
g67
(g68
g69
NtRp3922
(dp3923
g72
(dp3924
g80
I3
ssg81
g3918
sg74
(lp3925
S'/admin/default/design/places.load'
p3926
asbasbasbag67
(g83
g69
NtRp3927
(dp3928
g72
(dp3929
sg81
g3885
sg74
(lp3930
g67
(g88
g69
NtRp3931
(dp3932
g72
(dp3933
sg81
g3927
sg74
(lp3934
g67
(g68
g69
NtRp3935
(dp3936
g72
(dp3937
g80
I3
ssg81
g3931
sg74
(lp3938
g67
(g76
g69
NtRp3939
(dp3940
g72
(dp3941
g80
I2
ssg81
Nsg74
(lp3942
g67
(g83
g69
NtRp3943
(dp3944
g72
(dp3945
sg81
g3939
sg74
(lp3946
g67
(g88
g69
NtRp3947
(dp3948
g72
(dp3949
sg81
g3943
sg74
(lp3950
g67
(g68
g69
NtRp3951
(dp3952
g72
(dp3953
g80
I2
ssg81
g3947
sg74
(lp3954
g67
(g76
g69
NtRp3955
(dp3956
g72
(dp3957
g80
I1
ssg81
Nsg74
(lp3958
g67
(g83
g69
NtRp3959
(dp3960
g72
(dp3961
sg81
g3955
sg74
(lp3962
g67
(g88
g69
NtRp3963
(dp3964
g72
(dp3965
sg81
g3959
sg74
(lp3966
g67
(g68
g69
NtRp3967
(dp3968
g72
(dp3969
g80
I1
ssg81
g3963
sg74
(lp3970
g3830
(S't\n\x00\x00\x00Controller'
tRp3971
asbasbasbag67
(g83
g69
NtRp3972
(dp3973
g72
(dp3974
sg81
g3955
sg74
(lp3975
g67
(g88
g69
NtRp3976
(dp3977
g72
(dp3978
sg81
g3972
sg74
(lp3979
g67
(g68
g69
NtRp3980
(dp3981
g72
(dp3982
g80
I1
ssg81
g3976
sg74
(lp3983
I00
asbasbasbag67
(g83
g69
NtRp3984
(dp3985
g72
(dp3986
sg81
g3955
sg74
(lp3987
g67
(g88
g69
NtRp3988
(dp3989
g72
(dp3990
sg81
g3984
sg74
(lp3991
g67
(g68
g69
NtRp3992
(dp3993
g72
(dp3994
g80
I1
ssg81
g3988
sg74
(lp3995
S'/admin/default/edit/places/controllers/default.py'
p3996
asbasbasbasbasbasbasbag67
(g83
g69
NtRp3997
(dp3998
g72
(dp3999
sg81
g3939
sg74
(lp4000
g67
(g88
g69
NtRp4001
(dp4002
g72
(dp4003
sg81
g3997
sg74
(lp4004
g67
(g68
g69
NtRp4005
(dp4006
g72
(dp4007
g80
I2
ssg81
g4001
sg74
(lp4008
g67
(g76
g69
NtRp4009
(dp4010
g72
(dp4011
g80
I1
ssg81
Nsg74
(lp4012
g67
(g83
g69
NtRp4013
(dp4014
g72
(dp4015
sg81
g4009
sg74
(lp4016
g67
(g88
g69
NtRp4017
(dp4018
g72
(dp4019
sg81
g4013
sg74
(lp4020
g67
(g68
g69
NtRp4021
(dp4022
g72
(dp4023
g80
I1
ssg81
g4017
sg74
(lp4024
g3830
(S't\x04\x00\x00\x00View'
tRp4025
asbasbasbag67
(g83
g69
NtRp4026
(dp4027
g72
(dp4028
sg81
g4009
sg74
(lp4029
g67
(g88
g69
NtRp4030
(dp4031
g72
(dp4032
sg81
g4026
sg74
(lp4033
g67
(g68
g69
NtRp4034
(dp4035
g72
(dp4036
g80
I1
ssg81
g4030
sg74
(lp4037
I00
asbasbasbag67
(g83
g69
NtRp4038
(dp4039
g72
(dp4040
sg81
g4009
sg74
(lp4041
g67
(g88
g69
NtRp4042
(dp4043
g72
(dp4044
sg81
g4038
sg74
(lp4045
g67
(g68
g69
NtRp4046
(dp4047
g72
(dp4048
g80
I1
ssg81
g4042
sg74
(lp4049
S'/admin/default/edit/places/views/default/index.load'
p4050
asbasbasbasbasbasbasbag67
(g83
g69
NtRp4051
(dp4052
g72
(dp4053
sg81
g3939
sg74
(lp4054
g67
(g88
g69
NtRp4055
(dp4056
g72
(dp4057
sg81
g4051
sg74
(lp4058
g67
(g68
g69
NtRp4059
(dp4060
g72
(dp4061
g80
I2
ssg81
g4055
sg74
(lp4062
g67
(g76
g69
NtRp4063
(dp4064
g72
(dp4065
g80
I1
ssg81
Nsg74
(lp4066
g67
(g83
g69
NtRp4067
(dp4068
g72
(dp4069
sg81
g4063
sg74
(lp4070
g67
(g88
g69
NtRp4071
(dp4072
g72
(dp4073
sg81
g4067
sg74
(lp4074
g67
(g68
g69
NtRp4075
(dp4076
g72
(dp4077
g80
I1
ssg81
g4071
sg74
(lp4078
g3830
(S't\x06\x00\x00\x00Layout'
tRp4079
asbasbasbag67
(g83
g69
NtRp4080
(dp4081
g72
(dp4082
sg81
g4063
sg74
(lp4083
g67
(g88
g69
NtRp4084
(dp4085
g72
(dp4086
sg81
g4080
sg74
(lp4087
g67
(g68
g69
NtRp4088
(dp4089
g72
(dp4090
g80
I1
ssg81
g4084
sg74
(lp4091
I00
asbasbasbag67
(g83
g69
NtRp4092
(dp4093
g72
(dp4094
sg81
g4063
sg74
(lp4095
g67
(g88
g69
NtRp4096
(dp4097
g72
(dp4098
sg81
g4092
sg74
(lp4099
g67
(g68
g69
NtRp4100
(dp4101
g72
(dp4102
g80
I1
ssg81
g4096
sg74
(lp4103
S'/admin/default/edit/places/views/layout.html'
p4104
asbasbasbasbasbasbasbag67
(g83
g69
NtRp4105
(dp4106
g72
(dp4107
sg81
g3939
sg74
(lp4108
g67
(g88
g69
NtRp4109
(dp4110
g72
(dp4111
sg81
g4105
sg74
(lp4112
g67
(g68
g69
NtRp4113
(dp4114
g72
(dp4115
g80
I2
ssg81
g4109
sg74
(lp4116
g67
(g76
g69
NtRp4117
(dp4118
g72
(dp4119
g80
I1
ssg81
Nsg74
(lp4120
g67
(g83
g69
NtRp4121
(dp4122
g72
(dp4123
sg81
g4117
sg74
(lp4124
g67
(g88
g69
NtRp4125
(dp4126
g72
(dp4127
sg81
g4121
sg74
(lp4128
g67
(g68
g69
NtRp4129
(dp4130
g72
(dp4131
g80
I1
ssg81
g4125
sg74
(lp4132
g3830
(S't\n\x00\x00\x00Stylesheet'
tRp4133
asbasbasbag67
(g83
g69
NtRp4134
(dp4135
g72
(dp4136
sg81
g4117
sg74
(lp4137
g67
(g88
g69
NtRp4138
(dp4139
g72
(dp4140
sg81
g4134
sg74
(lp4141
g67
(g68
g69
NtRp4142
(dp4143
g72
(dp4144
g80
I1
ssg81
g4138
sg74
(lp4145
I00
asbasbasbag67
(g83
g69
NtRp4146
(dp4147
g72
(dp4148
sg81
g4117
sg74
(lp4149
g67
(g88
g69
NtRp4150
(dp4151
g72
(dp4152
sg81
g4146
sg74
(lp4153
g67
(g68
g69
NtRp4154
(dp4155
g72
(dp4156
g80
I1
ssg81
g4150
sg74
(lp4157
S'/admin/default/edit/places/static/base.css'
p4158
asbasbasbasbasbasbasbag67
(g83
g69
NtRp4159
(dp4160
g72
(dp4161
sg81
g3939
sg74
(lp4162
g67
(g88
g69
NtRp4163
(dp4164
g72
(dp4165
sg81
g4159
sg74
(lp4166
g67
(g68
g69
NtRp4167
(dp4168
g72
(dp4169
g80
I2
ssg81
g4163
sg74
(lp4170
g67
(g76
g69
NtRp4171
(dp4172
g72
(dp4173
g80
I1
ssg81
Nsg74
(lp4174
g67
(g83
g69
NtRp4175
(dp4176
g72
(dp4177
sg81
g4171
sg74
(lp4178
g67
(g88
g69
NtRp4179
(dp4180
g72
(dp4181
sg81
g4175
sg74
(lp4182
g67
(g68
g69
NtRp4183
(dp4184
g72
(dp4185
g80
I1
ssg81
g4179
sg74
(lp4186
g3830
(S's\x08\x00\x00\x00DB Model'
tRp4187
asbasbasbag67
(g83
g69
NtRp4188
(dp4189
g72
(dp4190
sg81
g4171
sg74
(lp4191
g67
(g88
g69
NtRp4192
(dp4193
g72
(dp4194
sg81
g4188
sg74
(lp4195
g67
(g68
g69
NtRp4196
(dp4197
g72
(dp4198
g80
I1
ssg81
g4192
sg74
(lp4199
I00
asbasbasbag67
(g83
g69
NtRp4200
(dp4201
g72
(dp4202
sg81
g4171
sg74
(lp4203
g67
(g88
g69
NtRp4204
(dp4205
g72
(dp4206
sg81
g4200
sg74
(lp4207
g67
(g68
g69
NtRp4208
(dp4209
g72
(dp4210
g80
I1
ssg81
g4204
sg74
(lp4211
S'/admin/default/edit/places/models/db.py'
p4212
asbasbasbasbasbasbasbag67
(g83
g69
NtRp4213
(dp4214
g72
(dp4215
sg81
g3939
sg74
(lp4216
g67
(g88
g69
NtRp4217
(dp4218
g72
(dp4219
sg81
g4213
sg74
(lp4220
g67
(g68
g69
NtRp4221
(dp4222
g72
(dp4223
g80
I2
ssg81
g4217
sg74
(lp4224
g67
(g76
g69
NtRp4225
(dp4226
g72
(dp4227
g80
I1
ssg81
Nsg74
(lp4228
g67
(g83
g69
NtRp4229
(dp4230
g72
(dp4231
sg81
g4225
sg74
(lp4232
g67
(g88
g69
NtRp4233
(dp4234
g72
(dp4235
sg81
g4229
sg74
(lp4236
g67
(g68
g69
NtRp4237
(dp4238
g72
(dp4239
g80
I1
ssg81
g4233
sg74
(lp4240
g3830
(S's\n\x00\x00\x00Menu Model'
tRp4241
asbasbasbag67
(g83
g69
NtRp4242
(dp4243
g72
(dp4244
sg81
g4225
sg74
(lp4245
g67
(g88
g69
NtRp4246
(dp4247
g72
(dp4248
sg81
g4242
sg74
(lp4249
g67
(g68
g69
NtRp4250
(dp4251
g72
(dp4252
g80
I1
ssg81
g4246
sg74
(lp4253
I00
asbasbasbag67
(g83
g69
NtRp4254
(dp4255
g72
(dp4256
sg81
g4225
sg74
(lp4257
g67
(g88
g69
NtRp4258
(dp4259
g72
(dp4260
sg81
g4254
sg74
(lp4261
g67
(g68
g69
NtRp4262
(dp4263
g72
(dp4264
g80
I1
ssg81
g4258
sg74
(lp4265
S'/admin/default/edit/places/models/menu.py'
p4266
asbasbasbasbasbasbasbag67
(g83
g69
NtRp4267
(dp4268
g72
(dp4269
sg81
g3939
sg74
(lp4270
g67
(g88
g69
NtRp4271
(dp4272
g72
(dp4273
sg81
g4267
sg74
(lp4274
g67
(g68
g69
NtRp4275
(dp4276
g72
(dp4277
g80
I2
ssg81
g4271
sg74
(lp4278
g67
(g76
g69
NtRp4279
(dp4280
g72
(dp4281
g80
I1
ssg81
Nsg74
(lp4282
g67
(g83
g69
NtRp4283
(dp4284
g72
(dp4285
sg81
g4279
sg74
(lp4286
g67
(g88
g69
NtRp4287
(dp4288
g72
(dp4289
sg81
g4283
sg74
(lp4290
g67
(g68
g69
NtRp4291
(dp4292
g72
(dp4293
g80
I1
ssg81
g4287
sg74
(lp4294
g3830
(S't\x08\x00\x00\x00Database'
tRp4295
asbasbasbag67
(g83
g69
NtRp4296
(dp4297
g72
(dp4298
sg81
g4279
sg74
(lp4299
g67
(g88
g69
NtRp4300
(dp4301
g72
(dp4302
sg81
g4296
sg74
(lp4303
g67
(g68
g69
NtRp4304
(dp4305
g72
(dp4306
g80
I1
ssg81
g4300
sg74
(lp4307
I00
asbasbasbag67
(g83
g69
NtRp4308
(dp4309
g72
(dp4310
sg81
g4279
sg74
(lp4311
g67
(g88
g69
NtRp4312
(dp4313
g72
(dp4314
sg81
g4308
sg74
(lp4315
g67
(g68
g69
NtRp4316
(dp4317
g72
(dp4318
g80
I1
ssg81
g4312
sg74
(lp4319
S'/places/appadmin/index.load'
p4320
asbasbasbasbasbasbasbag67
(g83
g69
NtRp4321
(dp4322
g72
(dp4323
sg81
g3939
sg74
(lp4324
g67
(g88
g69
NtRp4325
(dp4326
g72
(dp4327
sg81
g4321
sg74
(lp4328
g67
(g68
g69
NtRp4329
(dp4330
g72
(dp4331
g80
I2
ssg81
g4325
sg74
(lp4332
g67
(g76
g69
NtRp4333
(dp4334
g72
(dp4335
g80
I1
ssg81
Nsg74
(lp4336
g67
(g83
g69
NtRp4337
(dp4338
g72
(dp4339
sg81
g4333
sg74
(lp4340
g67
(g88
g69
NtRp4341
(dp4342
g72
(dp4343
sg81
g4337
sg74
(lp4344
g67
(g68
g69
NtRp4345
(dp4346
g72
(dp4347
g80
I1
ssg81
g4341
sg74
(lp4348
g3830
(S't\x06\x00\x00\x00Errors'
tRp4349
asbasbasbag67
(g83
g69
NtRp4350
(dp4351
g72
(dp4352
sg81
g4333
sg74
(lp4353
g67
(g88
g69
NtRp4354
(dp4355
g72
(dp4356
sg81
g4350
sg74
(lp4357
g67
(g68
g69
NtRp4358
(dp4359
g72
(dp4360
g80
I1
ssg81
g4354
sg74
(lp4361
I00
asbasbasbag67
(g83
g69
NtRp4362
(dp4363
g72
(dp4364
sg81
g4333
sg74
(lp4365
g67
(g88
g69
NtRp4366
(dp4367
g72
(dp4368
sg81
g4362
sg74
(lp4369
g67
(g68
g69
NtRp4370
(dp4371
g72
(dp4372
g80
I1
ssg81
g4366
sg74
(lp4373
S'/admin/default/errors/places.load'
p4374
asbasbasbasbasbasbasbag67
(g83
g69
NtRp4375
(dp4376
g72
(dp4377
sg81
g3939
sg74
(lp4378
g67
(g88
g69
NtRp4379
(dp4380
g72
(dp4381
sg81
g4375
sg74
(lp4382
g67
(g68
g69
NtRp4383
(dp4384
g72
(dp4385
g80
I2
ssg81
g4379
sg74
(lp4386
g67
(g76
g69
NtRp4387
(dp4388
g72
(dp4389
g80
I1
ssg81
Nsg74
(lp4390
g67
(g83
g69
NtRp4391
(dp4392
g72
(dp4393
sg81
g4387
sg74
(lp4394
g67
(g88
g69
NtRp4395
(dp4396
g72
(dp4397
sg81
g4391
sg74
(lp4398
g67
(g68
g69
NtRp4399
(dp4400
g72
(dp4401
g80
I1
ssg81
g4395
sg74
(lp4402
g3830
(S't\x05\x00\x00\x00About'
tRp4403
asbasbasbag67
(g83
g69
NtRp4404
(dp4405
g72
(dp4406
sg81
g4387
sg74
(lp4407
g67
(g88
g69
NtRp4408
(dp4409
g72
(dp4410
sg81
g4404
sg74
(lp4411
g67
(g68
g69
NtRp4412
(dp4413
g72
(dp4414
g80
I1
ssg81
g4408
sg74
(lp4415
I00
asbasbasbag67
(g83
g69
NtRp4416
(dp4417
g72
(dp4418
sg81
g4387
sg74
(lp4419
g67
(g88
g69
NtRp4420
(dp4421
g72
(dp4422
sg81
g4416
sg74
(lp4423
g67
(g68
g69
NtRp4424
(dp4425
g72
(dp4426
g80
I1
ssg81
g4420
sg74
(lp4427
S'/admin/default/about/places.load'
p4428
asbasbasbasbasbasbasbasbasbasbasbasbasbasbasbag67
(g83
g69
NtRp4429
(dp4430
g72
(dp4431
sg81
g3798
sg74
(lp4432
g67
(g88
g69
NtRp4433
(dp4434
g72
(dp4435
sg81
g4429
sg74
(lp4436
g67
(g68
g69
NtRp4437
(dp4438
g72
(dp4439
g80
I4
ssg81
g4433
sg74
(lp4440
g67
(g76
g69
NtRp4441
(dp4442
g72
(dp4443
g80
I3
ssg81
Nsg74
(lp4444
g67
(g83
g69
NtRp4445
(dp4446
g72
(dp4447
sg81
g4441
sg74
(lp4448
g67
(g88
g69
NtRp4449
(dp4450
g72
(dp4451
sg81
g4445
sg74
(lp4452
g67
(g68
g69
NtRp4453
(dp4454
g72
(dp4455
g80
I3
ssg81
g4449
sg74
(lp4456
g3830
(S't\t\x00\x00\x00Resources'
tRp4457
asbasbasbag67
(g83
g69
NtRp4458
(dp4459
g72
(dp4460
sg81
g4441
sg74
(lp4461
g67
(g88
g69
NtRp4462
(dp4463
g72
(dp4464
sg81
g4458
sg74
(lp4465
g67
(g68
g69
NtRp4466
(dp4467
g72
(dp4468
g80
I3
ssg81
g4462
sg74
(lp4469
g992
asbasbasbag67
(g83
g69
NtRp4470
(dp4471
g72
(dp4472
sg81
g4441
sg74
(lp4473
g67
(g88
g69
NtRp4474
(dp4475
g72
(dp4476
sg81
g4470
sg74
(lp4477
g67
(g68
g69
NtRp4478
(dp4479
g72
(dp4480
g80
I3
ssg81
g4474
sg74
(lp4481
S'None'
p4482
asbasbasbag67
(g83
g69
NtRp4483
(dp4484
g72
(dp4485
sg81
g4441
sg74
(lp4486
g67
(g88
g69
NtRp4487
(dp4488
g72
(dp4489
sg81
g4483
sg74
(lp4490
g67
(g68
g69
NtRp4491
(dp4492
g72
(dp4493
g80
I3
ssg81
g4487
sg74
(lp4494
g67
(g76
g69
NtRp4495
(dp4496
g72
(dp4497
g80
I2
ssg81
Nsg74
(lp4498
g67
(g83
g69
NtRp4499
(dp4500
g72
(dp4501
sg81
g4495
sg74
(lp4502
g67
(g88
g69
NtRp4503
(dp4504
g72
(dp4505
sg81
g4499
sg74
(lp4506
g67
(g68
g69
NtRp4507
(dp4508
g72
(dp4509
g80
I2
ssg81
g4503
sg74
(lp4510
g67
(g76
g69
NtRp4511
(dp4512
g72
(dp4513
g80
I1
ssg81
Nsg74
(lp4514
g67
(g83
g69
NtRp4515
(dp4516
g72
(dp4517
sg81
g4511
sg74
(lp4518
g67
(g88
g69
NtRp4519
(dp4520
g72
(dp4521
sg81
g4515
sg74
(lp4522
g67
(g68
g69
NtRp4523
(dp4524
g72
(dp4525
g80
I1
ssg81
g4519
sg74
(lp4526
g3830
(S't\r\x00\x00\x00Documentation'
tRp4527
asbasbasbag67
(g83
g69
NtRp4528
(dp4529
g72
(dp4530
sg81
g4511
sg74
(lp4531
g67
(g88
g69
NtRp4532
(dp4533
g72
(dp4534
sg81
g4528
sg74
(lp4535
g67
(g68
g69
NtRp4536
(dp4537
g72
(dp4538
g80
I1
ssg81
g4532
sg74
(lp4539
I00
asbasbasbag67
(g83
g69
NtRp4540
(dp4541
g72
(dp4542
sg81
g4511
sg74
(lp4543
g67
(g88
g69
NtRp4544
(dp4545
g72
(dp4546
sg81
g4540
sg74
(lp4547
g67
(g68
g69
NtRp4548
(dp4549
g72
(dp4550
g80
I1
ssg81
g4544
sg74
(lp4551
S'http://www.web2py.com/book'
p4552
asbasbasbag67
(g83
g69
NtRp4553
(dp4554
g72
(dp4555
sg81
g4511
sg74
(lp4556
g67
(g88
g69
NtRp4557
(dp4558
g72
(dp4559
sg81
g4553
sg74
(lp4560
g67
(g68
g69
NtRp4561
(dp4562
g72
(dp4563
g80
I1
ssg81
g4557
sg74
(lp4564
(lp4565
(g3830
(S't\x07\x00\x00\x00Preface'
tRp4566
I00
S'http://www.web2py.com/book/default/chapter/00'
p4567
tp4568
a(g3830
(S't\x0c\x00\x00\x00Introduction'
tRp4569
I00
S'http://www.web2py.com/book/default/chapter/01'
p4570
tp4571
a(g3830
(S't\x06\x00\x00\x00Python'
tRp4572
I00
S'http://www.web2py.com/book/default/chapter/02'
p4573
tp4574
a(g3830
(S't\x08\x00\x00\x00Overview'
tRp4575
I00
S'http://www.web2py.com/book/default/chapter/03'
p4576
tp4577
a(g3830
(S's\x08\x00\x00\x00The Core'
tRp4578
I00
S'http://www.web2py.com/book/default/chapter/04'
p4579
tp4580
a(g3830
(S's\t\x00\x00\x00The Views'
tRp4581
I00
S'http://www.web2py.com/book/default/chapter/05'
p4582
tp4583
a(g3830
(S't\x08\x00\x00\x00Database'
tRp4584
I00
S'http://www.web2py.com/book/default/chapter/06'
p4585
tp4586
a(g3830
(S's\x14\x00\x00\x00Forms and Validators'
tRp4587
I00
S'http://www.web2py.com/book/default/chapter/07'
p4588
tp4589
a(g3830
(S's\x0e\x00\x00\x00Access Control'
tRp4590
I00
S'http://www.web2py.com/book/default/chapter/08'
p4591
tp4592
a(g3830
(S't\x08\x00\x00\x00Services'
tRp4593
I00
S'http://www.web2py.com/book/default/chapter/09'
p4594
tp4595
a(g3830
(S's\x0c\x00\x00\x00Ajax Recipes'
tRp4596
I00
S'http://www.web2py.com/book/default/chapter/10'
p4597
tp4598
a(g3830
(S's\x12\x00\x00\x00Deployment Recipes'
tRp4599
I00
S'http://www.web2py.com/book/default/chapter/11'
p4600
tp4601
a(g3830
(S's\r\x00\x00\x00Other Recipes'
tRp4602
I00
S'http://www.web2py.com/book/default/chapter/12'
p4603
tp4604
a(g3830
(S's\r\x00\x00\x00Buy this book'
tRp4605
I00
S'http://stores.lulu.com/web2py'
p4606
tp4607
aasbasbasbasbasbasbasbag67
(g83
g69
NtRp4608
(dp4609
g72
(dp4610
sg81
g4495
sg74
(lp4611
g67
(g88
g69
NtRp4612
(dp4613
g72
(dp4614
sg81
g4608
sg74
(lp4615
g67
(g68
g69
NtRp4616
(dp4617
g72
(dp4618
g80
I2
ssg81
g4612
sg74
(lp4619
g67
(g76
g69
NtRp4620
(dp4621
g72
(dp4622
g80
I1
ssg81
Nsg74
(lp4623
g67
(g83
g69
NtRp4624
(dp4625
g72
(dp4626
sg81
g4620
sg74
(lp4627
g67
(g88
g69
NtRp4628
(dp4629
g72
(dp4630
sg81
g4624
sg74
(lp4631
g67
(g68
g69
NtRp4632
(dp4633
g72
(dp4634
g80
I1
ssg81
g4628
sg74
(lp4635
g3830
(S't\t\x00\x00\x00Community'
tRp4636
asbasbasbag67
(g83
g69
NtRp4637
(dp4638
g72
(dp4639
sg81
g4620
sg74
(lp4640
g67
(g88
g69
NtRp4641
(dp4642
g72
(dp4643
sg81
g4637
sg74
(lp4644
g67
(g68
g69
NtRp4645
(dp4646
g72
(dp4647
g80
I1
ssg81
g4641
sg74
(lp4648
I00
asbasbasbag67
(g83
g69
NtRp4649
(dp4650
g72
(dp4651
sg81
g4620
sg74
(lp4652
g67
(g88
g69
NtRp4653
(dp4654
g72
(dp4655
sg81
g4649
sg74
(lp4656
g67
(g68
g69
NtRp4657
(dp4658
g72
(dp4659
g80
I1
ssg81
g4653
sg74
(lp4660
Nasbasbasbag67
(g83
g69
NtRp4661
(dp4662
g72
(dp4663
sg81
g4620
sg74
(lp4664
g67
(g88
g69
NtRp4665
(dp4666
g72
(dp4667
sg81
g4661
sg74
(lp4668
g67
(g68
g69
NtRp4669
(dp4670
g72
(dp4671
g80
I1
ssg81
g4665
sg74
(lp4672
(lp4673
(g3830
(S't\x06\x00\x00\x00Groups'
tRp4674
I00
S'http://www.web2py.com/examples/default/usergroups'
p4675
tp4676
a(g3830
(S't\x07\x00\x00\x00Twitter'
tRp4677
I00
S'http://twitter.com/web2py'
p4678
tp4679
a(g3830
(S's\t\x00\x00\x00Live chat'
tRp4680
I00
S'http://mibbit.com/?channel=%23web2py&server=irc.mibbit.net'
p4681
tp4682
a(g3830
(S's\n\x00\x00\x00User Voice'
tRp4683
I00
S'http://web2py.uservoice.com/'
p4684
tp4685
aasbasbasbasbasbasbasbag67
(g83
g69
NtRp4686
(dp4687
g72
(dp4688
sg81
g4495
sg74
(lp4689
g67
(g88
g69
NtRp4690
(dp4691
g72
(dp4692
sg81
g4686
sg74
(lp4693
g67
(g68
g69
NtRp4694
(dp4695
g72
(dp4696
g80
I2
ssg81
g4690
sg74
(lp4697
g67
(g76
g69
NtRp4698
(dp4699
g72
(dp4700
g80
I1
ssg81
Nsg74
(lp4701
g67
(g83
g69
NtRp4702
(dp4703
g72
(dp4704
sg81
g4698
sg74
(lp4705
g67
(g88
g69
NtRp4706
(dp4707
g72
(dp4708
sg81
g4702
sg74
(lp4709
g67
(g68
g69
NtRp4710
(dp4711
g72
(dp4712
g80
I1
ssg81
g4706
sg74
(lp4713
g3830
(S't\x06\x00\x00\x00Web2py'
tRp4714
asbasbasbag67
(g83
g69
NtRp4715
(dp4716
g72
(dp4717
sg81
g4698
sg74
(lp4718
g67
(g88
g69
NtRp4719
(dp4720
g72
(dp4721
sg81
g4715
sg74
(lp4722
g67
(g68
g69
NtRp4723
(dp4724
g72
(dp4725
g80
I1
ssg81
g4719
sg74
(lp4726
I00
asbasbasbag67
(g83
g69
NtRp4727
(dp4728
g72
(dp4729
sg81
g4698
sg74
(lp4730
g67
(g88
g69
NtRp4731
(dp4732
g72
(dp4733
sg81
g4727
sg74
(lp4734
g67
(g68
g69
NtRp4735
(dp4736
g72
(dp4737
g80
I1
ssg81
g4731
sg74
(lp4738
S'http://www.web2py.com'
p4739
asbasbasbag67
(g83
g69
NtRp4740
(dp4741
g72
(dp4742
sg81
g4698
sg74
(lp4743
g67
(g88
g69
NtRp4744
(dp4745
g72
(dp4746
sg81
g4740
sg74
(lp4747
g67
(g68
g69
NtRp4748
(dp4749
g72
(dp4750
g80
I1
ssg81
g4744
sg74
(lp4751
(lp4752
(g3830
(S't\x08\x00\x00\x00Download'
tRp4753
I00
S'http://www.web2py.com/examples/default/download'
p4754
tp4755
a(g3830
(S't\x07\x00\x00\x00Support'
tRp4756
I00
S'http://www.web2py.com/examples/default/support'
p4757
tp4758
a(g3830
(S's\x0e\x00\x00\x00Quick Examples'
tRp4759
I00
S'http://web2py.com/examples/default/examples'
p4760
tp4761
a(g3830
(S't\x03\x00\x00\x00FAQ'
tRp4762
I00
S'http://web2py.com/AlterEgo'
p4763
tp4764
a(g3830
(S's\x11\x00\x00\x00Free Applications'
tRp4765
I00
S'http://web2py.com/appliances'
p4766
tp4767
a(g3830
(S't\x07\x00\x00\x00Plugins'
tRp4768
I00
S'http://web2py.com/plugins'
p4769
tp4770
a(g3830
(S't\x07\x00\x00\x00Recipes'
tRp4771
I00
S'http://web2pyslices.com/'
p4772
tp4773
a(g3830
(S't\x04\x00\x00\x00Demo'
tRp4774
I00
S'http://web2py.com/demo_admin'
p4775
tp4776
a(g3830
(S't\x08\x00\x00\x00Semantic'
tRp4777
I00
S'http://web2py.com/semantic'
p4778
tp4779
a(g3830
(S't\x07\x00\x00\x00Layouts'
tRp4780
I00
S'http://web2py.com/layouts'
p4781
tp4782
a(g3830
(S't\x06\x00\x00\x00Videos'
tRp4783
I00
S'http://www.web2py.com/examples/default/videos/'
p4784
tp4785
aasbasbasbasbasbasbasbasbasbasbasbasbasbasbasbasbasbasbasbag67
(g83
g69
NtRp4786
(dp4787
g72
(dp4788
sg81
g3325
sg74
(lp4789
g67
(g88
g69
NtRp4790
(dp4791
g72
(dp4792
g92
g93
ssg81
g4786
sg74
(lp4793
S'meta'
p4794
asbag67
(g88
g69
NtRp4795
(dp4796
g72
(dp4797
g99
g100
ssg81
g4786
sg74
(lp4798
S':'
asbag67
(g88
g69
NtRp4799
(dp4800
g72
(dp4801
sg81
g4786
sg74
(lp4802
g67
(g68
g69
NtRp4803
(dp4804
g72
(dp4805
g80
I5
ssg81
g4799
sg74
(lp4806
g67
(g76
g69
NtRp4807
(dp4808
g72
(dp4809
g80
I4
ssg81
Nsg74
(lp4810
g67
(g83
g69
NtRp4811
(dp4812
g72
(dp4813
sg81
g4807
sg74
(lp4814
g67
(g88
g69
NtRp4815
(dp4816
g72
(dp4817
g92
g93
ssg81
g4811
sg74
(lp4818
S'author'
p4819
asbag67
(g88
g69
NtRp4820
(dp4821
g72
(dp4822
g99
g100
ssg81
g4811
sg74
(lp4823
S':'
asbag67
(g88
g69
NtRp4824
(dp4825
g72
(dp4826
sg81
g4811
sg74
(lp4827
g67
(g68
g69
NtRp4828
(dp4829
g72
(dp4830
g80
I4
ssg81
g4824
sg74
(lp4831
S'Your Name <you@example.com>'
p4832
asbasbasbag67
(g83
g69
NtRp4833
(dp4834
g72
(dp4835
sg81
g4807
sg74
(lp4836
g67
(g88
g69
NtRp4837
(dp4838
g72
(dp4839
g92
g93
ssg81
g4833
sg74
(lp4840
S'copyright'
p4841
asbag67
(g88
g69
NtRp4842
(dp4843
g72
(dp4844
g99
g100
ssg81
g4833
sg74
(lp4845
S':'
asbag67
(g88
g69
NtRp4846
(dp4847
g72
(dp4848
sg81
g4833
sg74
(lp4849
g67
(g68
g69
NtRp4850
(dp4851
g72
(dp4852
g80
I4
ssg81
g4846
sg74
(lp4853
S'Copyright 2011'
p4854
asbasbasbag67
(g83
g69
NtRp4855
(dp4856
g72
(dp4857
sg81
g4807
sg74
(lp4858
g67
(g88
g69
NtRp4859
(dp4860
g72
(dp4861
g92
g93
ssg81
g4855
sg74
(lp4862
S'description'
p4863
asbag67
(g88
g69
NtRp4864
(dp4865
g72
(dp4866
g99
g100
ssg81
g4855
sg74
(lp4867
S':'
asbag67
(g88
g69
NtRp4868
(dp4869
g72
(dp4870
sg81
g4855
sg74
(lp4871
g67
(g68
g69
NtRp4872
(dp4873
g72
(dp4874
g80
I4
ssg81
g4868
sg74
(lp4875
S'a cool new app'
p4876
asbasbasbag67
(g83
g69
NtRp4877
(dp4878
g72
(dp4879
sg81
g4807
sg74
(lp4880
g67
(g88
g69
NtRp4881
(dp4882
g72
(dp4883
g92
g93
ssg81
g4877
sg74
(lp4884
S'generator'
p4885
asbag67
(g88
g69
NtRp4886
(dp4887
g72
(dp4888
g99
g100
ssg81
g4877
sg74
(lp4889
S':'
asbag67
(g88
g69
NtRp4890
(dp4891
g72
(dp4892
sg81
g4877
sg74
(lp4893
g67
(g68
g69
NtRp4894
(dp4895
g72
(dp4896
g80
I4
ssg81
g4890
sg74
(lp4897
S'Web2py Web Framework'
p4898
asbasbasbag67
(g83
g69
NtRp4899
(dp4900
g72
(dp4901
sg81
g4807
sg74
(lp4902
g67
(g88
g69
NtRp4903
(dp4904
g72
(dp4905
g92
g93
ssg81
g4899
sg74
(lp4906
S'keywords'
p4907
asbag67
(g88
g69
NtRp4908
(dp4909
g72
(dp4910
g99
g100
ssg81
g4899
sg74
(lp4911
S':'
asbag67
(g88
g69
NtRp4912
(dp4913
g72
(dp4914
sg81
g4899
sg74
(lp4915
g67
(g68
g69
NtRp4916
(dp4917
g72
(dp4918
g80
I4
ssg81
g4912
sg74
(lp4919
S'web2py, python, framework'
p4920
asbasbasbasbasbasbasbag67
(g83
g69
NtRp4921
(dp4922
g72
(dp4923
sg81
g3325
sg74
(lp4924
g67
(g88
g69
NtRp4925
(dp4926
g72
(dp4927
g92
g93
ssg81
g4921
sg74
(lp4928
S'postprocessing'
p4929
asbag67
(g88
g69
NtRp4930
(dp4931
g72
(dp4932
g99
g100
ssg81
g4921
sg74
(lp4933
S':'
asbag67
(g88
g69
NtRp4934
(dp4935
g72
(dp4936
sg81
g4921
sg74
(lp4937
g67
(g68
g69
NtRp4938
(dp4939
g72
(dp4940
g80
I5
ssg81
g4934
sg74
(lp4941
g67
(g76
g69
NtRp4942
(dp4943
g72
(dp4944
g80
I4
ssg81
Nsg74
(lp4945
sbasbasbasbag67
(g83
g69
NtRp4946
(dp4947
g72
(dp4948
sg81
g3325
sg74
(lp4949
g67
(g88
g69
NtRp4950
(dp4951
g72
(dp4952
g92
g93
ssg81
g4946
sg74
(lp4953
S'session_file'
p4954
asbag67
(g88
g69
NtRp4955
(dp4956
g72
(dp4957
g99
g100
ssg81
g4946
sg74
(lp4958
S':'
asbag67
(g88
g69
NtRp4959
(dp4960
g72
(dp4961
sg81
g4946
sg74
(lp4962
g67
(g68
g69
NtRp4963
(dp4964
g72
(dp4965
g80
I5
ssg81
g4959
sg74
(lp4966
S"<open file '/home/ian/web2py/applications/places/sessions/127.0.0.1-9bd70a00-d029-4b6e-8bcc-a423c3a61399', mode 'rb+' at 0x407c780>"
p4967
asbasbasbag67
(g83
g69
NtRp4968
(dp4969
g72
(dp4970
sg81
g3325
sg74
(lp4971
g67
(g88
g69
NtRp4972
(dp4973
g72
(dp4974
g92
g93
ssg81
g4968
sg74
(lp4975
S'session_filename'
p4976
asbag67
(g88
g69
NtRp4977
(dp4978
g72
(dp4979
g99
g100
ssg81
g4968
sg74
(lp4980
S':'
asbag67
(g88
g69
NtRp4981
(dp4982
g72
(dp4983
sg81
g4968
sg74
(lp4984
g67
(g68
g69
NtRp4985
(dp4986
g72
(dp4987
g80
I5
ssg81
g4981
sg74
(lp4988
S'/home/ian/web2py/applications/places/sessions/127.0.0.1-9bd70a00-d029-4b6e-8bcc-a423c3a61399'
p4989
asbasbasbag67
(g83
g69
NtRp4990
(dp4991
g72
(dp4992
sg81
g3325
sg74
(lp4993
g67
(g88
g69
NtRp4994
(dp4995
g72
(dp4996
g92
g93
ssg81
g4990
sg74
(lp4997
S'session_id'
p4998
asbag67
(g88
g69
NtRp4999
(dp5000
g72
(dp5001
g99
g100
ssg81
g4990
sg74
(lp5002
S':'
asbag67
(g88
g69
NtRp5003
(dp5004
g72
(dp5005
sg81
g4990
sg74
(lp5006
g67
(g68
g69
NtRp5007
(dp5008
g72
(dp5009
g80
I5
ssg81
g5003
sg74
(lp5010
S'127.0.0.1-9bd70a00-d029-4b6e-8bcc-a423c3a61399'
p5011
asbasbasbag67
(g83
g69
NtRp5012
(dp5013
g72
(dp5014
sg81
g3325
sg74
(lp5015
g67
(g88
g69
NtRp5016
(dp5017
g72
(dp5018
g92
g93
ssg81
g5012
sg74
(lp5019
S'session_id_name'
p5020
asbag67
(g88
g69
NtRp5021
(dp5022
g72
(dp5023
g99
g100
ssg81
g5012
sg74
(lp5024
S':'
asbag67
(g88
g69
NtRp5025
(dp5026
g72
(dp5027
sg81
g5012
sg74
(lp5028
g67
(g68
g69
NtRp5029
(dp5030
g72
(dp5031
g80
I5
ssg81
g5025
sg74
(lp5032
g3382
asbasbasbag67
(g83
g69
NtRp5033
(dp5034
g72
(dp5035
sg81
g3325
sg74
(lp5036
g67
(g88
g69
NtRp5037
(dp5038
g72
(dp5039
g92
g93
ssg81
g5033
sg74
(lp5040
S'session_locked'
p5041
asbag67
(g88
g69
NtRp5042
(dp5043
g72
(dp5044
g99
g100
ssg81
g5033
sg74
(lp5045
S':'
asbag67
(g88
g69
NtRp5046
(dp5047
g72
(dp5048
sg81
g5033
sg74
(lp5049
g67
(g68
g69
NtRp5050
(dp5051
g72
(dp5052
g80
I5
ssg81
g5046
sg74
(lp5053
g110
asbasbasbag67
(g83
g69
NtRp5054
(dp5055
g72
(dp5056
sg81
g3325
sg74
(lp5057
g67
(g88
g69
NtRp5058
(dp5059
g72
(dp5060
g92
g93
ssg81
g5054
sg74
(lp5061
S'session_new'
p5062
asbag67
(g88
g69
NtRp5063
(dp5064
g72
(dp5065
g99
g100
ssg81
g5054
sg74
(lp5066
S':'
asbag67
(g88
g69
NtRp5067
(dp5068
g72
(dp5069
sg81
g5054
sg74
(lp5070
g67
(g68
g69
NtRp5071
(dp5072
g72
(dp5073
g80
I5
ssg81
g5067
sg74
(lp5074
g992
asbasbasbag67
(g83
g69
NtRp5075
(dp5076
g72
(dp5077
sg81
g3325
sg74
(lp5078
g67
(g88
g69
NtRp5079
(dp5080
g72
(dp5081
g92
g93
ssg81
g5075
sg74
(lp5082
S'status'
p5083
asbag67
(g88
g69
NtRp5084
(dp5085
g72
(dp5086
g99
g100
ssg81
g5075
sg74
(lp5087
S':'
asbag67
(g88
g69
NtRp5088
(dp5089
g72
(dp5090
sg81
g5075
sg74
(lp5091
g67
(g68
g69
NtRp5092
(dp5093
g72
(dp5094
g80
I5
ssg81
g5088
sg74
(lp5095
S'200'
p5096
asbasbasbag67
(g83
g69
NtRp5097
(dp5098
g72
(dp5099
sg81
g3325
sg74
(lp5100
g67
(g88
g69
NtRp5101
(dp5102
g72
(dp5103
g92
g93
ssg81
g5097
sg74
(lp5104
S'subtitle'
p5105
asbag67
(g88
g69
NtRp5106
(dp5107
g72
(dp5108
g99
g100
ssg81
g5097
sg74
(lp5109
S':'
asbag67
(g88
g69
NtRp5110
(dp5111
g72
(dp5112
sg81
g5097
sg74
(lp5113
g67
(g68
g69
NtRp5114
(dp5115
g72
(dp5116
g80
I5
ssg81
g5110
sg74
(lp5117
g3830
(S's\r\x00\x00\x00customize me!'
tRp5118
asbasbasbag67
(g83
g69
NtRp5119
(dp5120
g72
(dp5121
sg81
g3325
sg74
(lp5122
g67
(g88
g69
NtRp5123
(dp5124
g72
(dp5125
g92
g93
ssg81
g5119
sg74
(lp5126
S'title'
p5127
asbag67
(g88
g69
NtRp5128
(dp5129
g72
(dp5130
g99
g100
ssg81
g5119
sg74
(lp5131
S':'
asbag67
(g88
g69
NtRp5132
(dp5133
g72
(dp5134
sg81
g5119
sg74
(lp5135
g67
(g68
g69
NtRp5136
(dp5137
g72
(dp5138
g80
I5
ssg81
g5132
sg74
(lp5139
g132
asbasbasbag67
(g83
g69
NtRp5140
(dp5141
g72
(dp5142
sg81
g3325
sg74
(lp5143
g67
(g88
g69
NtRp5144
(dp5145
g72
(dp5146
g92
g93
ssg81
g5140
sg74
(lp5147
g2442
asbag67
(g88
g69
NtRp5148
(dp5149
g72
(dp5150
g99
g100
ssg81
g5140
sg74
(lp5151
S':'
asbag67
(g88
g69
NtRp5152
(dp5153
g72
(dp5154
sg81
g5140
sg74
(lp5155
g67
(g68
g69
NtRp5156
(dp5157
g72
(dp5158
g80
I5
ssg81
g5152
sg74
(lp5159
g2455
asbasbasbag67
(g83
g69
NtRp5160
(dp5161
g72
(dp5162
sg81
g3325
sg74
(lp5163
g67
(g88
g69
NtRp5164
(dp5165
g72
(dp5166
g92
g93
ssg81
g5160
sg74
(lp5167
S'view'
p5168
asbag67
(g88
g69
NtRp5169
(dp5170
g72
(dp5171
g99
g100
ssg81
g5160
sg74
(lp5172
S':'
asbag67
(g88
g69
NtRp5173
(dp5174
g72
(dp5175
sg81
g5160
sg74
(lp5176
g67
(g68
g69
NtRp5177
(dp5178
g72
(dp5179
g80
I5
ssg81
g5173
sg74
(lp5180
S'default/index.load'
p5181
asbasbasbasbasbsS'locals'
p5182
(dp5183
g3
S"'/home/ian/web2py/applications/places/views/default/index.load'"
p5184
sg5
S'"for link in links:\\n    response.write(\'\\\\n\', esca...esponse._vars)\\nresponse.write(\'\\\\n\', escape=False)"'
p5185
sssS'traceback'
p5186
S'Traceback (most recent call last):\n  File "/home/ian/web2py/gluon/restricted.py", line 193, in restricted\n    ccode = compile2(code,layer)\n  File "/home/ian/web2py/gluon/restricted.py", line 179, in compile2\n    return compile(code.rstrip().replace(\'\\r\\n\',\'\\n\')+\'\\n\', layer, \'exec\')\n  File "/home/ian/web2py/applications/places/views/default/index.load", line 4\n    response.write(\'\\n\', escape=False)\n           ^\nSyntaxError: invalid syntax\n'
p5187
s.